
new_netconnClient.elf:     file format elf32-littlearm

Sections:
Idx Name          Size      VMA       LMA       File off  Algn
  0 .isr_vector   000001ac  08000000  08000000  00010000  2**0
                  CONTENTS, ALLOC, LOAD, READONLY, DATA
  1 .text         0000d25c  080001b0  080001b0  000101b0  2**4
                  CONTENTS, ALLOC, LOAD, READONLY, CODE
  2 .rodata       00002700  0800d40c  0800d40c  0001d40c  2**2
                  CONTENTS, ALLOC, LOAD, READONLY, DATA
  3 .ARM.extab    00000000  0800fb0c  0800fb0c  00020080  2**0
                  CONTENTS
  4 .ARM          00000008  0800fb0c  0800fb0c  0001fb0c  2**2
                  CONTENTS, ALLOC, LOAD, READONLY, DATA
  5 .preinit_array 00000000  0800fb14  0800fb14  00020080  2**0
                  CONTENTS, ALLOC, LOAD, DATA
  6 .init_array   00000004  0800fb14  0800fb14  0001fb14  2**2
                  CONTENTS, ALLOC, LOAD, DATA
  7 .fini_array   00000004  0800fb18  0800fb18  0001fb18  2**2
                  CONTENTS, ALLOC, LOAD, DATA
  8 .data         00000080  20000000  0800fb1c  00020000  2**2
                  CONTENTS, ALLOC, LOAD, DATA
  9 .bss          0000b4e4  20000080  0800fb9c  00020080  2**2
                  ALLOC
 10 ._user_heap_stack 00000604  2000b564  0800fb9c  0002b564  2**0
                  ALLOC
 11 .ARM.attributes 00000030  00000000  00000000  00020080  2**0
                  CONTENTS, READONLY
 12 .comment      0000007b  00000000  00000000  000200b0  2**0
                  CONTENTS, READONLY
 13 .debug_frame  000008ac  00000000  00000000  0002012c  2**2
                  CONTENTS, READONLY, DEBUGGING

Disassembly of section .text:

080001b0 <__do_global_dtors_aux>:
 80001b0:	b510      	push	{r4, lr}
 80001b2:	4c05      	ldr	r4, [pc, #20]	; (80001c8 <__do_global_dtors_aux+0x18>)
 80001b4:	7823      	ldrb	r3, [r4, #0]
 80001b6:	b933      	cbnz	r3, 80001c6 <__do_global_dtors_aux+0x16>
 80001b8:	4b04      	ldr	r3, [pc, #16]	; (80001cc <__do_global_dtors_aux+0x1c>)
 80001ba:	b113      	cbz	r3, 80001c2 <__do_global_dtors_aux+0x12>
 80001bc:	4804      	ldr	r0, [pc, #16]	; (80001d0 <__do_global_dtors_aux+0x20>)
 80001be:	f3af 8000 	nop.w
 80001c2:	2301      	movs	r3, #1
 80001c4:	7023      	strb	r3, [r4, #0]
 80001c6:	bd10      	pop	{r4, pc}
 80001c8:	20000080 	.word	0x20000080
 80001cc:	00000000 	.word	0x00000000
 80001d0:	0800d3f4 	.word	0x0800d3f4

080001d4 <frame_dummy>:
 80001d4:	b508      	push	{r3, lr}
 80001d6:	4b03      	ldr	r3, [pc, #12]	; (80001e4 <frame_dummy+0x10>)
 80001d8:	b11b      	cbz	r3, 80001e2 <frame_dummy+0xe>
 80001da:	4903      	ldr	r1, [pc, #12]	; (80001e8 <frame_dummy+0x14>)
 80001dc:	4803      	ldr	r0, [pc, #12]	; (80001ec <frame_dummy+0x18>)
 80001de:	f3af 8000 	nop.w
 80001e2:	bd08      	pop	{r3, pc}
 80001e4:	00000000 	.word	0x00000000
 80001e8:	20000084 	.word	0x20000084
 80001ec:	0800d3f4 	.word	0x0800d3f4

080001f0 <strcmp>:
 80001f0:	f810 2b01 	ldrb.w	r2, [r0], #1
 80001f4:	f811 3b01 	ldrb.w	r3, [r1], #1
 80001f8:	2a01      	cmp	r2, #1
 80001fa:	bf28      	it	cs
 80001fc:	429a      	cmpcs	r2, r3
 80001fe:	d0f7      	beq.n	80001f0 <strcmp>
 8000200:	1ad0      	subs	r0, r2, r3
 8000202:	4770      	bx	lr
	...

08000210 <memchr>:
 8000210:	f001 01ff 	and.w	r1, r1, #255	; 0xff
 8000214:	2a10      	cmp	r2, #16
 8000216:	db2b      	blt.n	8000270 <memchr+0x60>
 8000218:	f010 0f07 	tst.w	r0, #7
 800021c:	d008      	beq.n	8000230 <memchr+0x20>
 800021e:	f810 3b01 	ldrb.w	r3, [r0], #1
 8000222:	3a01      	subs	r2, #1
 8000224:	428b      	cmp	r3, r1
 8000226:	d02d      	beq.n	8000284 <memchr+0x74>
 8000228:	f010 0f07 	tst.w	r0, #7
 800022c:	b342      	cbz	r2, 8000280 <memchr+0x70>
 800022e:	d1f6      	bne.n	800021e <memchr+0xe>
 8000230:	b4f0      	push	{r4, r5, r6, r7}
 8000232:	ea41 2101 	orr.w	r1, r1, r1, lsl #8
 8000236:	ea41 4101 	orr.w	r1, r1, r1, lsl #16
 800023a:	f022 0407 	bic.w	r4, r2, #7
 800023e:	f07f 0700 	mvns.w	r7, #0
 8000242:	2300      	movs	r3, #0
 8000244:	e8f0 5602 	ldrd	r5, r6, [r0], #8
 8000248:	3c08      	subs	r4, #8
 800024a:	ea85 0501 	eor.w	r5, r5, r1
 800024e:	ea86 0601 	eor.w	r6, r6, r1
 8000252:	fa85 f547 	uadd8	r5, r5, r7
 8000256:	faa3 f587 	sel	r5, r3, r7
 800025a:	fa86 f647 	uadd8	r6, r6, r7
 800025e:	faa5 f687 	sel	r6, r5, r7
 8000262:	b98e      	cbnz	r6, 8000288 <memchr+0x78>
 8000264:	d1ee      	bne.n	8000244 <memchr+0x34>
 8000266:	bcf0      	pop	{r4, r5, r6, r7}
 8000268:	f001 01ff 	and.w	r1, r1, #255	; 0xff
 800026c:	f002 0207 	and.w	r2, r2, #7
 8000270:	b132      	cbz	r2, 8000280 <memchr+0x70>
 8000272:	f810 3b01 	ldrb.w	r3, [r0], #1
 8000276:	3a01      	subs	r2, #1
 8000278:	ea83 0301 	eor.w	r3, r3, r1
 800027c:	b113      	cbz	r3, 8000284 <memchr+0x74>
 800027e:	d1f8      	bne.n	8000272 <memchr+0x62>
 8000280:	2000      	movs	r0, #0
 8000282:	4770      	bx	lr
 8000284:	3801      	subs	r0, #1
 8000286:	4770      	bx	lr
 8000288:	2d00      	cmp	r5, #0
 800028a:	bf06      	itte	eq
 800028c:	4635      	moveq	r5, r6
 800028e:	3803      	subeq	r0, #3
 8000290:	3807      	subne	r0, #7
 8000292:	f015 0f01 	tst.w	r5, #1
 8000296:	d107      	bne.n	80002a8 <memchr+0x98>
 8000298:	3001      	adds	r0, #1
 800029a:	f415 7f80 	tst.w	r5, #256	; 0x100
 800029e:	bf02      	ittt	eq
 80002a0:	3001      	addeq	r0, #1
 80002a2:	f415 3fc0 	tsteq.w	r5, #98304	; 0x18000
 80002a6:	3001      	addeq	r0, #1
 80002a8:	bcf0      	pop	{r4, r5, r6, r7}
 80002aa:	3801      	subs	r0, #1
 80002ac:	4770      	bx	lr
 80002ae:	bf00      	nop

080002b0 <__aeabi_uldivmod>:
 80002b0:	b953      	cbnz	r3, 80002c8 <__aeabi_uldivmod+0x18>
 80002b2:	b94a      	cbnz	r2, 80002c8 <__aeabi_uldivmod+0x18>
 80002b4:	2900      	cmp	r1, #0
 80002b6:	bf08      	it	eq
 80002b8:	2800      	cmpeq	r0, #0
 80002ba:	bf1c      	itt	ne
 80002bc:	f04f 31ff 	movne.w	r1, #4294967295
 80002c0:	f04f 30ff 	movne.w	r0, #4294967295
 80002c4:	f000 b972 	b.w	80005ac <__aeabi_idiv0>
 80002c8:	f1ad 0c08 	sub.w	ip, sp, #8
 80002cc:	e96d ce04 	strd	ip, lr, [sp, #-16]!
 80002d0:	f000 f806 	bl	80002e0 <__udivmoddi4>
 80002d4:	f8dd e004 	ldr.w	lr, [sp, #4]
 80002d8:	e9dd 2302 	ldrd	r2, r3, [sp, #8]
 80002dc:	b004      	add	sp, #16
 80002de:	4770      	bx	lr

080002e0 <__udivmoddi4>:
 80002e0:	e92d 47f0 	stmdb	sp!, {r4, r5, r6, r7, r8, r9, sl, lr}
 80002e4:	9e08      	ldr	r6, [sp, #32]
 80002e6:	4604      	mov	r4, r0
 80002e8:	4688      	mov	r8, r1
 80002ea:	2b00      	cmp	r3, #0
 80002ec:	d14b      	bne.n	8000386 <__udivmoddi4+0xa6>
 80002ee:	428a      	cmp	r2, r1
 80002f0:	4615      	mov	r5, r2
 80002f2:	d967      	bls.n	80003c4 <__udivmoddi4+0xe4>
 80002f4:	fab2 f282 	clz	r2, r2
 80002f8:	b14a      	cbz	r2, 800030e <__udivmoddi4+0x2e>
 80002fa:	f1c2 0720 	rsb	r7, r2, #32
 80002fe:	fa01 f302 	lsl.w	r3, r1, r2
 8000302:	fa20 f707 	lsr.w	r7, r0, r7
 8000306:	4095      	lsls	r5, r2
 8000308:	ea47 0803 	orr.w	r8, r7, r3
 800030c:	4094      	lsls	r4, r2
 800030e:	ea4f 4e15 	mov.w	lr, r5, lsr #16
 8000312:	0c23      	lsrs	r3, r4, #16
 8000314:	fbb8 f7fe 	udiv	r7, r8, lr
 8000318:	fa1f fc85 	uxth.w	ip, r5
 800031c:	fb0e 8817 	mls	r8, lr, r7, r8
 8000320:	ea43 4308 	orr.w	r3, r3, r8, lsl #16
 8000324:	fb07 f10c 	mul.w	r1, r7, ip
 8000328:	4299      	cmp	r1, r3
 800032a:	d909      	bls.n	8000340 <__udivmoddi4+0x60>
 800032c:	18eb      	adds	r3, r5, r3
 800032e:	f107 30ff 	add.w	r0, r7, #4294967295
 8000332:	f080 811b 	bcs.w	800056c <__udivmoddi4+0x28c>
 8000336:	4299      	cmp	r1, r3
 8000338:	f240 8118 	bls.w	800056c <__udivmoddi4+0x28c>
 800033c:	3f02      	subs	r7, #2
 800033e:	442b      	add	r3, r5
 8000340:	1a5b      	subs	r3, r3, r1
 8000342:	b2a4      	uxth	r4, r4
 8000344:	fbb3 f0fe 	udiv	r0, r3, lr
 8000348:	fb0e 3310 	mls	r3, lr, r0, r3
 800034c:	ea44 4403 	orr.w	r4, r4, r3, lsl #16
 8000350:	fb00 fc0c 	mul.w	ip, r0, ip
 8000354:	45a4      	cmp	ip, r4
 8000356:	d909      	bls.n	800036c <__udivmoddi4+0x8c>
 8000358:	192c      	adds	r4, r5, r4
 800035a:	f100 33ff 	add.w	r3, r0, #4294967295
 800035e:	f080 8107 	bcs.w	8000570 <__udivmoddi4+0x290>
 8000362:	45a4      	cmp	ip, r4
 8000364:	f240 8104 	bls.w	8000570 <__udivmoddi4+0x290>
 8000368:	3802      	subs	r0, #2
 800036a:	442c      	add	r4, r5
 800036c:	ea40 4007 	orr.w	r0, r0, r7, lsl #16
 8000370:	eba4 040c 	sub.w	r4, r4, ip
 8000374:	2700      	movs	r7, #0
 8000376:	b11e      	cbz	r6, 8000380 <__udivmoddi4+0xa0>
 8000378:	40d4      	lsrs	r4, r2
 800037a:	2300      	movs	r3, #0
 800037c:	e9c6 4300 	strd	r4, r3, [r6]
 8000380:	4639      	mov	r1, r7
 8000382:	e8bd 87f0 	ldmia.w	sp!, {r4, r5, r6, r7, r8, r9, sl, pc}
 8000386:	428b      	cmp	r3, r1
 8000388:	d909      	bls.n	800039e <__udivmoddi4+0xbe>
 800038a:	2e00      	cmp	r6, #0
 800038c:	f000 80eb 	beq.w	8000566 <__udivmoddi4+0x286>
 8000390:	2700      	movs	r7, #0
 8000392:	e9c6 0100 	strd	r0, r1, [r6]
 8000396:	4638      	mov	r0, r7
 8000398:	4639      	mov	r1, r7
 800039a:	e8bd 87f0 	ldmia.w	sp!, {r4, r5, r6, r7, r8, r9, sl, pc}
 800039e:	fab3 f783 	clz	r7, r3
 80003a2:	2f00      	cmp	r7, #0
 80003a4:	d147      	bne.n	8000436 <__udivmoddi4+0x156>
 80003a6:	428b      	cmp	r3, r1
 80003a8:	d302      	bcc.n	80003b0 <__udivmoddi4+0xd0>
 80003aa:	4282      	cmp	r2, r0
 80003ac:	f200 80fa 	bhi.w	80005a4 <__udivmoddi4+0x2c4>
 80003b0:	1a84      	subs	r4, r0, r2
 80003b2:	eb61 0303 	sbc.w	r3, r1, r3
 80003b6:	2001      	movs	r0, #1
 80003b8:	4698      	mov	r8, r3
 80003ba:	2e00      	cmp	r6, #0
 80003bc:	d0e0      	beq.n	8000380 <__udivmoddi4+0xa0>
 80003be:	e9c6 4800 	strd	r4, r8, [r6]
 80003c2:	e7dd      	b.n	8000380 <__udivmoddi4+0xa0>
 80003c4:	b902      	cbnz	r2, 80003c8 <__udivmoddi4+0xe8>
 80003c6:	deff      	udf	#255	; 0xff
 80003c8:	fab2 f282 	clz	r2, r2
 80003cc:	2a00      	cmp	r2, #0
 80003ce:	f040 808f 	bne.w	80004f0 <__udivmoddi4+0x210>
 80003d2:	1b49      	subs	r1, r1, r5
 80003d4:	ea4f 4e15 	mov.w	lr, r5, lsr #16
 80003d8:	fa1f f885 	uxth.w	r8, r5
 80003dc:	2701      	movs	r7, #1
 80003de:	fbb1 fcfe 	udiv	ip, r1, lr
 80003e2:	0c23      	lsrs	r3, r4, #16
 80003e4:	fb0e 111c 	mls	r1, lr, ip, r1
 80003e8:	ea43 4301 	orr.w	r3, r3, r1, lsl #16
 80003ec:	fb08 f10c 	mul.w	r1, r8, ip
 80003f0:	4299      	cmp	r1, r3
 80003f2:	d907      	bls.n	8000404 <__udivmoddi4+0x124>
 80003f4:	18eb      	adds	r3, r5, r3
 80003f6:	f10c 30ff 	add.w	r0, ip, #4294967295
 80003fa:	d202      	bcs.n	8000402 <__udivmoddi4+0x122>
 80003fc:	4299      	cmp	r1, r3
 80003fe:	f200 80cd 	bhi.w	800059c <__udivmoddi4+0x2bc>
 8000402:	4684      	mov	ip, r0
 8000404:	1a59      	subs	r1, r3, r1
 8000406:	b2a3      	uxth	r3, r4
 8000408:	fbb1 f0fe 	udiv	r0, r1, lr
 800040c:	fb0e 1410 	mls	r4, lr, r0, r1
 8000410:	ea43 4404 	orr.w	r4, r3, r4, lsl #16
 8000414:	fb08 f800 	mul.w	r8, r8, r0
 8000418:	45a0      	cmp	r8, r4
 800041a:	d907      	bls.n	800042c <__udivmoddi4+0x14c>
 800041c:	192c      	adds	r4, r5, r4
 800041e:	f100 33ff 	add.w	r3, r0, #4294967295
 8000422:	d202      	bcs.n	800042a <__udivmoddi4+0x14a>
 8000424:	45a0      	cmp	r8, r4
 8000426:	f200 80b6 	bhi.w	8000596 <__udivmoddi4+0x2b6>
 800042a:	4618      	mov	r0, r3
 800042c:	eba4 0408 	sub.w	r4, r4, r8
 8000430:	ea40 400c 	orr.w	r0, r0, ip, lsl #16
 8000434:	e79f      	b.n	8000376 <__udivmoddi4+0x96>
 8000436:	f1c7 0c20 	rsb	ip, r7, #32
 800043a:	40bb      	lsls	r3, r7
 800043c:	fa22 fe0c 	lsr.w	lr, r2, ip
 8000440:	ea4e 0e03 	orr.w	lr, lr, r3
 8000444:	fa01 f407 	lsl.w	r4, r1, r7
 8000448:	fa20 f50c 	lsr.w	r5, r0, ip
 800044c:	fa21 f30c 	lsr.w	r3, r1, ip
 8000450:	ea4f 481e 	mov.w	r8, lr, lsr #16
 8000454:	4325      	orrs	r5, r4
 8000456:	fbb3 f9f8 	udiv	r9, r3, r8
 800045a:	0c2c      	lsrs	r4, r5, #16
 800045c:	fb08 3319 	mls	r3, r8, r9, r3
 8000460:	fa1f fa8e 	uxth.w	sl, lr
 8000464:	ea44 4303 	orr.w	r3, r4, r3, lsl #16
 8000468:	fb09 f40a 	mul.w	r4, r9, sl
 800046c:	429c      	cmp	r4, r3
 800046e:	fa02 f207 	lsl.w	r2, r2, r7
 8000472:	fa00 f107 	lsl.w	r1, r0, r7
 8000476:	d90b      	bls.n	8000490 <__udivmoddi4+0x1b0>
 8000478:	eb1e 0303 	adds.w	r3, lr, r3
 800047c:	f109 30ff 	add.w	r0, r9, #4294967295
 8000480:	f080 8087 	bcs.w	8000592 <__udivmoddi4+0x2b2>
 8000484:	429c      	cmp	r4, r3
 8000486:	f240 8084 	bls.w	8000592 <__udivmoddi4+0x2b2>
 800048a:	f1a9 0902 	sub.w	r9, r9, #2
 800048e:	4473      	add	r3, lr
 8000490:	1b1b      	subs	r3, r3, r4
 8000492:	b2ad      	uxth	r5, r5
 8000494:	fbb3 f0f8 	udiv	r0, r3, r8
 8000498:	fb08 3310 	mls	r3, r8, r0, r3
 800049c:	ea45 4403 	orr.w	r4, r5, r3, lsl #16
 80004a0:	fb00 fa0a 	mul.w	sl, r0, sl
 80004a4:	45a2      	cmp	sl, r4
 80004a6:	d908      	bls.n	80004ba <__udivmoddi4+0x1da>
 80004a8:	eb1e 0404 	adds.w	r4, lr, r4
 80004ac:	f100 33ff 	add.w	r3, r0, #4294967295
 80004b0:	d26b      	bcs.n	800058a <__udivmoddi4+0x2aa>
 80004b2:	45a2      	cmp	sl, r4
 80004b4:	d969      	bls.n	800058a <__udivmoddi4+0x2aa>
 80004b6:	3802      	subs	r0, #2
 80004b8:	4474      	add	r4, lr
 80004ba:	ea40 4009 	orr.w	r0, r0, r9, lsl #16
 80004be:	fba0 8902 	umull	r8, r9, r0, r2
 80004c2:	eba4 040a 	sub.w	r4, r4, sl
 80004c6:	454c      	cmp	r4, r9
 80004c8:	46c2      	mov	sl, r8
 80004ca:	464b      	mov	r3, r9
 80004cc:	d354      	bcc.n	8000578 <__udivmoddi4+0x298>
 80004ce:	d051      	beq.n	8000574 <__udivmoddi4+0x294>
 80004d0:	2e00      	cmp	r6, #0
 80004d2:	d069      	beq.n	80005a8 <__udivmoddi4+0x2c8>
 80004d4:	ebb1 050a 	subs.w	r5, r1, sl
 80004d8:	eb64 0403 	sbc.w	r4, r4, r3
 80004dc:	fa04 fc0c 	lsl.w	ip, r4, ip
 80004e0:	40fd      	lsrs	r5, r7
 80004e2:	40fc      	lsrs	r4, r7
 80004e4:	ea4c 0505 	orr.w	r5, ip, r5
 80004e8:	e9c6 5400 	strd	r5, r4, [r6]
 80004ec:	2700      	movs	r7, #0
 80004ee:	e747      	b.n	8000380 <__udivmoddi4+0xa0>
 80004f0:	f1c2 0320 	rsb	r3, r2, #32
 80004f4:	fa20 f703 	lsr.w	r7, r0, r3
 80004f8:	4095      	lsls	r5, r2
 80004fa:	fa01 f002 	lsl.w	r0, r1, r2
 80004fe:	fa21 f303 	lsr.w	r3, r1, r3
 8000502:	ea4f 4e15 	mov.w	lr, r5, lsr #16
 8000506:	4338      	orrs	r0, r7
 8000508:	0c01      	lsrs	r1, r0, #16
 800050a:	fbb3 f7fe 	udiv	r7, r3, lr
 800050e:	fa1f f885 	uxth.w	r8, r5
 8000512:	fb0e 3317 	mls	r3, lr, r7, r3
 8000516:	ea41 4103 	orr.w	r1, r1, r3, lsl #16
 800051a:	fb07 f308 	mul.w	r3, r7, r8
 800051e:	428b      	cmp	r3, r1
 8000520:	fa04 f402 	lsl.w	r4, r4, r2
 8000524:	d907      	bls.n	8000536 <__udivmoddi4+0x256>
 8000526:	1869      	adds	r1, r5, r1
 8000528:	f107 3cff 	add.w	ip, r7, #4294967295
 800052c:	d22f      	bcs.n	800058e <__udivmoddi4+0x2ae>
 800052e:	428b      	cmp	r3, r1
 8000530:	d92d      	bls.n	800058e <__udivmoddi4+0x2ae>
 8000532:	3f02      	subs	r7, #2
 8000534:	4429      	add	r1, r5
 8000536:	1acb      	subs	r3, r1, r3
 8000538:	b281      	uxth	r1, r0
 800053a:	fbb3 f0fe 	udiv	r0, r3, lr
 800053e:	fb0e 3310 	mls	r3, lr, r0, r3
 8000542:	ea41 4103 	orr.w	r1, r1, r3, lsl #16
 8000546:	fb00 f308 	mul.w	r3, r0, r8
 800054a:	428b      	cmp	r3, r1
 800054c:	d907      	bls.n	800055e <__udivmoddi4+0x27e>
 800054e:	1869      	adds	r1, r5, r1
 8000550:	f100 3cff 	add.w	ip, r0, #4294967295
 8000554:	d217      	bcs.n	8000586 <__udivmoddi4+0x2a6>
 8000556:	428b      	cmp	r3, r1
 8000558:	d915      	bls.n	8000586 <__udivmoddi4+0x2a6>
 800055a:	3802      	subs	r0, #2
 800055c:	4429      	add	r1, r5
 800055e:	1ac9      	subs	r1, r1, r3
 8000560:	ea40 4707 	orr.w	r7, r0, r7, lsl #16
 8000564:	e73b      	b.n	80003de <__udivmoddi4+0xfe>
 8000566:	4637      	mov	r7, r6
 8000568:	4630      	mov	r0, r6
 800056a:	e709      	b.n	8000380 <__udivmoddi4+0xa0>
 800056c:	4607      	mov	r7, r0
 800056e:	e6e7      	b.n	8000340 <__udivmoddi4+0x60>
 8000570:	4618      	mov	r0, r3
 8000572:	e6fb      	b.n	800036c <__udivmoddi4+0x8c>
 8000574:	4541      	cmp	r1, r8
 8000576:	d2ab      	bcs.n	80004d0 <__udivmoddi4+0x1f0>
 8000578:	ebb8 0a02 	subs.w	sl, r8, r2
 800057c:	eb69 020e 	sbc.w	r2, r9, lr
 8000580:	3801      	subs	r0, #1
 8000582:	4613      	mov	r3, r2
 8000584:	e7a4      	b.n	80004d0 <__udivmoddi4+0x1f0>
 8000586:	4660      	mov	r0, ip
 8000588:	e7e9      	b.n	800055e <__udivmoddi4+0x27e>
 800058a:	4618      	mov	r0, r3
 800058c:	e795      	b.n	80004ba <__udivmoddi4+0x1da>
 800058e:	4667      	mov	r7, ip
 8000590:	e7d1      	b.n	8000536 <__udivmoddi4+0x256>
 8000592:	4681      	mov	r9, r0
 8000594:	e77c      	b.n	8000490 <__udivmoddi4+0x1b0>
 8000596:	3802      	subs	r0, #2
 8000598:	442c      	add	r4, r5
 800059a:	e747      	b.n	800042c <__udivmoddi4+0x14c>
 800059c:	f1ac 0c02 	sub.w	ip, ip, #2
 80005a0:	442b      	add	r3, r5
 80005a2:	e72f      	b.n	8000404 <__udivmoddi4+0x124>
 80005a4:	4638      	mov	r0, r7
 80005a6:	e708      	b.n	80003ba <__udivmoddi4+0xda>
 80005a8:	4637      	mov	r7, r6
 80005aa:	e6e9      	b.n	8000380 <__udivmoddi4+0xa0>

080005ac <__aeabi_idiv0>:
 80005ac:	4770      	bx	lr
 80005ae:	bf00      	nop

080005b0 <StartDefaultTask>:
 80005b0:	b508      	push	{r3, lr}
 80005b2:	f001 fd13 	bl	8001fdc <MX_LWIP_Init>
 80005b6:	f000 fab1 	bl	8000b1c <tcpclient_init>
 80005ba:	2001      	movs	r0, #1
 80005bc:	f002 f8c2 	bl	8002744 <osDelay>
 80005c0:	e7fb      	b.n	80005ba <StartDefaultTask+0xa>
	...

080005c4 <SystemClock_Config>:
 80005c4:	b530      	push	{r4, r5, lr}
 80005c6:	2414      	movs	r4, #20
 80005c8:	b095      	sub	sp, #84	; 0x54
 80005ca:	4622      	mov	r2, r4
 80005cc:	2100      	movs	r1, #0
 80005ce:	a809      	add	r0, sp, #36	; 0x24
 80005d0:	f00c f82c 	bl	800c62c <memset>
 80005d4:	4622      	mov	r2, r4
 80005d6:	2100      	movs	r1, #0
 80005d8:	a803      	add	r0, sp, #12
 80005da:	f00c f827 	bl	800c62c <memset>
 80005de:	2400      	movs	r4, #0
 80005e0:	4b1c      	ldr	r3, [pc, #112]	; (8000654 <SystemClock_Config+0x90>)
 80005e2:	9401      	str	r4, [sp, #4]
 80005e4:	6c1a      	ldr	r2, [r3, #64]	; 0x40
 80005e6:	f042 5280 	orr.w	r2, r2, #268435456	; 0x10000000
 80005ea:	641a      	str	r2, [r3, #64]	; 0x40
 80005ec:	6c1b      	ldr	r3, [r3, #64]	; 0x40
 80005ee:	f003 5380 	and.w	r3, r3, #268435456	; 0x10000000
 80005f2:	9301      	str	r3, [sp, #4]
 80005f4:	9b01      	ldr	r3, [sp, #4]
 80005f6:	4b18      	ldr	r3, [pc, #96]	; (8000658 <SystemClock_Config+0x94>)
 80005f8:	9402      	str	r4, [sp, #8]
 80005fa:	681a      	ldr	r2, [r3, #0]
 80005fc:	f442 4240 	orr.w	r2, r2, #49152	; 0xc000
 8000600:	601a      	str	r2, [r3, #0]
 8000602:	681b      	ldr	r3, [r3, #0]
 8000604:	f403 4340 	and.w	r3, r3, #49152	; 0xc000
 8000608:	9302      	str	r3, [sp, #8]
 800060a:	2201      	movs	r2, #1
 800060c:	9b02      	ldr	r3, [sp, #8]
 800060e:	2310      	movs	r3, #16
 8000610:	e9cd 230b 	strd	r2, r3, [sp, #44]	; 0x2c
 8000614:	2108      	movs	r1, #8
 8000616:	23b4      	movs	r3, #180	; 0xb4
 8000618:	2502      	movs	r5, #2
 800061a:	e9cd 1310 	strd	r1, r3, [sp, #64]	; 0x40
 800061e:	a808      	add	r0, sp, #32
 8000620:	2304      	movs	r3, #4
 8000622:	9313      	str	r3, [sp, #76]	; 0x4c
 8000624:	9508      	str	r5, [sp, #32]
 8000626:	e9cd 540e 	strd	r5, r4, [sp, #56]	; 0x38
 800062a:	9512      	str	r5, [sp, #72]	; 0x48
 800062c:	f001 f8fa 	bl	8001824 <HAL_RCC_OscConfig>
 8000630:	f001 f8bc 	bl	80017ac <HAL_PWREx_EnableOverDrive>
 8000634:	230f      	movs	r3, #15
 8000636:	e9cd 3503 	strd	r3, r5, [sp, #12]
 800063a:	f44f 50a0 	mov.w	r0, #5120	; 0x1400
 800063e:	f44f 5380 	mov.w	r3, #4096	; 0x1000
 8000642:	e9cd 0306 	strd	r0, r3, [sp, #24]
 8000646:	2105      	movs	r1, #5
 8000648:	a803      	add	r0, sp, #12
 800064a:	9405      	str	r4, [sp, #20]
 800064c:	f001 fabe 	bl	8001bcc <HAL_RCC_ClockConfig>
 8000650:	b015      	add	sp, #84	; 0x54
 8000652:	bd30      	pop	{r4, r5, pc}
 8000654:	40023800 	.word	0x40023800
 8000658:	40007000 	.word	0x40007000

0800065c <main>:
 800065c:	b580      	push	{r7, lr}
 800065e:	b08c      	sub	sp, #48	; 0x30
 8000660:	f000 faa2 	bl	8000ba8 <HAL_Init>
 8000664:	f7ff ffae 	bl	80005c4 <SystemClock_Config>
 8000668:	2214      	movs	r2, #20
 800066a:	2100      	movs	r1, #0
 800066c:	a807      	add	r0, sp, #28
 800066e:	f00b ffdd 	bl	800c62c <memset>
 8000672:	2400      	movs	r4, #0
 8000674:	4b4e      	ldr	r3, [pc, #312]	; (80007b0 <main+0x154>)
 8000676:	9401      	str	r4, [sp, #4]
 8000678:	6b1a      	ldr	r2, [r3, #48]	; 0x30
 800067a:	484e      	ldr	r0, [pc, #312]	; (80007b4 <main+0x158>)
 800067c:	f042 0204 	orr.w	r2, r2, #4
 8000680:	631a      	str	r2, [r3, #48]	; 0x30
 8000682:	6b1a      	ldr	r2, [r3, #48]	; 0x30
 8000684:	f002 0204 	and.w	r2, r2, #4
 8000688:	9201      	str	r2, [sp, #4]
 800068a:	9a01      	ldr	r2, [sp, #4]
 800068c:	9402      	str	r4, [sp, #8]
 800068e:	6b1a      	ldr	r2, [r3, #48]	; 0x30
 8000690:	f042 0280 	orr.w	r2, r2, #128	; 0x80
 8000694:	631a      	str	r2, [r3, #48]	; 0x30
 8000696:	6b1a      	ldr	r2, [r3, #48]	; 0x30
 8000698:	f002 0280 	and.w	r2, r2, #128	; 0x80
 800069c:	9202      	str	r2, [sp, #8]
 800069e:	9a02      	ldr	r2, [sp, #8]
 80006a0:	9403      	str	r4, [sp, #12]
 80006a2:	6b1a      	ldr	r2, [r3, #48]	; 0x30
 80006a4:	f042 0201 	orr.w	r2, r2, #1
 80006a8:	631a      	str	r2, [r3, #48]	; 0x30
 80006aa:	6b1a      	ldr	r2, [r3, #48]	; 0x30
 80006ac:	f002 0201 	and.w	r2, r2, #1
 80006b0:	9203      	str	r2, [sp, #12]
 80006b2:	9a03      	ldr	r2, [sp, #12]
 80006b4:	9404      	str	r4, [sp, #16]
 80006b6:	6b1a      	ldr	r2, [r3, #48]	; 0x30
 80006b8:	f042 0202 	orr.w	r2, r2, #2
 80006bc:	631a      	str	r2, [r3, #48]	; 0x30
 80006be:	6b1a      	ldr	r2, [r3, #48]	; 0x30
 80006c0:	f002 0202 	and.w	r2, r2, #2
 80006c4:	9204      	str	r2, [sp, #16]
 80006c6:	9a04      	ldr	r2, [sp, #16]
 80006c8:	9405      	str	r4, [sp, #20]
 80006ca:	6b1a      	ldr	r2, [r3, #48]	; 0x30
 80006cc:	f042 0208 	orr.w	r2, r2, #8
 80006d0:	631a      	str	r2, [r3, #48]	; 0x30
 80006d2:	6b1a      	ldr	r2, [r3, #48]	; 0x30
 80006d4:	f002 0208 	and.w	r2, r2, #8
 80006d8:	9205      	str	r2, [sp, #20]
 80006da:	9a05      	ldr	r2, [sp, #20]
 80006dc:	9406      	str	r4, [sp, #24]
 80006de:	6b1a      	ldr	r2, [r3, #48]	; 0x30
 80006e0:	f042 0240 	orr.w	r2, r2, #64	; 0x40
 80006e4:	631a      	str	r2, [r3, #48]	; 0x30
 80006e6:	6b1b      	ldr	r3, [r3, #48]	; 0x30
 80006e8:	f003 0340 	and.w	r3, r3, #64	; 0x40
 80006ec:	9306      	str	r3, [sp, #24]
 80006ee:	4622      	mov	r2, r4
 80006f0:	f244 0181 	movw	r1, #16513	; 0x4081
 80006f4:	9b06      	ldr	r3, [sp, #24]
 80006f6:	f001 f853 	bl	80017a0 <HAL_GPIO_WritePin>
 80006fa:	4622      	mov	r2, r4
 80006fc:	2140      	movs	r1, #64	; 0x40
 80006fe:	482e      	ldr	r0, [pc, #184]	; (80007b8 <main+0x15c>)
 8000700:	f001 f84e 	bl	80017a0 <HAL_GPIO_WritePin>
 8000704:	4b2d      	ldr	r3, [pc, #180]	; (80007bc <main+0x160>)
 8000706:	482e      	ldr	r0, [pc, #184]	; (80007c0 <main+0x164>)
 8000708:	9409      	str	r4, [sp, #36]	; 0x24
 800070a:	f44f 5200 	mov.w	r2, #8192	; 0x2000
 800070e:	a907      	add	r1, sp, #28
 8000710:	e9cd 2307 	strd	r2, r3, [sp, #28]
 8000714:	2701      	movs	r7, #1
 8000716:	f000 ff57 	bl	80015c8 <HAL_GPIO_Init>
 800071a:	f244 0381 	movw	r3, #16513	; 0x4081
 800071e:	a907      	add	r1, sp, #28
 8000720:	4824      	ldr	r0, [pc, #144]	; (80007b4 <main+0x158>)
 8000722:	e9cd 3707 	strd	r3, r7, [sp, #28]
 8000726:	2602      	movs	r6, #2
 8000728:	e9cd 4409 	strd	r4, r4, [sp, #36]	; 0x24
 800072c:	f000 ff4c 	bl	80015c8 <HAL_GPIO_Init>
 8000730:	f44f 7340 	mov.w	r3, #768	; 0x300
 8000734:	e9cd 3607 	strd	r3, r6, [sp, #28]
 8000738:	2503      	movs	r5, #3
 800073a:	2307      	movs	r3, #7
 800073c:	a907      	add	r1, sp, #28
 800073e:	4821      	ldr	r0, [pc, #132]	; (80007c4 <main+0x168>)
 8000740:	9409      	str	r4, [sp, #36]	; 0x24
 8000742:	e9cd 530a 	strd	r5, r3, [sp, #40]	; 0x28
 8000746:	f000 ff3f 	bl	80015c8 <HAL_GPIO_Init>
 800074a:	2340      	movs	r3, #64	; 0x40
 800074c:	a907      	add	r1, sp, #28
 800074e:	481a      	ldr	r0, [pc, #104]	; (80007b8 <main+0x15c>)
 8000750:	e9cd 3707 	strd	r3, r7, [sp, #28]
 8000754:	e9cd 4409 	strd	r4, r4, [sp, #36]	; 0x24
 8000758:	f000 ff36 	bl	80015c8 <HAL_GPIO_Init>
 800075c:	2380      	movs	r3, #128	; 0x80
 800075e:	a907      	add	r1, sp, #28
 8000760:	4815      	ldr	r0, [pc, #84]	; (80007b8 <main+0x15c>)
 8000762:	9409      	str	r4, [sp, #36]	; 0x24
 8000764:	e9cd 3407 	strd	r3, r4, [sp, #28]
 8000768:	f000 ff2e 	bl	80015c8 <HAL_GPIO_Init>
 800076c:	f44f 53e8 	mov.w	r3, #7424	; 0x1d00
 8000770:	e9cd 3607 	strd	r3, r6, [sp, #28]
 8000774:	a907      	add	r1, sp, #28
 8000776:	230a      	movs	r3, #10
 8000778:	4813      	ldr	r0, [pc, #76]	; (80007c8 <main+0x16c>)
 800077a:	930b      	str	r3, [sp, #44]	; 0x2c
 800077c:	e9cd 4509 	strd	r4, r5, [sp, #36]	; 0x24
 8000780:	f000 ff22 	bl	80015c8 <HAL_GPIO_Init>
 8000784:	f44f 7300 	mov.w	r3, #512	; 0x200
 8000788:	a907      	add	r1, sp, #28
 800078a:	480f      	ldr	r0, [pc, #60]	; (80007c8 <main+0x16c>)
 800078c:	9409      	str	r4, [sp, #36]	; 0x24
 800078e:	e9cd 3407 	strd	r3, r4, [sp, #28]
 8000792:	f000 ff19 	bl	80015c8 <HAL_GPIO_Init>
 8000796:	f001 ff31 	bl	80025fc <osKernelInitialize>
 800079a:	4a0c      	ldr	r2, [pc, #48]	; (80007cc <main+0x170>)
 800079c:	480c      	ldr	r0, [pc, #48]	; (80007d0 <main+0x174>)
 800079e:	4621      	mov	r1, r4
 80007a0:	f001 ff7a 	bl	8002698 <osThreadNew>
 80007a4:	4b0b      	ldr	r3, [pc, #44]	; (80007d4 <main+0x178>)
 80007a6:	6018      	str	r0, [r3, #0]
 80007a8:	f001 ff42 	bl	8002630 <osKernelStart>
 80007ac:	e7fe      	b.n	80007ac <main+0x150>
 80007ae:	bf00      	nop
 80007b0:	40023800 	.word	0x40023800
 80007b4:	40020400 	.word	0x40020400
 80007b8:	40021800 	.word	0x40021800
 80007bc:	10110000 	.word	0x10110000
 80007c0:	40020800 	.word	0x40020800
 80007c4:	40020c00 	.word	0x40020c00
 80007c8:	40020000 	.word	0x40020000
 80007cc:	0800d40c 	.word	0x0800d40c
 80007d0:	080005b1 	.word	0x080005b1
 80007d4:	20004c0c 	.word	0x20004c0c

080007d8 <HAL_TIM_PeriodElapsedCallback>:
 80007d8:	6802      	ldr	r2, [r0, #0]
 80007da:	4b03      	ldr	r3, [pc, #12]	; (80007e8 <HAL_TIM_PeriodElapsedCallback+0x10>)
 80007dc:	429a      	cmp	r2, r3
 80007de:	d101      	bne.n	80007e4 <HAL_TIM_PeriodElapsedCallback+0xc>
 80007e0:	f000 b9fc 	b.w	8000bdc <HAL_IncTick>
 80007e4:	4770      	bx	lr
 80007e6:	bf00      	nop
 80007e8:	40010000 	.word	0x40010000

080007ec <HAL_MspInit>:
 80007ec:	b082      	sub	sp, #8
 80007ee:	4b0c      	ldr	r3, [pc, #48]	; (8000820 <HAL_MspInit+0x34>)
 80007f0:	2100      	movs	r1, #0
 80007f2:	9100      	str	r1, [sp, #0]
 80007f4:	6c5a      	ldr	r2, [r3, #68]	; 0x44
 80007f6:	f442 4280 	orr.w	r2, r2, #16384	; 0x4000
 80007fa:	645a      	str	r2, [r3, #68]	; 0x44
 80007fc:	6c5a      	ldr	r2, [r3, #68]	; 0x44
 80007fe:	f402 4280 	and.w	r2, r2, #16384	; 0x4000
 8000802:	9200      	str	r2, [sp, #0]
 8000804:	9a00      	ldr	r2, [sp, #0]
 8000806:	9101      	str	r1, [sp, #4]
 8000808:	6c1a      	ldr	r2, [r3, #64]	; 0x40
 800080a:	f042 5280 	orr.w	r2, r2, #268435456	; 0x10000000
 800080e:	641a      	str	r2, [r3, #64]	; 0x40
 8000810:	6c1b      	ldr	r3, [r3, #64]	; 0x40
 8000812:	f003 5380 	and.w	r3, r3, #268435456	; 0x10000000
 8000816:	9301      	str	r3, [sp, #4]
 8000818:	9b01      	ldr	r3, [sp, #4]
 800081a:	b002      	add	sp, #8
 800081c:	4770      	bx	lr
 800081e:	bf00      	nop
 8000820:	40023800 	.word	0x40023800

08000824 <HAL_InitTick>:
 8000824:	b530      	push	{r4, r5, lr}
 8000826:	4601      	mov	r1, r0
 8000828:	b089      	sub	sp, #36	; 0x24
 800082a:	2200      	movs	r2, #0
 800082c:	2019      	movs	r0, #25
 800082e:	f000 fa0d 	bl	8000c4c <HAL_NVIC_SetPriority>
 8000832:	2019      	movs	r0, #25
 8000834:	f000 fa3e 	bl	8000cb4 <HAL_NVIC_EnableIRQ>
 8000838:	2500      	movs	r5, #0
 800083a:	4b15      	ldr	r3, [pc, #84]	; (8000890 <HAL_InitTick+0x6c>)
 800083c:	9502      	str	r5, [sp, #8]
 800083e:	6c5a      	ldr	r2, [r3, #68]	; 0x44
 8000840:	4c14      	ldr	r4, [pc, #80]	; (8000894 <HAL_InitTick+0x70>)
 8000842:	f042 0201 	orr.w	r2, r2, #1
 8000846:	645a      	str	r2, [r3, #68]	; 0x44
 8000848:	6c5b      	ldr	r3, [r3, #68]	; 0x44
 800084a:	f003 0301 	and.w	r3, r3, #1
 800084e:	9302      	str	r3, [sp, #8]
 8000850:	a901      	add	r1, sp, #4
 8000852:	a803      	add	r0, sp, #12
 8000854:	9b02      	ldr	r3, [sp, #8]
 8000856:	f001 fa69 	bl	8001d2c <HAL_RCC_GetClockConfig>
 800085a:	f001 fa57 	bl	8001d0c <HAL_RCC_GetPCLK2Freq>
 800085e:	4b0e      	ldr	r3, [pc, #56]	; (8000898 <HAL_InitTick+0x74>)
 8000860:	6023      	str	r3, [r4, #0]
 8000862:	f240 33e7 	movw	r3, #999	; 0x3e7
 8000866:	60e3      	str	r3, [r4, #12]
 8000868:	0040      	lsls	r0, r0, #1
 800086a:	4b0c      	ldr	r3, [pc, #48]	; (800089c <HAL_InitTick+0x78>)
 800086c:	fbb0 f0f3 	udiv	r0, r0, r3
 8000870:	3801      	subs	r0, #1
 8000872:	6060      	str	r0, [r4, #4]
 8000874:	4620      	mov	r0, r4
 8000876:	6125      	str	r5, [r4, #16]
 8000878:	60a5      	str	r5, [r4, #8]
 800087a:	f001 fb93 	bl	8001fa4 <HAL_TIM_Base_Init>
 800087e:	b920      	cbnz	r0, 800088a <HAL_InitTick+0x66>
 8000880:	4620      	mov	r0, r4
 8000882:	f001 fa72 	bl	8001d6a <HAL_TIM_Base_Start_IT>
 8000886:	b009      	add	sp, #36	; 0x24
 8000888:	bd30      	pop	{r4, r5, pc}
 800088a:	2001      	movs	r0, #1
 800088c:	e7fb      	b.n	8000886 <HAL_InitTick+0x62>
 800088e:	bf00      	nop
 8000890:	40023800 	.word	0x40023800
 8000894:	20004c10 	.word	0x20004c10
 8000898:	40010000 	.word	0x40010000
 800089c:	000f4240 	.word	0x000f4240

080008a0 <NMI_Handler>:
 80008a0:	4770      	bx	lr

080008a2 <HardFault_Handler>:
 80008a2:	e7fe      	b.n	80008a2 <HardFault_Handler>

080008a4 <MemManage_Handler>:
 80008a4:	e7fe      	b.n	80008a4 <MemManage_Handler>

080008a6 <BusFault_Handler>:
 80008a6:	e7fe      	b.n	80008a6 <BusFault_Handler>

080008a8 <UsageFault_Handler>:
 80008a8:	e7fe      	b.n	80008a8 <UsageFault_Handler>

080008aa <DebugMon_Handler>:
 80008aa:	4770      	bx	lr

080008ac <TIM1_UP_TIM10_IRQHandler>:
 80008ac:	4801      	ldr	r0, [pc, #4]	; (80008b4 <TIM1_UP_TIM10_IRQHandler+0x8>)
 80008ae:	f001 ba70 	b.w	8001d92 <HAL_TIM_IRQHandler>
 80008b2:	bf00      	nop
 80008b4:	20004c10 	.word	0x20004c10

080008b8 <ETH_IRQHandler>:
 80008b8:	4801      	ldr	r0, [pc, #4]	; (80008c0 <ETH_IRQHandler+0x8>)
 80008ba:	f000 bbdc 	b.w	8001076 <HAL_ETH_IRQHandler>
 80008be:	bf00      	nop
 80008c0:	20006664 	.word	0x20006664

080008c4 <_read>:
 80008c4:	b570      	push	{r4, r5, r6, lr}
 80008c6:	460e      	mov	r6, r1
 80008c8:	4615      	mov	r5, r2
 80008ca:	460c      	mov	r4, r1
 80008cc:	1ba3      	subs	r3, r4, r6
 80008ce:	429d      	cmp	r5, r3
 80008d0:	dc01      	bgt.n	80008d6 <_read+0x12>
 80008d2:	4628      	mov	r0, r5
 80008d4:	bd70      	pop	{r4, r5, r6, pc}
 80008d6:	f3af 8000 	nop.w
 80008da:	f804 0b01 	strb.w	r0, [r4], #1
 80008de:	e7f5      	b.n	80008cc <_read+0x8>

080008e0 <_write>:
 80008e0:	b570      	push	{r4, r5, r6, lr}
 80008e2:	460e      	mov	r6, r1
 80008e4:	4615      	mov	r5, r2
 80008e6:	460c      	mov	r4, r1
 80008e8:	1ba3      	subs	r3, r4, r6
 80008ea:	429d      	cmp	r5, r3
 80008ec:	dc01      	bgt.n	80008f2 <_write+0x12>
 80008ee:	4628      	mov	r0, r5
 80008f0:	bd70      	pop	{r4, r5, r6, pc}
 80008f2:	f814 0b01 	ldrb.w	r0, [r4], #1
 80008f6:	f3af 8000 	nop.w
 80008fa:	e7f5      	b.n	80008e8 <_write+0x8>

080008fc <_close>:
 80008fc:	f04f 30ff 	mov.w	r0, #4294967295
 8000900:	4770      	bx	lr

08000902 <_fstat>:
 8000902:	f44f 5300 	mov.w	r3, #8192	; 0x2000
 8000906:	604b      	str	r3, [r1, #4]
 8000908:	2000      	movs	r0, #0
 800090a:	4770      	bx	lr

0800090c <_isatty>:
 800090c:	2001      	movs	r0, #1
 800090e:	4770      	bx	lr

08000910 <_lseek>:
 8000910:	2000      	movs	r0, #0
 8000912:	4770      	bx	lr

08000914 <_sbrk>:
 8000914:	4b0a      	ldr	r3, [pc, #40]	; (8000940 <_sbrk+0x2c>)
 8000916:	6819      	ldr	r1, [r3, #0]
 8000918:	b510      	push	{r4, lr}
 800091a:	4602      	mov	r2, r0
 800091c:	b909      	cbnz	r1, 8000922 <_sbrk+0xe>
 800091e:	4909      	ldr	r1, [pc, #36]	; (8000944 <_sbrk+0x30>)
 8000920:	6019      	str	r1, [r3, #0]
 8000922:	6818      	ldr	r0, [r3, #0]
 8000924:	4c08      	ldr	r4, [pc, #32]	; (8000948 <_sbrk+0x34>)
 8000926:	4909      	ldr	r1, [pc, #36]	; (800094c <_sbrk+0x38>)
 8000928:	4402      	add	r2, r0
 800092a:	1b09      	subs	r1, r1, r4
 800092c:	428a      	cmp	r2, r1
 800092e:	bf89      	itett	hi
 8000930:	4b07      	ldrhi	r3, [pc, #28]	; (8000950 <_sbrk+0x3c>)
 8000932:	601a      	strls	r2, [r3, #0]
 8000934:	220c      	movhi	r2, #12
 8000936:	601a      	strhi	r2, [r3, #0]
 8000938:	bf88      	it	hi
 800093a:	f04f 30ff 	movhi.w	r0, #4294967295
 800093e:	bd10      	pop	{r4, pc}
 8000940:	2000009c 	.word	0x2000009c
 8000944:	2000b568 	.word	0x2000b568
 8000948:	00000400 	.word	0x00000400
 800094c:	20030000 	.word	0x20030000
 8000950:	2000b55c 	.word	0x2000b55c

08000954 <SystemInit>:
 8000954:	4b05      	ldr	r3, [pc, #20]	; (800096c <SystemInit+0x18>)
 8000956:	f8d3 2088 	ldr.w	r2, [r3, #136]	; 0x88
 800095a:	f442 0270 	orr.w	r2, r2, #15728640	; 0xf00000
 800095e:	f8c3 2088 	str.w	r2, [r3, #136]	; 0x88
 8000962:	f04f 6200 	mov.w	r2, #134217728	; 0x8000000
 8000966:	609a      	str	r2, [r3, #8]
 8000968:	4770      	bx	lr
 800096a:	bf00      	nop
 800096c:	e000ed00 	.word	0xe000ed00

08000970 <tcp_SendMessage>:
 8000970:	b507      	push	{r0, r1, r2, lr}
 8000972:	2300      	movs	r3, #0
 8000974:	460a      	mov	r2, r1
 8000976:	4601      	mov	r1, r0
 8000978:	4804      	ldr	r0, [pc, #16]	; (800098c <tcp_SendMessage+0x1c>)
 800097a:	9300      	str	r3, [sp, #0]
 800097c:	6800      	ldr	r0, [r0, #0]
 800097e:	2301      	movs	r3, #1
 8000980:	f004 fa8e 	bl	8004ea0 <netconn_write_partly>
 8000984:	b003      	add	sp, #12
 8000986:	f85d fb04 	ldr.w	pc, [sp], #4
 800098a:	bf00      	nop
 800098c:	200000a4 	.word	0x200000a4

08000990 <UDS_receive_response>:
 8000990:	b510      	push	{r4, lr}
 8000992:	2100      	movs	r1, #0
 8000994:	4604      	mov	r4, r0
 8000996:	2264      	movs	r2, #100	; 0x64
 8000998:	481f      	ldr	r0, [pc, #124]	; (8000a18 <UDS_receive_response+0x88>)
 800099a:	f00b fe47 	bl	800c62c <memset>
 800099e:	491f      	ldr	r1, [pc, #124]	; (8000a1c <UDS_receive_response+0x8c>)
 80009a0:	4620      	mov	r0, r4
 80009a2:	f7ff fc25 	bl	80001f0 <strcmp>
 80009a6:	b948      	cbnz	r0, 80009bc <UDS_receive_response+0x2c>
 80009a8:	491d      	ldr	r1, [pc, #116]	; (8000a20 <UDS_receive_response+0x90>)
 80009aa:	481b      	ldr	r0, [pc, #108]	; (8000a18 <UDS_receive_response+0x88>)
 80009ac:	f00b ffa9 	bl	800c902 <strcpy>
 80009b0:	2116      	movs	r1, #22
 80009b2:	4819      	ldr	r0, [pc, #100]	; (8000a18 <UDS_receive_response+0x88>)
 80009b4:	e8bd 4010 	ldmia.w	sp!, {r4, lr}
 80009b8:	f7ff bfda 	b.w	8000970 <tcp_SendMessage>
 80009bc:	4919      	ldr	r1, [pc, #100]	; (8000a24 <UDS_receive_response+0x94>)
 80009be:	4620      	mov	r0, r4
 80009c0:	f7ff fc16 	bl	80001f0 <strcmp>
 80009c4:	b928      	cbnz	r0, 80009d2 <UDS_receive_response+0x42>
 80009c6:	4918      	ldr	r1, [pc, #96]	; (8000a28 <UDS_receive_response+0x98>)
 80009c8:	4813      	ldr	r0, [pc, #76]	; (8000a18 <UDS_receive_response+0x88>)
 80009ca:	f00b ff9a 	bl	800c902 <strcpy>
 80009ce:	210e      	movs	r1, #14
 80009d0:	e7ef      	b.n	80009b2 <UDS_receive_response+0x22>
 80009d2:	4916      	ldr	r1, [pc, #88]	; (8000a2c <UDS_receive_response+0x9c>)
 80009d4:	4620      	mov	r0, r4
 80009d6:	f7ff fc0b 	bl	80001f0 <strcmp>
 80009da:	b9e0      	cbnz	r0, 8000a16 <UDS_receive_response+0x86>
 80009dc:	4914      	ldr	r1, [pc, #80]	; (8000a30 <UDS_receive_response+0xa0>)
 80009de:	480e      	ldr	r0, [pc, #56]	; (8000a18 <UDS_receive_response+0x88>)
 80009e0:	f00b ff8f 	bl	800c902 <strcpy>
 80009e4:	2126      	movs	r1, #38	; 0x26
 80009e6:	480c      	ldr	r0, [pc, #48]	; (8000a18 <UDS_receive_response+0x88>)
 80009e8:	f7ff ffc2 	bl	8000970 <tcp_SendMessage>
 80009ec:	4911      	ldr	r1, [pc, #68]	; (8000a34 <UDS_receive_response+0xa4>)
 80009ee:	480a      	ldr	r0, [pc, #40]	; (8000a18 <UDS_receive_response+0x88>)
 80009f0:	f00b ff87 	bl	800c902 <strcpy>
 80009f4:	2106      	movs	r1, #6
 80009f6:	4808      	ldr	r0, [pc, #32]	; (8000a18 <UDS_receive_response+0x88>)
 80009f8:	f7ff ffba 	bl	8000970 <tcp_SendMessage>
 80009fc:	490e      	ldr	r1, [pc, #56]	; (8000a38 <UDS_receive_response+0xa8>)
 80009fe:	4806      	ldr	r0, [pc, #24]	; (8000a18 <UDS_receive_response+0x88>)
 8000a00:	f00b ff7f 	bl	800c902 <strcpy>
 8000a04:	2126      	movs	r1, #38	; 0x26
 8000a06:	4804      	ldr	r0, [pc, #16]	; (8000a18 <UDS_receive_response+0x88>)
 8000a08:	f7ff ffb2 	bl	8000970 <tcp_SendMessage>
 8000a0c:	4b0b      	ldr	r3, [pc, #44]	; (8000a3c <UDS_receive_response+0xac>)
 8000a0e:	f640 31b8 	movw	r1, #3000	; 0xbb8
 8000a12:	6818      	ldr	r0, [r3, #0]
 8000a14:	e7ce      	b.n	80009b4 <UDS_receive_response+0x24>
 8000a16:	bd10      	pop	{r4, pc}
 8000a18:	20004c50 	.word	0x20004c50
 8000a1c:	0800d454 	.word	0x0800d454
 8000a20:	0800d457 	.word	0x0800d457
 8000a24:	0800d46e 	.word	0x0800d46e
 8000a28:	0800d474 	.word	0x0800d474
 8000a2c:	0800d483 	.word	0x0800d483
 8000a30:	0800d488 	.word	0x0800d488
 8000a34:	0800d4af 	.word	0x0800d4af
 8000a38:	0800d4b6 	.word	0x0800d4b6
 8000a3c:	20000004 	.word	0x20000004

08000a40 <netconn_tcp_client_task>:
 8000a40:	e92d 41f3 	stmdb	sp!, {r0, r1, r4, r5, r6, r7, r8, lr}
 8000a44:	4b2e      	ldr	r3, [pc, #184]	; (8000b00 <netconn_tcp_client_task+0xc0>)
 8000a46:	4c2f      	ldr	r4, [pc, #188]	; (8000b04 <netconn_tcp_client_task+0xc4>)
 8000a48:	4f2f      	ldr	r7, [pc, #188]	; (8000b08 <netconn_tcp_client_task+0xc8>)
 8000a4a:	f8df 80cc 	ldr.w	r8, [pc, #204]	; 8000b18 <netconn_tcp_client_task+0xd8>
 8000a4e:	9301      	str	r3, [sp, #4]
 8000a50:	6822      	ldr	r2, [r4, #0]
 8000a52:	b942      	cbnz	r2, 8000a66 <netconn_tcp_client_task+0x26>
 8000a54:	4611      	mov	r1, r2
 8000a56:	2010      	movs	r0, #16
 8000a58:	f004 f8e6 	bl	8004c28 <netconn_new_with_proto_and_callback>
 8000a5c:	220a      	movs	r2, #10
 8000a5e:	4639      	mov	r1, r7
 8000a60:	6020      	str	r0, [r4, #0]
 8000a62:	f004 f959 	bl	8004d18 <netconn_bind>
 8000a66:	220a      	movs	r2, #10
 8000a68:	a901      	add	r1, sp, #4
 8000a6a:	6820      	ldr	r0, [r4, #0]
 8000a6c:	f004 f97a 	bl	8004d64 <netconn_connect>
 8000a70:	2500      	movs	r5, #0
 8000a72:	bb30      	cbnz	r0, 8000ac2 <netconn_tcp_client_task+0x82>
 8000a74:	4925      	ldr	r1, [pc, #148]	; (8000b0c <netconn_tcp_client_task+0xcc>)
 8000a76:	4d26      	ldr	r5, [pc, #152]	; (8000b10 <netconn_tcp_client_task+0xd0>)
 8000a78:	4e26      	ldr	r6, [pc, #152]	; (8000b14 <netconn_tcp_client_task+0xd4>)
 8000a7a:	4640      	mov	r0, r8
 8000a7c:	f00b ff41 	bl	800c902 <strcpy>
 8000a80:	2102      	movs	r1, #2
 8000a82:	4640      	mov	r0, r8
 8000a84:	f7ff ff74 	bl	8000970 <tcp_SendMessage>
 8000a88:	4629      	mov	r1, r5
 8000a8a:	6820      	ldr	r0, [r4, #0]
 8000a8c:	f004 faec 	bl	8005068 <netconn_recv>
 8000a90:	bb58      	cbnz	r0, 8000aea <netconn_tcp_client_task+0xaa>
 8000a92:	2264      	movs	r2, #100	; 0x64
 8000a94:	2100      	movs	r1, #0
 8000a96:	4630      	mov	r0, r6
 8000a98:	f00b fdc8 	bl	800c62c <memset>
 8000a9c:	682b      	ldr	r3, [r5, #0]
 8000a9e:	681b      	ldr	r3, [r3, #0]
 8000aa0:	4630      	mov	r0, r6
 8000aa2:	895a      	ldrh	r2, [r3, #10]
 8000aa4:	6859      	ldr	r1, [r3, #4]
 8000aa6:	f00b ff34 	bl	800c912 <strncpy>
 8000aaa:	4630      	mov	r0, r6
 8000aac:	f7ff ff70 	bl	8000990 <UDS_receive_response>
 8000ab0:	6828      	ldr	r0, [r5, #0]
 8000ab2:	f005 fa33 	bl	8005f1c <netbuf_next>
 8000ab6:	2800      	cmp	r0, #0
 8000ab8:	daeb      	bge.n	8000a92 <netconn_tcp_client_task+0x52>
 8000aba:	6828      	ldr	r0, [r5, #0]
 8000abc:	f005 fa1c 	bl	8005ef8 <netbuf_delete>
 8000ac0:	e7e2      	b.n	8000a88 <netconn_tcp_client_task+0x48>
 8000ac2:	6820      	ldr	r0, [r4, #0]
 8000ac4:	f004 f91a 	bl	8004cfc <netconn_delete>
 8000ac8:	2200      	movs	r2, #0
 8000aca:	4611      	mov	r1, r2
 8000acc:	2010      	movs	r0, #16
 8000ace:	6025      	str	r5, [r4, #0]
 8000ad0:	f004 f8aa 	bl	8004c28 <netconn_new_with_proto_and_callback>
 8000ad4:	4639      	mov	r1, r7
 8000ad6:	220a      	movs	r2, #10
 8000ad8:	6020      	str	r0, [r4, #0]
 8000ada:	f004 f91d 	bl	8004d18 <netconn_bind>
 8000ade:	220a      	movs	r2, #10
 8000ae0:	a901      	add	r1, sp, #4
 8000ae2:	6820      	ldr	r0, [r4, #0]
 8000ae4:	f004 f93e 	bl	8004d64 <netconn_connect>
 8000ae8:	e7c3      	b.n	8000a72 <netconn_tcp_client_task+0x32>
 8000aea:	300f      	adds	r0, #15
 8000aec:	d1cc      	bne.n	8000a88 <netconn_tcp_client_task+0x48>
 8000aee:	6820      	ldr	r0, [r4, #0]
 8000af0:	f004 f9e2 	bl	8004eb8 <netconn_close>
 8000af4:	6820      	ldr	r0, [r4, #0]
 8000af6:	f004 f901 	bl	8004cfc <netconn_delete>
 8000afa:	2300      	movs	r3, #0
 8000afc:	6023      	str	r3, [r4, #0]
 8000afe:	e7a7      	b.n	8000a50 <netconn_tcp_client_task+0x10>
 8000b00:	3954fea9 	.word	0x3954fea9
 8000b04:	200000a4 	.word	0x200000a4
 8000b08:	0800f838 	.word	0x0800f838
 8000b0c:	0800d454 	.word	0x0800d454
 8000b10:	200000a0 	.word	0x200000a0
 8000b14:	20004cb4 	.word	0x20004cb4
 8000b18:	20004c50 	.word	0x20004c50

08000b1c <tcpclient_init>:
 8000b1c:	b513      	push	{r0, r1, r4, lr}
 8000b1e:	4c0a      	ldr	r4, [pc, #40]	; (8000b48 <tcpclient_init+0x2c>)
 8000b20:	2300      	movs	r3, #0
 8000b22:	2061      	movs	r0, #97	; 0x61
 8000b24:	f640 32b8 	movw	r2, #3000	; 0xbb8
 8000b28:	6821      	ldr	r1, [r4, #0]
 8000b2a:	54c8      	strb	r0, [r1, r3]
 8000b2c:	3301      	adds	r3, #1
 8000b2e:	4293      	cmp	r3, r2
 8000b30:	d1fa      	bne.n	8000b28 <tcpclient_init+0xc>
 8000b32:	2318      	movs	r3, #24
 8000b34:	9300      	str	r3, [sp, #0]
 8000b36:	2200      	movs	r2, #0
 8000b38:	f44f 6380 	mov.w	r3, #1024	; 0x400
 8000b3c:	4903      	ldr	r1, [pc, #12]	; (8000b4c <tcpclient_init+0x30>)
 8000b3e:	4804      	ldr	r0, [pc, #16]	; (8000b50 <tcpclient_init+0x34>)
 8000b40:	f00b fc43 	bl	800c3ca <sys_thread_new>
 8000b44:	b002      	add	sp, #8
 8000b46:	bd10      	pop	{r4, pc}
 8000b48:	20000004 	.word	0x20000004
 8000b4c:	08000a41 	.word	0x08000a41
 8000b50:	0800d4dd 	.word	0x0800d4dd

08000b54 <Reset_Handler>:
 8000b54:	f8df d034 	ldr.w	sp, [pc, #52]	; 8000b8c <LoopFillZerobss+0x14>
 8000b58:	2100      	movs	r1, #0
 8000b5a:	e003      	b.n	8000b64 <LoopCopyDataInit>

08000b5c <CopyDataInit>:
 8000b5c:	4b0c      	ldr	r3, [pc, #48]	; (8000b90 <LoopFillZerobss+0x18>)
 8000b5e:	585b      	ldr	r3, [r3, r1]
 8000b60:	5043      	str	r3, [r0, r1]
 8000b62:	3104      	adds	r1, #4

08000b64 <LoopCopyDataInit>:
 8000b64:	480b      	ldr	r0, [pc, #44]	; (8000b94 <LoopFillZerobss+0x1c>)
 8000b66:	4b0c      	ldr	r3, [pc, #48]	; (8000b98 <LoopFillZerobss+0x20>)
 8000b68:	1842      	adds	r2, r0, r1
 8000b6a:	429a      	cmp	r2, r3
 8000b6c:	d3f6      	bcc.n	8000b5c <CopyDataInit>
 8000b6e:	4a0b      	ldr	r2, [pc, #44]	; (8000b9c <LoopFillZerobss+0x24>)
 8000b70:	e002      	b.n	8000b78 <LoopFillZerobss>

08000b72 <FillZerobss>:
 8000b72:	2300      	movs	r3, #0
 8000b74:	f842 3b04 	str.w	r3, [r2], #4

08000b78 <LoopFillZerobss>:
 8000b78:	4b09      	ldr	r3, [pc, #36]	; (8000ba0 <LoopFillZerobss+0x28>)
 8000b7a:	429a      	cmp	r2, r3
 8000b7c:	d3f9      	bcc.n	8000b72 <FillZerobss>
 8000b7e:	f7ff fee9 	bl	8000954 <SystemInit>
 8000b82:	f00b fd15 	bl	800c5b0 <__libc_init_array>
 8000b86:	f7ff fd69 	bl	800065c <main>
 8000b8a:	4770      	bx	lr
 8000b8c:	20030000 	.word	0x20030000
 8000b90:	0800fb1c 	.word	0x0800fb1c
 8000b94:	20000000 	.word	0x20000000
 8000b98:	20000080 	.word	0x20000080
 8000b9c:	20000080 	.word	0x20000080
 8000ba0:	2000b564 	.word	0x2000b564

08000ba4 <ADC_IRQHandler>:
 8000ba4:	e7fe      	b.n	8000ba4 <ADC_IRQHandler>
	...

08000ba8 <HAL_Init>:
 8000ba8:	b508      	push	{r3, lr}
 8000baa:	4b0b      	ldr	r3, [pc, #44]	; (8000bd8 <HAL_Init+0x30>)
 8000bac:	681a      	ldr	r2, [r3, #0]
 8000bae:	f442 7200 	orr.w	r2, r2, #512	; 0x200
 8000bb2:	601a      	str	r2, [r3, #0]
 8000bb4:	681a      	ldr	r2, [r3, #0]
 8000bb6:	f442 6280 	orr.w	r2, r2, #1024	; 0x400
 8000bba:	601a      	str	r2, [r3, #0]
 8000bbc:	681a      	ldr	r2, [r3, #0]
 8000bbe:	f442 7280 	orr.w	r2, r2, #256	; 0x100
 8000bc2:	601a      	str	r2, [r3, #0]
 8000bc4:	2003      	movs	r0, #3
 8000bc6:	f000 f82f 	bl	8000c28 <HAL_NVIC_SetPriorityGrouping>
 8000bca:	2000      	movs	r0, #0
 8000bcc:	f7ff fe2a 	bl	8000824 <HAL_InitTick>
 8000bd0:	f7ff fe0c 	bl	80007ec <HAL_MspInit>
 8000bd4:	2000      	movs	r0, #0
 8000bd6:	bd08      	pop	{r3, pc}
 8000bd8:	40023c00 	.word	0x40023c00

08000bdc <HAL_IncTick>:
 8000bdc:	4a03      	ldr	r2, [pc, #12]	; (8000bec <HAL_IncTick+0x10>)
 8000bde:	4b04      	ldr	r3, [pc, #16]	; (8000bf0 <HAL_IncTick+0x14>)
 8000be0:	6811      	ldr	r1, [r2, #0]
 8000be2:	781b      	ldrb	r3, [r3, #0]
 8000be4:	440b      	add	r3, r1
 8000be6:	6013      	str	r3, [r2, #0]
 8000be8:	4770      	bx	lr
 8000bea:	bf00      	nop
 8000bec:	20004d18 	.word	0x20004d18
 8000bf0:	20000008 	.word	0x20000008

08000bf4 <HAL_GetTick>:
 8000bf4:	4b01      	ldr	r3, [pc, #4]	; (8000bfc <HAL_GetTick+0x8>)
 8000bf6:	6818      	ldr	r0, [r3, #0]
 8000bf8:	4770      	bx	lr
 8000bfa:	bf00      	nop
 8000bfc:	20004d18 	.word	0x20004d18

08000c00 <HAL_Delay>:
 8000c00:	b538      	push	{r3, r4, r5, lr}
 8000c02:	4604      	mov	r4, r0
 8000c04:	f7ff fff6 	bl	8000bf4 <HAL_GetTick>
 8000c08:	1c63      	adds	r3, r4, #1
 8000c0a:	bf1c      	itt	ne
 8000c0c:	4b05      	ldrne	r3, [pc, #20]	; (8000c24 <HAL_Delay+0x24>)
 8000c0e:	781b      	ldrbne	r3, [r3, #0]
 8000c10:	4605      	mov	r5, r0
 8000c12:	bf18      	it	ne
 8000c14:	18e4      	addne	r4, r4, r3
 8000c16:	f7ff ffed 	bl	8000bf4 <HAL_GetTick>
 8000c1a:	1b40      	subs	r0, r0, r5
 8000c1c:	42a0      	cmp	r0, r4
 8000c1e:	d3fa      	bcc.n	8000c16 <HAL_Delay+0x16>
 8000c20:	bd38      	pop	{r3, r4, r5, pc}
 8000c22:	bf00      	nop
 8000c24:	20000008 	.word	0x20000008

08000c28 <HAL_NVIC_SetPriorityGrouping>:
 8000c28:	4a07      	ldr	r2, [pc, #28]	; (8000c48 <HAL_NVIC_SetPriorityGrouping+0x20>)
 8000c2a:	68d3      	ldr	r3, [r2, #12]
 8000c2c:	f423 63e0 	bic.w	r3, r3, #1792	; 0x700
 8000c30:	041b      	lsls	r3, r3, #16
 8000c32:	0c1b      	lsrs	r3, r3, #16
 8000c34:	f043 63bf 	orr.w	r3, r3, #100139008	; 0x5f80000
 8000c38:	0200      	lsls	r0, r0, #8
 8000c3a:	f443 3300 	orr.w	r3, r3, #131072	; 0x20000
 8000c3e:	f400 60e0 	and.w	r0, r0, #1792	; 0x700
 8000c42:	4303      	orrs	r3, r0
 8000c44:	60d3      	str	r3, [r2, #12]
 8000c46:	4770      	bx	lr
 8000c48:	e000ed00 	.word	0xe000ed00

08000c4c <HAL_NVIC_SetPriority>:
 8000c4c:	4b17      	ldr	r3, [pc, #92]	; (8000cac <HAL_NVIC_SetPriority+0x60>)
 8000c4e:	b570      	push	{r4, r5, r6, lr}
 8000c50:	68dc      	ldr	r4, [r3, #12]
 8000c52:	f3c4 2402 	ubfx	r4, r4, #8, #3
 8000c56:	f1c4 0507 	rsb	r5, r4, #7
 8000c5a:	2d04      	cmp	r5, #4
 8000c5c:	f104 0304 	add.w	r3, r4, #4
 8000c60:	bf28      	it	cs
 8000c62:	2504      	movcs	r5, #4
 8000c64:	f04f 36ff 	mov.w	r6, #4294967295
 8000c68:	2b06      	cmp	r3, #6
 8000c6a:	fa06 f305 	lsl.w	r3, r6, r5
 8000c6e:	bf8c      	ite	hi
 8000c70:	3c03      	subhi	r4, #3
 8000c72:	2400      	movls	r4, #0
 8000c74:	ea21 0303 	bic.w	r3, r1, r3
 8000c78:	40a3      	lsls	r3, r4
 8000c7a:	fa06 f404 	lsl.w	r4, r6, r4
 8000c7e:	ea22 0404 	bic.w	r4, r2, r4
 8000c82:	2800      	cmp	r0, #0
 8000c84:	ea43 0304 	orr.w	r3, r3, r4
 8000c88:	bfa8      	it	ge
 8000c8a:	f100 4060 	addge.w	r0, r0, #3758096384	; 0xe0000000
 8000c8e:	ea4f 1303 	mov.w	r3, r3, lsl #4
 8000c92:	bfbc      	itt	lt
 8000c94:	f000 000f 	andlt.w	r0, r0, #15
 8000c98:	4a05      	ldrlt	r2, [pc, #20]	; (8000cb0 <HAL_NVIC_SetPriority+0x64>)
 8000c9a:	b2db      	uxtb	r3, r3
 8000c9c:	bfaa      	itet	ge
 8000c9e:	f500 4061 	addge.w	r0, r0, #57600	; 0xe100
 8000ca2:	5413      	strblt	r3, [r2, r0]
 8000ca4:	f880 3300 	strbge.w	r3, [r0, #768]	; 0x300
 8000ca8:	bd70      	pop	{r4, r5, r6, pc}
 8000caa:	bf00      	nop
 8000cac:	e000ed00 	.word	0xe000ed00
 8000cb0:	e000ed14 	.word	0xe000ed14

08000cb4 <HAL_NVIC_EnableIRQ>:
 8000cb4:	2800      	cmp	r0, #0
 8000cb6:	db08      	blt.n	8000cca <HAL_NVIC_EnableIRQ+0x16>
 8000cb8:	0942      	lsrs	r2, r0, #5
 8000cba:	2301      	movs	r3, #1
 8000cbc:	f000 001f 	and.w	r0, r0, #31
 8000cc0:	fa03 f000 	lsl.w	r0, r3, r0
 8000cc4:	4b01      	ldr	r3, [pc, #4]	; (8000ccc <HAL_NVIC_EnableIRQ+0x18>)
 8000cc6:	f843 0022 	str.w	r0, [r3, r2, lsl #2]
 8000cca:	4770      	bx	lr
 8000ccc:	e000e100 	.word	0xe000e100

08000cd0 <ETH_Delay.constprop.4>:
 8000cd0:	b082      	sub	sp, #8
 8000cd2:	4b07      	ldr	r3, [pc, #28]	; (8000cf0 <ETH_Delay.constprop.4+0x20>)
 8000cd4:	f44f 52fa 	mov.w	r2, #8000	; 0x1f40
 8000cd8:	681b      	ldr	r3, [r3, #0]
 8000cda:	fbb3 f3f2 	udiv	r3, r3, r2
 8000cde:	9301      	str	r3, [sp, #4]
 8000ce0:	bf00      	nop
 8000ce2:	9b01      	ldr	r3, [sp, #4]
 8000ce4:	1e5a      	subs	r2, r3, #1
 8000ce6:	9201      	str	r2, [sp, #4]
 8000ce8:	2b00      	cmp	r3, #0
 8000cea:	d1f9      	bne.n	8000ce0 <ETH_Delay.constprop.4+0x10>
 8000cec:	b002      	add	sp, #8
 8000cee:	4770      	bx	lr
 8000cf0:	20000000 	.word	0x20000000

08000cf4 <ETH_FlushTransmitFIFO>:
 8000cf4:	b507      	push	{r0, r1, r2, lr}
 8000cf6:	2300      	movs	r3, #0
 8000cf8:	9301      	str	r3, [sp, #4]
 8000cfa:	f241 0118 	movw	r1, #4120	; 0x1018
 8000cfe:	6803      	ldr	r3, [r0, #0]
 8000d00:	585a      	ldr	r2, [r3, r1]
 8000d02:	f442 1280 	orr.w	r2, r2, #1048576	; 0x100000
 8000d06:	505a      	str	r2, [r3, r1]
 8000d08:	585b      	ldr	r3, [r3, r1]
 8000d0a:	9301      	str	r3, [sp, #4]
 8000d0c:	f7ff ffe0 	bl	8000cd0 <ETH_Delay.constprop.4>
 8000d10:	9a01      	ldr	r2, [sp, #4]
 8000d12:	6803      	ldr	r3, [r0, #0]
 8000d14:	505a      	str	r2, [r3, r1]
 8000d16:	b003      	add	sp, #12
 8000d18:	f85d fb04 	ldr.w	pc, [sp], #4

08000d1c <ETH_MACDMAConfig>:
 8000d1c:	b570      	push	{r4, r5, r6, lr}
 8000d1e:	4604      	mov	r4, r0
 8000d20:	b129      	cbz	r1, 8000d2e <ETH_MACDMAConfig+0x12>
 8000d22:	f44f 4380 	mov.w	r3, #16384	; 0x4000
 8000d26:	f44f 6200 	mov.w	r2, #2048	; 0x800
 8000d2a:	e9c0 3202 	strd	r3, r2, [r0, #8]
 8000d2e:	69e3      	ldr	r3, [r4, #28]
 8000d30:	6822      	ldr	r2, [r4, #0]
 8000d32:	2b00      	cmp	r3, #0
 8000d34:	e9d4 3002 	ldrd	r3, r0, [r4, #8]
 8000d38:	6815      	ldr	r5, [r2, #0]
 8000d3a:	ea43 0300 	orr.w	r3, r3, r0
 8000d3e:	4830      	ldr	r0, [pc, #192]	; (8000e00 <ETH_MACDMAConfig+0xe4>)
 8000d40:	f443 7300 	orr.w	r3, r3, #512	; 0x200
 8000d44:	ea00 0005 	and.w	r0, r0, r5
 8000d48:	bf0c      	ite	eq
 8000d4a:	f44f 6180 	moveq.w	r1, #1024	; 0x400
 8000d4e:	2100      	movne	r1, #0
 8000d50:	4303      	orrs	r3, r0
 8000d52:	430b      	orrs	r3, r1
 8000d54:	6013      	str	r3, [r2, #0]
 8000d56:	2001      	movs	r0, #1
 8000d58:	6815      	ldr	r5, [r2, #0]
 8000d5a:	f7ff ff51 	bl	8000c00 <HAL_Delay>
 8000d5e:	6823      	ldr	r3, [r4, #0]
 8000d60:	2240      	movs	r2, #64	; 0x40
 8000d62:	601d      	str	r5, [r3, #0]
 8000d64:	2001      	movs	r0, #1
 8000d66:	605a      	str	r2, [r3, #4]
 8000d68:	685d      	ldr	r5, [r3, #4]
 8000d6a:	f7ff ff49 	bl	8000c00 <HAL_Delay>
 8000d6e:	6823      	ldr	r3, [r4, #0]
 8000d70:	605d      	str	r5, [r3, #4]
 8000d72:	2500      	movs	r5, #0
 8000d74:	609d      	str	r5, [r3, #8]
 8000d76:	60dd      	str	r5, [r3, #12]
 8000d78:	699a      	ldr	r2, [r3, #24]
 8000d7a:	f022 02be 	bic.w	r2, r2, #190	; 0xbe
 8000d7e:	0412      	lsls	r2, r2, #16
 8000d80:	0c12      	lsrs	r2, r2, #16
 8000d82:	f042 0280 	orr.w	r2, r2, #128	; 0x80
 8000d86:	619a      	str	r2, [r3, #24]
 8000d88:	2001      	movs	r0, #1
 8000d8a:	699e      	ldr	r6, [r3, #24]
 8000d8c:	f7ff ff38 	bl	8000c00 <HAL_Delay>
 8000d90:	6823      	ldr	r3, [r4, #0]
 8000d92:	2001      	movs	r0, #1
 8000d94:	619e      	str	r6, [r3, #24]
 8000d96:	61dd      	str	r5, [r3, #28]
 8000d98:	69dd      	ldr	r5, [r3, #28]
 8000d9a:	f7ff ff31 	bl	8000c00 <HAL_Delay>
 8000d9e:	6822      	ldr	r2, [r4, #0]
 8000da0:	4b18      	ldr	r3, [pc, #96]	; (8000e04 <ETH_MACDMAConfig+0xe8>)
 8000da2:	61d5      	str	r5, [r2, #28]
 8000da4:	f241 0518 	movw	r5, #4120	; 0x1018
 8000da8:	2001      	movs	r0, #1
 8000daa:	5951      	ldr	r1, [r2, r5]
 8000dac:	400b      	ands	r3, r1
 8000dae:	f043 7308 	orr.w	r3, r3, #35651584	; 0x2200000
 8000db2:	f043 0304 	orr.w	r3, r3, #4
 8000db6:	5153      	str	r3, [r2, r5]
 8000db8:	5956      	ldr	r6, [r2, r5]
 8000dba:	f7ff ff21 	bl	8000c00 <HAL_Delay>
 8000dbe:	6823      	ldr	r3, [r4, #0]
 8000dc0:	4a11      	ldr	r2, [pc, #68]	; (8000e08 <ETH_MACDMAConfig+0xec>)
 8000dc2:	515e      	str	r6, [r3, r5]
 8000dc4:	f503 5380 	add.w	r3, r3, #4096	; 0x1000
 8000dc8:	2001      	movs	r0, #1
 8000dca:	601a      	str	r2, [r3, #0]
 8000dcc:	681d      	ldr	r5, [r3, #0]
 8000dce:	f7ff ff17 	bl	8000c00 <HAL_Delay>
 8000dd2:	6822      	ldr	r2, [r4, #0]
 8000dd4:	f502 5380 	add.w	r3, r2, #4096	; 0x1000
 8000dd8:	601d      	str	r5, [r3, #0]
 8000dda:	69a3      	ldr	r3, [r4, #24]
 8000ddc:	2b01      	cmp	r3, #1
 8000dde:	d107      	bne.n	8000df0 <ETH_MACDMAConfig+0xd4>
 8000de0:	f241 011c 	movw	r1, #4124	; 0x101c
 8000de4:	5853      	ldr	r3, [r2, r1]
 8000de6:	f443 3380 	orr.w	r3, r3, #65536	; 0x10000
 8000dea:	f043 0340 	orr.w	r3, r3, #64	; 0x40
 8000dee:	5053      	str	r3, [r2, r1]
 8000df0:	6963      	ldr	r3, [r4, #20]
 8000df2:	4a06      	ldr	r2, [pc, #24]	; (8000e0c <ETH_MACDMAConfig+0xf0>)
 8000df4:	8899      	ldrh	r1, [r3, #4]
 8000df6:	6011      	str	r1, [r2, #0]
 8000df8:	681a      	ldr	r2, [r3, #0]
 8000dfa:	4b05      	ldr	r3, [pc, #20]	; (8000e10 <ETH_MACDMAConfig+0xf4>)
 8000dfc:	601a      	str	r2, [r3, #0]
 8000dfe:	bd70      	pop	{r4, r5, r6, pc}
 8000e00:	ff20810f 	.word	0xff20810f
 8000e04:	f8de3f23 	.word	0xf8de3f23
 8000e08:	02c12080 	.word	0x02c12080
 8000e0c:	40028040 	.word	0x40028040
 8000e10:	40028044 	.word	0x40028044

08000e14 <HAL_ETH_DMATxDescListInit>:
 8000e14:	e92d 41f0 	stmdb	sp!, {r4, r5, r6, r7, r8, lr}
 8000e18:	f890 4045 	ldrb.w	r4, [r0, #69]	; 0x45
 8000e1c:	2c01      	cmp	r4, #1
 8000e1e:	f04f 0402 	mov.w	r4, #2
 8000e22:	d031      	beq.n	8000e88 <HAL_ETH_DMATxDescListInit+0x74>
 8000e24:	2501      	movs	r5, #1
 8000e26:	f880 5045 	strb.w	r5, [r0, #69]	; 0x45
 8000e2a:	f880 4044 	strb.w	r4, [r0, #68]	; 0x44
 8000e2e:	62c1      	str	r1, [r0, #44]	; 0x2c
 8000e30:	460c      	mov	r4, r1
 8000e32:	2500      	movs	r5, #0
 8000e34:	f44f 1780 	mov.w	r7, #1048576	; 0x100000
 8000e38:	f240 5cf4 	movw	ip, #1524	; 0x5f4
 8000e3c:	f103 3eff 	add.w	lr, r3, #4294967295
 8000e40:	429d      	cmp	r5, r3
 8000e42:	d10c      	bne.n	8000e5e <HAL_ETH_DMATxDescListInit+0x4a>
 8000e44:	6802      	ldr	r2, [r0, #0]
 8000e46:	f241 0310 	movw	r3, #4112	; 0x1010
 8000e4a:	50d1      	str	r1, [r2, r3]
 8000e4c:	2301      	movs	r3, #1
 8000e4e:	f880 3044 	strb.w	r3, [r0, #68]	; 0x44
 8000e52:	2300      	movs	r3, #0
 8000e54:	f880 3045 	strb.w	r3, [r0, #69]	; 0x45
 8000e58:	4618      	mov	r0, r3
 8000e5a:	e8bd 81f0 	ldmia.w	sp!, {r4, r5, r6, r7, r8, pc}
 8000e5e:	fb0c 2605 	mla	r6, ip, r5, r2
 8000e62:	60a6      	str	r6, [r4, #8]
 8000e64:	69c6      	ldr	r6, [r0, #28]
 8000e66:	6027      	str	r7, [r4, #0]
 8000e68:	b91e      	cbnz	r6, 8000e72 <HAL_ETH_DMATxDescListInit+0x5e>
 8000e6a:	6826      	ldr	r6, [r4, #0]
 8000e6c:	f446 0640 	orr.w	r6, r6, #12582912	; 0xc00000
 8000e70:	6026      	str	r6, [r4, #0]
 8000e72:	f104 0620 	add.w	r6, r4, #32
 8000e76:	45ae      	cmp	lr, r5
 8000e78:	bf94      	ite	ls
 8000e7a:	4688      	movls	r8, r1
 8000e7c:	46b0      	movhi	r8, r6
 8000e7e:	f8c4 800c 	str.w	r8, [r4, #12]
 8000e82:	3501      	adds	r5, #1
 8000e84:	4634      	mov	r4, r6
 8000e86:	e7db      	b.n	8000e40 <HAL_ETH_DMATxDescListInit+0x2c>
 8000e88:	4620      	mov	r0, r4
 8000e8a:	e7e6      	b.n	8000e5a <HAL_ETH_DMATxDescListInit+0x46>

08000e8c <HAL_ETH_DMARxDescListInit>:
 8000e8c:	e92d 43f0 	stmdb	sp!, {r4, r5, r6, r7, r8, r9, lr}
 8000e90:	f890 4045 	ldrb.w	r4, [r0, #69]	; 0x45
 8000e94:	2c01      	cmp	r4, #1
 8000e96:	f04f 0402 	mov.w	r4, #2
 8000e9a:	d02f      	beq.n	8000efc <HAL_ETH_DMARxDescListInit+0x70>
 8000e9c:	2501      	movs	r5, #1
 8000e9e:	f880 5045 	strb.w	r5, [r0, #69]	; 0x45
 8000ea2:	f880 4044 	strb.w	r4, [r0, #68]	; 0x44
 8000ea6:	6281      	str	r1, [r0, #40]	; 0x28
 8000ea8:	460c      	mov	r4, r1
 8000eaa:	2500      	movs	r5, #0
 8000eac:	f04f 4700 	mov.w	r7, #2147483648	; 0x80000000
 8000eb0:	f244 5cf4 	movw	ip, #17908	; 0x45f4
 8000eb4:	f240 5ef4 	movw	lr, #1524	; 0x5f4
 8000eb8:	f103 38ff 	add.w	r8, r3, #4294967295
 8000ebc:	42ab      	cmp	r3, r5
 8000ebe:	d10c      	bne.n	8000eda <HAL_ETH_DMARxDescListInit+0x4e>
 8000ec0:	6802      	ldr	r2, [r0, #0]
 8000ec2:	f241 030c 	movw	r3, #4108	; 0x100c
 8000ec6:	50d1      	str	r1, [r2, r3]
 8000ec8:	2301      	movs	r3, #1
 8000eca:	f880 3044 	strb.w	r3, [r0, #68]	; 0x44
 8000ece:	2300      	movs	r3, #0
 8000ed0:	f880 3045 	strb.w	r3, [r0, #69]	; 0x45
 8000ed4:	4618      	mov	r0, r3
 8000ed6:	e8bd 83f0 	ldmia.w	sp!, {r4, r5, r6, r7, r8, r9, pc}
 8000eda:	fb0e 2605 	mla	r6, lr, r5, r2
 8000ede:	60a6      	str	r6, [r4, #8]
 8000ee0:	f104 0620 	add.w	r6, r4, #32
 8000ee4:	45a8      	cmp	r8, r5
 8000ee6:	bf94      	ite	ls
 8000ee8:	4689      	movls	r9, r1
 8000eea:	46b1      	movhi	r9, r6
 8000eec:	6027      	str	r7, [r4, #0]
 8000eee:	f8c4 c004 	str.w	ip, [r4, #4]
 8000ef2:	f8c4 900c 	str.w	r9, [r4, #12]
 8000ef6:	3501      	adds	r5, #1
 8000ef8:	4634      	mov	r4, r6
 8000efa:	e7df      	b.n	8000ebc <HAL_ETH_DMARxDescListInit+0x30>
 8000efc:	4620      	mov	r0, r4
 8000efe:	e7ea      	b.n	8000ed6 <HAL_ETH_DMARxDescListInit+0x4a>

08000f00 <HAL_ETH_TransmitFrame>:
 8000f00:	f890 3045 	ldrb.w	r3, [r0, #69]	; 0x45
 8000f04:	2b01      	cmp	r3, #1
 8000f06:	b5f0      	push	{r4, r5, r6, r7, lr}
 8000f08:	f04f 0302 	mov.w	r3, #2
 8000f0c:	d068      	beq.n	8000fe0 <HAL_ETH_TransmitFrame+0xe0>
 8000f0e:	2201      	movs	r2, #1
 8000f10:	f880 2045 	strb.w	r2, [r0, #69]	; 0x45
 8000f14:	f880 3044 	strb.w	r3, [r0, #68]	; 0x44
 8000f18:	b929      	cbnz	r1, 8000f26 <HAL_ETH_TransmitFrame+0x26>
 8000f1a:	f880 2044 	strb.w	r2, [r0, #68]	; 0x44
 8000f1e:	f880 1045 	strb.w	r1, [r0, #69]	; 0x45
 8000f22:	4610      	mov	r0, r2
 8000f24:	bdf0      	pop	{r4, r5, r6, r7, pc}
 8000f26:	6ac3      	ldr	r3, [r0, #44]	; 0x2c
 8000f28:	681c      	ldr	r4, [r3, #0]
 8000f2a:	2c00      	cmp	r4, #0
 8000f2c:	da06      	bge.n	8000f3c <HAL_ETH_TransmitFrame+0x3c>
 8000f2e:	2312      	movs	r3, #18
 8000f30:	f880 3044 	strb.w	r3, [r0, #68]	; 0x44
 8000f34:	2300      	movs	r3, #0
 8000f36:	f880 3045 	strb.w	r3, [r0, #69]	; 0x45
 8000f3a:	e7f2      	b.n	8000f22 <HAL_ETH_TransmitFrame+0x22>
 8000f3c:	f240 54f4 	movw	r4, #1524	; 0x5f4
 8000f40:	42a1      	cmp	r1, r4
 8000f42:	d92e      	bls.n	8000fa2 <HAL_ETH_TransmitFrame+0xa2>
 8000f44:	fbb1 f2f4 	udiv	r2, r1, r4
 8000f48:	fb04 1412 	mls	r4, r4, r2, r1
 8000f4c:	b33c      	cbz	r4, 8000f9e <HAL_ETH_TransmitFrame+0x9e>
 8000f4e:	3201      	adds	r2, #1
 8000f50:	4c24      	ldr	r4, [pc, #144]	; (8000fe4 <HAL_ETH_TransmitFrame+0xe4>)
 8000f52:	f201 51f4 	addw	r1, r1, #1524	; 0x5f4
 8000f56:	fb04 1102 	mla	r1, r4, r2, r1
 8000f5a:	f3c1 010c 	ubfx	r1, r1, #0, #13
 8000f5e:	2400      	movs	r4, #0
 8000f60:	f240 57f4 	movw	r7, #1524	; 0x5f4
 8000f64:	1e56      	subs	r6, r2, #1
 8000f66:	681d      	ldr	r5, [r3, #0]
 8000f68:	f025 5540 	bic.w	r5, r5, #805306368	; 0x30000000
 8000f6c:	601d      	str	r5, [r3, #0]
 8000f6e:	b91c      	cbnz	r4, 8000f78 <HAL_ETH_TransmitFrame+0x78>
 8000f70:	681d      	ldr	r5, [r3, #0]
 8000f72:	f045 5580 	orr.w	r5, r5, #268435456	; 0x10000000
 8000f76:	601d      	str	r5, [r3, #0]
 8000f78:	42a6      	cmp	r6, r4
 8000f7a:	bf08      	it	eq
 8000f7c:	681d      	ldreq	r5, [r3, #0]
 8000f7e:	605f      	str	r7, [r3, #4]
 8000f80:	bf04      	itt	eq
 8000f82:	f045 5500 	orreq.w	r5, r5, #536870912	; 0x20000000
 8000f86:	601d      	streq	r5, [r3, #0]
 8000f88:	681d      	ldr	r5, [r3, #0]
 8000f8a:	bf08      	it	eq
 8000f8c:	6059      	streq	r1, [r3, #4]
 8000f8e:	3401      	adds	r4, #1
 8000f90:	f045 4500 	orr.w	r5, r5, #2147483648	; 0x80000000
 8000f94:	4294      	cmp	r4, r2
 8000f96:	601d      	str	r5, [r3, #0]
 8000f98:	68db      	ldr	r3, [r3, #12]
 8000f9a:	d1e4      	bne.n	8000f66 <HAL_ETH_TransmitFrame+0x66>
 8000f9c:	e00d      	b.n	8000fba <HAL_ETH_TransmitFrame+0xba>
 8000f9e:	2a01      	cmp	r2, #1
 8000fa0:	d1d6      	bne.n	8000f50 <HAL_ETH_TransmitFrame+0x50>
 8000fa2:	681a      	ldr	r2, [r3, #0]
 8000fa4:	f042 5240 	orr.w	r2, r2, #805306368	; 0x30000000
 8000fa8:	601a      	str	r2, [r3, #0]
 8000faa:	681a      	ldr	r2, [r3, #0]
 8000fac:	f3c1 010c 	ubfx	r1, r1, #0, #13
 8000fb0:	f042 4200 	orr.w	r2, r2, #2147483648	; 0x80000000
 8000fb4:	6059      	str	r1, [r3, #4]
 8000fb6:	601a      	str	r2, [r3, #0]
 8000fb8:	68db      	ldr	r3, [r3, #12]
 8000fba:	62c3      	str	r3, [r0, #44]	; 0x2c
 8000fbc:	f241 0214 	movw	r2, #4116	; 0x1014
 8000fc0:	6803      	ldr	r3, [r0, #0]
 8000fc2:	5899      	ldr	r1, [r3, r2]
 8000fc4:	0749      	lsls	r1, r1, #29
 8000fc6:	d505      	bpl.n	8000fd4 <HAL_ETH_TransmitFrame+0xd4>
 8000fc8:	2104      	movs	r1, #4
 8000fca:	5099      	str	r1, [r3, r2]
 8000fcc:	f241 0204 	movw	r2, #4100	; 0x1004
 8000fd0:	2100      	movs	r1, #0
 8000fd2:	5099      	str	r1, [r3, r2]
 8000fd4:	2301      	movs	r3, #1
 8000fd6:	f880 3044 	strb.w	r3, [r0, #68]	; 0x44
 8000fda:	2300      	movs	r3, #0
 8000fdc:	f880 3045 	strb.w	r3, [r0, #69]	; 0x45
 8000fe0:	4618      	mov	r0, r3
 8000fe2:	e79f      	b.n	8000f24 <HAL_ETH_TransmitFrame+0x24>
 8000fe4:	fffffa0c 	.word	0xfffffa0c

08000fe8 <HAL_ETH_GetReceivedFrame_IT>:
 8000fe8:	f890 3045 	ldrb.w	r3, [r0, #69]	; 0x45
 8000fec:	2b01      	cmp	r3, #1
 8000fee:	b570      	push	{r4, r5, r6, lr}
 8000ff0:	f04f 0302 	mov.w	r3, #2
 8000ff4:	d03b      	beq.n	800106e <HAL_ETH_GetReceivedFrame_IT+0x86>
 8000ff6:	2201      	movs	r2, #1
 8000ff8:	f880 2045 	strb.w	r2, [r0, #69]	; 0x45
 8000ffc:	f880 3044 	strb.w	r3, [r0, #68]	; 0x44
 8001000:	2405      	movs	r4, #5
 8001002:	4611      	mov	r1, r2
 8001004:	6a83      	ldr	r3, [r0, #40]	; 0x28
 8001006:	681a      	ldr	r2, [r3, #0]
 8001008:	2a00      	cmp	r2, #0
 800100a:	db01      	blt.n	8001010 <HAL_ETH_GetReceivedFrame_IT+0x28>
 800100c:	3c01      	subs	r4, #1
 800100e:	d106      	bne.n	800101e <HAL_ETH_GetReceivedFrame_IT+0x36>
 8001010:	2301      	movs	r3, #1
 8001012:	2200      	movs	r2, #0
 8001014:	f880 3044 	strb.w	r3, [r0, #68]	; 0x44
 8001018:	f880 2045 	strb.w	r2, [r0, #69]	; 0x45
 800101c:	e027      	b.n	800106e <HAL_ETH_GetReceivedFrame_IT+0x86>
 800101e:	681a      	ldr	r2, [r3, #0]
 8001020:	68dd      	ldr	r5, [r3, #12]
 8001022:	f402 7240 	and.w	r2, r2, #768	; 0x300
 8001026:	f5b2 7f00 	cmp.w	r2, #512	; 0x200
 800102a:	d103      	bne.n	8001034 <HAL_ETH_GetReceivedFrame_IT+0x4c>
 800102c:	6303      	str	r3, [r0, #48]	; 0x30
 800102e:	6381      	str	r1, [r0, #56]	; 0x38
 8001030:	6285      	str	r5, [r0, #40]	; 0x28
 8001032:	e7e7      	b.n	8001004 <HAL_ETH_GetReceivedFrame_IT+0x1c>
 8001034:	681e      	ldr	r6, [r3, #0]
 8001036:	6b82      	ldr	r2, [r0, #56]	; 0x38
 8001038:	f416 7f40 	tst.w	r6, #768	; 0x300
 800103c:	f102 0201 	add.w	r2, r2, #1
 8001040:	d101      	bne.n	8001046 <HAL_ETH_GetReceivedFrame_IT+0x5e>
 8001042:	6382      	str	r2, [r0, #56]	; 0x38
 8001044:	e7f4      	b.n	8001030 <HAL_ETH_GetReceivedFrame_IT+0x48>
 8001046:	2a01      	cmp	r2, #1
 8001048:	bf08      	it	eq
 800104a:	6303      	streq	r3, [r0, #48]	; 0x30
 800104c:	e9c0 320d 	strd	r3, r2, [r0, #52]	; 0x34
 8001050:	681b      	ldr	r3, [r3, #0]
 8001052:	f3c3 430d 	ubfx	r3, r3, #16, #14
 8001056:	3b04      	subs	r3, #4
 8001058:	63c3      	str	r3, [r0, #60]	; 0x3c
 800105a:	6b03      	ldr	r3, [r0, #48]	; 0x30
 800105c:	689b      	ldr	r3, [r3, #8]
 800105e:	6403      	str	r3, [r0, #64]	; 0x40
 8001060:	2301      	movs	r3, #1
 8001062:	f880 3044 	strb.w	r3, [r0, #68]	; 0x44
 8001066:	2300      	movs	r3, #0
 8001068:	6285      	str	r5, [r0, #40]	; 0x28
 800106a:	f880 3045 	strb.w	r3, [r0, #69]	; 0x45
 800106e:	4618      	mov	r0, r3
 8001070:	bd70      	pop	{r4, r5, r6, pc}

08001072 <HAL_ETH_TxCpltCallback>:
 8001072:	4770      	bx	lr

08001074 <HAL_ETH_ErrorCallback>:
 8001074:	4770      	bx	lr

08001076 <HAL_ETH_IRQHandler>:
 8001076:	b570      	push	{r4, r5, r6, lr}
 8001078:	6802      	ldr	r2, [r0, #0]
 800107a:	f241 0614 	movw	r6, #4116	; 0x1014
 800107e:	4604      	mov	r4, r0
 8001080:	5995      	ldr	r5, [r2, r6]
 8001082:	f015 0540 	ands.w	r5, r5, #64	; 0x40
 8001086:	d021      	beq.n	80010cc <HAL_ETH_IRQHandler+0x56>
 8001088:	f001 f98c 	bl	80023a4 <HAL_ETH_RxCpltCallback>
 800108c:	6823      	ldr	r3, [r4, #0]
 800108e:	2240      	movs	r2, #64	; 0x40
 8001090:	519a      	str	r2, [r3, r6]
 8001092:	2301      	movs	r3, #1
 8001094:	f884 3044 	strb.w	r3, [r4, #68]	; 0x44
 8001098:	2300      	movs	r3, #0
 800109a:	f884 3045 	strb.w	r3, [r4, #69]	; 0x45
 800109e:	6823      	ldr	r3, [r4, #0]
 80010a0:	f241 0514 	movw	r5, #4116	; 0x1014
 80010a4:	f44f 3280 	mov.w	r2, #65536	; 0x10000
 80010a8:	515a      	str	r2, [r3, r5]
 80010aa:	595b      	ldr	r3, [r3, r5]
 80010ac:	041b      	lsls	r3, r3, #16
 80010ae:	d50c      	bpl.n	80010ca <HAL_ETH_IRQHandler+0x54>
 80010b0:	4620      	mov	r0, r4
 80010b2:	f7ff ffdf 	bl	8001074 <HAL_ETH_ErrorCallback>
 80010b6:	6823      	ldr	r3, [r4, #0]
 80010b8:	f44f 4200 	mov.w	r2, #32768	; 0x8000
 80010bc:	515a      	str	r2, [r3, r5]
 80010be:	2301      	movs	r3, #1
 80010c0:	f884 3044 	strb.w	r3, [r4, #68]	; 0x44
 80010c4:	2300      	movs	r3, #0
 80010c6:	f884 3045 	strb.w	r3, [r4, #69]	; 0x45
 80010ca:	bd70      	pop	{r4, r5, r6, pc}
 80010cc:	5993      	ldr	r3, [r2, r6]
 80010ce:	07da      	lsls	r2, r3, #31
 80010d0:	d5e5      	bpl.n	800109e <HAL_ETH_IRQHandler+0x28>
 80010d2:	f7ff ffce 	bl	8001072 <HAL_ETH_TxCpltCallback>
 80010d6:	6822      	ldr	r2, [r4, #0]
 80010d8:	2301      	movs	r3, #1
 80010da:	5193      	str	r3, [r2, r6]
 80010dc:	f884 3044 	strb.w	r3, [r4, #68]	; 0x44
 80010e0:	f884 5045 	strb.w	r5, [r4, #69]	; 0x45
 80010e4:	e7db      	b.n	800109e <HAL_ETH_IRQHandler+0x28>

080010e6 <HAL_ETH_ReadPHYRegister>:
 80010e6:	b5f8      	push	{r3, r4, r5, r6, r7, lr}
 80010e8:	f890 3044 	ldrb.w	r3, [r0, #68]	; 0x44
 80010ec:	2b82      	cmp	r3, #130	; 0x82
 80010ee:	4605      	mov	r5, r0
 80010f0:	4616      	mov	r6, r2
 80010f2:	d030      	beq.n	8001156 <HAL_ETH_ReadPHYRegister+0x70>
 80010f4:	2382      	movs	r3, #130	; 0x82
 80010f6:	f880 3044 	strb.w	r3, [r0, #68]	; 0x44
 80010fa:	6803      	ldr	r3, [r0, #0]
 80010fc:	018c      	lsls	r4, r1, #6
 80010fe:	6918      	ldr	r0, [r3, #16]
 8001100:	f404 64f8 	and.w	r4, r4, #1984	; 0x7c0
 8001104:	f044 0401 	orr.w	r4, r4, #1
 8001108:	f000 001c 	and.w	r0, r0, #28
 800110c:	4320      	orrs	r0, r4
 800110e:	8a2c      	ldrh	r4, [r5, #16]
 8001110:	02e4      	lsls	r4, r4, #11
 8001112:	b2a4      	uxth	r4, r4
 8001114:	4304      	orrs	r4, r0
 8001116:	611c      	str	r4, [r3, #16]
 8001118:	f7ff fd6c 	bl	8000bf4 <HAL_GetTick>
 800111c:	4607      	mov	r7, r0
 800111e:	f014 0001 	ands.w	r0, r4, #1
 8001122:	d107      	bne.n	8001134 <HAL_ETH_ReadPHYRegister+0x4e>
 8001124:	682b      	ldr	r3, [r5, #0]
 8001126:	695b      	ldr	r3, [r3, #20]
 8001128:	b29b      	uxth	r3, r3
 800112a:	6033      	str	r3, [r6, #0]
 800112c:	2301      	movs	r3, #1
 800112e:	f885 3044 	strb.w	r3, [r5, #68]	; 0x44
 8001132:	e00c      	b.n	800114e <HAL_ETH_ReadPHYRegister+0x68>
 8001134:	f7ff fd5e 	bl	8000bf4 <HAL_GetTick>
 8001138:	1bc0      	subs	r0, r0, r7
 800113a:	f5b0 3f80 	cmp.w	r0, #65536	; 0x10000
 800113e:	d307      	bcc.n	8001150 <HAL_ETH_ReadPHYRegister+0x6a>
 8001140:	2301      	movs	r3, #1
 8001142:	f885 3044 	strb.w	r3, [r5, #68]	; 0x44
 8001146:	2300      	movs	r3, #0
 8001148:	f885 3045 	strb.w	r3, [r5, #69]	; 0x45
 800114c:	2003      	movs	r0, #3
 800114e:	bdf8      	pop	{r3, r4, r5, r6, r7, pc}
 8001150:	682b      	ldr	r3, [r5, #0]
 8001152:	691c      	ldr	r4, [r3, #16]
 8001154:	e7e3      	b.n	800111e <HAL_ETH_ReadPHYRegister+0x38>
 8001156:	2002      	movs	r0, #2
 8001158:	e7f9      	b.n	800114e <HAL_ETH_ReadPHYRegister+0x68>

0800115a <HAL_ETH_WritePHYRegister>:
 800115a:	f890 3044 	ldrb.w	r3, [r0, #68]	; 0x44
 800115e:	2b42      	cmp	r3, #66	; 0x42
 8001160:	b570      	push	{r4, r5, r6, lr}
 8001162:	4605      	mov	r5, r0
 8001164:	d02e      	beq.n	80011c4 <HAL_ETH_WritePHYRegister+0x6a>
 8001166:	2342      	movs	r3, #66	; 0x42
 8001168:	f880 3044 	strb.w	r3, [r0, #68]	; 0x44
 800116c:	6803      	ldr	r3, [r0, #0]
 800116e:	018c      	lsls	r4, r1, #6
 8001170:	6918      	ldr	r0, [r3, #16]
 8001172:	f404 64f8 	and.w	r4, r4, #1984	; 0x7c0
 8001176:	f044 0403 	orr.w	r4, r4, #3
 800117a:	f000 001c 	and.w	r0, r0, #28
 800117e:	4320      	orrs	r0, r4
 8001180:	8a2c      	ldrh	r4, [r5, #16]
 8001182:	02e4      	lsls	r4, r4, #11
 8001184:	b2a4      	uxth	r4, r4
 8001186:	4304      	orrs	r4, r0
 8001188:	b292      	uxth	r2, r2
 800118a:	615a      	str	r2, [r3, #20]
 800118c:	611c      	str	r4, [r3, #16]
 800118e:	f7ff fd31 	bl	8000bf4 <HAL_GetTick>
 8001192:	4606      	mov	r6, r0
 8001194:	f014 0001 	ands.w	r0, r4, #1
 8001198:	d103      	bne.n	80011a2 <HAL_ETH_WritePHYRegister+0x48>
 800119a:	2301      	movs	r3, #1
 800119c:	f885 3044 	strb.w	r3, [r5, #68]	; 0x44
 80011a0:	e00c      	b.n	80011bc <HAL_ETH_WritePHYRegister+0x62>
 80011a2:	f7ff fd27 	bl	8000bf4 <HAL_GetTick>
 80011a6:	1b80      	subs	r0, r0, r6
 80011a8:	f5b0 3f80 	cmp.w	r0, #65536	; 0x10000
 80011ac:	d307      	bcc.n	80011be <HAL_ETH_WritePHYRegister+0x64>
 80011ae:	2301      	movs	r3, #1
 80011b0:	f885 3044 	strb.w	r3, [r5, #68]	; 0x44
 80011b4:	2300      	movs	r3, #0
 80011b6:	f885 3045 	strb.w	r3, [r5, #69]	; 0x45
 80011ba:	2003      	movs	r0, #3
 80011bc:	bd70      	pop	{r4, r5, r6, pc}
 80011be:	682b      	ldr	r3, [r5, #0]
 80011c0:	691c      	ldr	r4, [r3, #16]
 80011c2:	e7e7      	b.n	8001194 <HAL_ETH_WritePHYRegister+0x3a>
 80011c4:	2002      	movs	r0, #2
 80011c6:	e7f9      	b.n	80011bc <HAL_ETH_WritePHYRegister+0x62>

080011c8 <HAL_ETH_Init>:
 80011c8:	b5f7      	push	{r0, r1, r2, r4, r5, r6, r7, lr}
 80011ca:	2300      	movs	r3, #0
 80011cc:	9300      	str	r3, [sp, #0]
 80011ce:	4604      	mov	r4, r0
 80011d0:	2800      	cmp	r0, #0
 80011d2:	f000 80de 	beq.w	8001392 <HAL_ETH_Init+0x1ca>
 80011d6:	f890 3044 	ldrb.w	r3, [r0, #68]	; 0x44
 80011da:	f003 02ff 	and.w	r2, r3, #255	; 0xff
 80011de:	b91b      	cbnz	r3, 80011e8 <HAL_ETH_Init+0x20>
 80011e0:	f880 2045 	strb.w	r2, [r0, #69]	; 0x45
 80011e4:	f001 f848 	bl	8002278 <HAL_ETH_MspInit>
 80011e8:	2300      	movs	r3, #0
 80011ea:	9301      	str	r3, [sp, #4]
 80011ec:	4b6a      	ldr	r3, [pc, #424]	; (8001398 <HAL_ETH_Init+0x1d0>)
 80011ee:	6c5a      	ldr	r2, [r3, #68]	; 0x44
 80011f0:	f442 4280 	orr.w	r2, r2, #16384	; 0x4000
 80011f4:	645a      	str	r2, [r3, #68]	; 0x44
 80011f6:	6c5b      	ldr	r3, [r3, #68]	; 0x44
 80011f8:	f403 4380 	and.w	r3, r3, #16384	; 0x4000
 80011fc:	9301      	str	r3, [sp, #4]
 80011fe:	9b01      	ldr	r3, [sp, #4]
 8001200:	4b66      	ldr	r3, [pc, #408]	; (800139c <HAL_ETH_Init+0x1d4>)
 8001202:	685a      	ldr	r2, [r3, #4]
 8001204:	f422 0200 	bic.w	r2, r2, #8388608	; 0x800000
 8001208:	605a      	str	r2, [r3, #4]
 800120a:	685a      	ldr	r2, [r3, #4]
 800120c:	6a21      	ldr	r1, [r4, #32]
 800120e:	430a      	orrs	r2, r1
 8001210:	605a      	str	r2, [r3, #4]
 8001212:	6823      	ldr	r3, [r4, #0]
 8001214:	f503 5380 	add.w	r3, r3, #4096	; 0x1000
 8001218:	681a      	ldr	r2, [r3, #0]
 800121a:	f042 0201 	orr.w	r2, r2, #1
 800121e:	601a      	str	r2, [r3, #0]
 8001220:	f7ff fce8 	bl	8000bf4 <HAL_GetTick>
 8001224:	4605      	mov	r5, r0
 8001226:	6823      	ldr	r3, [r4, #0]
 8001228:	f503 5280 	add.w	r2, r3, #4096	; 0x1000
 800122c:	6812      	ldr	r2, [r2, #0]
 800122e:	07d0      	lsls	r0, r2, #31
 8001230:	d41d      	bmi.n	800126e <HAL_ETH_Init+0xa6>
 8001232:	691d      	ldr	r5, [r3, #16]
 8001234:	f000 fd64 	bl	8001d00 <HAL_RCC_GetHCLKFreq>
 8001238:	4b59      	ldr	r3, [pc, #356]	; (80013a0 <HAL_ETH_Init+0x1d8>)
 800123a:	4a5a      	ldr	r2, [pc, #360]	; (80013a4 <HAL_ETH_Init+0x1dc>)
 800123c:	4403      	add	r3, r0
 800123e:	4293      	cmp	r3, r2
 8001240:	f025 051c 	bic.w	r5, r5, #28
 8001244:	d822      	bhi.n	800128c <HAL_ETH_Init+0xc4>
 8001246:	f045 0508 	orr.w	r5, r5, #8
 800124a:	6823      	ldr	r3, [r4, #0]
 800124c:	f44f 4200 	mov.w	r2, #32768	; 0x8000
 8001250:	611d      	str	r5, [r3, #16]
 8001252:	2100      	movs	r1, #0
 8001254:	4620      	mov	r0, r4
 8001256:	f7ff ff80 	bl	800115a <HAL_ETH_WritePHYRegister>
 800125a:	4605      	mov	r5, r0
 800125c:	b368      	cbz	r0, 80012ba <HAL_ETH_Init+0xf2>
 800125e:	2101      	movs	r1, #1
 8001260:	4620      	mov	r0, r4
 8001262:	2501      	movs	r5, #1
 8001264:	f7ff fd5a 	bl	8000d1c <ETH_MACDMAConfig>
 8001268:	f884 5044 	strb.w	r5, [r4, #68]	; 0x44
 800126c:	e00b      	b.n	8001286 <HAL_ETH_Init+0xbe>
 800126e:	f7ff fcc1 	bl	8000bf4 <HAL_GetTick>
 8001272:	1b40      	subs	r0, r0, r5
 8001274:	f5b0 7ffa 	cmp.w	r0, #500	; 0x1f4
 8001278:	d9d5      	bls.n	8001226 <HAL_ETH_Init+0x5e>
 800127a:	2503      	movs	r5, #3
 800127c:	2300      	movs	r3, #0
 800127e:	f884 5044 	strb.w	r5, [r4, #68]	; 0x44
 8001282:	f884 3045 	strb.w	r3, [r4, #69]	; 0x45
 8001286:	4628      	mov	r0, r5
 8001288:	b003      	add	sp, #12
 800128a:	bdf0      	pop	{r4, r5, r6, r7, pc}
 800128c:	4b46      	ldr	r3, [pc, #280]	; (80013a8 <HAL_ETH_Init+0x1e0>)
 800128e:	4a47      	ldr	r2, [pc, #284]	; (80013ac <HAL_ETH_Init+0x1e4>)
 8001290:	4403      	add	r3, r0
 8001292:	4293      	cmp	r3, r2
 8001294:	d802      	bhi.n	800129c <HAL_ETH_Init+0xd4>
 8001296:	f045 050c 	orr.w	r5, r5, #12
 800129a:	e7d6      	b.n	800124a <HAL_ETH_Init+0x82>
 800129c:	4b44      	ldr	r3, [pc, #272]	; (80013b0 <HAL_ETH_Init+0x1e8>)
 800129e:	4a45      	ldr	r2, [pc, #276]	; (80013b4 <HAL_ETH_Init+0x1ec>)
 80012a0:	4403      	add	r3, r0
 80012a2:	4293      	cmp	r3, r2
 80012a4:	d9d1      	bls.n	800124a <HAL_ETH_Init+0x82>
 80012a6:	4b44      	ldr	r3, [pc, #272]	; (80013b8 <HAL_ETH_Init+0x1f0>)
 80012a8:	4a44      	ldr	r2, [pc, #272]	; (80013bc <HAL_ETH_Init+0x1f4>)
 80012aa:	4403      	add	r3, r0
 80012ac:	4293      	cmp	r3, r2
 80012ae:	bf94      	ite	ls
 80012b0:	f045 0504 	orrls.w	r5, r5, #4
 80012b4:	f045 0510 	orrhi.w	r5, r5, #16
 80012b8:	e7c7      	b.n	800124a <HAL_ETH_Init+0x82>
 80012ba:	20ff      	movs	r0, #255	; 0xff
 80012bc:	f7ff fca0 	bl	8000c00 <HAL_Delay>
 80012c0:	6863      	ldr	r3, [r4, #4]
 80012c2:	2b00      	cmp	r3, #0
 80012c4:	d053      	beq.n	800136e <HAL_ETH_Init+0x1a6>
 80012c6:	f7ff fc95 	bl	8000bf4 <HAL_GetTick>
 80012ca:	f241 3788 	movw	r7, #5000	; 0x1388
 80012ce:	4606      	mov	r6, r0
 80012d0:	466a      	mov	r2, sp
 80012d2:	2101      	movs	r1, #1
 80012d4:	4620      	mov	r0, r4
 80012d6:	f7ff ff06 	bl	80010e6 <HAL_ETH_ReadPHYRegister>
 80012da:	f7ff fc8b 	bl	8000bf4 <HAL_GetTick>
 80012de:	1b80      	subs	r0, r0, r6
 80012e0:	42b8      	cmp	r0, r7
 80012e2:	d90b      	bls.n	80012fc <HAL_ETH_Init+0x134>
 80012e4:	2101      	movs	r1, #1
 80012e6:	4620      	mov	r0, r4
 80012e8:	f7ff fd18 	bl	8000d1c <ETH_MACDMAConfig>
 80012ec:	2301      	movs	r3, #1
 80012ee:	f884 3044 	strb.w	r3, [r4, #68]	; 0x44
 80012f2:	2300      	movs	r3, #0
 80012f4:	f884 3045 	strb.w	r3, [r4, #69]	; 0x45
 80012f8:	2503      	movs	r5, #3
 80012fa:	e7c4      	b.n	8001286 <HAL_ETH_Init+0xbe>
 80012fc:	9b00      	ldr	r3, [sp, #0]
 80012fe:	0759      	lsls	r1, r3, #29
 8001300:	d5e6      	bpl.n	80012d0 <HAL_ETH_Init+0x108>
 8001302:	f44f 5280 	mov.w	r2, #4096	; 0x1000
 8001306:	2100      	movs	r1, #0
 8001308:	4620      	mov	r0, r4
 800130a:	f7ff ff26 	bl	800115a <HAL_ETH_WritePHYRegister>
 800130e:	2800      	cmp	r0, #0
 8001310:	d1a5      	bne.n	800125e <HAL_ETH_Init+0x96>
 8001312:	f7ff fc6f 	bl	8000bf4 <HAL_GetTick>
 8001316:	f241 3788 	movw	r7, #5000	; 0x1388
 800131a:	4606      	mov	r6, r0
 800131c:	466a      	mov	r2, sp
 800131e:	2101      	movs	r1, #1
 8001320:	4620      	mov	r0, r4
 8001322:	f7ff fee0 	bl	80010e6 <HAL_ETH_ReadPHYRegister>
 8001326:	f7ff fc65 	bl	8000bf4 <HAL_GetTick>
 800132a:	1b80      	subs	r0, r0, r6
 800132c:	42b8      	cmp	r0, r7
 800132e:	d8d9      	bhi.n	80012e4 <HAL_ETH_Init+0x11c>
 8001330:	9b00      	ldr	r3, [sp, #0]
 8001332:	069a      	lsls	r2, r3, #26
 8001334:	d5f2      	bpl.n	800131c <HAL_ETH_Init+0x154>
 8001336:	466a      	mov	r2, sp
 8001338:	211f      	movs	r1, #31
 800133a:	4620      	mov	r0, r4
 800133c:	f7ff fed3 	bl	80010e6 <HAL_ETH_ReadPHYRegister>
 8001340:	2800      	cmp	r0, #0
 8001342:	d18c      	bne.n	800125e <HAL_ETH_Init+0x96>
 8001344:	9b00      	ldr	r3, [sp, #0]
 8001346:	f013 0210 	ands.w	r2, r3, #16
 800134a:	bf18      	it	ne
 800134c:	f44f 6200 	movne.w	r2, #2048	; 0x800
 8001350:	075b      	lsls	r3, r3, #29
 8001352:	bf4c      	ite	mi
 8001354:	2300      	movmi	r3, #0
 8001356:	f44f 4380 	movpl.w	r3, #16384	; 0x4000
 800135a:	60e2      	str	r2, [r4, #12]
 800135c:	60a3      	str	r3, [r4, #8]
 800135e:	2100      	movs	r1, #0
 8001360:	4620      	mov	r0, r4
 8001362:	f7ff fcdb 	bl	8000d1c <ETH_MACDMAConfig>
 8001366:	2301      	movs	r3, #1
 8001368:	f884 3044 	strb.w	r3, [r4, #68]	; 0x44
 800136c:	e78b      	b.n	8001286 <HAL_ETH_Init+0xbe>
 800136e:	e9d4 3202 	ldrd	r3, r2, [r4, #8]
 8001372:	085b      	lsrs	r3, r3, #1
 8001374:	ea43 02d2 	orr.w	r2, r3, r2, lsr #3
 8001378:	b292      	uxth	r2, r2
 800137a:	4629      	mov	r1, r5
 800137c:	4620      	mov	r0, r4
 800137e:	f7ff feec 	bl	800115a <HAL_ETH_WritePHYRegister>
 8001382:	2800      	cmp	r0, #0
 8001384:	f47f af6b 	bne.w	800125e <HAL_ETH_Init+0x96>
 8001388:	f640 70ff 	movw	r0, #4095	; 0xfff
 800138c:	f7ff fc38 	bl	8000c00 <HAL_Delay>
 8001390:	e7e5      	b.n	800135e <HAL_ETH_Init+0x196>
 8001392:	2501      	movs	r5, #1
 8001394:	e777      	b.n	8001286 <HAL_ETH_Init+0xbe>
 8001396:	bf00      	nop
 8001398:	40023800 	.word	0x40023800
 800139c:	40013800 	.word	0x40013800
 80013a0:	feced300 	.word	0xfeced300
 80013a4:	00e4e1bf 	.word	0x00e4e1bf
 80013a8:	fde9f140 	.word	0xfde9f140
 80013ac:	017d783f 	.word	0x017d783f
 80013b0:	fc6c7900 	.word	0xfc6c7900
 80013b4:	026259ff 	.word	0x026259ff
 80013b8:	fa0a1f00 	.word	0xfa0a1f00
 80013bc:	02faf07f 	.word	0x02faf07f

080013c0 <HAL_ETH_Start>:
 80013c0:	f890 3045 	ldrb.w	r3, [r0, #69]	; 0x45
 80013c4:	2b01      	cmp	r3, #1
 80013c6:	b573      	push	{r0, r1, r4, r5, r6, lr}
 80013c8:	4605      	mov	r5, r0
 80013ca:	f04f 0002 	mov.w	r0, #2
 80013ce:	d031      	beq.n	8001434 <HAL_ETH_Start+0x74>
 80013d0:	2400      	movs	r4, #0
 80013d2:	682b      	ldr	r3, [r5, #0]
 80013d4:	f885 0044 	strb.w	r0, [r5, #68]	; 0x44
 80013d8:	9401      	str	r4, [sp, #4]
 80013da:	681a      	ldr	r2, [r3, #0]
 80013dc:	2601      	movs	r6, #1
 80013de:	f042 0208 	orr.w	r2, r2, #8
 80013e2:	f885 6045 	strb.w	r6, [r5, #69]	; 0x45
 80013e6:	601a      	str	r2, [r3, #0]
 80013e8:	681b      	ldr	r3, [r3, #0]
 80013ea:	9301      	str	r3, [sp, #4]
 80013ec:	f7ff fc70 	bl	8000cd0 <ETH_Delay.constprop.4>
 80013f0:	682b      	ldr	r3, [r5, #0]
 80013f2:	9a01      	ldr	r2, [sp, #4]
 80013f4:	601a      	str	r2, [r3, #0]
 80013f6:	9400      	str	r4, [sp, #0]
 80013f8:	681a      	ldr	r2, [r3, #0]
 80013fa:	f042 0204 	orr.w	r2, r2, #4
 80013fe:	601a      	str	r2, [r3, #0]
 8001400:	681b      	ldr	r3, [r3, #0]
 8001402:	9300      	str	r3, [sp, #0]
 8001404:	f7ff fc64 	bl	8000cd0 <ETH_Delay.constprop.4>
 8001408:	682b      	ldr	r3, [r5, #0]
 800140a:	9a00      	ldr	r2, [sp, #0]
 800140c:	601a      	str	r2, [r3, #0]
 800140e:	4628      	mov	r0, r5
 8001410:	f7ff fc70 	bl	8000cf4 <ETH_FlushTransmitFIFO>
 8001414:	682a      	ldr	r2, [r5, #0]
 8001416:	f241 0318 	movw	r3, #4120	; 0x1018
 800141a:	4620      	mov	r0, r4
 800141c:	58d1      	ldr	r1, [r2, r3]
 800141e:	f441 5100 	orr.w	r1, r1, #8192	; 0x2000
 8001422:	50d1      	str	r1, [r2, r3]
 8001424:	58d1      	ldr	r1, [r2, r3]
 8001426:	f041 0102 	orr.w	r1, r1, #2
 800142a:	50d1      	str	r1, [r2, r3]
 800142c:	f885 6044 	strb.w	r6, [r5, #68]	; 0x44
 8001430:	f885 4045 	strb.w	r4, [r5, #69]	; 0x45
 8001434:	b002      	add	sp, #8
 8001436:	bd70      	pop	{r4, r5, r6, pc}

08001438 <HAL_ETH_Stop>:
 8001438:	f890 3045 	ldrb.w	r3, [r0, #69]	; 0x45
 800143c:	2b01      	cmp	r3, #1
 800143e:	b573      	push	{r0, r1, r4, r5, r6, lr}
 8001440:	4605      	mov	r5, r0
 8001442:	f04f 0002 	mov.w	r0, #2
 8001446:	d031      	beq.n	80014ac <HAL_ETH_Stop+0x74>
 8001448:	682b      	ldr	r3, [r5, #0]
 800144a:	f885 0044 	strb.w	r0, [r5, #68]	; 0x44
 800144e:	f241 0218 	movw	r2, #4120	; 0x1018
 8001452:	2601      	movs	r6, #1
 8001454:	5899      	ldr	r1, [r3, r2]
 8001456:	f885 6045 	strb.w	r6, [r5, #69]	; 0x45
 800145a:	f421 5100 	bic.w	r1, r1, #8192	; 0x2000
 800145e:	5099      	str	r1, [r3, r2]
 8001460:	5899      	ldr	r1, [r3, r2]
 8001462:	f021 0102 	bic.w	r1, r1, #2
 8001466:	5099      	str	r1, [r3, r2]
 8001468:	2400      	movs	r4, #0
 800146a:	9401      	str	r4, [sp, #4]
 800146c:	681a      	ldr	r2, [r3, #0]
 800146e:	f022 0204 	bic.w	r2, r2, #4
 8001472:	601a      	str	r2, [r3, #0]
 8001474:	681b      	ldr	r3, [r3, #0]
 8001476:	9301      	str	r3, [sp, #4]
 8001478:	f7ff fc2a 	bl	8000cd0 <ETH_Delay.constprop.4>
 800147c:	682b      	ldr	r3, [r5, #0]
 800147e:	9a01      	ldr	r2, [sp, #4]
 8001480:	601a      	str	r2, [r3, #0]
 8001482:	4628      	mov	r0, r5
 8001484:	f7ff fc36 	bl	8000cf4 <ETH_FlushTransmitFIFO>
 8001488:	682b      	ldr	r3, [r5, #0]
 800148a:	9400      	str	r4, [sp, #0]
 800148c:	681a      	ldr	r2, [r3, #0]
 800148e:	f022 0208 	bic.w	r2, r2, #8
 8001492:	601a      	str	r2, [r3, #0]
 8001494:	681b      	ldr	r3, [r3, #0]
 8001496:	9300      	str	r3, [sp, #0]
 8001498:	f7ff fc1a 	bl	8000cd0 <ETH_Delay.constprop.4>
 800149c:	682b      	ldr	r3, [r5, #0]
 800149e:	9a00      	ldr	r2, [sp, #0]
 80014a0:	601a      	str	r2, [r3, #0]
 80014a2:	4620      	mov	r0, r4
 80014a4:	f885 6044 	strb.w	r6, [r5, #68]	; 0x44
 80014a8:	f885 4045 	strb.w	r4, [r5, #69]	; 0x45
 80014ac:	b002      	add	sp, #8
 80014ae:	bd70      	pop	{r4, r5, r6, pc}

080014b0 <HAL_ETH_ConfigMAC>:
 80014b0:	b5f8      	push	{r3, r4, r5, r6, r7, lr}
 80014b2:	f890 3045 	ldrb.w	r3, [r0, #69]	; 0x45
 80014b6:	2b01      	cmp	r3, #1
 80014b8:	4605      	mov	r5, r0
 80014ba:	460c      	mov	r4, r1
 80014bc:	f04f 0002 	mov.w	r0, #2
 80014c0:	d071      	beq.n	80015a6 <HAL_ETH_ConfigMAC+0xf6>
 80014c2:	2601      	movs	r6, #1
 80014c4:	f885 0044 	strb.w	r0, [r5, #68]	; 0x44
 80014c8:	f885 6045 	strb.w	r6, [r5, #69]	; 0x45
 80014cc:	682a      	ldr	r2, [r5, #0]
 80014ce:	e9d5 7002 	ldrd	r7, r0, [r5, #8]
 80014d2:	2900      	cmp	r1, #0
 80014d4:	d068      	beq.n	80015a8 <HAL_ETH_ConfigMAC+0xf8>
 80014d6:	6813      	ldr	r3, [r2, #0]
 80014d8:	f8df c0e8 	ldr.w	ip, [pc, #232]	; 80015c4 <HAL_ETH_ConfigMAC+0x114>
 80014dc:	ea0c 0c03 	and.w	ip, ip, r3
 80014e0:	e9d1 3100 	ldrd	r3, r1, [r1]
 80014e4:	430b      	orrs	r3, r1
 80014e6:	68a1      	ldr	r1, [r4, #8]
 80014e8:	430b      	orrs	r3, r1
 80014ea:	68e1      	ldr	r1, [r4, #12]
 80014ec:	430b      	orrs	r3, r1
 80014ee:	6921      	ldr	r1, [r4, #16]
 80014f0:	430b      	orrs	r3, r1
 80014f2:	6961      	ldr	r1, [r4, #20]
 80014f4:	430b      	orrs	r3, r1
 80014f6:	69a1      	ldr	r1, [r4, #24]
 80014f8:	430b      	orrs	r3, r1
 80014fa:	69e1      	ldr	r1, [r4, #28]
 80014fc:	430b      	orrs	r3, r1
 80014fe:	6a21      	ldr	r1, [r4, #32]
 8001500:	430b      	orrs	r3, r1
 8001502:	6a61      	ldr	r1, [r4, #36]	; 0x24
 8001504:	430b      	orrs	r3, r1
 8001506:	6aa1      	ldr	r1, [r4, #40]	; 0x28
 8001508:	430b      	orrs	r3, r1
 800150a:	433b      	orrs	r3, r7
 800150c:	4303      	orrs	r3, r0
 800150e:	ea43 030c 	orr.w	r3, r3, ip
 8001512:	6013      	str	r3, [r2, #0]
 8001514:	4630      	mov	r0, r6
 8001516:	6817      	ldr	r7, [r2, #0]
 8001518:	f7ff fb72 	bl	8000c00 <HAL_Delay>
 800151c:	e9d4 310b 	ldrd	r3, r1, [r4, #44]	; 0x2c
 8001520:	430b      	orrs	r3, r1
 8001522:	6b61      	ldr	r1, [r4, #52]	; 0x34
 8001524:	682a      	ldr	r2, [r5, #0]
 8001526:	430b      	orrs	r3, r1
 8001528:	6ba1      	ldr	r1, [r4, #56]	; 0x38
 800152a:	6017      	str	r7, [r2, #0]
 800152c:	430b      	orrs	r3, r1
 800152e:	6be1      	ldr	r1, [r4, #60]	; 0x3c
 8001530:	430b      	orrs	r3, r1
 8001532:	6c21      	ldr	r1, [r4, #64]	; 0x40
 8001534:	430b      	orrs	r3, r1
 8001536:	6c61      	ldr	r1, [r4, #68]	; 0x44
 8001538:	430b      	orrs	r3, r1
 800153a:	6ca1      	ldr	r1, [r4, #72]	; 0x48
 800153c:	430b      	orrs	r3, r1
 800153e:	6053      	str	r3, [r2, #4]
 8001540:	4630      	mov	r0, r6
 8001542:	6857      	ldr	r7, [r2, #4]
 8001544:	f7ff fb5c 	bl	8000c00 <HAL_Delay>
 8001548:	682a      	ldr	r2, [r5, #0]
 800154a:	6ce3      	ldr	r3, [r4, #76]	; 0x4c
 800154c:	6057      	str	r7, [r2, #4]
 800154e:	6093      	str	r3, [r2, #8]
 8001550:	6d23      	ldr	r3, [r4, #80]	; 0x50
 8001552:	60d3      	str	r3, [r2, #12]
 8001554:	e9d4 3016 	ldrd	r3, r0, [r4, #88]	; 0x58
 8001558:	4303      	orrs	r3, r0
 800155a:	6e20      	ldr	r0, [r4, #96]	; 0x60
 800155c:	6991      	ldr	r1, [r2, #24]
 800155e:	4303      	orrs	r3, r0
 8001560:	6e60      	ldr	r0, [r4, #100]	; 0x64
 8001562:	4303      	orrs	r3, r0
 8001564:	6ea0      	ldr	r0, [r4, #104]	; 0x68
 8001566:	f021 01be 	bic.w	r1, r1, #190	; 0xbe
 800156a:	4303      	orrs	r3, r0
 800156c:	6d60      	ldr	r0, [r4, #84]	; 0x54
 800156e:	0409      	lsls	r1, r1, #16
 8001570:	0c09      	lsrs	r1, r1, #16
 8001572:	ea43 4300 	orr.w	r3, r3, r0, lsl #16
 8001576:	430b      	orrs	r3, r1
 8001578:	6193      	str	r3, [r2, #24]
 800157a:	4630      	mov	r0, r6
 800157c:	6997      	ldr	r7, [r2, #24]
 800157e:	f7ff fb3f 	bl	8000c00 <HAL_Delay>
 8001582:	e9d4 211b 	ldrd	r2, r1, [r4, #108]	; 0x6c
 8001586:	682b      	ldr	r3, [r5, #0]
 8001588:	430a      	orrs	r2, r1
 800158a:	619f      	str	r7, [r3, #24]
 800158c:	4630      	mov	r0, r6
 800158e:	61da      	str	r2, [r3, #28]
 8001590:	69dc      	ldr	r4, [r3, #28]
 8001592:	f7ff fb35 	bl	8000c00 <HAL_Delay>
 8001596:	682b      	ldr	r3, [r5, #0]
 8001598:	61dc      	str	r4, [r3, #28]
 800159a:	2301      	movs	r3, #1
 800159c:	2000      	movs	r0, #0
 800159e:	f885 3044 	strb.w	r3, [r5, #68]	; 0x44
 80015a2:	f885 0045 	strb.w	r0, [r5, #69]	; 0x45
 80015a6:	bdf8      	pop	{r3, r4, r5, r6, r7, pc}
 80015a8:	6811      	ldr	r1, [r2, #0]
 80015aa:	ea47 0300 	orr.w	r3, r7, r0
 80015ae:	f421 4190 	bic.w	r1, r1, #18432	; 0x4800
 80015b2:	430b      	orrs	r3, r1
 80015b4:	6013      	str	r3, [r2, #0]
 80015b6:	4630      	mov	r0, r6
 80015b8:	6814      	ldr	r4, [r2, #0]
 80015ba:	f7ff fb21 	bl	8000c00 <HAL_Delay>
 80015be:	682b      	ldr	r3, [r5, #0]
 80015c0:	601c      	str	r4, [r3, #0]
 80015c2:	e7ea      	b.n	800159a <HAL_ETH_ConfigMAC+0xea>
 80015c4:	ff20810f 	.word	0xff20810f

080015c8 <HAL_GPIO_Init>:
 80015c8:	e92d 4ff0 	stmdb	sp!, {r4, r5, r6, r7, r8, r9, sl, fp, lr}
 80015cc:	b085      	sub	sp, #20
 80015ce:	680b      	ldr	r3, [r1, #0]
 80015d0:	f8df 81c4 	ldr.w	r8, [pc, #452]	; 8001798 <HAL_GPIO_Init+0x1d0>
 80015d4:	4a6e      	ldr	r2, [pc, #440]	; (8001790 <HAL_GPIO_Init+0x1c8>)
 80015d6:	f8df 91c4 	ldr.w	r9, [pc, #452]	; 800179c <HAL_GPIO_Init+0x1d4>
 80015da:	9301      	str	r3, [sp, #4]
 80015dc:	2300      	movs	r3, #0
 80015de:	2401      	movs	r4, #1
 80015e0:	9d01      	ldr	r5, [sp, #4]
 80015e2:	409c      	lsls	r4, r3
 80015e4:	4025      	ands	r5, r4
 80015e6:	42ac      	cmp	r4, r5
 80015e8:	f040 80b8 	bne.w	800175c <HAL_GPIO_Init+0x194>
 80015ec:	684c      	ldr	r4, [r1, #4]
 80015ee:	f024 0c10 	bic.w	ip, r4, #16
 80015f2:	ea4f 0e43 	mov.w	lr, r3, lsl #1
 80015f6:	2603      	movs	r6, #3
 80015f8:	f10c 37ff 	add.w	r7, ip, #4294967295
 80015fc:	fa06 f60e 	lsl.w	r6, r6, lr
 8001600:	2f01      	cmp	r7, #1
 8001602:	ea6f 0606 	mvn.w	r6, r6
 8001606:	d811      	bhi.n	800162c <HAL_GPIO_Init+0x64>
 8001608:	6887      	ldr	r7, [r0, #8]
 800160a:	ea07 0a06 	and.w	sl, r7, r6
 800160e:	68cf      	ldr	r7, [r1, #12]
 8001610:	fa07 f70e 	lsl.w	r7, r7, lr
 8001614:	ea47 070a 	orr.w	r7, r7, sl
 8001618:	6087      	str	r7, [r0, #8]
 800161a:	6847      	ldr	r7, [r0, #4]
 800161c:	ea27 0a05 	bic.w	sl, r7, r5
 8001620:	f3c4 1700 	ubfx	r7, r4, #4, #1
 8001624:	409f      	lsls	r7, r3
 8001626:	ea47 070a 	orr.w	r7, r7, sl
 800162a:	6047      	str	r7, [r0, #4]
 800162c:	68c7      	ldr	r7, [r0, #12]
 800162e:	ea07 0a06 	and.w	sl, r7, r6
 8001632:	688f      	ldr	r7, [r1, #8]
 8001634:	fa07 f70e 	lsl.w	r7, r7, lr
 8001638:	ea47 070a 	orr.w	r7, r7, sl
 800163c:	f1bc 0f02 	cmp.w	ip, #2
 8001640:	60c7      	str	r7, [r0, #12]
 8001642:	d116      	bne.n	8001672 <HAL_GPIO_Init+0xaa>
 8001644:	ea4f 0ad3 	mov.w	sl, r3, lsr #3
 8001648:	eb00 0a8a 	add.w	sl, r0, sl, lsl #2
 800164c:	f003 0b07 	and.w	fp, r3, #7
 8001650:	f8da 7020 	ldr.w	r7, [sl, #32]
 8001654:	ea4f 0b8b 	mov.w	fp, fp, lsl #2
 8001658:	f04f 0c0f 	mov.w	ip, #15
 800165c:	fa0c fc0b 	lsl.w	ip, ip, fp
 8001660:	ea27 0c0c 	bic.w	ip, r7, ip
 8001664:	690f      	ldr	r7, [r1, #16]
 8001666:	fa07 f70b 	lsl.w	r7, r7, fp
 800166a:	ea47 070c 	orr.w	r7, r7, ip
 800166e:	f8ca 7020 	str.w	r7, [sl, #32]
 8001672:	6807      	ldr	r7, [r0, #0]
 8001674:	403e      	ands	r6, r7
 8001676:	f004 0703 	and.w	r7, r4, #3
 800167a:	fa07 fe0e 	lsl.w	lr, r7, lr
 800167e:	ea4e 0606 	orr.w	r6, lr, r6
 8001682:	6006      	str	r6, [r0, #0]
 8001684:	00e6      	lsls	r6, r4, #3
 8001686:	d569      	bpl.n	800175c <HAL_GPIO_Init+0x194>
 8001688:	f04f 0b00 	mov.w	fp, #0
 800168c:	f8cd b00c 	str.w	fp, [sp, #12]
 8001690:	f8d8 7044 	ldr.w	r7, [r8, #68]	; 0x44
 8001694:	4e3f      	ldr	r6, [pc, #252]	; (8001794 <HAL_GPIO_Init+0x1cc>)
 8001696:	f447 4780 	orr.w	r7, r7, #16384	; 0x4000
 800169a:	f8c8 7044 	str.w	r7, [r8, #68]	; 0x44
 800169e:	f8d8 7044 	ldr.w	r7, [r8, #68]	; 0x44
 80016a2:	f407 4780 	and.w	r7, r7, #16384	; 0x4000
 80016a6:	9703      	str	r7, [sp, #12]
 80016a8:	9f03      	ldr	r7, [sp, #12]
 80016aa:	f023 0703 	bic.w	r7, r3, #3
 80016ae:	f107 4780 	add.w	r7, r7, #1073741824	; 0x40000000
 80016b2:	f507 379c 	add.w	r7, r7, #79872	; 0x13800
 80016b6:	f003 0e03 	and.w	lr, r3, #3
 80016ba:	f8d7 a008 	ldr.w	sl, [r7, #8]
 80016be:	ea4f 0e8e 	mov.w	lr, lr, lsl #2
 80016c2:	f04f 0c0f 	mov.w	ip, #15
 80016c6:	fa0c fc0e 	lsl.w	ip, ip, lr
 80016ca:	42b0      	cmp	r0, r6
 80016cc:	ea2a 0c0c 	bic.w	ip, sl, ip
 80016d0:	d04b      	beq.n	800176a <HAL_GPIO_Init+0x1a2>
 80016d2:	f506 6680 	add.w	r6, r6, #1024	; 0x400
 80016d6:	42b0      	cmp	r0, r6
 80016d8:	d049      	beq.n	800176e <HAL_GPIO_Init+0x1a6>
 80016da:	f506 6680 	add.w	r6, r6, #1024	; 0x400
 80016de:	42b0      	cmp	r0, r6
 80016e0:	d047      	beq.n	8001772 <HAL_GPIO_Init+0x1aa>
 80016e2:	f506 6680 	add.w	r6, r6, #1024	; 0x400
 80016e6:	42b0      	cmp	r0, r6
 80016e8:	d045      	beq.n	8001776 <HAL_GPIO_Init+0x1ae>
 80016ea:	f506 6680 	add.w	r6, r6, #1024	; 0x400
 80016ee:	42b0      	cmp	r0, r6
 80016f0:	d043      	beq.n	800177a <HAL_GPIO_Init+0x1b2>
 80016f2:	4548      	cmp	r0, r9
 80016f4:	d043      	beq.n	800177e <HAL_GPIO_Init+0x1b6>
 80016f6:	f506 6600 	add.w	r6, r6, #2048	; 0x800
 80016fa:	42b0      	cmp	r0, r6
 80016fc:	d041      	beq.n	8001782 <HAL_GPIO_Init+0x1ba>
 80016fe:	f506 6680 	add.w	r6, r6, #1024	; 0x400
 8001702:	42b0      	cmp	r0, r6
 8001704:	d03f      	beq.n	8001786 <HAL_GPIO_Init+0x1be>
 8001706:	f506 6680 	add.w	r6, r6, #1024	; 0x400
 800170a:	42b0      	cmp	r0, r6
 800170c:	d03d      	beq.n	800178a <HAL_GPIO_Init+0x1c2>
 800170e:	f506 6680 	add.w	r6, r6, #1024	; 0x400
 8001712:	42b0      	cmp	r0, r6
 8001714:	bf14      	ite	ne
 8001716:	260a      	movne	r6, #10
 8001718:	2609      	moveq	r6, #9
 800171a:	fa06 f60e 	lsl.w	r6, r6, lr
 800171e:	ea46 060c 	orr.w	r6, r6, ip
 8001722:	60be      	str	r6, [r7, #8]
 8001724:	6816      	ldr	r6, [r2, #0]
 8001726:	43ef      	mvns	r7, r5
 8001728:	f414 3f80 	tst.w	r4, #65536	; 0x10000
 800172c:	bf0c      	ite	eq
 800172e:	403e      	andeq	r6, r7
 8001730:	432e      	orrne	r6, r5
 8001732:	6016      	str	r6, [r2, #0]
 8001734:	6856      	ldr	r6, [r2, #4]
 8001736:	f414 3f00 	tst.w	r4, #131072	; 0x20000
 800173a:	bf0c      	ite	eq
 800173c:	403e      	andeq	r6, r7
 800173e:	432e      	orrne	r6, r5
 8001740:	6056      	str	r6, [r2, #4]
 8001742:	6896      	ldr	r6, [r2, #8]
 8001744:	f414 1f80 	tst.w	r4, #1048576	; 0x100000
 8001748:	bf0c      	ite	eq
 800174a:	403e      	andeq	r6, r7
 800174c:	432e      	orrne	r6, r5
 800174e:	6096      	str	r6, [r2, #8]
 8001750:	68d6      	ldr	r6, [r2, #12]
 8001752:	02a4      	lsls	r4, r4, #10
 8001754:	bf54      	ite	pl
 8001756:	403e      	andpl	r6, r7
 8001758:	432e      	orrmi	r6, r5
 800175a:	60d6      	str	r6, [r2, #12]
 800175c:	3301      	adds	r3, #1
 800175e:	2b10      	cmp	r3, #16
 8001760:	f47f af3d 	bne.w	80015de <HAL_GPIO_Init+0x16>
 8001764:	b005      	add	sp, #20
 8001766:	e8bd 8ff0 	ldmia.w	sp!, {r4, r5, r6, r7, r8, r9, sl, fp, pc}
 800176a:	465e      	mov	r6, fp
 800176c:	e7d5      	b.n	800171a <HAL_GPIO_Init+0x152>
 800176e:	2601      	movs	r6, #1
 8001770:	e7d3      	b.n	800171a <HAL_GPIO_Init+0x152>
 8001772:	2602      	movs	r6, #2
 8001774:	e7d1      	b.n	800171a <HAL_GPIO_Init+0x152>
 8001776:	2603      	movs	r6, #3
 8001778:	e7cf      	b.n	800171a <HAL_GPIO_Init+0x152>
 800177a:	2604      	movs	r6, #4
 800177c:	e7cd      	b.n	800171a <HAL_GPIO_Init+0x152>
 800177e:	2605      	movs	r6, #5
 8001780:	e7cb      	b.n	800171a <HAL_GPIO_Init+0x152>
 8001782:	2606      	movs	r6, #6
 8001784:	e7c9      	b.n	800171a <HAL_GPIO_Init+0x152>
 8001786:	2607      	movs	r6, #7
 8001788:	e7c7      	b.n	800171a <HAL_GPIO_Init+0x152>
 800178a:	2608      	movs	r6, #8
 800178c:	e7c5      	b.n	800171a <HAL_GPIO_Init+0x152>
 800178e:	bf00      	nop
 8001790:	40013c00 	.word	0x40013c00
 8001794:	40020000 	.word	0x40020000
 8001798:	40023800 	.word	0x40023800
 800179c:	40021400 	.word	0x40021400

080017a0 <HAL_GPIO_WritePin>:
 80017a0:	b10a      	cbz	r2, 80017a6 <HAL_GPIO_WritePin+0x6>
 80017a2:	6181      	str	r1, [r0, #24]
 80017a4:	4770      	bx	lr
 80017a6:	0409      	lsls	r1, r1, #16
 80017a8:	e7fb      	b.n	80017a2 <HAL_GPIO_WritePin+0x2>
	...

080017ac <HAL_PWREx_EnableOverDrive>:
 80017ac:	b537      	push	{r0, r1, r2, r4, r5, lr}
 80017ae:	2300      	movs	r3, #0
 80017b0:	9301      	str	r3, [sp, #4]
 80017b2:	4b18      	ldr	r3, [pc, #96]	; (8001814 <HAL_PWREx_EnableOverDrive+0x68>)
 80017b4:	4c18      	ldr	r4, [pc, #96]	; (8001818 <HAL_PWREx_EnableOverDrive+0x6c>)
 80017b6:	6c1a      	ldr	r2, [r3, #64]	; 0x40
 80017b8:	f042 5280 	orr.w	r2, r2, #268435456	; 0x10000000
 80017bc:	641a      	str	r2, [r3, #64]	; 0x40
 80017be:	6c1b      	ldr	r3, [r3, #64]	; 0x40
 80017c0:	f003 5380 	and.w	r3, r3, #268435456	; 0x10000000
 80017c4:	9301      	str	r3, [sp, #4]
 80017c6:	9b01      	ldr	r3, [sp, #4]
 80017c8:	4b14      	ldr	r3, [pc, #80]	; (800181c <HAL_PWREx_EnableOverDrive+0x70>)
 80017ca:	2201      	movs	r2, #1
 80017cc:	601a      	str	r2, [r3, #0]
 80017ce:	f7ff fa11 	bl	8000bf4 <HAL_GetTick>
 80017d2:	4605      	mov	r5, r0
 80017d4:	6863      	ldr	r3, [r4, #4]
 80017d6:	03da      	lsls	r2, r3, #15
 80017d8:	d50b      	bpl.n	80017f2 <HAL_PWREx_EnableOverDrive+0x46>
 80017da:	4b11      	ldr	r3, [pc, #68]	; (8001820 <HAL_PWREx_EnableOverDrive+0x74>)
 80017dc:	4c0e      	ldr	r4, [pc, #56]	; (8001818 <HAL_PWREx_EnableOverDrive+0x6c>)
 80017de:	2201      	movs	r2, #1
 80017e0:	601a      	str	r2, [r3, #0]
 80017e2:	f7ff fa07 	bl	8000bf4 <HAL_GetTick>
 80017e6:	4605      	mov	r5, r0
 80017e8:	6863      	ldr	r3, [r4, #4]
 80017ea:	039b      	lsls	r3, r3, #14
 80017ec:	d50a      	bpl.n	8001804 <HAL_PWREx_EnableOverDrive+0x58>
 80017ee:	2000      	movs	r0, #0
 80017f0:	e006      	b.n	8001800 <HAL_PWREx_EnableOverDrive+0x54>
 80017f2:	f7ff f9ff 	bl	8000bf4 <HAL_GetTick>
 80017f6:	1b40      	subs	r0, r0, r5
 80017f8:	f5b0 7f7a 	cmp.w	r0, #1000	; 0x3e8
 80017fc:	d9ea      	bls.n	80017d4 <HAL_PWREx_EnableOverDrive+0x28>
 80017fe:	2003      	movs	r0, #3
 8001800:	b003      	add	sp, #12
 8001802:	bd30      	pop	{r4, r5, pc}
 8001804:	f7ff f9f6 	bl	8000bf4 <HAL_GetTick>
 8001808:	1b40      	subs	r0, r0, r5
 800180a:	f5b0 7f7a 	cmp.w	r0, #1000	; 0x3e8
 800180e:	d9eb      	bls.n	80017e8 <HAL_PWREx_EnableOverDrive+0x3c>
 8001810:	e7f5      	b.n	80017fe <HAL_PWREx_EnableOverDrive+0x52>
 8001812:	bf00      	nop
 8001814:	40023800 	.word	0x40023800
 8001818:	40007000 	.word	0x40007000
 800181c:	420e0040 	.word	0x420e0040
 8001820:	420e0044 	.word	0x420e0044

08001824 <HAL_RCC_OscConfig>:
 8001824:	e92d 41f3 	stmdb	sp!, {r0, r1, r4, r5, r6, r7, r8, lr}
 8001828:	4604      	mov	r4, r0
 800182a:	b908      	cbnz	r0, 8001830 <HAL_RCC_OscConfig+0xc>
 800182c:	2001      	movs	r0, #1
 800182e:	e03f      	b.n	80018b0 <HAL_RCC_OscConfig+0x8c>
 8001830:	6803      	ldr	r3, [r0, #0]
 8001832:	07dd      	lsls	r5, r3, #31
 8001834:	d410      	bmi.n	8001858 <HAL_RCC_OscConfig+0x34>
 8001836:	6823      	ldr	r3, [r4, #0]
 8001838:	0798      	lsls	r0, r3, #30
 800183a:	d45a      	bmi.n	80018f2 <HAL_RCC_OscConfig+0xce>
 800183c:	6823      	ldr	r3, [r4, #0]
 800183e:	071a      	lsls	r2, r3, #28
 8001840:	f100 809c 	bmi.w	800197c <HAL_RCC_OscConfig+0x158>
 8001844:	6823      	ldr	r3, [r4, #0]
 8001846:	075b      	lsls	r3, r3, #29
 8001848:	f100 80ba 	bmi.w	80019c0 <HAL_RCC_OscConfig+0x19c>
 800184c:	69a0      	ldr	r0, [r4, #24]
 800184e:	2800      	cmp	r0, #0
 8001850:	f040 811b 	bne.w	8001a8a <HAL_RCC_OscConfig+0x266>
 8001854:	2000      	movs	r0, #0
 8001856:	e02b      	b.n	80018b0 <HAL_RCC_OscConfig+0x8c>
 8001858:	4ba7      	ldr	r3, [pc, #668]	; (8001af8 <HAL_RCC_OscConfig+0x2d4>)
 800185a:	689a      	ldr	r2, [r3, #8]
 800185c:	f002 020c 	and.w	r2, r2, #12
 8001860:	2a04      	cmp	r2, #4
 8001862:	d007      	beq.n	8001874 <HAL_RCC_OscConfig+0x50>
 8001864:	689a      	ldr	r2, [r3, #8]
 8001866:	f002 020c 	and.w	r2, r2, #12
 800186a:	2a08      	cmp	r2, #8
 800186c:	d10a      	bne.n	8001884 <HAL_RCC_OscConfig+0x60>
 800186e:	685b      	ldr	r3, [r3, #4]
 8001870:	0259      	lsls	r1, r3, #9
 8001872:	d507      	bpl.n	8001884 <HAL_RCC_OscConfig+0x60>
 8001874:	4ba0      	ldr	r3, [pc, #640]	; (8001af8 <HAL_RCC_OscConfig+0x2d4>)
 8001876:	681b      	ldr	r3, [r3, #0]
 8001878:	039a      	lsls	r2, r3, #14
 800187a:	d5dc      	bpl.n	8001836 <HAL_RCC_OscConfig+0x12>
 800187c:	6863      	ldr	r3, [r4, #4]
 800187e:	2b00      	cmp	r3, #0
 8001880:	d1d9      	bne.n	8001836 <HAL_RCC_OscConfig+0x12>
 8001882:	e7d3      	b.n	800182c <HAL_RCC_OscConfig+0x8>
 8001884:	6863      	ldr	r3, [r4, #4]
 8001886:	4d9c      	ldr	r5, [pc, #624]	; (8001af8 <HAL_RCC_OscConfig+0x2d4>)
 8001888:	f5b3 3f80 	cmp.w	r3, #65536	; 0x10000
 800188c:	d113      	bne.n	80018b6 <HAL_RCC_OscConfig+0x92>
 800188e:	682b      	ldr	r3, [r5, #0]
 8001890:	f443 3380 	orr.w	r3, r3, #65536	; 0x10000
 8001894:	602b      	str	r3, [r5, #0]
 8001896:	f7ff f9ad 	bl	8000bf4 <HAL_GetTick>
 800189a:	4d97      	ldr	r5, [pc, #604]	; (8001af8 <HAL_RCC_OscConfig+0x2d4>)
 800189c:	4606      	mov	r6, r0
 800189e:	682b      	ldr	r3, [r5, #0]
 80018a0:	039b      	lsls	r3, r3, #14
 80018a2:	d4c8      	bmi.n	8001836 <HAL_RCC_OscConfig+0x12>
 80018a4:	f7ff f9a6 	bl	8000bf4 <HAL_GetTick>
 80018a8:	1b80      	subs	r0, r0, r6
 80018aa:	2864      	cmp	r0, #100	; 0x64
 80018ac:	d9f7      	bls.n	800189e <HAL_RCC_OscConfig+0x7a>
 80018ae:	2003      	movs	r0, #3
 80018b0:	b002      	add	sp, #8
 80018b2:	e8bd 81f0 	ldmia.w	sp!, {r4, r5, r6, r7, r8, pc}
 80018b6:	f5b3 2fa0 	cmp.w	r3, #327680	; 0x50000
 80018ba:	d104      	bne.n	80018c6 <HAL_RCC_OscConfig+0xa2>
 80018bc:	682b      	ldr	r3, [r5, #0]
 80018be:	f443 2380 	orr.w	r3, r3, #262144	; 0x40000
 80018c2:	602b      	str	r3, [r5, #0]
 80018c4:	e7e3      	b.n	800188e <HAL_RCC_OscConfig+0x6a>
 80018c6:	682a      	ldr	r2, [r5, #0]
 80018c8:	f422 3280 	bic.w	r2, r2, #65536	; 0x10000
 80018cc:	602a      	str	r2, [r5, #0]
 80018ce:	682a      	ldr	r2, [r5, #0]
 80018d0:	f422 2280 	bic.w	r2, r2, #262144	; 0x40000
 80018d4:	602a      	str	r2, [r5, #0]
 80018d6:	2b00      	cmp	r3, #0
 80018d8:	d1dd      	bne.n	8001896 <HAL_RCC_OscConfig+0x72>
 80018da:	f7ff f98b 	bl	8000bf4 <HAL_GetTick>
 80018de:	4606      	mov	r6, r0
 80018e0:	682b      	ldr	r3, [r5, #0]
 80018e2:	039f      	lsls	r7, r3, #14
 80018e4:	d5a7      	bpl.n	8001836 <HAL_RCC_OscConfig+0x12>
 80018e6:	f7ff f985 	bl	8000bf4 <HAL_GetTick>
 80018ea:	1b80      	subs	r0, r0, r6
 80018ec:	2864      	cmp	r0, #100	; 0x64
 80018ee:	d9f7      	bls.n	80018e0 <HAL_RCC_OscConfig+0xbc>
 80018f0:	e7dd      	b.n	80018ae <HAL_RCC_OscConfig+0x8a>
 80018f2:	4b81      	ldr	r3, [pc, #516]	; (8001af8 <HAL_RCC_OscConfig+0x2d4>)
 80018f4:	689a      	ldr	r2, [r3, #8]
 80018f6:	f012 0f0c 	tst.w	r2, #12
 80018fa:	d007      	beq.n	800190c <HAL_RCC_OscConfig+0xe8>
 80018fc:	689a      	ldr	r2, [r3, #8]
 80018fe:	f002 020c 	and.w	r2, r2, #12
 8001902:	2a08      	cmp	r2, #8
 8001904:	d111      	bne.n	800192a <HAL_RCC_OscConfig+0x106>
 8001906:	685b      	ldr	r3, [r3, #4]
 8001908:	025e      	lsls	r6, r3, #9
 800190a:	d40e      	bmi.n	800192a <HAL_RCC_OscConfig+0x106>
 800190c:	4b7a      	ldr	r3, [pc, #488]	; (8001af8 <HAL_RCC_OscConfig+0x2d4>)
 800190e:	681a      	ldr	r2, [r3, #0]
 8001910:	0795      	lsls	r5, r2, #30
 8001912:	d502      	bpl.n	800191a <HAL_RCC_OscConfig+0xf6>
 8001914:	68e2      	ldr	r2, [r4, #12]
 8001916:	2a01      	cmp	r2, #1
 8001918:	d188      	bne.n	800182c <HAL_RCC_OscConfig+0x8>
 800191a:	681a      	ldr	r2, [r3, #0]
 800191c:	6921      	ldr	r1, [r4, #16]
 800191e:	f022 02f8 	bic.w	r2, r2, #248	; 0xf8
 8001922:	ea42 02c1 	orr.w	r2, r2, r1, lsl #3
 8001926:	601a      	str	r2, [r3, #0]
 8001928:	e788      	b.n	800183c <HAL_RCC_OscConfig+0x18>
 800192a:	68e2      	ldr	r2, [r4, #12]
 800192c:	4b73      	ldr	r3, [pc, #460]	; (8001afc <HAL_RCC_OscConfig+0x2d8>)
 800192e:	b1b2      	cbz	r2, 800195e <HAL_RCC_OscConfig+0x13a>
 8001930:	2201      	movs	r2, #1
 8001932:	601a      	str	r2, [r3, #0]
 8001934:	f7ff f95e 	bl	8000bf4 <HAL_GetTick>
 8001938:	4d6f      	ldr	r5, [pc, #444]	; (8001af8 <HAL_RCC_OscConfig+0x2d4>)
 800193a:	4606      	mov	r6, r0
 800193c:	682b      	ldr	r3, [r5, #0]
 800193e:	0798      	lsls	r0, r3, #30
 8001940:	d507      	bpl.n	8001952 <HAL_RCC_OscConfig+0x12e>
 8001942:	682b      	ldr	r3, [r5, #0]
 8001944:	6922      	ldr	r2, [r4, #16]
 8001946:	f023 03f8 	bic.w	r3, r3, #248	; 0xf8
 800194a:	ea43 03c2 	orr.w	r3, r3, r2, lsl #3
 800194e:	602b      	str	r3, [r5, #0]
 8001950:	e774      	b.n	800183c <HAL_RCC_OscConfig+0x18>
 8001952:	f7ff f94f 	bl	8000bf4 <HAL_GetTick>
 8001956:	1b80      	subs	r0, r0, r6
 8001958:	2802      	cmp	r0, #2
 800195a:	d9ef      	bls.n	800193c <HAL_RCC_OscConfig+0x118>
 800195c:	e7a7      	b.n	80018ae <HAL_RCC_OscConfig+0x8a>
 800195e:	601a      	str	r2, [r3, #0]
 8001960:	f7ff f948 	bl	8000bf4 <HAL_GetTick>
 8001964:	4d64      	ldr	r5, [pc, #400]	; (8001af8 <HAL_RCC_OscConfig+0x2d4>)
 8001966:	4606      	mov	r6, r0
 8001968:	682b      	ldr	r3, [r5, #0]
 800196a:	0799      	lsls	r1, r3, #30
 800196c:	f57f af66 	bpl.w	800183c <HAL_RCC_OscConfig+0x18>
 8001970:	f7ff f940 	bl	8000bf4 <HAL_GetTick>
 8001974:	1b80      	subs	r0, r0, r6
 8001976:	2802      	cmp	r0, #2
 8001978:	d9f6      	bls.n	8001968 <HAL_RCC_OscConfig+0x144>
 800197a:	e798      	b.n	80018ae <HAL_RCC_OscConfig+0x8a>
 800197c:	6962      	ldr	r2, [r4, #20]
 800197e:	4b60      	ldr	r3, [pc, #384]	; (8001b00 <HAL_RCC_OscConfig+0x2dc>)
 8001980:	b17a      	cbz	r2, 80019a2 <HAL_RCC_OscConfig+0x17e>
 8001982:	2201      	movs	r2, #1
 8001984:	601a      	str	r2, [r3, #0]
 8001986:	f7ff f935 	bl	8000bf4 <HAL_GetTick>
 800198a:	4d5b      	ldr	r5, [pc, #364]	; (8001af8 <HAL_RCC_OscConfig+0x2d4>)
 800198c:	4606      	mov	r6, r0
 800198e:	6f6b      	ldr	r3, [r5, #116]	; 0x74
 8001990:	079f      	lsls	r7, r3, #30
 8001992:	f53f af57 	bmi.w	8001844 <HAL_RCC_OscConfig+0x20>
 8001996:	f7ff f92d 	bl	8000bf4 <HAL_GetTick>
 800199a:	1b80      	subs	r0, r0, r6
 800199c:	2802      	cmp	r0, #2
 800199e:	d9f6      	bls.n	800198e <HAL_RCC_OscConfig+0x16a>
 80019a0:	e785      	b.n	80018ae <HAL_RCC_OscConfig+0x8a>
 80019a2:	601a      	str	r2, [r3, #0]
 80019a4:	f7ff f926 	bl	8000bf4 <HAL_GetTick>
 80019a8:	4d53      	ldr	r5, [pc, #332]	; (8001af8 <HAL_RCC_OscConfig+0x2d4>)
 80019aa:	4606      	mov	r6, r0
 80019ac:	6f6b      	ldr	r3, [r5, #116]	; 0x74
 80019ae:	0798      	lsls	r0, r3, #30
 80019b0:	f57f af48 	bpl.w	8001844 <HAL_RCC_OscConfig+0x20>
 80019b4:	f7ff f91e 	bl	8000bf4 <HAL_GetTick>
 80019b8:	1b80      	subs	r0, r0, r6
 80019ba:	2802      	cmp	r0, #2
 80019bc:	d9f6      	bls.n	80019ac <HAL_RCC_OscConfig+0x188>
 80019be:	e776      	b.n	80018ae <HAL_RCC_OscConfig+0x8a>
 80019c0:	4b4d      	ldr	r3, [pc, #308]	; (8001af8 <HAL_RCC_OscConfig+0x2d4>)
 80019c2:	6c1a      	ldr	r2, [r3, #64]	; 0x40
 80019c4:	f012 5280 	ands.w	r2, r2, #268435456	; 0x10000000
 80019c8:	d128      	bne.n	8001a1c <HAL_RCC_OscConfig+0x1f8>
 80019ca:	9201      	str	r2, [sp, #4]
 80019cc:	6c1a      	ldr	r2, [r3, #64]	; 0x40
 80019ce:	f042 5280 	orr.w	r2, r2, #268435456	; 0x10000000
 80019d2:	641a      	str	r2, [r3, #64]	; 0x40
 80019d4:	6c1b      	ldr	r3, [r3, #64]	; 0x40
 80019d6:	f003 5380 	and.w	r3, r3, #268435456	; 0x10000000
 80019da:	9301      	str	r3, [sp, #4]
 80019dc:	9b01      	ldr	r3, [sp, #4]
 80019de:	2601      	movs	r6, #1
 80019e0:	4d48      	ldr	r5, [pc, #288]	; (8001b04 <HAL_RCC_OscConfig+0x2e0>)
 80019e2:	682b      	ldr	r3, [r5, #0]
 80019e4:	05d9      	lsls	r1, r3, #23
 80019e6:	d51b      	bpl.n	8001a20 <HAL_RCC_OscConfig+0x1fc>
 80019e8:	68a3      	ldr	r3, [r4, #8]
 80019ea:	4d43      	ldr	r5, [pc, #268]	; (8001af8 <HAL_RCC_OscConfig+0x2d4>)
 80019ec:	2b01      	cmp	r3, #1
 80019ee:	d127      	bne.n	8001a40 <HAL_RCC_OscConfig+0x21c>
 80019f0:	6f2b      	ldr	r3, [r5, #112]	; 0x70
 80019f2:	f043 0301 	orr.w	r3, r3, #1
 80019f6:	672b      	str	r3, [r5, #112]	; 0x70
 80019f8:	f7ff f8fc 	bl	8000bf4 <HAL_GetTick>
 80019fc:	4d3e      	ldr	r5, [pc, #248]	; (8001af8 <HAL_RCC_OscConfig+0x2d4>)
 80019fe:	4607      	mov	r7, r0
 8001a00:	f241 3888 	movw	r8, #5000	; 0x1388
 8001a04:	6f2b      	ldr	r3, [r5, #112]	; 0x70
 8001a06:	079b      	lsls	r3, r3, #30
 8001a08:	d539      	bpl.n	8001a7e <HAL_RCC_OscConfig+0x25a>
 8001a0a:	2e00      	cmp	r6, #0
 8001a0c:	f43f af1e 	beq.w	800184c <HAL_RCC_OscConfig+0x28>
 8001a10:	4a39      	ldr	r2, [pc, #228]	; (8001af8 <HAL_RCC_OscConfig+0x2d4>)
 8001a12:	6c13      	ldr	r3, [r2, #64]	; 0x40
 8001a14:	f023 5380 	bic.w	r3, r3, #268435456	; 0x10000000
 8001a18:	6413      	str	r3, [r2, #64]	; 0x40
 8001a1a:	e717      	b.n	800184c <HAL_RCC_OscConfig+0x28>
 8001a1c:	2600      	movs	r6, #0
 8001a1e:	e7df      	b.n	80019e0 <HAL_RCC_OscConfig+0x1bc>
 8001a20:	682b      	ldr	r3, [r5, #0]
 8001a22:	f443 7380 	orr.w	r3, r3, #256	; 0x100
 8001a26:	602b      	str	r3, [r5, #0]
 8001a28:	f7ff f8e4 	bl	8000bf4 <HAL_GetTick>
 8001a2c:	4607      	mov	r7, r0
 8001a2e:	682b      	ldr	r3, [r5, #0]
 8001a30:	05da      	lsls	r2, r3, #23
 8001a32:	d4d9      	bmi.n	80019e8 <HAL_RCC_OscConfig+0x1c4>
 8001a34:	f7ff f8de 	bl	8000bf4 <HAL_GetTick>
 8001a38:	1bc0      	subs	r0, r0, r7
 8001a3a:	2802      	cmp	r0, #2
 8001a3c:	d9f7      	bls.n	8001a2e <HAL_RCC_OscConfig+0x20a>
 8001a3e:	e736      	b.n	80018ae <HAL_RCC_OscConfig+0x8a>
 8001a40:	2b05      	cmp	r3, #5
 8001a42:	d104      	bne.n	8001a4e <HAL_RCC_OscConfig+0x22a>
 8001a44:	6f2b      	ldr	r3, [r5, #112]	; 0x70
 8001a46:	f043 0304 	orr.w	r3, r3, #4
 8001a4a:	672b      	str	r3, [r5, #112]	; 0x70
 8001a4c:	e7d0      	b.n	80019f0 <HAL_RCC_OscConfig+0x1cc>
 8001a4e:	6f2a      	ldr	r2, [r5, #112]	; 0x70
 8001a50:	f022 0201 	bic.w	r2, r2, #1
 8001a54:	672a      	str	r2, [r5, #112]	; 0x70
 8001a56:	6f2a      	ldr	r2, [r5, #112]	; 0x70
 8001a58:	f022 0204 	bic.w	r2, r2, #4
 8001a5c:	672a      	str	r2, [r5, #112]	; 0x70
 8001a5e:	2b00      	cmp	r3, #0
 8001a60:	d1ca      	bne.n	80019f8 <HAL_RCC_OscConfig+0x1d4>
 8001a62:	f7ff f8c7 	bl	8000bf4 <HAL_GetTick>
 8001a66:	f241 3888 	movw	r8, #5000	; 0x1388
 8001a6a:	4607      	mov	r7, r0
 8001a6c:	6f2b      	ldr	r3, [r5, #112]	; 0x70
 8001a6e:	0798      	lsls	r0, r3, #30
 8001a70:	d5cb      	bpl.n	8001a0a <HAL_RCC_OscConfig+0x1e6>
 8001a72:	f7ff f8bf 	bl	8000bf4 <HAL_GetTick>
 8001a76:	1bc0      	subs	r0, r0, r7
 8001a78:	4540      	cmp	r0, r8
 8001a7a:	d9f7      	bls.n	8001a6c <HAL_RCC_OscConfig+0x248>
 8001a7c:	e717      	b.n	80018ae <HAL_RCC_OscConfig+0x8a>
 8001a7e:	f7ff f8b9 	bl	8000bf4 <HAL_GetTick>
 8001a82:	1bc0      	subs	r0, r0, r7
 8001a84:	4540      	cmp	r0, r8
 8001a86:	d9bd      	bls.n	8001a04 <HAL_RCC_OscConfig+0x1e0>
 8001a88:	e711      	b.n	80018ae <HAL_RCC_OscConfig+0x8a>
 8001a8a:	4d1b      	ldr	r5, [pc, #108]	; (8001af8 <HAL_RCC_OscConfig+0x2d4>)
 8001a8c:	68ab      	ldr	r3, [r5, #8]
 8001a8e:	f003 030c 	and.w	r3, r3, #12
 8001a92:	2b08      	cmp	r3, #8
 8001a94:	d047      	beq.n	8001b26 <HAL_RCC_OscConfig+0x302>
 8001a96:	4e1c      	ldr	r6, [pc, #112]	; (8001b08 <HAL_RCC_OscConfig+0x2e4>)
 8001a98:	2300      	movs	r3, #0
 8001a9a:	2802      	cmp	r0, #2
 8001a9c:	6033      	str	r3, [r6, #0]
 8001a9e:	d135      	bne.n	8001b0c <HAL_RCC_OscConfig+0x2e8>
 8001aa0:	f7ff f8a8 	bl	8000bf4 <HAL_GetTick>
 8001aa4:	4607      	mov	r7, r0
 8001aa6:	682b      	ldr	r3, [r5, #0]
 8001aa8:	0199      	lsls	r1, r3, #6
 8001aaa:	d41e      	bmi.n	8001aea <HAL_RCC_OscConfig+0x2c6>
 8001aac:	e9d4 3207 	ldrd	r3, r2, [r4, #28]
 8001ab0:	4313      	orrs	r3, r2
 8001ab2:	6a62      	ldr	r2, [r4, #36]	; 0x24
 8001ab4:	ea43 1382 	orr.w	r3, r3, r2, lsl #6
 8001ab8:	6ae2      	ldr	r2, [r4, #44]	; 0x2c
 8001aba:	ea43 6302 	orr.w	r3, r3, r2, lsl #24
 8001abe:	6aa2      	ldr	r2, [r4, #40]	; 0x28
 8001ac0:	4c0d      	ldr	r4, [pc, #52]	; (8001af8 <HAL_RCC_OscConfig+0x2d4>)
 8001ac2:	0852      	lsrs	r2, r2, #1
 8001ac4:	3a01      	subs	r2, #1
 8001ac6:	ea43 4302 	orr.w	r3, r3, r2, lsl #16
 8001aca:	606b      	str	r3, [r5, #4]
 8001acc:	2301      	movs	r3, #1
 8001ace:	6033      	str	r3, [r6, #0]
 8001ad0:	f7ff f890 	bl	8000bf4 <HAL_GetTick>
 8001ad4:	4605      	mov	r5, r0
 8001ad6:	6823      	ldr	r3, [r4, #0]
 8001ad8:	019a      	lsls	r2, r3, #6
 8001ada:	f53f aebb 	bmi.w	8001854 <HAL_RCC_OscConfig+0x30>
 8001ade:	f7ff f889 	bl	8000bf4 <HAL_GetTick>
 8001ae2:	1b40      	subs	r0, r0, r5
 8001ae4:	2802      	cmp	r0, #2
 8001ae6:	d9f6      	bls.n	8001ad6 <HAL_RCC_OscConfig+0x2b2>
 8001ae8:	e6e1      	b.n	80018ae <HAL_RCC_OscConfig+0x8a>
 8001aea:	f7ff f883 	bl	8000bf4 <HAL_GetTick>
 8001aee:	1bc0      	subs	r0, r0, r7
 8001af0:	2802      	cmp	r0, #2
 8001af2:	d9d8      	bls.n	8001aa6 <HAL_RCC_OscConfig+0x282>
 8001af4:	e6db      	b.n	80018ae <HAL_RCC_OscConfig+0x8a>
 8001af6:	bf00      	nop
 8001af8:	40023800 	.word	0x40023800
 8001afc:	42470000 	.word	0x42470000
 8001b00:	42470e80 	.word	0x42470e80
 8001b04:	40007000 	.word	0x40007000
 8001b08:	42470060 	.word	0x42470060
 8001b0c:	f7ff f872 	bl	8000bf4 <HAL_GetTick>
 8001b10:	4604      	mov	r4, r0
 8001b12:	682b      	ldr	r3, [r5, #0]
 8001b14:	019b      	lsls	r3, r3, #6
 8001b16:	f57f ae9d 	bpl.w	8001854 <HAL_RCC_OscConfig+0x30>
 8001b1a:	f7ff f86b 	bl	8000bf4 <HAL_GetTick>
 8001b1e:	1b00      	subs	r0, r0, r4
 8001b20:	2802      	cmp	r0, #2
 8001b22:	d9f6      	bls.n	8001b12 <HAL_RCC_OscConfig+0x2ee>
 8001b24:	e6c3      	b.n	80018ae <HAL_RCC_OscConfig+0x8a>
 8001b26:	2801      	cmp	r0, #1
 8001b28:	f43f aec2 	beq.w	80018b0 <HAL_RCC_OscConfig+0x8c>
 8001b2c:	6868      	ldr	r0, [r5, #4]
 8001b2e:	69e3      	ldr	r3, [r4, #28]
 8001b30:	f400 0280 	and.w	r2, r0, #4194304	; 0x400000
 8001b34:	429a      	cmp	r2, r3
 8001b36:	f47f ae79 	bne.w	800182c <HAL_RCC_OscConfig+0x8>
 8001b3a:	6a22      	ldr	r2, [r4, #32]
 8001b3c:	f000 033f 	and.w	r3, r0, #63	; 0x3f
 8001b40:	4293      	cmp	r3, r2
 8001b42:	f47f ae73 	bne.w	800182c <HAL_RCC_OscConfig+0x8>
 8001b46:	6a62      	ldr	r2, [r4, #36]	; 0x24
 8001b48:	f647 73c0 	movw	r3, #32704	; 0x7fc0
 8001b4c:	4003      	ands	r3, r0
 8001b4e:	4293      	cmp	r3, r2
 8001b50:	f47f ae6c 	bne.w	800182c <HAL_RCC_OscConfig+0x8>
 8001b54:	6aa2      	ldr	r2, [r4, #40]	; 0x28
 8001b56:	f400 3340 	and.w	r3, r0, #196608	; 0x30000
 8001b5a:	4293      	cmp	r3, r2
 8001b5c:	f47f ae66 	bne.w	800182c <HAL_RCC_OscConfig+0x8>
 8001b60:	6ae3      	ldr	r3, [r4, #44]	; 0x2c
 8001b62:	f000 6070 	and.w	r0, r0, #251658240	; 0xf000000
 8001b66:	1ac0      	subs	r0, r0, r3
 8001b68:	bf18      	it	ne
 8001b6a:	2001      	movne	r0, #1
 8001b6c:	e6a0      	b.n	80018b0 <HAL_RCC_OscConfig+0x8c>
 8001b6e:	bf00      	nop

08001b70 <HAL_RCC_GetSysClockFreq>:
 8001b70:	4913      	ldr	r1, [pc, #76]	; (8001bc0 <HAL_RCC_GetSysClockFreq+0x50>)
 8001b72:	b508      	push	{r3, lr}
 8001b74:	688b      	ldr	r3, [r1, #8]
 8001b76:	f003 030c 	and.w	r3, r3, #12
 8001b7a:	2b04      	cmp	r3, #4
 8001b7c:	d003      	beq.n	8001b86 <HAL_RCC_GetSysClockFreq+0x16>
 8001b7e:	2b08      	cmp	r3, #8
 8001b80:	d003      	beq.n	8001b8a <HAL_RCC_GetSysClockFreq+0x1a>
 8001b82:	4810      	ldr	r0, [pc, #64]	; (8001bc4 <HAL_RCC_GetSysClockFreq+0x54>)
 8001b84:	e000      	b.n	8001b88 <HAL_RCC_GetSysClockFreq+0x18>
 8001b86:	4810      	ldr	r0, [pc, #64]	; (8001bc8 <HAL_RCC_GetSysClockFreq+0x58>)
 8001b88:	bd08      	pop	{r3, pc}
 8001b8a:	684a      	ldr	r2, [r1, #4]
 8001b8c:	684b      	ldr	r3, [r1, #4]
 8001b8e:	6849      	ldr	r1, [r1, #4]
 8001b90:	f413 0380 	ands.w	r3, r3, #4194304	; 0x400000
 8001b94:	bf14      	ite	ne
 8001b96:	480c      	ldrne	r0, [pc, #48]	; (8001bc8 <HAL_RCC_GetSysClockFreq+0x58>)
 8001b98:	480a      	ldreq	r0, [pc, #40]	; (8001bc4 <HAL_RCC_GetSysClockFreq+0x54>)
 8001b9a:	f3c1 1188 	ubfx	r1, r1, #6, #9
 8001b9e:	bf18      	it	ne
 8001ba0:	2300      	movne	r3, #0
 8001ba2:	f002 023f 	and.w	r2, r2, #63	; 0x3f
 8001ba6:	fba1 0100 	umull	r0, r1, r1, r0
 8001baa:	f7fe fb81 	bl	80002b0 <__aeabi_uldivmod>
 8001bae:	4b04      	ldr	r3, [pc, #16]	; (8001bc0 <HAL_RCC_GetSysClockFreq+0x50>)
 8001bb0:	685b      	ldr	r3, [r3, #4]
 8001bb2:	f3c3 4301 	ubfx	r3, r3, #16, #2
 8001bb6:	3301      	adds	r3, #1
 8001bb8:	005b      	lsls	r3, r3, #1
 8001bba:	fbb0 f0f3 	udiv	r0, r0, r3
 8001bbe:	e7e3      	b.n	8001b88 <HAL_RCC_GetSysClockFreq+0x18>
 8001bc0:	40023800 	.word	0x40023800
 8001bc4:	00f42400 	.word	0x00f42400
 8001bc8:	007a1200 	.word	0x007a1200

08001bcc <HAL_RCC_ClockConfig>:
 8001bcc:	e92d 41f0 	stmdb	sp!, {r4, r5, r6, r7, r8, lr}
 8001bd0:	460d      	mov	r5, r1
 8001bd2:	4604      	mov	r4, r0
 8001bd4:	b910      	cbnz	r0, 8001bdc <HAL_RCC_ClockConfig+0x10>
 8001bd6:	2001      	movs	r0, #1
 8001bd8:	e8bd 81f0 	ldmia.w	sp!, {r4, r5, r6, r7, r8, pc}
 8001bdc:	4b43      	ldr	r3, [pc, #268]	; (8001cec <HAL_RCC_ClockConfig+0x120>)
 8001bde:	681a      	ldr	r2, [r3, #0]
 8001be0:	f002 020f 	and.w	r2, r2, #15
 8001be4:	428a      	cmp	r2, r1
 8001be6:	d328      	bcc.n	8001c3a <HAL_RCC_ClockConfig+0x6e>
 8001be8:	6821      	ldr	r1, [r4, #0]
 8001bea:	078f      	lsls	r7, r1, #30
 8001bec:	d42d      	bmi.n	8001c4a <HAL_RCC_ClockConfig+0x7e>
 8001bee:	07c8      	lsls	r0, r1, #31
 8001bf0:	d440      	bmi.n	8001c74 <HAL_RCC_ClockConfig+0xa8>
 8001bf2:	4b3e      	ldr	r3, [pc, #248]	; (8001cec <HAL_RCC_ClockConfig+0x120>)
 8001bf4:	681a      	ldr	r2, [r3, #0]
 8001bf6:	f002 020f 	and.w	r2, r2, #15
 8001bfa:	42aa      	cmp	r2, r5
 8001bfc:	d865      	bhi.n	8001cca <HAL_RCC_ClockConfig+0xfe>
 8001bfe:	6822      	ldr	r2, [r4, #0]
 8001c00:	0751      	lsls	r1, r2, #29
 8001c02:	d46b      	bmi.n	8001cdc <HAL_RCC_ClockConfig+0x110>
 8001c04:	0713      	lsls	r3, r2, #28
 8001c06:	d507      	bpl.n	8001c18 <HAL_RCC_ClockConfig+0x4c>
 8001c08:	4a39      	ldr	r2, [pc, #228]	; (8001cf0 <HAL_RCC_ClockConfig+0x124>)
 8001c0a:	6921      	ldr	r1, [r4, #16]
 8001c0c:	6893      	ldr	r3, [r2, #8]
 8001c0e:	f423 4360 	bic.w	r3, r3, #57344	; 0xe000
 8001c12:	ea43 03c1 	orr.w	r3, r3, r1, lsl #3
 8001c16:	6093      	str	r3, [r2, #8]
 8001c18:	f7ff ffaa 	bl	8001b70 <HAL_RCC_GetSysClockFreq>
 8001c1c:	4b34      	ldr	r3, [pc, #208]	; (8001cf0 <HAL_RCC_ClockConfig+0x124>)
 8001c1e:	4a35      	ldr	r2, [pc, #212]	; (8001cf4 <HAL_RCC_ClockConfig+0x128>)
 8001c20:	689b      	ldr	r3, [r3, #8]
 8001c22:	f3c3 1303 	ubfx	r3, r3, #4, #4
 8001c26:	5cd3      	ldrb	r3, [r2, r3]
 8001c28:	40d8      	lsrs	r0, r3
 8001c2a:	4b33      	ldr	r3, [pc, #204]	; (8001cf8 <HAL_RCC_ClockConfig+0x12c>)
 8001c2c:	6018      	str	r0, [r3, #0]
 8001c2e:	4b33      	ldr	r3, [pc, #204]	; (8001cfc <HAL_RCC_ClockConfig+0x130>)
 8001c30:	6818      	ldr	r0, [r3, #0]
 8001c32:	f7fe fdf7 	bl	8000824 <HAL_InitTick>
 8001c36:	2000      	movs	r0, #0
 8001c38:	e7ce      	b.n	8001bd8 <HAL_RCC_ClockConfig+0xc>
 8001c3a:	b2ca      	uxtb	r2, r1
 8001c3c:	701a      	strb	r2, [r3, #0]
 8001c3e:	681b      	ldr	r3, [r3, #0]
 8001c40:	f003 030f 	and.w	r3, r3, #15
 8001c44:	428b      	cmp	r3, r1
 8001c46:	d1c6      	bne.n	8001bd6 <HAL_RCC_ClockConfig+0xa>
 8001c48:	e7ce      	b.n	8001be8 <HAL_RCC_ClockConfig+0x1c>
 8001c4a:	4b29      	ldr	r3, [pc, #164]	; (8001cf0 <HAL_RCC_ClockConfig+0x124>)
 8001c4c:	f011 0f04 	tst.w	r1, #4
 8001c50:	bf1e      	ittt	ne
 8001c52:	689a      	ldrne	r2, [r3, #8]
 8001c54:	f442 52e0 	orrne.w	r2, r2, #7168	; 0x1c00
 8001c58:	609a      	strne	r2, [r3, #8]
 8001c5a:	070e      	lsls	r6, r1, #28
 8001c5c:	bf42      	ittt	mi
 8001c5e:	689a      	ldrmi	r2, [r3, #8]
 8001c60:	f442 4260 	orrmi.w	r2, r2, #57344	; 0xe000
 8001c64:	609a      	strmi	r2, [r3, #8]
 8001c66:	689a      	ldr	r2, [r3, #8]
 8001c68:	68a0      	ldr	r0, [r4, #8]
 8001c6a:	f022 02f0 	bic.w	r2, r2, #240	; 0xf0
 8001c6e:	4302      	orrs	r2, r0
 8001c70:	609a      	str	r2, [r3, #8]
 8001c72:	e7bc      	b.n	8001bee <HAL_RCC_ClockConfig+0x22>
 8001c74:	6862      	ldr	r2, [r4, #4]
 8001c76:	4b1e      	ldr	r3, [pc, #120]	; (8001cf0 <HAL_RCC_ClockConfig+0x124>)
 8001c78:	2a01      	cmp	r2, #1
 8001c7a:	d11c      	bne.n	8001cb6 <HAL_RCC_ClockConfig+0xea>
 8001c7c:	681b      	ldr	r3, [r3, #0]
 8001c7e:	f413 3f00 	tst.w	r3, #131072	; 0x20000
 8001c82:	d0a8      	beq.n	8001bd6 <HAL_RCC_ClockConfig+0xa>
 8001c84:	4e1a      	ldr	r6, [pc, #104]	; (8001cf0 <HAL_RCC_ClockConfig+0x124>)
 8001c86:	68b3      	ldr	r3, [r6, #8]
 8001c88:	f023 0303 	bic.w	r3, r3, #3
 8001c8c:	4313      	orrs	r3, r2
 8001c8e:	60b3      	str	r3, [r6, #8]
 8001c90:	f7fe ffb0 	bl	8000bf4 <HAL_GetTick>
 8001c94:	f241 3888 	movw	r8, #5000	; 0x1388
 8001c98:	4607      	mov	r7, r0
 8001c9a:	68b3      	ldr	r3, [r6, #8]
 8001c9c:	6862      	ldr	r2, [r4, #4]
 8001c9e:	f003 030c 	and.w	r3, r3, #12
 8001ca2:	ebb3 0f82 	cmp.w	r3, r2, lsl #2
 8001ca6:	d0a4      	beq.n	8001bf2 <HAL_RCC_ClockConfig+0x26>
 8001ca8:	f7fe ffa4 	bl	8000bf4 <HAL_GetTick>
 8001cac:	1bc0      	subs	r0, r0, r7
 8001cae:	4540      	cmp	r0, r8
 8001cb0:	d9f3      	bls.n	8001c9a <HAL_RCC_ClockConfig+0xce>
 8001cb2:	2003      	movs	r0, #3
 8001cb4:	e790      	b.n	8001bd8 <HAL_RCC_ClockConfig+0xc>
 8001cb6:	1e91      	subs	r1, r2, #2
 8001cb8:	2901      	cmp	r1, #1
 8001cba:	681b      	ldr	r3, [r3, #0]
 8001cbc:	d802      	bhi.n	8001cc4 <HAL_RCC_ClockConfig+0xf8>
 8001cbe:	f013 7f00 	tst.w	r3, #33554432	; 0x2000000
 8001cc2:	e7de      	b.n	8001c82 <HAL_RCC_ClockConfig+0xb6>
 8001cc4:	f013 0f02 	tst.w	r3, #2
 8001cc8:	e7db      	b.n	8001c82 <HAL_RCC_ClockConfig+0xb6>
 8001cca:	b2ea      	uxtb	r2, r5
 8001ccc:	701a      	strb	r2, [r3, #0]
 8001cce:	681b      	ldr	r3, [r3, #0]
 8001cd0:	f003 030f 	and.w	r3, r3, #15
 8001cd4:	42ab      	cmp	r3, r5
 8001cd6:	f47f af7e 	bne.w	8001bd6 <HAL_RCC_ClockConfig+0xa>
 8001cda:	e790      	b.n	8001bfe <HAL_RCC_ClockConfig+0x32>
 8001cdc:	4904      	ldr	r1, [pc, #16]	; (8001cf0 <HAL_RCC_ClockConfig+0x124>)
 8001cde:	68e0      	ldr	r0, [r4, #12]
 8001ce0:	688b      	ldr	r3, [r1, #8]
 8001ce2:	f423 53e0 	bic.w	r3, r3, #7168	; 0x1c00
 8001ce6:	4303      	orrs	r3, r0
 8001ce8:	608b      	str	r3, [r1, #8]
 8001cea:	e78b      	b.n	8001c04 <HAL_RCC_ClockConfig+0x38>
 8001cec:	40023c00 	.word	0x40023c00
 8001cf0:	40023800 	.word	0x40023800
 8001cf4:	0800d43c 	.word	0x0800d43c
 8001cf8:	20000000 	.word	0x20000000
 8001cfc:	2000000c 	.word	0x2000000c

08001d00 <HAL_RCC_GetHCLKFreq>:
 8001d00:	4b01      	ldr	r3, [pc, #4]	; (8001d08 <HAL_RCC_GetHCLKFreq+0x8>)
 8001d02:	6818      	ldr	r0, [r3, #0]
 8001d04:	4770      	bx	lr
 8001d06:	bf00      	nop
 8001d08:	20000000 	.word	0x20000000

08001d0c <HAL_RCC_GetPCLK2Freq>:
 8001d0c:	4b04      	ldr	r3, [pc, #16]	; (8001d20 <HAL_RCC_GetPCLK2Freq+0x14>)
 8001d0e:	4a05      	ldr	r2, [pc, #20]	; (8001d24 <HAL_RCC_GetPCLK2Freq+0x18>)
 8001d10:	689b      	ldr	r3, [r3, #8]
 8001d12:	f3c3 3342 	ubfx	r3, r3, #13, #3
 8001d16:	5cd3      	ldrb	r3, [r2, r3]
 8001d18:	4a03      	ldr	r2, [pc, #12]	; (8001d28 <HAL_RCC_GetPCLK2Freq+0x1c>)
 8001d1a:	6810      	ldr	r0, [r2, #0]
 8001d1c:	40d8      	lsrs	r0, r3
 8001d1e:	4770      	bx	lr
 8001d20:	40023800 	.word	0x40023800
 8001d24:	0800d44c 	.word	0x0800d44c
 8001d28:	20000000 	.word	0x20000000

08001d2c <HAL_RCC_GetClockConfig>:
 8001d2c:	230f      	movs	r3, #15
 8001d2e:	6003      	str	r3, [r0, #0]
 8001d30:	4b0b      	ldr	r3, [pc, #44]	; (8001d60 <HAL_RCC_GetClockConfig+0x34>)
 8001d32:	689a      	ldr	r2, [r3, #8]
 8001d34:	f002 0203 	and.w	r2, r2, #3
 8001d38:	6042      	str	r2, [r0, #4]
 8001d3a:	689a      	ldr	r2, [r3, #8]
 8001d3c:	f002 02f0 	and.w	r2, r2, #240	; 0xf0
 8001d40:	6082      	str	r2, [r0, #8]
 8001d42:	689a      	ldr	r2, [r3, #8]
 8001d44:	f402 52e0 	and.w	r2, r2, #7168	; 0x1c00
 8001d48:	60c2      	str	r2, [r0, #12]
 8001d4a:	689b      	ldr	r3, [r3, #8]
 8001d4c:	08db      	lsrs	r3, r3, #3
 8001d4e:	f403 53e0 	and.w	r3, r3, #7168	; 0x1c00
 8001d52:	6103      	str	r3, [r0, #16]
 8001d54:	4b03      	ldr	r3, [pc, #12]	; (8001d64 <HAL_RCC_GetClockConfig+0x38>)
 8001d56:	681b      	ldr	r3, [r3, #0]
 8001d58:	f003 030f 	and.w	r3, r3, #15
 8001d5c:	600b      	str	r3, [r1, #0]
 8001d5e:	4770      	bx	lr
 8001d60:	40023800 	.word	0x40023800
 8001d64:	40023c00 	.word	0x40023c00

08001d68 <HAL_TIM_Base_MspInit>:
 8001d68:	4770      	bx	lr

08001d6a <HAL_TIM_Base_Start_IT>:
 8001d6a:	6803      	ldr	r3, [r0, #0]
 8001d6c:	68da      	ldr	r2, [r3, #12]
 8001d6e:	f042 0201 	orr.w	r2, r2, #1
 8001d72:	60da      	str	r2, [r3, #12]
 8001d74:	689a      	ldr	r2, [r3, #8]
 8001d76:	f002 0207 	and.w	r2, r2, #7
 8001d7a:	2a06      	cmp	r2, #6
 8001d7c:	bf1e      	ittt	ne
 8001d7e:	681a      	ldrne	r2, [r3, #0]
 8001d80:	f042 0201 	orrne.w	r2, r2, #1
 8001d84:	601a      	strne	r2, [r3, #0]
 8001d86:	2000      	movs	r0, #0
 8001d88:	4770      	bx	lr

08001d8a <HAL_TIM_OC_DelayElapsedCallback>:
 8001d8a:	4770      	bx	lr

08001d8c <HAL_TIM_IC_CaptureCallback>:
 8001d8c:	4770      	bx	lr

08001d8e <HAL_TIM_PWM_PulseFinishedCallback>:
 8001d8e:	4770      	bx	lr

08001d90 <HAL_TIM_TriggerCallback>:
 8001d90:	4770      	bx	lr

08001d92 <HAL_TIM_IRQHandler>:
 8001d92:	6803      	ldr	r3, [r0, #0]
 8001d94:	691a      	ldr	r2, [r3, #16]
 8001d96:	0791      	lsls	r1, r2, #30
 8001d98:	b510      	push	{r4, lr}
 8001d9a:	4604      	mov	r4, r0
 8001d9c:	d50e      	bpl.n	8001dbc <HAL_TIM_IRQHandler+0x2a>
 8001d9e:	68da      	ldr	r2, [r3, #12]
 8001da0:	0792      	lsls	r2, r2, #30
 8001da2:	d50b      	bpl.n	8001dbc <HAL_TIM_IRQHandler+0x2a>
 8001da4:	f06f 0202 	mvn.w	r2, #2
 8001da8:	611a      	str	r2, [r3, #16]
 8001daa:	699b      	ldr	r3, [r3, #24]
 8001dac:	2201      	movs	r2, #1
 8001dae:	079b      	lsls	r3, r3, #30
 8001db0:	7702      	strb	r2, [r0, #28]
 8001db2:	d077      	beq.n	8001ea4 <HAL_TIM_IRQHandler+0x112>
 8001db4:	f7ff ffea 	bl	8001d8c <HAL_TIM_IC_CaptureCallback>
 8001db8:	2300      	movs	r3, #0
 8001dba:	7723      	strb	r3, [r4, #28]
 8001dbc:	6823      	ldr	r3, [r4, #0]
 8001dbe:	691a      	ldr	r2, [r3, #16]
 8001dc0:	0750      	lsls	r0, r2, #29
 8001dc2:	d510      	bpl.n	8001de6 <HAL_TIM_IRQHandler+0x54>
 8001dc4:	68da      	ldr	r2, [r3, #12]
 8001dc6:	0751      	lsls	r1, r2, #29
 8001dc8:	d50d      	bpl.n	8001de6 <HAL_TIM_IRQHandler+0x54>
 8001dca:	f06f 0204 	mvn.w	r2, #4
 8001dce:	611a      	str	r2, [r3, #16]
 8001dd0:	699b      	ldr	r3, [r3, #24]
 8001dd2:	2202      	movs	r2, #2
 8001dd4:	f413 7f40 	tst.w	r3, #768	; 0x300
 8001dd8:	7722      	strb	r2, [r4, #28]
 8001dda:	4620      	mov	r0, r4
 8001ddc:	d068      	beq.n	8001eb0 <HAL_TIM_IRQHandler+0x11e>
 8001dde:	f7ff ffd5 	bl	8001d8c <HAL_TIM_IC_CaptureCallback>
 8001de2:	2300      	movs	r3, #0
 8001de4:	7723      	strb	r3, [r4, #28]
 8001de6:	6823      	ldr	r3, [r4, #0]
 8001de8:	691a      	ldr	r2, [r3, #16]
 8001dea:	0712      	lsls	r2, r2, #28
 8001dec:	d50f      	bpl.n	8001e0e <HAL_TIM_IRQHandler+0x7c>
 8001dee:	68da      	ldr	r2, [r3, #12]
 8001df0:	0710      	lsls	r0, r2, #28
 8001df2:	d50c      	bpl.n	8001e0e <HAL_TIM_IRQHandler+0x7c>
 8001df4:	f06f 0208 	mvn.w	r2, #8
 8001df8:	611a      	str	r2, [r3, #16]
 8001dfa:	69db      	ldr	r3, [r3, #28]
 8001dfc:	2204      	movs	r2, #4
 8001dfe:	0799      	lsls	r1, r3, #30
 8001e00:	7722      	strb	r2, [r4, #28]
 8001e02:	4620      	mov	r0, r4
 8001e04:	d05a      	beq.n	8001ebc <HAL_TIM_IRQHandler+0x12a>
 8001e06:	f7ff ffc1 	bl	8001d8c <HAL_TIM_IC_CaptureCallback>
 8001e0a:	2300      	movs	r3, #0
 8001e0c:	7723      	strb	r3, [r4, #28]
 8001e0e:	6823      	ldr	r3, [r4, #0]
 8001e10:	691a      	ldr	r2, [r3, #16]
 8001e12:	06d2      	lsls	r2, r2, #27
 8001e14:	d510      	bpl.n	8001e38 <HAL_TIM_IRQHandler+0xa6>
 8001e16:	68da      	ldr	r2, [r3, #12]
 8001e18:	06d0      	lsls	r0, r2, #27
 8001e1a:	d50d      	bpl.n	8001e38 <HAL_TIM_IRQHandler+0xa6>
 8001e1c:	f06f 0210 	mvn.w	r2, #16
 8001e20:	611a      	str	r2, [r3, #16]
 8001e22:	69db      	ldr	r3, [r3, #28]
 8001e24:	2208      	movs	r2, #8
 8001e26:	f413 7f40 	tst.w	r3, #768	; 0x300
 8001e2a:	7722      	strb	r2, [r4, #28]
 8001e2c:	4620      	mov	r0, r4
 8001e2e:	d04b      	beq.n	8001ec8 <HAL_TIM_IRQHandler+0x136>
 8001e30:	f7ff ffac 	bl	8001d8c <HAL_TIM_IC_CaptureCallback>
 8001e34:	2300      	movs	r3, #0
 8001e36:	7723      	strb	r3, [r4, #28]
 8001e38:	6823      	ldr	r3, [r4, #0]
 8001e3a:	691a      	ldr	r2, [r3, #16]
 8001e3c:	07d1      	lsls	r1, r2, #31
 8001e3e:	d508      	bpl.n	8001e52 <HAL_TIM_IRQHandler+0xc0>
 8001e40:	68da      	ldr	r2, [r3, #12]
 8001e42:	07d2      	lsls	r2, r2, #31
 8001e44:	d505      	bpl.n	8001e52 <HAL_TIM_IRQHandler+0xc0>
 8001e46:	f06f 0201 	mvn.w	r2, #1
 8001e4a:	611a      	str	r2, [r3, #16]
 8001e4c:	4620      	mov	r0, r4
 8001e4e:	f7fe fcc3 	bl	80007d8 <HAL_TIM_PeriodElapsedCallback>
 8001e52:	6823      	ldr	r3, [r4, #0]
 8001e54:	691a      	ldr	r2, [r3, #16]
 8001e56:	0610      	lsls	r0, r2, #24
 8001e58:	d508      	bpl.n	8001e6c <HAL_TIM_IRQHandler+0xda>
 8001e5a:	68da      	ldr	r2, [r3, #12]
 8001e5c:	0611      	lsls	r1, r2, #24
 8001e5e:	d505      	bpl.n	8001e6c <HAL_TIM_IRQHandler+0xda>
 8001e60:	f06f 0280 	mvn.w	r2, #128	; 0x80
 8001e64:	611a      	str	r2, [r3, #16]
 8001e66:	4620      	mov	r0, r4
 8001e68:	f000 f8b7 	bl	8001fda <HAL_TIMEx_BreakCallback>
 8001e6c:	6823      	ldr	r3, [r4, #0]
 8001e6e:	691a      	ldr	r2, [r3, #16]
 8001e70:	0652      	lsls	r2, r2, #25
 8001e72:	d508      	bpl.n	8001e86 <HAL_TIM_IRQHandler+0xf4>
 8001e74:	68da      	ldr	r2, [r3, #12]
 8001e76:	0650      	lsls	r0, r2, #25
 8001e78:	d505      	bpl.n	8001e86 <HAL_TIM_IRQHandler+0xf4>
 8001e7a:	f06f 0240 	mvn.w	r2, #64	; 0x40
 8001e7e:	611a      	str	r2, [r3, #16]
 8001e80:	4620      	mov	r0, r4
 8001e82:	f7ff ff85 	bl	8001d90 <HAL_TIM_TriggerCallback>
 8001e86:	6823      	ldr	r3, [r4, #0]
 8001e88:	691a      	ldr	r2, [r3, #16]
 8001e8a:	0691      	lsls	r1, r2, #26
 8001e8c:	d522      	bpl.n	8001ed4 <HAL_TIM_IRQHandler+0x142>
 8001e8e:	68da      	ldr	r2, [r3, #12]
 8001e90:	0692      	lsls	r2, r2, #26
 8001e92:	d51f      	bpl.n	8001ed4 <HAL_TIM_IRQHandler+0x142>
 8001e94:	f06f 0220 	mvn.w	r2, #32
 8001e98:	4620      	mov	r0, r4
 8001e9a:	611a      	str	r2, [r3, #16]
 8001e9c:	e8bd 4010 	ldmia.w	sp!, {r4, lr}
 8001ea0:	f000 b89a 	b.w	8001fd8 <HAL_TIMEx_CommutCallback>
 8001ea4:	f7ff ff71 	bl	8001d8a <HAL_TIM_OC_DelayElapsedCallback>
 8001ea8:	4620      	mov	r0, r4
 8001eaa:	f7ff ff70 	bl	8001d8e <HAL_TIM_PWM_PulseFinishedCallback>
 8001eae:	e783      	b.n	8001db8 <HAL_TIM_IRQHandler+0x26>
 8001eb0:	f7ff ff6b 	bl	8001d8a <HAL_TIM_OC_DelayElapsedCallback>
 8001eb4:	4620      	mov	r0, r4
 8001eb6:	f7ff ff6a 	bl	8001d8e <HAL_TIM_PWM_PulseFinishedCallback>
 8001eba:	e792      	b.n	8001de2 <HAL_TIM_IRQHandler+0x50>
 8001ebc:	f7ff ff65 	bl	8001d8a <HAL_TIM_OC_DelayElapsedCallback>
 8001ec0:	4620      	mov	r0, r4
 8001ec2:	f7ff ff64 	bl	8001d8e <HAL_TIM_PWM_PulseFinishedCallback>
 8001ec6:	e7a0      	b.n	8001e0a <HAL_TIM_IRQHandler+0x78>
 8001ec8:	f7ff ff5f 	bl	8001d8a <HAL_TIM_OC_DelayElapsedCallback>
 8001ecc:	4620      	mov	r0, r4
 8001ece:	f7ff ff5e 	bl	8001d8e <HAL_TIM_PWM_PulseFinishedCallback>
 8001ed2:	e7af      	b.n	8001e34 <HAL_TIM_IRQHandler+0xa2>
 8001ed4:	bd10      	pop	{r4, pc}
	...

08001ed8 <TIM_Base_SetConfig>:
 8001ed8:	4a30      	ldr	r2, [pc, #192]	; (8001f9c <TIM_Base_SetConfig+0xc4>)
 8001eda:	6803      	ldr	r3, [r0, #0]
 8001edc:	4290      	cmp	r0, r2
 8001ede:	d012      	beq.n	8001f06 <TIM_Base_SetConfig+0x2e>
 8001ee0:	f1b0 4f80 	cmp.w	r0, #1073741824	; 0x40000000
 8001ee4:	d00f      	beq.n	8001f06 <TIM_Base_SetConfig+0x2e>
 8001ee6:	f5a2 427c 	sub.w	r2, r2, #64512	; 0xfc00
 8001eea:	4290      	cmp	r0, r2
 8001eec:	d00b      	beq.n	8001f06 <TIM_Base_SetConfig+0x2e>
 8001eee:	f502 6280 	add.w	r2, r2, #1024	; 0x400
 8001ef2:	4290      	cmp	r0, r2
 8001ef4:	d007      	beq.n	8001f06 <TIM_Base_SetConfig+0x2e>
 8001ef6:	f502 6280 	add.w	r2, r2, #1024	; 0x400
 8001efa:	4290      	cmp	r0, r2
 8001efc:	d003      	beq.n	8001f06 <TIM_Base_SetConfig+0x2e>
 8001efe:	f502 4278 	add.w	r2, r2, #63488	; 0xf800
 8001f02:	4290      	cmp	r0, r2
 8001f04:	d119      	bne.n	8001f3a <TIM_Base_SetConfig+0x62>
 8001f06:	684a      	ldr	r2, [r1, #4]
 8001f08:	f023 0370 	bic.w	r3, r3, #112	; 0x70
 8001f0c:	4313      	orrs	r3, r2
 8001f0e:	4a23      	ldr	r2, [pc, #140]	; (8001f9c <TIM_Base_SetConfig+0xc4>)
 8001f10:	4290      	cmp	r0, r2
 8001f12:	d029      	beq.n	8001f68 <TIM_Base_SetConfig+0x90>
 8001f14:	f1b0 4f80 	cmp.w	r0, #1073741824	; 0x40000000
 8001f18:	d026      	beq.n	8001f68 <TIM_Base_SetConfig+0x90>
 8001f1a:	f5a2 427c 	sub.w	r2, r2, #64512	; 0xfc00
 8001f1e:	4290      	cmp	r0, r2
 8001f20:	d022      	beq.n	8001f68 <TIM_Base_SetConfig+0x90>
 8001f22:	f502 6280 	add.w	r2, r2, #1024	; 0x400
 8001f26:	4290      	cmp	r0, r2
 8001f28:	d01e      	beq.n	8001f68 <TIM_Base_SetConfig+0x90>
 8001f2a:	f502 6280 	add.w	r2, r2, #1024	; 0x400
 8001f2e:	4290      	cmp	r0, r2
 8001f30:	d01a      	beq.n	8001f68 <TIM_Base_SetConfig+0x90>
 8001f32:	f502 4278 	add.w	r2, r2, #63488	; 0xf800
 8001f36:	4290      	cmp	r0, r2
 8001f38:	d016      	beq.n	8001f68 <TIM_Base_SetConfig+0x90>
 8001f3a:	4a19      	ldr	r2, [pc, #100]	; (8001fa0 <TIM_Base_SetConfig+0xc8>)
 8001f3c:	4290      	cmp	r0, r2
 8001f3e:	d013      	beq.n	8001f68 <TIM_Base_SetConfig+0x90>
 8001f40:	f502 6280 	add.w	r2, r2, #1024	; 0x400
 8001f44:	4290      	cmp	r0, r2
 8001f46:	d00f      	beq.n	8001f68 <TIM_Base_SetConfig+0x90>
 8001f48:	f502 6280 	add.w	r2, r2, #1024	; 0x400
 8001f4c:	4290      	cmp	r0, r2
 8001f4e:	d00b      	beq.n	8001f68 <TIM_Base_SetConfig+0x90>
 8001f50:	f5a2 3298 	sub.w	r2, r2, #77824	; 0x13000
 8001f54:	4290      	cmp	r0, r2
 8001f56:	d007      	beq.n	8001f68 <TIM_Base_SetConfig+0x90>
 8001f58:	f502 6280 	add.w	r2, r2, #1024	; 0x400
 8001f5c:	4290      	cmp	r0, r2
 8001f5e:	d003      	beq.n	8001f68 <TIM_Base_SetConfig+0x90>
 8001f60:	f502 6280 	add.w	r2, r2, #1024	; 0x400
 8001f64:	4290      	cmp	r0, r2
 8001f66:	d103      	bne.n	8001f70 <TIM_Base_SetConfig+0x98>
 8001f68:	68ca      	ldr	r2, [r1, #12]
 8001f6a:	f423 7340 	bic.w	r3, r3, #768	; 0x300
 8001f6e:	4313      	orrs	r3, r2
 8001f70:	694a      	ldr	r2, [r1, #20]
 8001f72:	f023 0380 	bic.w	r3, r3, #128	; 0x80
 8001f76:	4313      	orrs	r3, r2
 8001f78:	6003      	str	r3, [r0, #0]
 8001f7a:	688b      	ldr	r3, [r1, #8]
 8001f7c:	62c3      	str	r3, [r0, #44]	; 0x2c
 8001f7e:	680b      	ldr	r3, [r1, #0]
 8001f80:	6283      	str	r3, [r0, #40]	; 0x28
 8001f82:	4b06      	ldr	r3, [pc, #24]	; (8001f9c <TIM_Base_SetConfig+0xc4>)
 8001f84:	4298      	cmp	r0, r3
 8001f86:	d003      	beq.n	8001f90 <TIM_Base_SetConfig+0xb8>
 8001f88:	f503 6380 	add.w	r3, r3, #1024	; 0x400
 8001f8c:	4298      	cmp	r0, r3
 8001f8e:	d101      	bne.n	8001f94 <TIM_Base_SetConfig+0xbc>
 8001f90:	690b      	ldr	r3, [r1, #16]
 8001f92:	6303      	str	r3, [r0, #48]	; 0x30
 8001f94:	2301      	movs	r3, #1
 8001f96:	6143      	str	r3, [r0, #20]
 8001f98:	4770      	bx	lr
 8001f9a:	bf00      	nop
 8001f9c:	40010000 	.word	0x40010000
 8001fa0:	40014000 	.word	0x40014000

08001fa4 <HAL_TIM_Base_Init>:
 8001fa4:	b510      	push	{r4, lr}
 8001fa6:	4604      	mov	r4, r0
 8001fa8:	b1a0      	cbz	r0, 8001fd4 <HAL_TIM_Base_Init+0x30>
 8001faa:	f890 303d 	ldrb.w	r3, [r0, #61]	; 0x3d
 8001fae:	f003 02ff 	and.w	r2, r3, #255	; 0xff
 8001fb2:	b91b      	cbnz	r3, 8001fbc <HAL_TIM_Base_Init+0x18>
 8001fb4:	f880 203c 	strb.w	r2, [r0, #60]	; 0x3c
 8001fb8:	f7ff fed6 	bl	8001d68 <HAL_TIM_Base_MspInit>
 8001fbc:	2302      	movs	r3, #2
 8001fbe:	f884 303d 	strb.w	r3, [r4, #61]	; 0x3d
 8001fc2:	6820      	ldr	r0, [r4, #0]
 8001fc4:	1d21      	adds	r1, r4, #4
 8001fc6:	f7ff ff87 	bl	8001ed8 <TIM_Base_SetConfig>
 8001fca:	2301      	movs	r3, #1
 8001fcc:	f884 303d 	strb.w	r3, [r4, #61]	; 0x3d
 8001fd0:	2000      	movs	r0, #0
 8001fd2:	bd10      	pop	{r4, pc}
 8001fd4:	2001      	movs	r0, #1
 8001fd6:	e7fc      	b.n	8001fd2 <HAL_TIM_Base_Init+0x2e>

08001fd8 <HAL_TIMEx_CommutCallback>:
 8001fd8:	4770      	bx	lr

08001fda <HAL_TIMEx_BreakCallback>:
 8001fda:	4770      	bx	lr

08001fdc <MX_LWIP_Init>:
 8001fdc:	b5f0      	push	{r4, r5, r6, r7, lr}
 8001fde:	4f2f      	ldr	r7, [pc, #188]	; (800209c <MX_LWIP_Init+0xc0>)
 8001fe0:	4c2f      	ldr	r4, [pc, #188]	; (80020a0 <MX_LWIP_Init+0xc4>)
 8001fe2:	4e30      	ldr	r6, [pc, #192]	; (80020a4 <MX_LWIP_Init+0xc8>)
 8001fe4:	203a      	movs	r0, #58	; 0x3a
 8001fe6:	2500      	movs	r5, #0
 8001fe8:	21a9      	movs	r1, #169	; 0xa9
 8001fea:	2354      	movs	r3, #84	; 0x54
 8001fec:	70f8      	strb	r0, [r7, #3]
 8001fee:	20ff      	movs	r0, #255	; 0xff
 8001ff0:	b085      	sub	sp, #20
 8001ff2:	22fe      	movs	r2, #254	; 0xfe
 8001ff4:	7021      	strb	r1, [r4, #0]
 8001ff6:	70a3      	strb	r3, [r4, #2]
 8001ff8:	7039      	strb	r1, [r7, #0]
 8001ffa:	70bb      	strb	r3, [r7, #2]
 8001ffc:	4629      	mov	r1, r5
 8001ffe:	233b      	movs	r3, #59	; 0x3b
 8002000:	7030      	strb	r0, [r6, #0]
 8002002:	7070      	strb	r0, [r6, #1]
 8002004:	4628      	mov	r0, r5
 8002006:	7062      	strb	r2, [r4, #1]
 8002008:	70e3      	strb	r3, [r4, #3]
 800200a:	707a      	strb	r2, [r7, #1]
 800200c:	70b5      	strb	r5, [r6, #2]
 800200e:	70f5      	strb	r5, [r6, #3]
 8002010:	f004 f87e 	bl	8006110 <tcpip_init>
 8002014:	4924      	ldr	r1, [pc, #144]	; (80020a8 <MX_LWIP_Init+0xcc>)
 8002016:	683b      	ldr	r3, [r7, #0]
 8002018:	4a24      	ldr	r2, [pc, #144]	; (80020ac <MX_LWIP_Init+0xd0>)
 800201a:	600b      	str	r3, [r1, #0]
 800201c:	6833      	ldr	r3, [r6, #0]
 800201e:	6013      	str	r3, [r2, #0]
 8002020:	4b23      	ldr	r3, [pc, #140]	; (80020b0 <MX_LWIP_Init+0xd4>)
 8002022:	6820      	ldr	r0, [r4, #0]
 8002024:	6018      	str	r0, [r3, #0]
 8002026:	4823      	ldr	r0, [pc, #140]	; (80020b4 <MX_LWIP_Init+0xd8>)
 8002028:	4c23      	ldr	r4, [pc, #140]	; (80020b8 <MX_LWIP_Init+0xdc>)
 800202a:	9002      	str	r0, [sp, #8]
 800202c:	4823      	ldr	r0, [pc, #140]	; (80020bc <MX_LWIP_Init+0xe0>)
 800202e:	e9cd 5000 	strd	r5, r0, [sp]
 8002032:	4620      	mov	r0, r4
 8002034:	f004 fc40 	bl	80068b8 <netif_add>
 8002038:	4620      	mov	r0, r4
 800203a:	f004 fcd5 	bl	80069e8 <netif_set_default>
 800203e:	f894 302d 	ldrb.w	r3, [r4, #45]	; 0x2d
 8002042:	075d      	lsls	r5, r3, #29
 8002044:	4620      	mov	r0, r4
 8002046:	d525      	bpl.n	8002094 <MX_LWIP_Init+0xb8>
 8002048:	f004 fcd4 	bl	80069f4 <netif_set_up>
 800204c:	491c      	ldr	r1, [pc, #112]	; (80020c0 <MX_LWIP_Init+0xe4>)
 800204e:	481a      	ldr	r0, [pc, #104]	; (80020b8 <MX_LWIP_Init+0xdc>)
 8002050:	4d1c      	ldr	r5, [pc, #112]	; (80020c4 <MX_LWIP_Init+0xe8>)
 8002052:	f004 fd43 	bl	8006adc <netif_set_link_callback>
 8002056:	2101      	movs	r1, #1
 8002058:	2200      	movs	r2, #0
 800205a:	4608      	mov	r0, r1
 800205c:	f000 fc28 	bl	80028b0 <osSemaphoreNew>
 8002060:	4b19      	ldr	r3, [pc, #100]	; (80020c8 <MX_LWIP_Init+0xec>)
 8002062:	6018      	str	r0, [r3, #0]
 8002064:	4b19      	ldr	r3, [pc, #100]	; (80020cc <MX_LWIP_Init+0xf0>)
 8002066:	e9c5 4000 	strd	r4, r0, [r5]
 800206a:	2220      	movs	r2, #32
 800206c:	2100      	movs	r1, #0
 800206e:	4618      	mov	r0, r3
 8002070:	f00a fadc 	bl	800c62c <memset>
 8002074:	4916      	ldr	r1, [pc, #88]	; (80020d0 <MX_LWIP_Init+0xf4>)
 8002076:	f840 1c04 	str.w	r1, [r0, #-4]
 800207a:	1f02      	subs	r2, r0, #4
 800207c:	f44f 6180 	mov.w	r1, #1024	; 0x400
 8002080:	2310      	movs	r3, #16
 8002082:	4814      	ldr	r0, [pc, #80]	; (80020d4 <MX_LWIP_Init+0xf8>)
 8002084:	e9c2 1305 	strd	r1, r3, [r2, #20]
 8002088:	4629      	mov	r1, r5
 800208a:	b005      	add	sp, #20
 800208c:	e8bd 40f0 	ldmia.w	sp!, {r4, r5, r6, r7, lr}
 8002090:	f000 bb02 	b.w	8002698 <osThreadNew>
 8002094:	f004 fcc8 	bl	8006a28 <netif_set_down>
 8002098:	e7d8      	b.n	800204c <MX_LWIP_Init+0x70>
 800209a:	bf00      	nop
 800209c:	20004d88 	.word	0x20004d88
 80020a0:	20004d24 	.word	0x20004d24
 80020a4:	20004d84 	.word	0x20004d84
 80020a8:	20004d80 	.word	0x20004d80
 80020ac:	20004d8c 	.word	0x20004d8c
 80020b0:	20004d90 	.word	0x20004d90
 80020b4:	0800607d 	.word	0x0800607d
 80020b8:	20004d4c 	.word	0x20004d4c
 80020bc:	080023b1 	.word	0x080023b1
 80020c0:	08002555 	.word	0x08002555
 80020c4:	20004d1c 	.word	0x20004d1c
 80020c8:	200000a8 	.word	0x200000a8
 80020cc:	20004d2c 	.word	0x20004d2c
 80020d0:	0800d4ec 	.word	0x0800d4ec
 80020d4:	08002505 	.word	0x08002505

080020d8 <low_level_output>:
 80020d8:	e92d 4ff7 	stmdb	sp!, {r0, r1, r2, r4, r5, r6, r7, r8, r9, sl, fp, lr}
 80020dc:	4a25      	ldr	r2, [pc, #148]	; (8002174 <low_level_output+0x9c>)
 80020de:	9200      	str	r2, [sp, #0]
 80020e0:	6ad6      	ldr	r6, [r2, #44]	; 0x2c
 80020e2:	f04f 0800 	mov.w	r8, #0
 80020e6:	68b3      	ldr	r3, [r6, #8]
 80020e8:	460c      	mov	r4, r1
 80020ea:	4647      	mov	r7, r8
 80020ec:	f240 5bf4 	movw	fp, #1524	; 0x5f4
 80020f0:	b92c      	cbnz	r4, 80020fe <low_level_output+0x26>
 80020f2:	4639      	mov	r1, r7
 80020f4:	481f      	ldr	r0, [pc, #124]	; (8002174 <low_level_output+0x9c>)
 80020f6:	f7fe ff03 	bl	8000f00 <HAL_ETH_TransmitFrame>
 80020fa:	4620      	mov	r0, r4
 80020fc:	e004      	b.n	8002108 <low_level_output+0x30>
 80020fe:	6832      	ldr	r2, [r6, #0]
 8002100:	2a00      	cmp	r2, #0
 8002102:	da11      	bge.n	8002128 <low_level_output+0x50>
 8002104:	f06f 0007 	mvn.w	r0, #7
 8002108:	9b00      	ldr	r3, [sp, #0]
 800210a:	f241 0214 	movw	r2, #4116	; 0x1014
 800210e:	681b      	ldr	r3, [r3, #0]
 8002110:	5899      	ldr	r1, [r3, r2]
 8002112:	0689      	lsls	r1, r1, #26
 8002114:	d505      	bpl.n	8002122 <low_level_output+0x4a>
 8002116:	2120      	movs	r1, #32
 8002118:	5099      	str	r1, [r3, r2]
 800211a:	f241 0204 	movw	r2, #4100	; 0x1004
 800211e:	2100      	movs	r1, #0
 8002120:	5099      	str	r1, [r3, r2]
 8002122:	b003      	add	sp, #12
 8002124:	e8bd 8ff0 	ldmia.w	sp!, {r4, r5, r6, r7, r8, r9, sl, fp, pc}
 8002128:	f8b4 900a 	ldrh.w	r9, [r4, #10]
 800212c:	4645      	mov	r5, r8
 800212e:	f04f 0a00 	mov.w	sl, #0
 8002132:	eb05 0809 	add.w	r8, r5, r9
 8002136:	6861      	ldr	r1, [r4, #4]
 8002138:	45d8      	cmp	r8, fp
 800213a:	eb03 0005 	add.w	r0, r3, r5
 800213e:	4451      	add	r1, sl
 8002140:	d807      	bhi.n	8002152 <low_level_output+0x7a>
 8002142:	464a      	mov	r2, r9
 8002144:	9301      	str	r3, [sp, #4]
 8002146:	444f      	add	r7, r9
 8002148:	f00a fa65 	bl	800c616 <memcpy>
 800214c:	6824      	ldr	r4, [r4, #0]
 800214e:	9b01      	ldr	r3, [sp, #4]
 8002150:	e7ce      	b.n	80020f0 <low_level_output+0x18>
 8002152:	ebab 0505 	sub.w	r5, fp, r5
 8002156:	462a      	mov	r2, r5
 8002158:	f00a fa5d 	bl	800c616 <memcpy>
 800215c:	68f6      	ldr	r6, [r6, #12]
 800215e:	6833      	ldr	r3, [r6, #0]
 8002160:	2b00      	cmp	r3, #0
 8002162:	dbcf      	blt.n	8002104 <low_level_output+0x2c>
 8002164:	44aa      	add	sl, r5
 8002166:	442f      	add	r7, r5
 8002168:	68b3      	ldr	r3, [r6, #8]
 800216a:	f2a8 59f4 	subw	r9, r8, #1524	; 0x5f4
 800216e:	2500      	movs	r5, #0
 8002170:	e7df      	b.n	8002132 <low_level_output+0x5a>
 8002172:	bf00      	nop
 8002174:	20006664 	.word	0x20006664

08002178 <ethernetif_input>:
 8002178:	e92d 4ff7 	stmdb	sp!, {r0, r1, r2, r4, r5, r6, r7, r8, r9, sl, fp, lr}
 800217c:	4683      	mov	fp, r0
 800217e:	4c3b      	ldr	r4, [pc, #236]	; (800226c <ethernetif_input+0xf4>)
 8002180:	6820      	ldr	r0, [r4, #0]
 8002182:	f04f 31ff 	mov.w	r1, #4294967295
 8002186:	f000 fbe9 	bl	800295c <osSemaphoreAcquire>
 800218a:	2800      	cmp	r0, #0
 800218c:	d1f8      	bne.n	8002180 <ethernetif_input+0x8>
 800218e:	4d38      	ldr	r5, [pc, #224]	; (8002270 <ethernetif_input+0xf8>)
 8002190:	4838      	ldr	r0, [pc, #224]	; (8002274 <ethernetif_input+0xfc>)
 8002192:	f00a f912 	bl	800c3ba <sys_mutex_lock>
 8002196:	4628      	mov	r0, r5
 8002198:	f7fe ff26 	bl	8000fe8 <HAL_ETH_GetReceivedFrame_IT>
 800219c:	4607      	mov	r7, r0
 800219e:	b130      	cbz	r0, 80021ae <ethernetif_input+0x36>
 80021a0:	2400      	movs	r4, #0
 80021a2:	4834      	ldr	r0, [pc, #208]	; (8002274 <ethernetif_input+0xfc>)
 80021a4:	f00a f90e 	bl	800c3c4 <sys_mutex_unlock>
 80021a8:	2c00      	cmp	r4, #0
 80021aa:	d1f0      	bne.n	800218e <ethernetif_input+0x16>
 80021ac:	e7e7      	b.n	800217e <ethernetif_input+0x6>
 80021ae:	8fa9      	ldrh	r1, [r5, #60]	; 0x3c
 80021b0:	2900      	cmp	r1, #0
 80021b2:	d051      	beq.n	8002258 <ethernetif_input+0xe0>
 80021b4:	f44f 72c1 	mov.w	r2, #386	; 0x182
 80021b8:	6c2e      	ldr	r6, [r5, #64]	; 0x40
 80021ba:	f004 fdcb 	bl	8006d54 <pbuf_alloc>
 80021be:	4604      	mov	r4, r0
 80021c0:	2800      	cmp	r0, #0
 80021c2:	d049      	beq.n	8002258 <ethernetif_input+0xe0>
 80021c4:	f8d5 a030 	ldr.w	sl, [r5, #48]	; 0x30
 80021c8:	9600      	str	r6, [sp, #0]
 80021ca:	4680      	mov	r8, r0
 80021cc:	f240 59f4 	movw	r9, #1524	; 0x5f4
 80021d0:	f8b8 200a 	ldrh.w	r2, [r8, #10]
 80021d4:	463e      	mov	r6, r7
 80021d6:	2300      	movs	r3, #0
 80021d8:	18b7      	adds	r7, r6, r2
 80021da:	f8d8 0004 	ldr.w	r0, [r8, #4]
 80021de:	9900      	ldr	r1, [sp, #0]
 80021e0:	454f      	cmp	r7, r9
 80021e2:	4418      	add	r0, r3
 80021e4:	4431      	add	r1, r6
 80021e6:	d826      	bhi.n	8002236 <ethernetif_input+0xbe>
 80021e8:	f00a fa15 	bl	800c616 <memcpy>
 80021ec:	f8d8 8000 	ldr.w	r8, [r8]
 80021f0:	f1b8 0f00 	cmp.w	r8, #0
 80021f4:	d1ec      	bne.n	80021d0 <ethernetif_input+0x58>
 80021f6:	6b2b      	ldr	r3, [r5, #48]	; 0x30
 80021f8:	6ba8      	ldr	r0, [r5, #56]	; 0x38
 80021fa:	2200      	movs	r2, #0
 80021fc:	4282      	cmp	r2, r0
 80021fe:	d12d      	bne.n	800225c <ethernetif_input+0xe4>
 8002200:	2300      	movs	r3, #0
 8002202:	63ab      	str	r3, [r5, #56]	; 0x38
 8002204:	f241 0214 	movw	r2, #4116	; 0x1014
 8002208:	682b      	ldr	r3, [r5, #0]
 800220a:	5899      	ldr	r1, [r3, r2]
 800220c:	0609      	lsls	r1, r1, #24
 800220e:	d505      	bpl.n	800221c <ethernetif_input+0xa4>
 8002210:	2180      	movs	r1, #128	; 0x80
 8002212:	5099      	str	r1, [r3, r2]
 8002214:	f241 0208 	movw	r2, #4104	; 0x1008
 8002218:	2100      	movs	r1, #0
 800221a:	5099      	str	r1, [r3, r2]
 800221c:	2c00      	cmp	r4, #0
 800221e:	d0bf      	beq.n	80021a0 <ethernetif_input+0x28>
 8002220:	f8db 3010 	ldr.w	r3, [fp, #16]
 8002224:	4659      	mov	r1, fp
 8002226:	4620      	mov	r0, r4
 8002228:	4798      	blx	r3
 800222a:	2800      	cmp	r0, #0
 800222c:	d0b9      	beq.n	80021a2 <ethernetif_input+0x2a>
 800222e:	4620      	mov	r0, r4
 8002230:	f004 fd28 	bl	8006c84 <pbuf_free>
 8002234:	e7b5      	b.n	80021a2 <ethernetif_input+0x2a>
 8002236:	eba9 0606 	sub.w	r6, r9, r6
 800223a:	4632      	mov	r2, r6
 800223c:	9301      	str	r3, [sp, #4]
 800223e:	f00a f9ea 	bl	800c616 <memcpy>
 8002242:	f8da a00c 	ldr.w	sl, [sl, #12]
 8002246:	f8da 3008 	ldr.w	r3, [sl, #8]
 800224a:	9300      	str	r3, [sp, #0]
 800224c:	9b01      	ldr	r3, [sp, #4]
 800224e:	f2a7 52f4 	subw	r2, r7, #1524	; 0x5f4
 8002252:	4433      	add	r3, r6
 8002254:	2600      	movs	r6, #0
 8002256:	e7bf      	b.n	80021d8 <ethernetif_input+0x60>
 8002258:	2400      	movs	r4, #0
 800225a:	e7cc      	b.n	80021f6 <ethernetif_input+0x7e>
 800225c:	6819      	ldr	r1, [r3, #0]
 800225e:	f041 4100 	orr.w	r1, r1, #2147483648	; 0x80000000
 8002262:	6019      	str	r1, [r3, #0]
 8002264:	68db      	ldr	r3, [r3, #12]
 8002266:	3201      	adds	r2, #1
 8002268:	e7c8      	b.n	80021fc <ethernetif_input+0x84>
 800226a:	bf00      	nop
 800226c:	200000ac 	.word	0x200000ac
 8002270:	20006664 	.word	0x20006664
 8002274:	20007ebc 	.word	0x20007ebc

08002278 <HAL_ETH_MspInit>:
 8002278:	b5f0      	push	{r4, r5, r6, r7, lr}
 800227a:	4604      	mov	r4, r0
 800227c:	b08d      	sub	sp, #52	; 0x34
 800227e:	2214      	movs	r2, #20
 8002280:	2100      	movs	r1, #0
 8002282:	a807      	add	r0, sp, #28
 8002284:	f00a f9d2 	bl	800c62c <memset>
 8002288:	6822      	ldr	r2, [r4, #0]
 800228a:	4b41      	ldr	r3, [pc, #260]	; (8002390 <HAL_ETH_MspInit+0x118>)
 800228c:	429a      	cmp	r2, r3
 800228e:	d17c      	bne.n	800238a <HAL_ETH_MspInit+0x112>
 8002290:	f5a3 4390 	sub.w	r3, r3, #18432	; 0x4800
 8002294:	2400      	movs	r4, #0
 8002296:	9400      	str	r4, [sp, #0]
 8002298:	6b1a      	ldr	r2, [r3, #48]	; 0x30
 800229a:	483e      	ldr	r0, [pc, #248]	; (8002394 <HAL_ETH_MspInit+0x11c>)
 800229c:	f042 7200 	orr.w	r2, r2, #33554432	; 0x2000000
 80022a0:	631a      	str	r2, [r3, #48]	; 0x30
 80022a2:	6b1a      	ldr	r2, [r3, #48]	; 0x30
 80022a4:	f002 7200 	and.w	r2, r2, #33554432	; 0x2000000
 80022a8:	9200      	str	r2, [sp, #0]
 80022aa:	9a00      	ldr	r2, [sp, #0]
 80022ac:	9401      	str	r4, [sp, #4]
 80022ae:	6b1a      	ldr	r2, [r3, #48]	; 0x30
 80022b0:	f042 6280 	orr.w	r2, r2, #67108864	; 0x4000000
 80022b4:	631a      	str	r2, [r3, #48]	; 0x30
 80022b6:	6b1a      	ldr	r2, [r3, #48]	; 0x30
 80022b8:	f002 6280 	and.w	r2, r2, #67108864	; 0x4000000
 80022bc:	9201      	str	r2, [sp, #4]
 80022be:	9a01      	ldr	r2, [sp, #4]
 80022c0:	9402      	str	r4, [sp, #8]
 80022c2:	6b1a      	ldr	r2, [r3, #48]	; 0x30
 80022c4:	f042 6200 	orr.w	r2, r2, #134217728	; 0x8000000
 80022c8:	631a      	str	r2, [r3, #48]	; 0x30
 80022ca:	6b1a      	ldr	r2, [r3, #48]	; 0x30
 80022cc:	f002 6200 	and.w	r2, r2, #134217728	; 0x8000000
 80022d0:	9202      	str	r2, [sp, #8]
 80022d2:	9a02      	ldr	r2, [sp, #8]
 80022d4:	9403      	str	r4, [sp, #12]
 80022d6:	6b1a      	ldr	r2, [r3, #48]	; 0x30
 80022d8:	f042 0204 	orr.w	r2, r2, #4
 80022dc:	631a      	str	r2, [r3, #48]	; 0x30
 80022de:	6b1a      	ldr	r2, [r3, #48]	; 0x30
 80022e0:	f002 0204 	and.w	r2, r2, #4
 80022e4:	9203      	str	r2, [sp, #12]
 80022e6:	9a03      	ldr	r2, [sp, #12]
 80022e8:	9404      	str	r4, [sp, #16]
 80022ea:	6b1a      	ldr	r2, [r3, #48]	; 0x30
 80022ec:	f042 0201 	orr.w	r2, r2, #1
 80022f0:	631a      	str	r2, [r3, #48]	; 0x30
 80022f2:	6b1a      	ldr	r2, [r3, #48]	; 0x30
 80022f4:	f002 0201 	and.w	r2, r2, #1
 80022f8:	9204      	str	r2, [sp, #16]
 80022fa:	9a04      	ldr	r2, [sp, #16]
 80022fc:	9405      	str	r4, [sp, #20]
 80022fe:	6b1a      	ldr	r2, [r3, #48]	; 0x30
 8002300:	f042 0202 	orr.w	r2, r2, #2
 8002304:	631a      	str	r2, [r3, #48]	; 0x30
 8002306:	6b1a      	ldr	r2, [r3, #48]	; 0x30
 8002308:	f002 0202 	and.w	r2, r2, #2
 800230c:	9205      	str	r2, [sp, #20]
 800230e:	9a05      	ldr	r2, [sp, #20]
 8002310:	9406      	str	r4, [sp, #24]
 8002312:	6b1a      	ldr	r2, [r3, #48]	; 0x30
 8002314:	f042 0240 	orr.w	r2, r2, #64	; 0x40
 8002318:	631a      	str	r2, [r3, #48]	; 0x30
 800231a:	6b1b      	ldr	r3, [r3, #48]	; 0x30
 800231c:	f003 0340 	and.w	r3, r3, #64	; 0x40
 8002320:	9306      	str	r3, [sp, #24]
 8002322:	2702      	movs	r7, #2
 8002324:	2603      	movs	r6, #3
 8002326:	250b      	movs	r5, #11
 8002328:	9b06      	ldr	r3, [sp, #24]
 800232a:	a907      	add	r1, sp, #28
 800232c:	2332      	movs	r3, #50	; 0x32
 800232e:	e9cd 3707 	strd	r3, r7, [sp, #28]
 8002332:	e9cd 650a 	strd	r6, r5, [sp, #40]	; 0x28
 8002336:	f7ff f947 	bl	80015c8 <HAL_GPIO_Init>
 800233a:	2386      	movs	r3, #134	; 0x86
 800233c:	a907      	add	r1, sp, #28
 800233e:	4816      	ldr	r0, [pc, #88]	; (8002398 <HAL_ETH_MspInit+0x120>)
 8002340:	950b      	str	r5, [sp, #44]	; 0x2c
 8002342:	e9cd 3707 	strd	r3, r7, [sp, #28]
 8002346:	e9cd 4609 	strd	r4, r6, [sp, #36]	; 0x24
 800234a:	f7ff f93d 	bl	80015c8 <HAL_GPIO_Init>
 800234e:	f44f 5300 	mov.w	r3, #8192	; 0x2000
 8002352:	a907      	add	r1, sp, #28
 8002354:	4811      	ldr	r0, [pc, #68]	; (800239c <HAL_ETH_MspInit+0x124>)
 8002356:	950b      	str	r5, [sp, #44]	; 0x2c
 8002358:	e9cd 3707 	strd	r3, r7, [sp, #28]
 800235c:	e9cd 4609 	strd	r4, r6, [sp, #36]	; 0x24
 8002360:	f7ff f932 	bl	80015c8 <HAL_GPIO_Init>
 8002364:	f44f 5320 	mov.w	r3, #10240	; 0x2800
 8002368:	a907      	add	r1, sp, #28
 800236a:	480d      	ldr	r0, [pc, #52]	; (80023a0 <HAL_ETH_MspInit+0x128>)
 800236c:	950b      	str	r5, [sp, #44]	; 0x2c
 800236e:	e9cd 3707 	strd	r3, r7, [sp, #28]
 8002372:	e9cd 4609 	strd	r4, r6, [sp, #36]	; 0x24
 8002376:	f7ff f927 	bl	80015c8 <HAL_GPIO_Init>
 800237a:	203d      	movs	r0, #61	; 0x3d
 800237c:	4622      	mov	r2, r4
 800237e:	4621      	mov	r1, r4
 8002380:	f7fe fc64 	bl	8000c4c <HAL_NVIC_SetPriority>
 8002384:	203d      	movs	r0, #61	; 0x3d
 8002386:	f7fe fc95 	bl	8000cb4 <HAL_NVIC_EnableIRQ>
 800238a:	b00d      	add	sp, #52	; 0x34
 800238c:	bdf0      	pop	{r4, r5, r6, r7, pc}
 800238e:	bf00      	nop
 8002390:	40028000 	.word	0x40028000
 8002394:	40020800 	.word	0x40020800
 8002398:	40020000 	.word	0x40020000
 800239c:	40020400 	.word	0x40020400
 80023a0:	40021800 	.word	0x40021800

080023a4 <HAL_ETH_RxCpltCallback>:
 80023a4:	4b01      	ldr	r3, [pc, #4]	; (80023ac <HAL_ETH_RxCpltCallback+0x8>)
 80023a6:	6818      	ldr	r0, [r3, #0]
 80023a8:	f000 bb14 	b.w	80029d4 <osSemaphoreRelease>
 80023ac:	200000ac 	.word	0x200000ac

080023b0 <ethernetif_init>:
 80023b0:	b530      	push	{r4, r5, lr}
 80023b2:	4604      	mov	r4, r0
 80023b4:	b08d      	sub	sp, #52	; 0x34
 80023b6:	b930      	cbnz	r0, 80023c6 <ethernetif_init+0x16>
 80023b8:	4b42      	ldr	r3, [pc, #264]	; (80024c4 <ethernetif_init+0x114>)
 80023ba:	4943      	ldr	r1, [pc, #268]	; (80024c8 <ethernetif_init+0x118>)
 80023bc:	4843      	ldr	r0, [pc, #268]	; (80024cc <ethernetif_init+0x11c>)
 80023be:	f44f 720e 	mov.w	r2, #568	; 0x238
 80023c2:	f00a f995 	bl	800c6f0 <iprintf>
 80023c6:	f247 4373 	movw	r3, #29811	; 0x7473
 80023ca:	4d41      	ldr	r5, [pc, #260]	; (80024d0 <ethernetif_init+0x120>)
 80023cc:	4941      	ldr	r1, [pc, #260]	; (80024d4 <ethernetif_init+0x124>)
 80023ce:	85e3      	strh	r3, [r4, #46]	; 0x2e
 80023d0:	4b41      	ldr	r3, [pc, #260]	; (80024d8 <ethernetif_init+0x128>)
 80023d2:	6163      	str	r3, [r4, #20]
 80023d4:	2201      	movs	r2, #1
 80023d6:	4b41      	ldr	r3, [pc, #260]	; (80024dc <ethernetif_init+0x12c>)
 80023d8:	61a3      	str	r3, [r4, #24]
 80023da:	e9c5 1200 	strd	r1, r2, [r5]
 80023de:	2300      	movs	r3, #0
 80023e0:	493f      	ldr	r1, [pc, #252]	; (80024e0 <ethernetif_init+0x130>)
 80023e2:	9300      	str	r3, [sp, #0]
 80023e4:	822b      	strh	r3, [r5, #16]
 80023e6:	9101      	str	r1, [sp, #4]
 80023e8:	f8ad 3008 	strh.w	r3, [sp, #8]
 80023ec:	a901      	add	r1, sp, #4
 80023ee:	61eb      	str	r3, [r5, #28]
 80023f0:	4628      	mov	r0, r5
 80023f2:	f44f 0300 	mov.w	r3, #8388608	; 0x800000
 80023f6:	e9c5 1205 	strd	r1, r2, [r5, #20]
 80023fa:	622b      	str	r3, [r5, #32]
 80023fc:	f7fe fee4 	bl	80011c8 <HAL_ETH_Init>
 8002400:	b928      	cbnz	r0, 800240e <ethernetif_init+0x5e>
 8002402:	f894 302d 	ldrb.w	r3, [r4, #45]	; 0x2d
 8002406:	f043 0304 	orr.w	r3, r3, #4
 800240a:	f884 302d 	strb.w	r3, [r4, #45]	; 0x2d
 800240e:	2304      	movs	r3, #4
 8002410:	4a34      	ldr	r2, [pc, #208]	; (80024e4 <ethernetif_init+0x134>)
 8002412:	4935      	ldr	r1, [pc, #212]	; (80024e8 <ethernetif_init+0x138>)
 8002414:	482e      	ldr	r0, [pc, #184]	; (80024d0 <ethernetif_init+0x120>)
 8002416:	f7fe fcfd 	bl	8000e14 <HAL_ETH_DMATxDescListInit>
 800241a:	2304      	movs	r3, #4
 800241c:	4a33      	ldr	r2, [pc, #204]	; (80024ec <ethernetif_init+0x13c>)
 800241e:	4934      	ldr	r1, [pc, #208]	; (80024f0 <ethernetif_init+0x140>)
 8002420:	482b      	ldr	r0, [pc, #172]	; (80024d0 <ethernetif_init+0x120>)
 8002422:	f7fe fd33 	bl	8000e8c <HAL_ETH_DMARxDescListInit>
 8002426:	2306      	movs	r3, #6
 8002428:	f884 302c 	strb.w	r3, [r4, #44]	; 0x2c
 800242c:	696b      	ldr	r3, [r5, #20]
 800242e:	781a      	ldrb	r2, [r3, #0]
 8002430:	f884 2026 	strb.w	r2, [r4, #38]	; 0x26
 8002434:	785a      	ldrb	r2, [r3, #1]
 8002436:	f884 2027 	strb.w	r2, [r4, #39]	; 0x27
 800243a:	789a      	ldrb	r2, [r3, #2]
 800243c:	f884 2028 	strb.w	r2, [r4, #40]	; 0x28
 8002440:	78da      	ldrb	r2, [r3, #3]
 8002442:	f884 2029 	strb.w	r2, [r4, #41]	; 0x29
 8002446:	791a      	ldrb	r2, [r3, #4]
 8002448:	f884 202a 	strb.w	r2, [r4, #42]	; 0x2a
 800244c:	795b      	ldrb	r3, [r3, #5]
 800244e:	f884 302b 	strb.w	r3, [r4, #43]	; 0x2b
 8002452:	f240 53dc 	movw	r3, #1500	; 0x5dc
 8002456:	84a3      	strh	r3, [r4, #36]	; 0x24
 8002458:	f894 302d 	ldrb.w	r3, [r4, #45]	; 0x2d
 800245c:	2101      	movs	r1, #1
 800245e:	f043 030a 	orr.w	r3, r3, #10
 8002462:	f884 302d 	strb.w	r3, [r4, #45]	; 0x2d
 8002466:	2200      	movs	r2, #0
 8002468:	4608      	mov	r0, r1
 800246a:	f000 fa21 	bl	80028b0 <osSemaphoreNew>
 800246e:	4b21      	ldr	r3, [pc, #132]	; (80024f4 <ethernetif_init+0x144>)
 8002470:	2220      	movs	r2, #32
 8002472:	6018      	str	r0, [r3, #0]
 8002474:	2100      	movs	r1, #0
 8002476:	a804      	add	r0, sp, #16
 8002478:	f00a f8d8 	bl	800c62c <memset>
 800247c:	4b1e      	ldr	r3, [pc, #120]	; (80024f8 <ethernetif_init+0x148>)
 800247e:	9303      	str	r3, [sp, #12]
 8002480:	f44f 72af 	mov.w	r2, #350	; 0x15e
 8002484:	2330      	movs	r3, #48	; 0x30
 8002486:	e9cd 2308 	strd	r2, r3, [sp, #32]
 800248a:	4621      	mov	r1, r4
 800248c:	aa03      	add	r2, sp, #12
 800248e:	481b      	ldr	r0, [pc, #108]	; (80024fc <ethernetif_init+0x14c>)
 8002490:	f000 f902 	bl	8002698 <osThreadNew>
 8002494:	480e      	ldr	r0, [pc, #56]	; (80024d0 <ethernetif_init+0x120>)
 8002496:	f7fe ff93 	bl	80013c0 <HAL_ETH_Start>
 800249a:	466a      	mov	r2, sp
 800249c:	211d      	movs	r1, #29
 800249e:	480c      	ldr	r0, [pc, #48]	; (80024d0 <ethernetif_init+0x120>)
 80024a0:	f7fe fe21 	bl	80010e6 <HAL_ETH_ReadPHYRegister>
 80024a4:	9a00      	ldr	r2, [sp, #0]
 80024a6:	480a      	ldr	r0, [pc, #40]	; (80024d0 <ethernetif_init+0x120>)
 80024a8:	f042 020b 	orr.w	r2, r2, #11
 80024ac:	211d      	movs	r1, #29
 80024ae:	9200      	str	r2, [sp, #0]
 80024b0:	f7fe fe53 	bl	800115a <HAL_ETH_WritePHYRegister>
 80024b4:	466a      	mov	r2, sp
 80024b6:	211d      	movs	r1, #29
 80024b8:	4805      	ldr	r0, [pc, #20]	; (80024d0 <ethernetif_init+0x120>)
 80024ba:	f7fe fe14 	bl	80010e6 <HAL_ETH_ReadPHYRegister>
 80024be:	2000      	movs	r0, #0
 80024c0:	b00d      	add	sp, #52	; 0x34
 80024c2:	bd30      	pop	{r4, r5, pc}
 80024c4:	0800d4f4 	.word	0x0800d4f4
 80024c8:	0800d510 	.word	0x0800d510
 80024cc:	0800d51e 	.word	0x0800d51e
 80024d0:	20006664 	.word	0x20006664
 80024d4:	40028000 	.word	0x40028000
 80024d8:	0800b38d 	.word	0x0800b38d
 80024dc:	080020d9 	.word	0x080020d9
 80024e0:	00e18000 	.word	0x00e18000
 80024e4:	200066ac 	.word	0x200066ac
 80024e8:	20004d94 	.word	0x20004d94
 80024ec:	20004e14 	.word	0x20004e14
 80024f0:	200065e4 	.word	0x200065e4
 80024f4:	200000ac 	.word	0x200000ac
 80024f8:	0800d546 	.word	0x0800d546
 80024fc:	08002179 	.word	0x08002179

08002500 <sys_now>:
 8002500:	f7fe bb78 	b.w	8000bf4 <HAL_GetTick>

08002504 <ethernetif_set_link>:
 8002504:	b573      	push	{r0, r1, r4, r5, r6, lr}
 8002506:	ac02      	add	r4, sp, #8
 8002508:	2300      	movs	r3, #0
 800250a:	f844 3d04 	str.w	r3, [r4, #-4]!
 800250e:	4e0f      	ldr	r6, [pc, #60]	; (800254c <ethernetif_set_link+0x48>)
 8002510:	4605      	mov	r5, r0
 8002512:	4622      	mov	r2, r4
 8002514:	2101      	movs	r1, #1
 8002516:	4630      	mov	r0, r6
 8002518:	f7fe fde5 	bl	80010e6 <HAL_ETH_ReadPHYRegister>
 800251c:	6828      	ldr	r0, [r5, #0]
 800251e:	9b01      	ldr	r3, [sp, #4]
 8002520:	f890 202d 	ldrb.w	r2, [r0, #45]	; 0x2d
 8002524:	f003 0304 	and.w	r3, r3, #4
 8002528:	0751      	lsls	r1, r2, #29
 800252a:	9301      	str	r3, [sp, #4]
 800252c:	d406      	bmi.n	800253c <ethernetif_set_link+0x38>
 800252e:	b12b      	cbz	r3, 800253c <ethernetif_set_link+0x38>
 8002530:	f004 fa96 	bl	8006a60 <netif_set_link_up>
 8002534:	20c8      	movs	r0, #200	; 0xc8
 8002536:	f000 f905 	bl	8002744 <osDelay>
 800253a:	e7ea      	b.n	8002512 <ethernetif_set_link+0xe>
 800253c:	0752      	lsls	r2, r2, #29
 800253e:	d5f9      	bpl.n	8002534 <ethernetif_set_link+0x30>
 8002540:	2b00      	cmp	r3, #0
 8002542:	d1f7      	bne.n	8002534 <ethernetif_set_link+0x30>
 8002544:	f004 fab0 	bl	8006aa8 <netif_set_link_down>
 8002548:	e7f4      	b.n	8002534 <ethernetif_set_link+0x30>
 800254a:	bf00      	nop
 800254c:	20006664 	.word	0x20006664

08002550 <ethernetif_notify_conn_changed>:
 8002550:	4770      	bx	lr
	...

08002554 <ethernetif_update_config>:
 8002554:	b573      	push	{r0, r1, r4, r5, r6, lr}
 8002556:	f890 302d 	ldrb.w	r3, [r0, #45]	; 0x2d
 800255a:	2100      	movs	r1, #0
 800255c:	4605      	mov	r5, r0
 800255e:	0758      	lsls	r0, r3, #29
 8002560:	9100      	str	r1, [sp, #0]
 8002562:	9101      	str	r1, [sp, #4]
 8002564:	d544      	bpl.n	80025f0 <ethernetif_update_config+0x9c>
 8002566:	4c24      	ldr	r4, [pc, #144]	; (80025f8 <ethernetif_update_config+0xa4>)
 8002568:	6863      	ldr	r3, [r4, #4]
 800256a:	2b00      	cmp	r3, #0
 800256c:	d035      	beq.n	80025da <ethernetif_update_config+0x86>
 800256e:	f44f 5280 	mov.w	r2, #4096	; 0x1000
 8002572:	4620      	mov	r0, r4
 8002574:	f7fe fdf1 	bl	800115a <HAL_ETH_WritePHYRegister>
 8002578:	f7fe fb3c 	bl	8000bf4 <HAL_GetTick>
 800257c:	4626      	mov	r6, r4
 800257e:	9000      	str	r0, [sp, #0]
 8002580:	aa01      	add	r2, sp, #4
 8002582:	2101      	movs	r1, #1
 8002584:	4630      	mov	r0, r6
 8002586:	f7fe fdae 	bl	80010e6 <HAL_ETH_ReadPHYRegister>
 800258a:	f7fe fb33 	bl	8000bf4 <HAL_GetTick>
 800258e:	9b00      	ldr	r3, [sp, #0]
 8002590:	1ac0      	subs	r0, r0, r3
 8002592:	f5b0 7f7a 	cmp.w	r0, #1000	; 0x3e8
 8002596:	d820      	bhi.n	80025da <ethernetif_update_config+0x86>
 8002598:	9b01      	ldr	r3, [sp, #4]
 800259a:	069a      	lsls	r2, r3, #26
 800259c:	d5f0      	bpl.n	8002580 <ethernetif_update_config+0x2c>
 800259e:	aa01      	add	r2, sp, #4
 80025a0:	211f      	movs	r1, #31
 80025a2:	4815      	ldr	r0, [pc, #84]	; (80025f8 <ethernetif_update_config+0xa4>)
 80025a4:	f7fe fd9f 	bl	80010e6 <HAL_ETH_ReadPHYRegister>
 80025a8:	9b01      	ldr	r3, [sp, #4]
 80025aa:	f013 0210 	ands.w	r2, r3, #16
 80025ae:	bf18      	it	ne
 80025b0:	f44f 6200 	movne.w	r2, #2048	; 0x800
 80025b4:	075b      	lsls	r3, r3, #29
 80025b6:	bf4c      	ite	mi
 80025b8:	2300      	movmi	r3, #0
 80025ba:	f44f 4380 	movpl.w	r3, #16384	; 0x4000
 80025be:	60e2      	str	r2, [r4, #12]
 80025c0:	60a3      	str	r3, [r4, #8]
 80025c2:	2100      	movs	r1, #0
 80025c4:	480c      	ldr	r0, [pc, #48]	; (80025f8 <ethernetif_update_config+0xa4>)
 80025c6:	f7fe ff73 	bl	80014b0 <HAL_ETH_ConfigMAC>
 80025ca:	480b      	ldr	r0, [pc, #44]	; (80025f8 <ethernetif_update_config+0xa4>)
 80025cc:	f7fe fef8 	bl	80013c0 <HAL_ETH_Start>
 80025d0:	4628      	mov	r0, r5
 80025d2:	f7ff ffbd 	bl	8002550 <ethernetif_notify_conn_changed>
 80025d6:	b002      	add	sp, #8
 80025d8:	bd70      	pop	{r4, r5, r6, pc}
 80025da:	e9d4 2302 	ldrd	r2, r3, [r4, #8]
 80025de:	0852      	lsrs	r2, r2, #1
 80025e0:	ea42 02d3 	orr.w	r2, r2, r3, lsr #3
 80025e4:	b292      	uxth	r2, r2
 80025e6:	2100      	movs	r1, #0
 80025e8:	4803      	ldr	r0, [pc, #12]	; (80025f8 <ethernetif_update_config+0xa4>)
 80025ea:	f7fe fdb6 	bl	800115a <HAL_ETH_WritePHYRegister>
 80025ee:	e7e8      	b.n	80025c2 <ethernetif_update_config+0x6e>
 80025f0:	4801      	ldr	r0, [pc, #4]	; (80025f8 <ethernetif_update_config+0xa4>)
 80025f2:	f7fe ff21 	bl	8001438 <HAL_ETH_Stop>
 80025f6:	e7eb      	b.n	80025d0 <ethernetif_update_config+0x7c>
 80025f8:	20006664 	.word	0x20006664

080025fc <osKernelInitialize>:
 80025fc:	f3ef 8305 	mrs	r3, IPSR
 8002600:	b113      	cbz	r3, 8002608 <osKernelInitialize+0xc>
 8002602:	f06f 0005 	mvn.w	r0, #5
 8002606:	4770      	bx	lr
 8002608:	f3ef 8210 	mrs	r2, PRIMASK
 800260c:	4b07      	ldr	r3, [pc, #28]	; (800262c <osKernelInitialize+0x30>)
 800260e:	b912      	cbnz	r2, 8002616 <osKernelInitialize+0x1a>
 8002610:	f3ef 8211 	mrs	r2, BASEPRI
 8002614:	b112      	cbz	r2, 800261c <osKernelInitialize+0x20>
 8002616:	681a      	ldr	r2, [r3, #0]
 8002618:	2a02      	cmp	r2, #2
 800261a:	d0f2      	beq.n	8002602 <osKernelInitialize+0x6>
 800261c:	6818      	ldr	r0, [r3, #0]
 800261e:	b910      	cbnz	r0, 8002626 <osKernelInitialize+0x2a>
 8002620:	2201      	movs	r2, #1
 8002622:	601a      	str	r2, [r3, #0]
 8002624:	4770      	bx	lr
 8002626:	f04f 30ff 	mov.w	r0, #4294967295
 800262a:	4770      	bx	lr
 800262c:	2000036c 	.word	0x2000036c

08002630 <osKernelStart>:
 8002630:	b508      	push	{r3, lr}
 8002632:	f3ef 8305 	mrs	r3, IPSR
 8002636:	b113      	cbz	r3, 800263e <osKernelStart+0xe>
 8002638:	f06f 0005 	mvn.w	r0, #5
 800263c:	bd08      	pop	{r3, pc}
 800263e:	f3ef 8210 	mrs	r2, PRIMASK
 8002642:	4b0a      	ldr	r3, [pc, #40]	; (800266c <osKernelStart+0x3c>)
 8002644:	b912      	cbnz	r2, 800264c <osKernelStart+0x1c>
 8002646:	f3ef 8211 	mrs	r2, BASEPRI
 800264a:	b112      	cbz	r2, 8002652 <osKernelStart+0x22>
 800264c:	681a      	ldr	r2, [r3, #0]
 800264e:	2a02      	cmp	r2, #2
 8002650:	d0f2      	beq.n	8002638 <osKernelStart+0x8>
 8002652:	681a      	ldr	r2, [r3, #0]
 8002654:	2a01      	cmp	r2, #1
 8002656:	d105      	bne.n	8002664 <osKernelStart+0x34>
 8002658:	2202      	movs	r2, #2
 800265a:	601a      	str	r2, [r3, #0]
 800265c:	f001 fab0 	bl	8003bc0 <vTaskStartScheduler>
 8002660:	2000      	movs	r0, #0
 8002662:	e7eb      	b.n	800263c <osKernelStart+0xc>
 8002664:	f04f 30ff 	mov.w	r0, #4294967295
 8002668:	e7e8      	b.n	800263c <osKernelStart+0xc>
 800266a:	bf00      	nop
 800266c:	2000036c 	.word	0x2000036c

08002670 <osKernelGetTickCount>:
 8002670:	f3ef 8305 	mrs	r3, IPSR
 8002674:	b10b      	cbz	r3, 800267a <osKernelGetTickCount+0xa>
 8002676:	f001 bafd 	b.w	8003c74 <xTaskGetTickCountFromISR>
 800267a:	f3ef 8310 	mrs	r3, PRIMASK
 800267e:	b913      	cbnz	r3, 8002686 <osKernelGetTickCount+0x16>
 8002680:	f3ef 8311 	mrs	r3, BASEPRI
 8002684:	b11b      	cbz	r3, 800268e <osKernelGetTickCount+0x1e>
 8002686:	4b03      	ldr	r3, [pc, #12]	; (8002694 <osKernelGetTickCount+0x24>)
 8002688:	681b      	ldr	r3, [r3, #0]
 800268a:	2b02      	cmp	r3, #2
 800268c:	d0f3      	beq.n	8002676 <osKernelGetTickCount+0x6>
 800268e:	f001 baeb 	b.w	8003c68 <xTaskGetTickCount>
 8002692:	bf00      	nop
 8002694:	2000036c 	.word	0x2000036c

08002698 <osThreadNew>:
 8002698:	b5f0      	push	{r4, r5, r6, r7, lr}
 800269a:	b087      	sub	sp, #28
 800269c:	4614      	mov	r4, r2
 800269e:	2200      	movs	r2, #0
 80026a0:	460b      	mov	r3, r1
 80026a2:	9205      	str	r2, [sp, #20]
 80026a4:	f3ef 8205 	mrs	r2, IPSR
 80026a8:	bb32      	cbnz	r2, 80026f8 <osThreadNew+0x60>
 80026aa:	f3ef 8210 	mrs	r2, PRIMASK
 80026ae:	b912      	cbnz	r2, 80026b6 <osThreadNew+0x1e>
 80026b0:	f3ef 8211 	mrs	r2, BASEPRI
 80026b4:	b11a      	cbz	r2, 80026be <osThreadNew+0x26>
 80026b6:	4a22      	ldr	r2, [pc, #136]	; (8002740 <osThreadNew+0xa8>)
 80026b8:	6812      	ldr	r2, [r2, #0]
 80026ba:	2a02      	cmp	r2, #2
 80026bc:	d01c      	beq.n	80026f8 <osThreadNew+0x60>
 80026be:	b1d8      	cbz	r0, 80026f8 <osThreadNew+0x60>
 80026c0:	2c00      	cmp	r4, #0
 80026c2:	d036      	beq.n	8002732 <osThreadNew+0x9a>
 80026c4:	69a5      	ldr	r5, [r4, #24]
 80026c6:	6821      	ldr	r1, [r4, #0]
 80026c8:	2d00      	cmp	r5, #0
 80026ca:	bf08      	it	eq
 80026cc:	2518      	moveq	r5, #24
 80026ce:	1e6a      	subs	r2, r5, #1
 80026d0:	2a37      	cmp	r2, #55	; 0x37
 80026d2:	462f      	mov	r7, r5
 80026d4:	d831      	bhi.n	800273a <osThreadNew+0xa2>
 80026d6:	6862      	ldr	r2, [r4, #4]
 80026d8:	07d2      	lsls	r2, r2, #31
 80026da:	d42e      	bmi.n	800273a <osThreadNew+0xa2>
 80026dc:	6966      	ldr	r6, [r4, #20]
 80026de:	b176      	cbz	r6, 80026fe <osThreadNew+0x66>
 80026e0:	08b2      	lsrs	r2, r6, #2
 80026e2:	e9d4 ce02 	ldrd	ip, lr, [r4, #8]
 80026e6:	f1bc 0f00 	cmp.w	ip, #0
 80026ea:	d00a      	beq.n	8002702 <osThreadNew+0x6a>
 80026ec:	f1be 0fbb 	cmp.w	lr, #187	; 0xbb
 80026f0:	d902      	bls.n	80026f8 <osThreadNew+0x60>
 80026f2:	6924      	ldr	r4, [r4, #16]
 80026f4:	b104      	cbz	r4, 80026f8 <osThreadNew+0x60>
 80026f6:	b9ae      	cbnz	r6, 8002724 <osThreadNew+0x8c>
 80026f8:	9805      	ldr	r0, [sp, #20]
 80026fa:	b007      	add	sp, #28
 80026fc:	bdf0      	pop	{r4, r5, r6, r7, pc}
 80026fe:	2280      	movs	r2, #128	; 0x80
 8002700:	e7ef      	b.n	80026e2 <osThreadNew+0x4a>
 8002702:	f1be 0f00 	cmp.w	lr, #0
 8002706:	d1f7      	bne.n	80026f8 <osThreadNew+0x60>
 8002708:	6924      	ldr	r4, [r4, #16]
 800270a:	2c00      	cmp	r4, #0
 800270c:	d1f4      	bne.n	80026f8 <osThreadNew+0x60>
 800270e:	ac05      	add	r4, sp, #20
 8002710:	e9cd 7400 	strd	r7, r4, [sp]
 8002714:	b292      	uxth	r2, r2
 8002716:	f001 fa25 	bl	8003b64 <xTaskCreate>
 800271a:	2801      	cmp	r0, #1
 800271c:	bf1c      	itt	ne
 800271e:	2300      	movne	r3, #0
 8002720:	9305      	strne	r3, [sp, #20]
 8002722:	e7e9      	b.n	80026f8 <osThreadNew+0x60>
 8002724:	e9cd 4c01 	strd	r4, ip, [sp, #4]
 8002728:	9500      	str	r5, [sp, #0]
 800272a:	f001 f9e3 	bl	8003af4 <xTaskCreateStatic>
 800272e:	9005      	str	r0, [sp, #20]
 8002730:	e7e2      	b.n	80026f8 <osThreadNew+0x60>
 8002732:	2718      	movs	r7, #24
 8002734:	2280      	movs	r2, #128	; 0x80
 8002736:	4621      	mov	r1, r4
 8002738:	e7e9      	b.n	800270e <osThreadNew+0x76>
 800273a:	2000      	movs	r0, #0
 800273c:	e7dd      	b.n	80026fa <osThreadNew+0x62>
 800273e:	bf00      	nop
 8002740:	2000036c 	.word	0x2000036c

08002744 <osDelay>:
 8002744:	b508      	push	{r3, lr}
 8002746:	f3ef 8305 	mrs	r3, IPSR
 800274a:	b113      	cbz	r3, 8002752 <osDelay+0xe>
 800274c:	f06f 0005 	mvn.w	r0, #5
 8002750:	bd08      	pop	{r3, pc}
 8002752:	f3ef 8310 	mrs	r3, PRIMASK
 8002756:	b913      	cbnz	r3, 800275e <osDelay+0x1a>
 8002758:	f3ef 8311 	mrs	r3, BASEPRI
 800275c:	b11b      	cbz	r3, 8002766 <osDelay+0x22>
 800275e:	4b05      	ldr	r3, [pc, #20]	; (8002774 <osDelay+0x30>)
 8002760:	681b      	ldr	r3, [r3, #0]
 8002762:	2b02      	cmp	r3, #2
 8002764:	d0f2      	beq.n	800274c <osDelay+0x8>
 8002766:	2800      	cmp	r0, #0
 8002768:	d0f2      	beq.n	8002750 <osDelay+0xc>
 800276a:	f001 fb8f 	bl	8003e8c <vTaskDelay>
 800276e:	2000      	movs	r0, #0
 8002770:	e7ee      	b.n	8002750 <osDelay+0xc>
 8002772:	bf00      	nop
 8002774:	2000036c 	.word	0x2000036c

08002778 <osMutexNew>:
 8002778:	b570      	push	{r4, r5, r6, lr}
 800277a:	4604      	mov	r4, r0
 800277c:	f3ef 8305 	mrs	r3, IPSR
 8002780:	b113      	cbz	r3, 8002788 <osMutexNew+0x10>
 8002782:	2500      	movs	r5, #0
 8002784:	4628      	mov	r0, r5
 8002786:	bd70      	pop	{r4, r5, r6, pc}
 8002788:	f3ef 8210 	mrs	r2, PRIMASK
 800278c:	b912      	cbnz	r2, 8002794 <osMutexNew+0x1c>
 800278e:	f3ef 8211 	mrs	r2, BASEPRI
 8002792:	b11a      	cbz	r2, 800279c <osMutexNew+0x24>
 8002794:	4a18      	ldr	r2, [pc, #96]	; (80027f8 <osMutexNew+0x80>)
 8002796:	6812      	ldr	r2, [r2, #0]
 8002798:	2a02      	cmp	r2, #2
 800279a:	d0f2      	beq.n	8002782 <osMutexNew+0xa>
 800279c:	b104      	cbz	r4, 80027a0 <osMutexNew+0x28>
 800279e:	6863      	ldr	r3, [r4, #4]
 80027a0:	f003 0601 	and.w	r6, r3, #1
 80027a4:	071b      	lsls	r3, r3, #28
 80027a6:	d4ec      	bmi.n	8002782 <osMutexNew+0xa>
 80027a8:	b1b4      	cbz	r4, 80027d8 <osMutexNew+0x60>
 80027aa:	e9d4 1302 	ldrd	r1, r3, [r4, #8]
 80027ae:	b189      	cbz	r1, 80027d4 <osMutexNew+0x5c>
 80027b0:	2b4f      	cmp	r3, #79	; 0x4f
 80027b2:	d9e6      	bls.n	8002782 <osMutexNew+0xa>
 80027b4:	b1de      	cbz	r6, 80027ee <osMutexNew+0x76>
 80027b6:	2004      	movs	r0, #4
 80027b8:	f000 fcd6 	bl	8003168 <xQueueCreateMutexStatic>
 80027bc:	4605      	mov	r5, r0
 80027be:	2800      	cmp	r0, #0
 80027c0:	d0df      	beq.n	8002782 <osMutexNew+0xa>
 80027c2:	6821      	ldr	r1, [r4, #0]
 80027c4:	4628      	mov	r0, r5
 80027c6:	f000 ffbb 	bl	8003740 <vQueueAddToRegistry>
 80027ca:	2e00      	cmp	r6, #0
 80027cc:	d0da      	beq.n	8002784 <osMutexNew+0xc>
 80027ce:	f045 0501 	orr.w	r5, r5, #1
 80027d2:	e7d7      	b.n	8002784 <osMutexNew+0xc>
 80027d4:	2b00      	cmp	r3, #0
 80027d6:	d1d4      	bne.n	8002782 <osMutexNew+0xa>
 80027d8:	b15e      	cbz	r6, 80027f2 <osMutexNew+0x7a>
 80027da:	2004      	movs	r0, #4
 80027dc:	f000 fcf7 	bl	80031ce <xQueueCreateMutex>
 80027e0:	4605      	mov	r5, r0
 80027e2:	2800      	cmp	r0, #0
 80027e4:	d0cd      	beq.n	8002782 <osMutexNew+0xa>
 80027e6:	2c00      	cmp	r4, #0
 80027e8:	d1eb      	bne.n	80027c2 <osMutexNew+0x4a>
 80027ea:	4621      	mov	r1, r4
 80027ec:	e7ea      	b.n	80027c4 <osMutexNew+0x4c>
 80027ee:	2001      	movs	r0, #1
 80027f0:	e7e2      	b.n	80027b8 <osMutexNew+0x40>
 80027f2:	2001      	movs	r0, #1
 80027f4:	e7f2      	b.n	80027dc <osMutexNew+0x64>
 80027f6:	bf00      	nop
 80027f8:	2000036c 	.word	0x2000036c

080027fc <osMutexAcquire>:
 80027fc:	4603      	mov	r3, r0
 80027fe:	b510      	push	{r4, lr}
 8002800:	f020 0001 	bic.w	r0, r0, #1
 8002804:	460c      	mov	r4, r1
 8002806:	f003 0301 	and.w	r3, r3, #1
 800280a:	f3ef 8205 	mrs	r2, IPSR
 800280e:	b112      	cbz	r2, 8002816 <osMutexAcquire+0x1a>
 8002810:	f06f 0005 	mvn.w	r0, #5
 8002814:	bd10      	pop	{r4, pc}
 8002816:	f3ef 8210 	mrs	r2, PRIMASK
 800281a:	b912      	cbnz	r2, 8002822 <osMutexAcquire+0x26>
 800281c:	f3ef 8211 	mrs	r2, BASEPRI
 8002820:	b11a      	cbz	r2, 800282a <osMutexAcquire+0x2e>
 8002822:	4a0d      	ldr	r2, [pc, #52]	; (8002858 <osMutexAcquire+0x5c>)
 8002824:	6812      	ldr	r2, [r2, #0]
 8002826:	2a02      	cmp	r2, #2
 8002828:	d0f2      	beq.n	8002810 <osMutexAcquire+0x14>
 800282a:	b188      	cbz	r0, 8002850 <osMutexAcquire+0x54>
 800282c:	4621      	mov	r1, r4
 800282e:	b163      	cbz	r3, 800284a <osMutexAcquire+0x4e>
 8002830:	f000 fef6 	bl	8003620 <xQueueTakeMutexRecursive>
 8002834:	2801      	cmp	r0, #1
 8002836:	d101      	bne.n	800283c <osMutexAcquire+0x40>
 8002838:	2000      	movs	r0, #0
 800283a:	e7eb      	b.n	8002814 <osMutexAcquire+0x18>
 800283c:	2c00      	cmp	r4, #0
 800283e:	bf14      	ite	ne
 8002840:	f06f 0001 	mvnne.w	r0, #1
 8002844:	f06f 0002 	mvneq.w	r0, #2
 8002848:	e7e4      	b.n	8002814 <osMutexAcquire+0x18>
 800284a:	f000 fe27 	bl	800349c <xQueueSemaphoreTake>
 800284e:	e7f1      	b.n	8002834 <osMutexAcquire+0x38>
 8002850:	f06f 0003 	mvn.w	r0, #3
 8002854:	e7de      	b.n	8002814 <osMutexAcquire+0x18>
 8002856:	bf00      	nop
 8002858:	2000036c 	.word	0x2000036c

0800285c <osMutexRelease>:
 800285c:	b508      	push	{r3, lr}
 800285e:	4603      	mov	r3, r0
 8002860:	f003 0301 	and.w	r3, r3, #1
 8002864:	f020 0001 	bic.w	r0, r0, #1
 8002868:	f3ef 8205 	mrs	r2, IPSR
 800286c:	b112      	cbz	r2, 8002874 <osMutexRelease+0x18>
 800286e:	f06f 0005 	mvn.w	r0, #5
 8002872:	bd08      	pop	{r3, pc}
 8002874:	f3ef 8210 	mrs	r2, PRIMASK
 8002878:	b912      	cbnz	r2, 8002880 <osMutexRelease+0x24>
 800287a:	f3ef 8211 	mrs	r2, BASEPRI
 800287e:	b11a      	cbz	r2, 8002888 <osMutexRelease+0x2c>
 8002880:	4a0a      	ldr	r2, [pc, #40]	; (80028ac <osMutexRelease+0x50>)
 8002882:	6812      	ldr	r2, [r2, #0]
 8002884:	2a02      	cmp	r2, #2
 8002886:	d0f2      	beq.n	800286e <osMutexRelease+0x12>
 8002888:	b168      	cbz	r0, 80028a6 <osMutexRelease+0x4a>
 800288a:	b13b      	cbz	r3, 800289c <osMutexRelease+0x40>
 800288c:	f000 fc81 	bl	8003192 <xQueueGiveMutexRecursive>
 8002890:	2801      	cmp	r0, #1
 8002892:	bf0c      	ite	eq
 8002894:	2000      	moveq	r0, #0
 8002896:	f06f 0002 	mvnne.w	r0, #2
 800289a:	e7ea      	b.n	8002872 <osMutexRelease+0x16>
 800289c:	461a      	mov	r2, r3
 800289e:	4619      	mov	r1, r3
 80028a0:	f000 fbb0 	bl	8003004 <xQueueGenericSend>
 80028a4:	e7f4      	b.n	8002890 <osMutexRelease+0x34>
 80028a6:	f06f 0003 	mvn.w	r0, #3
 80028aa:	e7e2      	b.n	8002872 <osMutexRelease+0x16>
 80028ac:	2000036c 	.word	0x2000036c

080028b0 <osSemaphoreNew>:
 80028b0:	b573      	push	{r0, r1, r4, r5, r6, lr}
 80028b2:	460e      	mov	r6, r1
 80028b4:	4615      	mov	r5, r2
 80028b6:	f3ef 8305 	mrs	r3, IPSR
 80028ba:	b11b      	cbz	r3, 80028c4 <osSemaphoreNew+0x14>
 80028bc:	2400      	movs	r4, #0
 80028be:	4620      	mov	r0, r4
 80028c0:	b002      	add	sp, #8
 80028c2:	bd70      	pop	{r4, r5, r6, pc}
 80028c4:	f3ef 8310 	mrs	r3, PRIMASK
 80028c8:	b913      	cbnz	r3, 80028d0 <osSemaphoreNew+0x20>
 80028ca:	f3ef 8311 	mrs	r3, BASEPRI
 80028ce:	b11b      	cbz	r3, 80028d8 <osSemaphoreNew+0x28>
 80028d0:	4b21      	ldr	r3, [pc, #132]	; (8002958 <osSemaphoreNew+0xa8>)
 80028d2:	681b      	ldr	r3, [r3, #0]
 80028d4:	2b02      	cmp	r3, #2
 80028d6:	d0f1      	beq.n	80028bc <osSemaphoreNew+0xc>
 80028d8:	2800      	cmp	r0, #0
 80028da:	d0ef      	beq.n	80028bc <osSemaphoreNew+0xc>
 80028dc:	42b0      	cmp	r0, r6
 80028de:	d3ed      	bcc.n	80028bc <osSemaphoreNew+0xc>
 80028e0:	b1ed      	cbz	r5, 800291e <osSemaphoreNew+0x6e>
 80028e2:	e9d5 3202 	ldrd	r3, r2, [r5, #8]
 80028e6:	b1c3      	cbz	r3, 800291a <osSemaphoreNew+0x6a>
 80028e8:	2a4f      	cmp	r2, #79	; 0x4f
 80028ea:	d9e7      	bls.n	80028bc <osSemaphoreNew+0xc>
 80028ec:	2801      	cmp	r0, #1
 80028ee:	d126      	bne.n	800293e <osSemaphoreNew+0x8e>
 80028f0:	2203      	movs	r2, #3
 80028f2:	9200      	str	r2, [sp, #0]
 80028f4:	2200      	movs	r2, #0
 80028f6:	4611      	mov	r1, r2
 80028f8:	f000 face 	bl	8002e98 <xQueueGenericCreateStatic>
 80028fc:	4604      	mov	r4, r0
 80028fe:	2800      	cmp	r0, #0
 8002900:	d0dc      	beq.n	80028bc <osSemaphoreNew+0xc>
 8002902:	b1ce      	cbz	r6, 8002938 <osSemaphoreNew+0x88>
 8002904:	2300      	movs	r3, #0
 8002906:	461a      	mov	r2, r3
 8002908:	4619      	mov	r1, r3
 800290a:	f000 fb7b 	bl	8003004 <xQueueGenericSend>
 800290e:	2801      	cmp	r0, #1
 8002910:	d012      	beq.n	8002938 <osSemaphoreNew+0x88>
 8002912:	4620      	mov	r0, r4
 8002914:	f000 ff3a 	bl	800378c <vQueueDelete>
 8002918:	e7d0      	b.n	80028bc <osSemaphoreNew+0xc>
 800291a:	2a00      	cmp	r2, #0
 800291c:	d1ce      	bne.n	80028bc <osSemaphoreNew+0xc>
 800291e:	2801      	cmp	r0, #1
 8002920:	d104      	bne.n	800292c <osSemaphoreNew+0x7c>
 8002922:	2203      	movs	r2, #3
 8002924:	2100      	movs	r1, #0
 8002926:	f000 fb05 	bl	8002f34 <xQueueGenericCreate>
 800292a:	e7e7      	b.n	80028fc <osSemaphoreNew+0x4c>
 800292c:	4631      	mov	r1, r6
 800292e:	f000 fb4a 	bl	8002fc6 <xQueueCreateCountingSemaphore>
 8002932:	4604      	mov	r4, r0
 8002934:	2800      	cmp	r0, #0
 8002936:	d0c1      	beq.n	80028bc <osSemaphoreNew+0xc>
 8002938:	b945      	cbnz	r5, 800294c <osSemaphoreNew+0x9c>
 800293a:	4629      	mov	r1, r5
 800293c:	e007      	b.n	800294e <osSemaphoreNew+0x9e>
 800293e:	461a      	mov	r2, r3
 8002940:	4631      	mov	r1, r6
 8002942:	f000 fb1e 	bl	8002f82 <xQueueCreateCountingSemaphoreStatic>
 8002946:	4604      	mov	r4, r0
 8002948:	2800      	cmp	r0, #0
 800294a:	d0b7      	beq.n	80028bc <osSemaphoreNew+0xc>
 800294c:	6829      	ldr	r1, [r5, #0]
 800294e:	4620      	mov	r0, r4
 8002950:	f000 fef6 	bl	8003740 <vQueueAddToRegistry>
 8002954:	e7b3      	b.n	80028be <osSemaphoreNew+0xe>
 8002956:	bf00      	nop
 8002958:	2000036c 	.word	0x2000036c

0800295c <osSemaphoreAcquire>:
 800295c:	b513      	push	{r0, r1, r4, lr}
 800295e:	460c      	mov	r4, r1
 8002960:	b918      	cbnz	r0, 800296a <osSemaphoreAcquire+0xe>
 8002962:	f06f 0003 	mvn.w	r0, #3
 8002966:	b002      	add	sp, #8
 8002968:	bd10      	pop	{r4, pc}
 800296a:	f3ef 8305 	mrs	r3, IPSR
 800296e:	b16b      	cbz	r3, 800298c <osSemaphoreAcquire+0x30>
 8002970:	2c00      	cmp	r4, #0
 8002972:	d1f6      	bne.n	8002962 <osSemaphoreAcquire+0x6>
 8002974:	aa02      	add	r2, sp, #8
 8002976:	4621      	mov	r1, r4
 8002978:	f842 4d04 	str.w	r4, [r2, #-4]!
 800297c:	f000 fe71 	bl	8003662 <xQueueReceiveFromISR>
 8002980:	2801      	cmp	r0, #1
 8002982:	d113      	bne.n	80029ac <osSemaphoreAcquire+0x50>
 8002984:	9b01      	ldr	r3, [sp, #4]
 8002986:	b9a3      	cbnz	r3, 80029b2 <osSemaphoreAcquire+0x56>
 8002988:	2000      	movs	r0, #0
 800298a:	e7ec      	b.n	8002966 <osSemaphoreAcquire+0xa>
 800298c:	f3ef 8310 	mrs	r3, PRIMASK
 8002990:	b913      	cbnz	r3, 8002998 <osSemaphoreAcquire+0x3c>
 8002992:	f3ef 8311 	mrs	r3, BASEPRI
 8002996:	b11b      	cbz	r3, 80029a0 <osSemaphoreAcquire+0x44>
 8002998:	4b0c      	ldr	r3, [pc, #48]	; (80029cc <osSemaphoreAcquire+0x70>)
 800299a:	681b      	ldr	r3, [r3, #0]
 800299c:	2b02      	cmp	r3, #2
 800299e:	d0e7      	beq.n	8002970 <osSemaphoreAcquire+0x14>
 80029a0:	4621      	mov	r1, r4
 80029a2:	f000 fd7b 	bl	800349c <xQueueSemaphoreTake>
 80029a6:	2801      	cmp	r0, #1
 80029a8:	d0ee      	beq.n	8002988 <osSemaphoreAcquire+0x2c>
 80029aa:	b95c      	cbnz	r4, 80029c4 <osSemaphoreAcquire+0x68>
 80029ac:	f06f 0002 	mvn.w	r0, #2
 80029b0:	e7d9      	b.n	8002966 <osSemaphoreAcquire+0xa>
 80029b2:	4b07      	ldr	r3, [pc, #28]	; (80029d0 <osSemaphoreAcquire+0x74>)
 80029b4:	f04f 5280 	mov.w	r2, #268435456	; 0x10000000
 80029b8:	601a      	str	r2, [r3, #0]
 80029ba:	f3bf 8f4f 	dsb	sy
 80029be:	f3bf 8f6f 	isb	sy
 80029c2:	e7e1      	b.n	8002988 <osSemaphoreAcquire+0x2c>
 80029c4:	f06f 0001 	mvn.w	r0, #1
 80029c8:	e7cd      	b.n	8002966 <osSemaphoreAcquire+0xa>
 80029ca:	bf00      	nop
 80029cc:	2000036c 	.word	0x2000036c
 80029d0:	e000ed04 	.word	0xe000ed04

080029d4 <osSemaphoreRelease>:
 80029d4:	b513      	push	{r0, r1, r4, lr}
 80029d6:	b368      	cbz	r0, 8002a34 <osSemaphoreRelease+0x60>
 80029d8:	f3ef 8305 	mrs	r3, IPSR
 80029dc:	b153      	cbz	r3, 80029f4 <osSemaphoreRelease+0x20>
 80029de:	a902      	add	r1, sp, #8
 80029e0:	2400      	movs	r4, #0
 80029e2:	f841 4d04 	str.w	r4, [r1, #-4]!
 80029e6:	f000 fc65 	bl	80032b4 <xQueueGiveFromISR>
 80029ea:	2801      	cmp	r0, #1
 80029ec:	d014      	beq.n	8002a18 <osSemaphoreRelease+0x44>
 80029ee:	f06f 0002 	mvn.w	r0, #2
 80029f2:	e014      	b.n	8002a1e <osSemaphoreRelease+0x4a>
 80029f4:	f3ef 8310 	mrs	r3, PRIMASK
 80029f8:	b913      	cbnz	r3, 8002a00 <osSemaphoreRelease+0x2c>
 80029fa:	f3ef 8311 	mrs	r3, BASEPRI
 80029fe:	b11b      	cbz	r3, 8002a08 <osSemaphoreRelease+0x34>
 8002a00:	4b0e      	ldr	r3, [pc, #56]	; (8002a3c <osSemaphoreRelease+0x68>)
 8002a02:	681b      	ldr	r3, [r3, #0]
 8002a04:	2b02      	cmp	r3, #2
 8002a06:	d0ea      	beq.n	80029de <osSemaphoreRelease+0xa>
 8002a08:	2300      	movs	r3, #0
 8002a0a:	461a      	mov	r2, r3
 8002a0c:	4619      	mov	r1, r3
 8002a0e:	f000 faf9 	bl	8003004 <xQueueGenericSend>
 8002a12:	2801      	cmp	r0, #1
 8002a14:	d002      	beq.n	8002a1c <osSemaphoreRelease+0x48>
 8002a16:	e7ea      	b.n	80029ee <osSemaphoreRelease+0x1a>
 8002a18:	9b01      	ldr	r3, [sp, #4]
 8002a1a:	b913      	cbnz	r3, 8002a22 <osSemaphoreRelease+0x4e>
 8002a1c:	2000      	movs	r0, #0
 8002a1e:	b002      	add	sp, #8
 8002a20:	bd10      	pop	{r4, pc}
 8002a22:	4b07      	ldr	r3, [pc, #28]	; (8002a40 <osSemaphoreRelease+0x6c>)
 8002a24:	f04f 5280 	mov.w	r2, #268435456	; 0x10000000
 8002a28:	601a      	str	r2, [r3, #0]
 8002a2a:	f3bf 8f4f 	dsb	sy
 8002a2e:	f3bf 8f6f 	isb	sy
 8002a32:	e7f3      	b.n	8002a1c <osSemaphoreRelease+0x48>
 8002a34:	f06f 0003 	mvn.w	r0, #3
 8002a38:	e7f1      	b.n	8002a1e <osSemaphoreRelease+0x4a>
 8002a3a:	bf00      	nop
 8002a3c:	2000036c 	.word	0x2000036c
 8002a40:	e000ed04 	.word	0xe000ed04

08002a44 <osSemaphoreGetCount>:
 8002a44:	4603      	mov	r3, r0
 8002a46:	b190      	cbz	r0, 8002a6e <osSemaphoreGetCount+0x2a>
 8002a48:	f3ef 8205 	mrs	r2, IPSR
 8002a4c:	b112      	cbz	r2, 8002a54 <osSemaphoreGetCount+0x10>
 8002a4e:	4618      	mov	r0, r3
 8002a50:	f000 be69 	b.w	8003726 <uxQueueMessagesWaitingFromISR>
 8002a54:	f3ef 8210 	mrs	r2, PRIMASK
 8002a58:	b912      	cbnz	r2, 8002a60 <osSemaphoreGetCount+0x1c>
 8002a5a:	f3ef 8211 	mrs	r2, BASEPRI
 8002a5e:	b11a      	cbz	r2, 8002a68 <osSemaphoreGetCount+0x24>
 8002a60:	4a03      	ldr	r2, [pc, #12]	; (8002a70 <osSemaphoreGetCount+0x2c>)
 8002a62:	6812      	ldr	r2, [r2, #0]
 8002a64:	2a02      	cmp	r2, #2
 8002a66:	d0f2      	beq.n	8002a4e <osSemaphoreGetCount+0xa>
 8002a68:	4618      	mov	r0, r3
 8002a6a:	f000 be49 	b.w	8003700 <uxQueueMessagesWaiting>
 8002a6e:	4770      	bx	lr
 8002a70:	2000036c 	.word	0x2000036c

08002a74 <osSemaphoreDelete>:
 8002a74:	b510      	push	{r4, lr}
 8002a76:	4604      	mov	r4, r0
 8002a78:	f3ef 8305 	mrs	r3, IPSR
 8002a7c:	b113      	cbz	r3, 8002a84 <osSemaphoreDelete+0x10>
 8002a7e:	f06f 0005 	mvn.w	r0, #5
 8002a82:	bd10      	pop	{r4, pc}
 8002a84:	f3ef 8310 	mrs	r3, PRIMASK
 8002a88:	b913      	cbnz	r3, 8002a90 <osSemaphoreDelete+0x1c>
 8002a8a:	f3ef 8311 	mrs	r3, BASEPRI
 8002a8e:	b11b      	cbz	r3, 8002a98 <osSemaphoreDelete+0x24>
 8002a90:	4b07      	ldr	r3, [pc, #28]	; (8002ab0 <osSemaphoreDelete+0x3c>)
 8002a92:	681b      	ldr	r3, [r3, #0]
 8002a94:	2b02      	cmp	r3, #2
 8002a96:	d0f2      	beq.n	8002a7e <osSemaphoreDelete+0xa>
 8002a98:	b13c      	cbz	r4, 8002aaa <osSemaphoreDelete+0x36>
 8002a9a:	4620      	mov	r0, r4
 8002a9c:	f000 fe62 	bl	8003764 <vQueueUnregisterQueue>
 8002aa0:	4620      	mov	r0, r4
 8002aa2:	f000 fe73 	bl	800378c <vQueueDelete>
 8002aa6:	2000      	movs	r0, #0
 8002aa8:	e7eb      	b.n	8002a82 <osSemaphoreDelete+0xe>
 8002aaa:	f06f 0003 	mvn.w	r0, #3
 8002aae:	e7e8      	b.n	8002a82 <osSemaphoreDelete+0xe>
 8002ab0:	2000036c 	.word	0x2000036c

08002ab4 <osMessageQueueNew>:
 8002ab4:	b573      	push	{r0, r1, r4, r5, r6, lr}
 8002ab6:	4614      	mov	r4, r2
 8002ab8:	f3ef 8305 	mrs	r3, IPSR
 8002abc:	b11b      	cbz	r3, 8002ac6 <osMessageQueueNew+0x12>
 8002abe:	2500      	movs	r5, #0
 8002ac0:	4628      	mov	r0, r5
 8002ac2:	b002      	add	sp, #8
 8002ac4:	bd70      	pop	{r4, r5, r6, pc}
 8002ac6:	f3ef 8310 	mrs	r3, PRIMASK
 8002aca:	b913      	cbnz	r3, 8002ad2 <osMessageQueueNew+0x1e>
 8002acc:	f3ef 8311 	mrs	r3, BASEPRI
 8002ad0:	b11b      	cbz	r3, 8002ada <osMessageQueueNew+0x26>
 8002ad2:	4b1a      	ldr	r3, [pc, #104]	; (8002b3c <osMessageQueueNew+0x88>)
 8002ad4:	681b      	ldr	r3, [r3, #0]
 8002ad6:	2b02      	cmp	r3, #2
 8002ad8:	d0f1      	beq.n	8002abe <osMessageQueueNew+0xa>
 8002ada:	2800      	cmp	r0, #0
 8002adc:	d0ef      	beq.n	8002abe <osMessageQueueNew+0xa>
 8002ade:	2900      	cmp	r1, #0
 8002ae0:	d0ed      	beq.n	8002abe <osMessageQueueNew+0xa>
 8002ae2:	b304      	cbz	r4, 8002b26 <osMessageQueueNew+0x72>
 8002ae4:	e9d4 3202 	ldrd	r3, r2, [r4, #8]
 8002ae8:	b1ab      	cbz	r3, 8002b16 <osMessageQueueNew+0x62>
 8002aea:	2a4f      	cmp	r2, #79	; 0x4f
 8002aec:	d9e7      	bls.n	8002abe <osMessageQueueNew+0xa>
 8002aee:	6922      	ldr	r2, [r4, #16]
 8002af0:	2a00      	cmp	r2, #0
 8002af2:	d0e4      	beq.n	8002abe <osMessageQueueNew+0xa>
 8002af4:	6966      	ldr	r6, [r4, #20]
 8002af6:	fb01 f500 	mul.w	r5, r1, r0
 8002afa:	42ae      	cmp	r6, r5
 8002afc:	d3df      	bcc.n	8002abe <osMessageQueueNew+0xa>
 8002afe:	2500      	movs	r5, #0
 8002b00:	9500      	str	r5, [sp, #0]
 8002b02:	f000 f9c9 	bl	8002e98 <xQueueGenericCreateStatic>
 8002b06:	4605      	mov	r5, r0
 8002b08:	2800      	cmp	r0, #0
 8002b0a:	d0d8      	beq.n	8002abe <osMessageQueueNew+0xa>
 8002b0c:	6821      	ldr	r1, [r4, #0]
 8002b0e:	4628      	mov	r0, r5
 8002b10:	f000 fe16 	bl	8003740 <vQueueAddToRegistry>
 8002b14:	e7d4      	b.n	8002ac0 <osMessageQueueNew+0xc>
 8002b16:	2a00      	cmp	r2, #0
 8002b18:	d1d1      	bne.n	8002abe <osMessageQueueNew+0xa>
 8002b1a:	6923      	ldr	r3, [r4, #16]
 8002b1c:	2b00      	cmp	r3, #0
 8002b1e:	d1ce      	bne.n	8002abe <osMessageQueueNew+0xa>
 8002b20:	6963      	ldr	r3, [r4, #20]
 8002b22:	2b00      	cmp	r3, #0
 8002b24:	d1cb      	bne.n	8002abe <osMessageQueueNew+0xa>
 8002b26:	2200      	movs	r2, #0
 8002b28:	f000 fa04 	bl	8002f34 <xQueueGenericCreate>
 8002b2c:	4605      	mov	r5, r0
 8002b2e:	2800      	cmp	r0, #0
 8002b30:	d0c5      	beq.n	8002abe <osMessageQueueNew+0xa>
 8002b32:	2c00      	cmp	r4, #0
 8002b34:	d1ea      	bne.n	8002b0c <osMessageQueueNew+0x58>
 8002b36:	4621      	mov	r1, r4
 8002b38:	e7e9      	b.n	8002b0e <osMessageQueueNew+0x5a>
 8002b3a:	bf00      	nop
 8002b3c:	2000036c 	.word	0x2000036c

08002b40 <osMessageQueuePut>:
 8002b40:	b513      	push	{r0, r1, r4, lr}
 8002b42:	461c      	mov	r4, r3
 8002b44:	f3ef 8305 	mrs	r3, IPSR
 8002b48:	b123      	cbz	r3, 8002b54 <osMessageQueuePut+0x14>
 8002b4a:	b9d8      	cbnz	r0, 8002b84 <osMessageQueuePut+0x44>
 8002b4c:	f06f 0003 	mvn.w	r0, #3
 8002b50:	b002      	add	sp, #8
 8002b52:	bd10      	pop	{r4, pc}
 8002b54:	f3ef 8310 	mrs	r3, PRIMASK
 8002b58:	b913      	cbnz	r3, 8002b60 <osMessageQueuePut+0x20>
 8002b5a:	f3ef 8311 	mrs	r3, BASEPRI
 8002b5e:	b11b      	cbz	r3, 8002b68 <osMessageQueuePut+0x28>
 8002b60:	4b16      	ldr	r3, [pc, #88]	; (8002bbc <osMessageQueuePut+0x7c>)
 8002b62:	681b      	ldr	r3, [r3, #0]
 8002b64:	2b02      	cmp	r3, #2
 8002b66:	d0f0      	beq.n	8002b4a <osMessageQueuePut+0xa>
 8002b68:	2800      	cmp	r0, #0
 8002b6a:	d0ef      	beq.n	8002b4c <osMessageQueuePut+0xc>
 8002b6c:	2900      	cmp	r1, #0
 8002b6e:	d0ed      	beq.n	8002b4c <osMessageQueuePut+0xc>
 8002b70:	2300      	movs	r3, #0
 8002b72:	4622      	mov	r2, r4
 8002b74:	f000 fa46 	bl	8003004 <xQueueGenericSend>
 8002b78:	2801      	cmp	r0, #1
 8002b7a:	d011      	beq.n	8002ba0 <osMessageQueuePut+0x60>
 8002b7c:	b9dc      	cbnz	r4, 8002bb6 <osMessageQueuePut+0x76>
 8002b7e:	f06f 0002 	mvn.w	r0, #2
 8002b82:	e7e5      	b.n	8002b50 <osMessageQueuePut+0x10>
 8002b84:	2900      	cmp	r1, #0
 8002b86:	d0e1      	beq.n	8002b4c <osMessageQueuePut+0xc>
 8002b88:	2c00      	cmp	r4, #0
 8002b8a:	d1df      	bne.n	8002b4c <osMessageQueuePut+0xc>
 8002b8c:	aa02      	add	r2, sp, #8
 8002b8e:	4623      	mov	r3, r4
 8002b90:	f842 4d04 	str.w	r4, [r2, #-4]!
 8002b94:	f000 fb2d 	bl	80031f2 <xQueueGenericSendFromISR>
 8002b98:	2801      	cmp	r0, #1
 8002b9a:	d1f0      	bne.n	8002b7e <osMessageQueuePut+0x3e>
 8002b9c:	9b01      	ldr	r3, [sp, #4]
 8002b9e:	b90b      	cbnz	r3, 8002ba4 <osMessageQueuePut+0x64>
 8002ba0:	2000      	movs	r0, #0
 8002ba2:	e7d5      	b.n	8002b50 <osMessageQueuePut+0x10>
 8002ba4:	4b06      	ldr	r3, [pc, #24]	; (8002bc0 <osMessageQueuePut+0x80>)
 8002ba6:	f04f 5280 	mov.w	r2, #268435456	; 0x10000000
 8002baa:	601a      	str	r2, [r3, #0]
 8002bac:	f3bf 8f4f 	dsb	sy
 8002bb0:	f3bf 8f6f 	isb	sy
 8002bb4:	e7f4      	b.n	8002ba0 <osMessageQueuePut+0x60>
 8002bb6:	f06f 0001 	mvn.w	r0, #1
 8002bba:	e7c9      	b.n	8002b50 <osMessageQueuePut+0x10>
 8002bbc:	2000036c 	.word	0x2000036c
 8002bc0:	e000ed04 	.word	0xe000ed04

08002bc4 <osMessageQueueGet>:
 8002bc4:	b513      	push	{r0, r1, r4, lr}
 8002bc6:	461c      	mov	r4, r3
 8002bc8:	f3ef 8305 	mrs	r3, IPSR
 8002bcc:	b123      	cbz	r3, 8002bd8 <osMessageQueueGet+0x14>
 8002bce:	b9d0      	cbnz	r0, 8002c06 <osMessageQueueGet+0x42>
 8002bd0:	f06f 0003 	mvn.w	r0, #3
 8002bd4:	b002      	add	sp, #8
 8002bd6:	bd10      	pop	{r4, pc}
 8002bd8:	f3ef 8310 	mrs	r3, PRIMASK
 8002bdc:	b913      	cbnz	r3, 8002be4 <osMessageQueueGet+0x20>
 8002bde:	f3ef 8311 	mrs	r3, BASEPRI
 8002be2:	b11b      	cbz	r3, 8002bec <osMessageQueueGet+0x28>
 8002be4:	4b15      	ldr	r3, [pc, #84]	; (8002c3c <osMessageQueueGet+0x78>)
 8002be6:	681b      	ldr	r3, [r3, #0]
 8002be8:	2b02      	cmp	r3, #2
 8002bea:	d0f0      	beq.n	8002bce <osMessageQueueGet+0xa>
 8002bec:	2800      	cmp	r0, #0
 8002bee:	d0ef      	beq.n	8002bd0 <osMessageQueueGet+0xc>
 8002bf0:	2900      	cmp	r1, #0
 8002bf2:	d0ed      	beq.n	8002bd0 <osMessageQueueGet+0xc>
 8002bf4:	4622      	mov	r2, r4
 8002bf6:	f000 fbb1 	bl	800335c <xQueueReceive>
 8002bfa:	2801      	cmp	r0, #1
 8002bfc:	d010      	beq.n	8002c20 <osMessageQueueGet+0x5c>
 8002bfe:	b9d4      	cbnz	r4, 8002c36 <osMessageQueueGet+0x72>
 8002c00:	f06f 0002 	mvn.w	r0, #2
 8002c04:	e7e6      	b.n	8002bd4 <osMessageQueueGet+0x10>
 8002c06:	2900      	cmp	r1, #0
 8002c08:	d0e2      	beq.n	8002bd0 <osMessageQueueGet+0xc>
 8002c0a:	2c00      	cmp	r4, #0
 8002c0c:	d1e0      	bne.n	8002bd0 <osMessageQueueGet+0xc>
 8002c0e:	aa02      	add	r2, sp, #8
 8002c10:	f842 4d04 	str.w	r4, [r2, #-4]!
 8002c14:	f000 fd25 	bl	8003662 <xQueueReceiveFromISR>
 8002c18:	2801      	cmp	r0, #1
 8002c1a:	d1f1      	bne.n	8002c00 <osMessageQueueGet+0x3c>
 8002c1c:	9b01      	ldr	r3, [sp, #4]
 8002c1e:	b90b      	cbnz	r3, 8002c24 <osMessageQueueGet+0x60>
 8002c20:	2000      	movs	r0, #0
 8002c22:	e7d7      	b.n	8002bd4 <osMessageQueueGet+0x10>
 8002c24:	4b06      	ldr	r3, [pc, #24]	; (8002c40 <osMessageQueueGet+0x7c>)
 8002c26:	f04f 5280 	mov.w	r2, #268435456	; 0x10000000
 8002c2a:	601a      	str	r2, [r3, #0]
 8002c2c:	f3bf 8f4f 	dsb	sy
 8002c30:	f3bf 8f6f 	isb	sy
 8002c34:	e7f4      	b.n	8002c20 <osMessageQueueGet+0x5c>
 8002c36:	f06f 0001 	mvn.w	r0, #1
 8002c3a:	e7cb      	b.n	8002bd4 <osMessageQueueGet+0x10>
 8002c3c:	2000036c 	.word	0x2000036c
 8002c40:	e000ed04 	.word	0xe000ed04

08002c44 <osMessageQueueGetCount>:
 8002c44:	f7ff befe 	b.w	8002a44 <osSemaphoreGetCount>

08002c48 <osMessageQueueDelete>:
 8002c48:	f7ff bf14 	b.w	8002a74 <osSemaphoreDelete>

08002c4c <vApplicationGetIdleTaskMemory>:
 8002c4c:	4b03      	ldr	r3, [pc, #12]	; (8002c5c <vApplicationGetIdleTaskMemory+0x10>)
 8002c4e:	6003      	str	r3, [r0, #0]
 8002c50:	4b03      	ldr	r3, [pc, #12]	; (8002c60 <vApplicationGetIdleTaskMemory+0x14>)
 8002c52:	600b      	str	r3, [r1, #0]
 8002c54:	2380      	movs	r3, #128	; 0x80
 8002c56:	6013      	str	r3, [r2, #0]
 8002c58:	4770      	bx	lr
 8002c5a:	bf00      	nop
 8002c5c:	200002b0 	.word	0x200002b0
 8002c60:	200000b0 	.word	0x200000b0

08002c64 <vApplicationGetTimerTaskMemory>:
 8002c64:	4b03      	ldr	r3, [pc, #12]	; (8002c74 <vApplicationGetTimerTaskMemory+0x10>)
 8002c66:	6003      	str	r3, [r0, #0]
 8002c68:	4b03      	ldr	r3, [pc, #12]	; (8002c78 <vApplicationGetTimerTaskMemory+0x14>)
 8002c6a:	600b      	str	r3, [r1, #0]
 8002c6c:	f44f 7380 	mov.w	r3, #256	; 0x100
 8002c70:	6013      	str	r3, [r2, #0]
 8002c72:	4770      	bx	lr
 8002c74:	20000770 	.word	0x20000770
 8002c78:	20000370 	.word	0x20000370

08002c7c <vListInitialise>:
 8002c7c:	f100 0308 	add.w	r3, r0, #8
 8002c80:	f04f 32ff 	mov.w	r2, #4294967295
 8002c84:	6043      	str	r3, [r0, #4]
 8002c86:	e9c0 2302 	strd	r2, r3, [r0, #8]
 8002c8a:	6103      	str	r3, [r0, #16]
 8002c8c:	2300      	movs	r3, #0
 8002c8e:	6003      	str	r3, [r0, #0]
 8002c90:	4770      	bx	lr

08002c92 <vListInitialiseItem>:
 8002c92:	2300      	movs	r3, #0
 8002c94:	6103      	str	r3, [r0, #16]
 8002c96:	4770      	bx	lr

08002c98 <vListInsertEnd>:
 8002c98:	6843      	ldr	r3, [r0, #4]
 8002c9a:	604b      	str	r3, [r1, #4]
 8002c9c:	689a      	ldr	r2, [r3, #8]
 8002c9e:	608a      	str	r2, [r1, #8]
 8002ca0:	689a      	ldr	r2, [r3, #8]
 8002ca2:	6051      	str	r1, [r2, #4]
 8002ca4:	6099      	str	r1, [r3, #8]
 8002ca6:	6803      	ldr	r3, [r0, #0]
 8002ca8:	6108      	str	r0, [r1, #16]
 8002caa:	3301      	adds	r3, #1
 8002cac:	6003      	str	r3, [r0, #0]
 8002cae:	4770      	bx	lr

08002cb0 <vListInsert>:
 8002cb0:	680a      	ldr	r2, [r1, #0]
 8002cb2:	1c53      	adds	r3, r2, #1
 8002cb4:	b530      	push	{r4, r5, lr}
 8002cb6:	d10a      	bne.n	8002cce <vListInsert+0x1e>
 8002cb8:	6903      	ldr	r3, [r0, #16]
 8002cba:	685a      	ldr	r2, [r3, #4]
 8002cbc:	604a      	str	r2, [r1, #4]
 8002cbe:	6091      	str	r1, [r2, #8]
 8002cc0:	608b      	str	r3, [r1, #8]
 8002cc2:	6059      	str	r1, [r3, #4]
 8002cc4:	6803      	ldr	r3, [r0, #0]
 8002cc6:	6108      	str	r0, [r1, #16]
 8002cc8:	3301      	adds	r3, #1
 8002cca:	6003      	str	r3, [r0, #0]
 8002ccc:	bd30      	pop	{r4, r5, pc}
 8002cce:	f100 0308 	add.w	r3, r0, #8
 8002cd2:	685c      	ldr	r4, [r3, #4]
 8002cd4:	6825      	ldr	r5, [r4, #0]
 8002cd6:	4295      	cmp	r5, r2
 8002cd8:	d8ef      	bhi.n	8002cba <vListInsert+0xa>
 8002cda:	4623      	mov	r3, r4
 8002cdc:	e7f9      	b.n	8002cd2 <vListInsert+0x22>

08002cde <uxListRemove>:
 8002cde:	e9d0 1201 	ldrd	r1, r2, [r0, #4]
 8002ce2:	6903      	ldr	r3, [r0, #16]
 8002ce4:	608a      	str	r2, [r1, #8]
 8002ce6:	6882      	ldr	r2, [r0, #8]
 8002ce8:	6051      	str	r1, [r2, #4]
 8002cea:	6859      	ldr	r1, [r3, #4]
 8002cec:	4281      	cmp	r1, r0
 8002cee:	bf08      	it	eq
 8002cf0:	605a      	streq	r2, [r3, #4]
 8002cf2:	2200      	movs	r2, #0
 8002cf4:	6102      	str	r2, [r0, #16]
 8002cf6:	681a      	ldr	r2, [r3, #0]
 8002cf8:	3a01      	subs	r2, #1
 8002cfa:	601a      	str	r2, [r3, #0]
 8002cfc:	6818      	ldr	r0, [r3, #0]
 8002cfe:	4770      	bx	lr

08002d00 <prvIsQueueEmpty>:
 8002d00:	b510      	push	{r4, lr}
 8002d02:	4604      	mov	r4, r0
 8002d04:	f001 fd46 	bl	8004794 <vPortEnterCritical>
 8002d08:	6ba4      	ldr	r4, [r4, #56]	; 0x38
 8002d0a:	f001 fd65 	bl	80047d8 <vPortExitCritical>
 8002d0e:	fab4 f084 	clz	r0, r4
 8002d12:	0940      	lsrs	r0, r0, #5
 8002d14:	bd10      	pop	{r4, pc}

08002d16 <prvCopyDataToQueue>:
 8002d16:	b570      	push	{r4, r5, r6, lr}
 8002d18:	4615      	mov	r5, r2
 8002d1a:	6c02      	ldr	r2, [r0, #64]	; 0x40
 8002d1c:	6b86      	ldr	r6, [r0, #56]	; 0x38
 8002d1e:	4604      	mov	r4, r0
 8002d20:	b942      	cbnz	r2, 8002d34 <prvCopyDataToQueue+0x1e>
 8002d22:	6805      	ldr	r5, [r0, #0]
 8002d24:	b99d      	cbnz	r5, 8002d4e <prvCopyDataToQueue+0x38>
 8002d26:	6880      	ldr	r0, [r0, #8]
 8002d28:	f001 fa32 	bl	8004190 <xTaskPriorityDisinherit>
 8002d2c:	60a5      	str	r5, [r4, #8]
 8002d2e:	3601      	adds	r6, #1
 8002d30:	63a6      	str	r6, [r4, #56]	; 0x38
 8002d32:	bd70      	pop	{r4, r5, r6, pc}
 8002d34:	b96d      	cbnz	r5, 8002d52 <prvCopyDataToQueue+0x3c>
 8002d36:	6840      	ldr	r0, [r0, #4]
 8002d38:	f009 fc6d 	bl	800c616 <memcpy>
 8002d3c:	6863      	ldr	r3, [r4, #4]
 8002d3e:	6c22      	ldr	r2, [r4, #64]	; 0x40
 8002d40:	4413      	add	r3, r2
 8002d42:	68a2      	ldr	r2, [r4, #8]
 8002d44:	6063      	str	r3, [r4, #4]
 8002d46:	4293      	cmp	r3, r2
 8002d48:	d301      	bcc.n	8002d4e <prvCopyDataToQueue+0x38>
 8002d4a:	6823      	ldr	r3, [r4, #0]
 8002d4c:	6063      	str	r3, [r4, #4]
 8002d4e:	2000      	movs	r0, #0
 8002d50:	e7ed      	b.n	8002d2e <prvCopyDataToQueue+0x18>
 8002d52:	68c0      	ldr	r0, [r0, #12]
 8002d54:	f009 fc5f 	bl	800c616 <memcpy>
 8002d58:	6c23      	ldr	r3, [r4, #64]	; 0x40
 8002d5a:	68e2      	ldr	r2, [r4, #12]
 8002d5c:	6821      	ldr	r1, [r4, #0]
 8002d5e:	425b      	negs	r3, r3
 8002d60:	441a      	add	r2, r3
 8002d62:	428a      	cmp	r2, r1
 8002d64:	60e2      	str	r2, [r4, #12]
 8002d66:	bf3e      	ittt	cc
 8002d68:	68a2      	ldrcc	r2, [r4, #8]
 8002d6a:	189b      	addcc	r3, r3, r2
 8002d6c:	60e3      	strcc	r3, [r4, #12]
 8002d6e:	2d02      	cmp	r5, #2
 8002d70:	d1ed      	bne.n	8002d4e <prvCopyDataToQueue+0x38>
 8002d72:	b10e      	cbz	r6, 8002d78 <prvCopyDataToQueue+0x62>
 8002d74:	3e01      	subs	r6, #1
 8002d76:	e7ea      	b.n	8002d4e <prvCopyDataToQueue+0x38>
 8002d78:	4630      	mov	r0, r6
 8002d7a:	e7d8      	b.n	8002d2e <prvCopyDataToQueue+0x18>

08002d7c <prvCopyDataFromQueue>:
 8002d7c:	4603      	mov	r3, r0
 8002d7e:	b410      	push	{r4}
 8002d80:	6c1a      	ldr	r2, [r3, #64]	; 0x40
 8002d82:	4608      	mov	r0, r1
 8002d84:	b162      	cbz	r2, 8002da0 <prvCopyDataFromQueue+0x24>
 8002d86:	68d9      	ldr	r1, [r3, #12]
 8002d88:	689c      	ldr	r4, [r3, #8]
 8002d8a:	4411      	add	r1, r2
 8002d8c:	42a1      	cmp	r1, r4
 8002d8e:	60d9      	str	r1, [r3, #12]
 8002d90:	bf24      	itt	cs
 8002d92:	6819      	ldrcs	r1, [r3, #0]
 8002d94:	60d9      	strcs	r1, [r3, #12]
 8002d96:	68d9      	ldr	r1, [r3, #12]
 8002d98:	f85d 4b04 	ldr.w	r4, [sp], #4
 8002d9c:	f009 bc3b 	b.w	800c616 <memcpy>
 8002da0:	f85d 4b04 	ldr.w	r4, [sp], #4
 8002da4:	4770      	bx	lr

08002da6 <prvUnlockQueue>:
 8002da6:	b570      	push	{r4, r5, r6, lr}
 8002da8:	4604      	mov	r4, r0
 8002daa:	f001 fcf3 	bl	8004794 <vPortEnterCritical>
 8002dae:	f894 5045 	ldrb.w	r5, [r4, #69]	; 0x45
 8002db2:	f104 0624 	add.w	r6, r4, #36	; 0x24
 8002db6:	b26d      	sxtb	r5, r5
 8002db8:	2d00      	cmp	r5, #0
 8002dba:	dc14      	bgt.n	8002de6 <prvUnlockQueue+0x40>
 8002dbc:	23ff      	movs	r3, #255	; 0xff
 8002dbe:	f884 3045 	strb.w	r3, [r4, #69]	; 0x45
 8002dc2:	f001 fd09 	bl	80047d8 <vPortExitCritical>
 8002dc6:	f001 fce5 	bl	8004794 <vPortEnterCritical>
 8002dca:	f894 5044 	ldrb.w	r5, [r4, #68]	; 0x44
 8002dce:	f104 0610 	add.w	r6, r4, #16
 8002dd2:	b26d      	sxtb	r5, r5
 8002dd4:	2d00      	cmp	r5, #0
 8002dd6:	dc12      	bgt.n	8002dfe <prvUnlockQueue+0x58>
 8002dd8:	23ff      	movs	r3, #255	; 0xff
 8002dda:	f884 3044 	strb.w	r3, [r4, #68]	; 0x44
 8002dde:	e8bd 4070 	ldmia.w	sp!, {r4, r5, r6, lr}
 8002de2:	f001 bcf9 	b.w	80047d8 <vPortExitCritical>
 8002de6:	6a63      	ldr	r3, [r4, #36]	; 0x24
 8002de8:	2b00      	cmp	r3, #0
 8002dea:	d0e7      	beq.n	8002dbc <prvUnlockQueue+0x16>
 8002dec:	4630      	mov	r0, r6
 8002dee:	f001 f8eb 	bl	8003fc8 <xTaskRemoveFromEventList>
 8002df2:	b108      	cbz	r0, 8002df8 <prvUnlockQueue+0x52>
 8002df4:	f001 f970 	bl	80040d8 <vTaskMissedYield>
 8002df8:	3d01      	subs	r5, #1
 8002dfa:	b26d      	sxtb	r5, r5
 8002dfc:	e7dc      	b.n	8002db8 <prvUnlockQueue+0x12>
 8002dfe:	6923      	ldr	r3, [r4, #16]
 8002e00:	2b00      	cmp	r3, #0
 8002e02:	d0e9      	beq.n	8002dd8 <prvUnlockQueue+0x32>
 8002e04:	4630      	mov	r0, r6
 8002e06:	f001 f8df 	bl	8003fc8 <xTaskRemoveFromEventList>
 8002e0a:	b108      	cbz	r0, 8002e10 <prvUnlockQueue+0x6a>
 8002e0c:	f001 f964 	bl	80040d8 <vTaskMissedYield>
 8002e10:	3d01      	subs	r5, #1
 8002e12:	b26d      	sxtb	r5, r5
 8002e14:	e7de      	b.n	8002dd4 <prvUnlockQueue+0x2e>
	...

08002e18 <xQueueGenericReset>:
 8002e18:	b538      	push	{r3, r4, r5, lr}
 8002e1a:	460d      	mov	r5, r1
 8002e1c:	4604      	mov	r4, r0
 8002e1e:	b940      	cbnz	r0, 8002e32 <xQueueGenericReset+0x1a>
 8002e20:	f04f 0350 	mov.w	r3, #80	; 0x50
 8002e24:	f383 8811 	msr	BASEPRI, r3
 8002e28:	f3bf 8f6f 	isb	sy
 8002e2c:	f3bf 8f4f 	dsb	sy
 8002e30:	e7fe      	b.n	8002e30 <xQueueGenericReset+0x18>
 8002e32:	f001 fcaf 	bl	8004794 <vPortEnterCritical>
 8002e36:	e9d4 300f 	ldrd	r3, r0, [r4, #60]	; 0x3c
 8002e3a:	6822      	ldr	r2, [r4, #0]
 8002e3c:	6062      	str	r2, [r4, #4]
 8002e3e:	4343      	muls	r3, r0
 8002e40:	18d1      	adds	r1, r2, r3
 8002e42:	1a1b      	subs	r3, r3, r0
 8002e44:	4413      	add	r3, r2
 8002e46:	60a1      	str	r1, [r4, #8]
 8002e48:	60e3      	str	r3, [r4, #12]
 8002e4a:	2100      	movs	r1, #0
 8002e4c:	23ff      	movs	r3, #255	; 0xff
 8002e4e:	63a1      	str	r1, [r4, #56]	; 0x38
 8002e50:	f884 3044 	strb.w	r3, [r4, #68]	; 0x44
 8002e54:	f884 3045 	strb.w	r3, [r4, #69]	; 0x45
 8002e58:	b995      	cbnz	r5, 8002e80 <xQueueGenericReset+0x68>
 8002e5a:	6923      	ldr	r3, [r4, #16]
 8002e5c:	b163      	cbz	r3, 8002e78 <xQueueGenericReset+0x60>
 8002e5e:	f104 0010 	add.w	r0, r4, #16
 8002e62:	f001 f8b1 	bl	8003fc8 <xTaskRemoveFromEventList>
 8002e66:	b138      	cbz	r0, 8002e78 <xQueueGenericReset+0x60>
 8002e68:	4b0a      	ldr	r3, [pc, #40]	; (8002e94 <xQueueGenericReset+0x7c>)
 8002e6a:	f04f 5280 	mov.w	r2, #268435456	; 0x10000000
 8002e6e:	601a      	str	r2, [r3, #0]
 8002e70:	f3bf 8f4f 	dsb	sy
 8002e74:	f3bf 8f6f 	isb	sy
 8002e78:	f001 fcae 	bl	80047d8 <vPortExitCritical>
 8002e7c:	2001      	movs	r0, #1
 8002e7e:	bd38      	pop	{r3, r4, r5, pc}
 8002e80:	f104 0010 	add.w	r0, r4, #16
 8002e84:	f7ff fefa 	bl	8002c7c <vListInitialise>
 8002e88:	f104 0024 	add.w	r0, r4, #36	; 0x24
 8002e8c:	f7ff fef6 	bl	8002c7c <vListInitialise>
 8002e90:	e7f2      	b.n	8002e78 <xQueueGenericReset+0x60>
 8002e92:	bf00      	nop
 8002e94:	e000ed04 	.word	0xe000ed04

08002e98 <xQueueGenericCreateStatic>:
 8002e98:	b513      	push	{r0, r1, r4, lr}
 8002e9a:	461c      	mov	r4, r3
 8002e9c:	b940      	cbnz	r0, 8002eb0 <xQueueGenericCreateStatic+0x18>
 8002e9e:	f04f 0350 	mov.w	r3, #80	; 0x50
 8002ea2:	f383 8811 	msr	BASEPRI, r3
 8002ea6:	f3bf 8f6f 	isb	sy
 8002eaa:	f3bf 8f4f 	dsb	sy
 8002eae:	e7fe      	b.n	8002eae <xQueueGenericCreateStatic+0x16>
 8002eb0:	b943      	cbnz	r3, 8002ec4 <xQueueGenericCreateStatic+0x2c>
 8002eb2:	f04f 0350 	mov.w	r3, #80	; 0x50
 8002eb6:	f383 8811 	msr	BASEPRI, r3
 8002eba:	f3bf 8f6f 	isb	sy
 8002ebe:	f3bf 8f4f 	dsb	sy
 8002ec2:	e7fe      	b.n	8002ec2 <xQueueGenericCreateStatic+0x2a>
 8002ec4:	b14a      	cbz	r2, 8002eda <xQueueGenericCreateStatic+0x42>
 8002ec6:	b991      	cbnz	r1, 8002eee <xQueueGenericCreateStatic+0x56>
 8002ec8:	f04f 0350 	mov.w	r3, #80	; 0x50
 8002ecc:	f383 8811 	msr	BASEPRI, r3
 8002ed0:	f3bf 8f6f 	isb	sy
 8002ed4:	f3bf 8f4f 	dsb	sy
 8002ed8:	e7fe      	b.n	8002ed8 <xQueueGenericCreateStatic+0x40>
 8002eda:	b141      	cbz	r1, 8002eee <xQueueGenericCreateStatic+0x56>
 8002edc:	f04f 0350 	mov.w	r3, #80	; 0x50
 8002ee0:	f383 8811 	msr	BASEPRI, r3
 8002ee4:	f3bf 8f6f 	isb	sy
 8002ee8:	f3bf 8f4f 	dsb	sy
 8002eec:	e7fe      	b.n	8002eec <xQueueGenericCreateStatic+0x54>
 8002eee:	2350      	movs	r3, #80	; 0x50
 8002ef0:	9301      	str	r3, [sp, #4]
 8002ef2:	9b01      	ldr	r3, [sp, #4]
 8002ef4:	2b50      	cmp	r3, #80	; 0x50
 8002ef6:	d008      	beq.n	8002f0a <xQueueGenericCreateStatic+0x72>
 8002ef8:	f04f 0350 	mov.w	r3, #80	; 0x50
 8002efc:	f383 8811 	msr	BASEPRI, r3
 8002f00:	f3bf 8f6f 	isb	sy
 8002f04:	f3bf 8f4f 	dsb	sy
 8002f08:	e7fe      	b.n	8002f08 <xQueueGenericCreateStatic+0x70>
 8002f0a:	2900      	cmp	r1, #0
 8002f0c:	bf08      	it	eq
 8002f0e:	4622      	moveq	r2, r4
 8002f10:	9b01      	ldr	r3, [sp, #4]
 8002f12:	6022      	str	r2, [r4, #0]
 8002f14:	2301      	movs	r3, #1
 8002f16:	e9c4 010f 	strd	r0, r1, [r4, #60]	; 0x3c
 8002f1a:	f884 3046 	strb.w	r3, [r4, #70]	; 0x46
 8002f1e:	4619      	mov	r1, r3
 8002f20:	4620      	mov	r0, r4
 8002f22:	f7ff ff79 	bl	8002e18 <xQueueGenericReset>
 8002f26:	f89d 3010 	ldrb.w	r3, [sp, #16]
 8002f2a:	f884 304c 	strb.w	r3, [r4, #76]	; 0x4c
 8002f2e:	4620      	mov	r0, r4
 8002f30:	b002      	add	sp, #8
 8002f32:	bd10      	pop	{r4, pc}

08002f34 <xQueueGenericCreate>:
 8002f34:	b5f8      	push	{r3, r4, r5, r6, r7, lr}
 8002f36:	460d      	mov	r5, r1
 8002f38:	4617      	mov	r7, r2
 8002f3a:	4606      	mov	r6, r0
 8002f3c:	b940      	cbnz	r0, 8002f50 <xQueueGenericCreate+0x1c>
 8002f3e:	f04f 0350 	mov.w	r3, #80	; 0x50
 8002f42:	f383 8811 	msr	BASEPRI, r3
 8002f46:	f3bf 8f6f 	isb	sy
 8002f4a:	f3bf 8f4f 	dsb	sy
 8002f4e:	e7fe      	b.n	8002f4e <xQueueGenericCreate+0x1a>
 8002f50:	4348      	muls	r0, r1
 8002f52:	3050      	adds	r0, #80	; 0x50
 8002f54:	f001 fd78 	bl	8004a48 <pvPortMalloc>
 8002f58:	4604      	mov	r4, r0
 8002f5a:	b160      	cbz	r0, 8002f76 <xQueueGenericCreate+0x42>
 8002f5c:	2300      	movs	r3, #0
 8002f5e:	f880 3046 	strb.w	r3, [r0, #70]	; 0x46
 8002f62:	b955      	cbnz	r5, 8002f7a <xQueueGenericCreate+0x46>
 8002f64:	6020      	str	r0, [r4, #0]
 8002f66:	e9c4 650f 	strd	r6, r5, [r4, #60]	; 0x3c
 8002f6a:	2101      	movs	r1, #1
 8002f6c:	4620      	mov	r0, r4
 8002f6e:	f7ff ff53 	bl	8002e18 <xQueueGenericReset>
 8002f72:	f884 704c 	strb.w	r7, [r4, #76]	; 0x4c
 8002f76:	4620      	mov	r0, r4
 8002f78:	bdf8      	pop	{r3, r4, r5, r6, r7, pc}
 8002f7a:	f100 0350 	add.w	r3, r0, #80	; 0x50
 8002f7e:	6003      	str	r3, [r0, #0]
 8002f80:	e7f1      	b.n	8002f66 <xQueueGenericCreate+0x32>

08002f82 <xQueueCreateCountingSemaphoreStatic>:
 8002f82:	b513      	push	{r0, r1, r4, lr}
 8002f84:	4613      	mov	r3, r2
 8002f86:	460c      	mov	r4, r1
 8002f88:	b940      	cbnz	r0, 8002f9c <xQueueCreateCountingSemaphoreStatic+0x1a>
 8002f8a:	f04f 0350 	mov.w	r3, #80	; 0x50
 8002f8e:	f383 8811 	msr	BASEPRI, r3
 8002f92:	f3bf 8f6f 	isb	sy
 8002f96:	f3bf 8f4f 	dsb	sy
 8002f9a:	e7fe      	b.n	8002f9a <xQueueCreateCountingSemaphoreStatic+0x18>
 8002f9c:	4288      	cmp	r0, r1
 8002f9e:	d208      	bcs.n	8002fb2 <xQueueCreateCountingSemaphoreStatic+0x30>
 8002fa0:	f04f 0350 	mov.w	r3, #80	; 0x50
 8002fa4:	f383 8811 	msr	BASEPRI, r3
 8002fa8:	f3bf 8f6f 	isb	sy
 8002fac:	f3bf 8f4f 	dsb	sy
 8002fb0:	e7fe      	b.n	8002fb0 <xQueueCreateCountingSemaphoreStatic+0x2e>
 8002fb2:	2202      	movs	r2, #2
 8002fb4:	9200      	str	r2, [sp, #0]
 8002fb6:	2200      	movs	r2, #0
 8002fb8:	4611      	mov	r1, r2
 8002fba:	f7ff ff6d 	bl	8002e98 <xQueueGenericCreateStatic>
 8002fbe:	b100      	cbz	r0, 8002fc2 <xQueueCreateCountingSemaphoreStatic+0x40>
 8002fc0:	6384      	str	r4, [r0, #56]	; 0x38
 8002fc2:	b002      	add	sp, #8
 8002fc4:	bd10      	pop	{r4, pc}

08002fc6 <xQueueCreateCountingSemaphore>:
 8002fc6:	b510      	push	{r4, lr}
 8002fc8:	460c      	mov	r4, r1
 8002fca:	b940      	cbnz	r0, 8002fde <xQueueCreateCountingSemaphore+0x18>
 8002fcc:	f04f 0350 	mov.w	r3, #80	; 0x50
 8002fd0:	f383 8811 	msr	BASEPRI, r3
 8002fd4:	f3bf 8f6f 	isb	sy
 8002fd8:	f3bf 8f4f 	dsb	sy
 8002fdc:	e7fe      	b.n	8002fdc <xQueueCreateCountingSemaphore+0x16>
 8002fde:	4288      	cmp	r0, r1
 8002fe0:	d208      	bcs.n	8002ff4 <xQueueCreateCountingSemaphore+0x2e>
 8002fe2:	f04f 0350 	mov.w	r3, #80	; 0x50
 8002fe6:	f383 8811 	msr	BASEPRI, r3
 8002fea:	f3bf 8f6f 	isb	sy
 8002fee:	f3bf 8f4f 	dsb	sy
 8002ff2:	e7fe      	b.n	8002ff2 <xQueueCreateCountingSemaphore+0x2c>
 8002ff4:	2202      	movs	r2, #2
 8002ff6:	2100      	movs	r1, #0
 8002ff8:	f7ff ff9c 	bl	8002f34 <xQueueGenericCreate>
 8002ffc:	b100      	cbz	r0, 8003000 <xQueueCreateCountingSemaphore+0x3a>
 8002ffe:	6384      	str	r4, [r0, #56]	; 0x38
 8003000:	bd10      	pop	{r4, pc}
	...

08003004 <xQueueGenericSend>:
 8003004:	e92d 47ff 	stmdb	sp!, {r0, r1, r2, r3, r4, r5, r6, r7, r8, r9, sl, lr}
 8003008:	4688      	mov	r8, r1
 800300a:	9201      	str	r2, [sp, #4]
 800300c:	461f      	mov	r7, r3
 800300e:	4604      	mov	r4, r0
 8003010:	b940      	cbnz	r0, 8003024 <xQueueGenericSend+0x20>
 8003012:	f04f 0350 	mov.w	r3, #80	; 0x50
 8003016:	f383 8811 	msr	BASEPRI, r3
 800301a:	f3bf 8f6f 	isb	sy
 800301e:	f3bf 8f4f 	dsb	sy
 8003022:	e7fe      	b.n	8003022 <xQueueGenericSend+0x1e>
 8003024:	b951      	cbnz	r1, 800303c <xQueueGenericSend+0x38>
 8003026:	6c03      	ldr	r3, [r0, #64]	; 0x40
 8003028:	b143      	cbz	r3, 800303c <xQueueGenericSend+0x38>
 800302a:	f04f 0350 	mov.w	r3, #80	; 0x50
 800302e:	f383 8811 	msr	BASEPRI, r3
 8003032:	f3bf 8f6f 	isb	sy
 8003036:	f3bf 8f4f 	dsb	sy
 800303a:	e7fe      	b.n	800303a <xQueueGenericSend+0x36>
 800303c:	2f02      	cmp	r7, #2
 800303e:	d10b      	bne.n	8003058 <xQueueGenericSend+0x54>
 8003040:	6be3      	ldr	r3, [r4, #60]	; 0x3c
 8003042:	2b01      	cmp	r3, #1
 8003044:	d008      	beq.n	8003058 <xQueueGenericSend+0x54>
 8003046:	f04f 0350 	mov.w	r3, #80	; 0x50
 800304a:	f383 8811 	msr	BASEPRI, r3
 800304e:	f3bf 8f6f 	isb	sy
 8003052:	f3bf 8f4f 	dsb	sy
 8003056:	e7fe      	b.n	8003056 <xQueueGenericSend+0x52>
 8003058:	f001 f84a 	bl	80040f0 <xTaskGetSchedulerState>
 800305c:	b950      	cbnz	r0, 8003074 <xQueueGenericSend+0x70>
 800305e:	9e01      	ldr	r6, [sp, #4]
 8003060:	b14e      	cbz	r6, 8003076 <xQueueGenericSend+0x72>
 8003062:	f04f 0350 	mov.w	r3, #80	; 0x50
 8003066:	f383 8811 	msr	BASEPRI, r3
 800306a:	f3bf 8f6f 	isb	sy
 800306e:	f3bf 8f4f 	dsb	sy
 8003072:	e7fe      	b.n	8003072 <xQueueGenericSend+0x6e>
 8003074:	2600      	movs	r6, #0
 8003076:	f04f 0900 	mov.w	r9, #0
 800307a:	f8df a0e8 	ldr.w	sl, [pc, #232]	; 8003164 <xQueueGenericSend+0x160>
 800307e:	e037      	b.n	80030f0 <xQueueGenericSend+0xec>
 8003080:	9d01      	ldr	r5, [sp, #4]
 8003082:	b91d      	cbnz	r5, 800308c <xQueueGenericSend+0x88>
 8003084:	f001 fba8 	bl	80047d8 <vPortExitCritical>
 8003088:	2000      	movs	r0, #0
 800308a:	e050      	b.n	800312e <xQueueGenericSend+0x12a>
 800308c:	b916      	cbnz	r6, 8003094 <xQueueGenericSend+0x90>
 800308e:	a802      	add	r0, sp, #8
 8003090:	f000 ffda 	bl	8004048 <vTaskInternalSetTimeOutState>
 8003094:	f001 fba0 	bl	80047d8 <vPortExitCritical>
 8003098:	f000 fdde 	bl	8003c58 <vTaskSuspendAll>
 800309c:	f001 fb7a 	bl	8004794 <vPortEnterCritical>
 80030a0:	f894 3044 	ldrb.w	r3, [r4, #68]	; 0x44
 80030a4:	2bff      	cmp	r3, #255	; 0xff
 80030a6:	bf08      	it	eq
 80030a8:	f884 9044 	strbeq.w	r9, [r4, #68]	; 0x44
 80030ac:	f894 3045 	ldrb.w	r3, [r4, #69]	; 0x45
 80030b0:	2bff      	cmp	r3, #255	; 0xff
 80030b2:	bf08      	it	eq
 80030b4:	f884 9045 	strbeq.w	r9, [r4, #69]	; 0x45
 80030b8:	f001 fb8e 	bl	80047d8 <vPortExitCritical>
 80030bc:	a901      	add	r1, sp, #4
 80030be:	a802      	add	r0, sp, #8
 80030c0:	f000 ffce 	bl	8004060 <xTaskCheckForTimeOut>
 80030c4:	2800      	cmp	r0, #0
 80030c6:	d146      	bne.n	8003156 <xQueueGenericSend+0x152>
 80030c8:	f001 fb64 	bl	8004794 <vPortEnterCritical>
 80030cc:	6ba2      	ldr	r2, [r4, #56]	; 0x38
 80030ce:	6be3      	ldr	r3, [r4, #60]	; 0x3c
 80030d0:	429a      	cmp	r2, r3
 80030d2:	d12f      	bne.n	8003134 <xQueueGenericSend+0x130>
 80030d4:	f001 fb80 	bl	80047d8 <vPortExitCritical>
 80030d8:	9901      	ldr	r1, [sp, #4]
 80030da:	f104 0010 	add.w	r0, r4, #16
 80030de:	f000 ff3b 	bl	8003f58 <vTaskPlaceOnEventList>
 80030e2:	4620      	mov	r0, r4
 80030e4:	f7ff fe5f 	bl	8002da6 <prvUnlockQueue>
 80030e8:	f000 fe5c 	bl	8003da4 <xTaskResumeAll>
 80030ec:	b350      	cbz	r0, 8003144 <xQueueGenericSend+0x140>
 80030ee:	2601      	movs	r6, #1
 80030f0:	f001 fb50 	bl	8004794 <vPortEnterCritical>
 80030f4:	6ba2      	ldr	r2, [r4, #56]	; 0x38
 80030f6:	6be3      	ldr	r3, [r4, #60]	; 0x3c
 80030f8:	429a      	cmp	r2, r3
 80030fa:	d301      	bcc.n	8003100 <xQueueGenericSend+0xfc>
 80030fc:	2f02      	cmp	r7, #2
 80030fe:	d1bf      	bne.n	8003080 <xQueueGenericSend+0x7c>
 8003100:	463a      	mov	r2, r7
 8003102:	4641      	mov	r1, r8
 8003104:	4620      	mov	r0, r4
 8003106:	f7ff fe06 	bl	8002d16 <prvCopyDataToQueue>
 800310a:	6a63      	ldr	r3, [r4, #36]	; 0x24
 800310c:	b11b      	cbz	r3, 8003116 <xQueueGenericSend+0x112>
 800310e:	f104 0024 	add.w	r0, r4, #36	; 0x24
 8003112:	f000 ff59 	bl	8003fc8 <xTaskRemoveFromEventList>
 8003116:	b138      	cbz	r0, 8003128 <xQueueGenericSend+0x124>
 8003118:	4b12      	ldr	r3, [pc, #72]	; (8003164 <xQueueGenericSend+0x160>)
 800311a:	f04f 5280 	mov.w	r2, #268435456	; 0x10000000
 800311e:	601a      	str	r2, [r3, #0]
 8003120:	f3bf 8f4f 	dsb	sy
 8003124:	f3bf 8f6f 	isb	sy
 8003128:	f001 fb56 	bl	80047d8 <vPortExitCritical>
 800312c:	2001      	movs	r0, #1
 800312e:	b004      	add	sp, #16
 8003130:	e8bd 87f0 	ldmia.w	sp!, {r4, r5, r6, r7, r8, r9, sl, pc}
 8003134:	f001 fb50 	bl	80047d8 <vPortExitCritical>
 8003138:	4620      	mov	r0, r4
 800313a:	f7ff fe34 	bl	8002da6 <prvUnlockQueue>
 800313e:	f000 fe31 	bl	8003da4 <xTaskResumeAll>
 8003142:	e7d4      	b.n	80030ee <xQueueGenericSend+0xea>
 8003144:	f04f 5380 	mov.w	r3, #268435456	; 0x10000000
 8003148:	f8ca 3000 	str.w	r3, [sl]
 800314c:	f3bf 8f4f 	dsb	sy
 8003150:	f3bf 8f6f 	isb	sy
 8003154:	e7cb      	b.n	80030ee <xQueueGenericSend+0xea>
 8003156:	4620      	mov	r0, r4
 8003158:	f7ff fe25 	bl	8002da6 <prvUnlockQueue>
 800315c:	f000 fe22 	bl	8003da4 <xTaskResumeAll>
 8003160:	e792      	b.n	8003088 <xQueueGenericSend+0x84>
 8003162:	bf00      	nop
 8003164:	e000ed04 	.word	0xe000ed04

08003168 <xQueueCreateMutexStatic>:
 8003168:	b513      	push	{r0, r1, r4, lr}
 800316a:	2200      	movs	r2, #0
 800316c:	9000      	str	r0, [sp, #0]
 800316e:	460b      	mov	r3, r1
 8003170:	2001      	movs	r0, #1
 8003172:	4611      	mov	r1, r2
 8003174:	f7ff fe90 	bl	8002e98 <xQueueGenericCreateStatic>
 8003178:	4604      	mov	r4, r0
 800317a:	b138      	cbz	r0, 800318c <xQueueCreateMutexStatic+0x24>
 800317c:	2300      	movs	r3, #0
 800317e:	6083      	str	r3, [r0, #8]
 8003180:	6003      	str	r3, [r0, #0]
 8003182:	60c3      	str	r3, [r0, #12]
 8003184:	461a      	mov	r2, r3
 8003186:	4619      	mov	r1, r3
 8003188:	f7ff ff3c 	bl	8003004 <xQueueGenericSend>
 800318c:	4620      	mov	r0, r4
 800318e:	b002      	add	sp, #8
 8003190:	bd10      	pop	{r4, pc}

08003192 <xQueueGiveMutexRecursive>:
 8003192:	b538      	push	{r3, r4, r5, lr}
 8003194:	4604      	mov	r4, r0
 8003196:	b940      	cbnz	r0, 80031aa <xQueueGiveMutexRecursive+0x18>
 8003198:	f04f 0350 	mov.w	r3, #80	; 0x50
 800319c:	f383 8811 	msr	BASEPRI, r3
 80031a0:	f3bf 8f6f 	isb	sy
 80031a4:	f3bf 8f4f 	dsb	sy
 80031a8:	e7fe      	b.n	80031a8 <xQueueGiveMutexRecursive+0x16>
 80031aa:	6885      	ldr	r5, [r0, #8]
 80031ac:	f000 ff9a 	bl	80040e4 <xTaskGetCurrentTaskHandle>
 80031b0:	4285      	cmp	r5, r0
 80031b2:	d10a      	bne.n	80031ca <xQueueGiveMutexRecursive+0x38>
 80031b4:	68e3      	ldr	r3, [r4, #12]
 80031b6:	3b01      	subs	r3, #1
 80031b8:	60e3      	str	r3, [r4, #12]
 80031ba:	b923      	cbnz	r3, 80031c6 <xQueueGiveMutexRecursive+0x34>
 80031bc:	461a      	mov	r2, r3
 80031be:	4619      	mov	r1, r3
 80031c0:	4620      	mov	r0, r4
 80031c2:	f7ff ff1f 	bl	8003004 <xQueueGenericSend>
 80031c6:	2001      	movs	r0, #1
 80031c8:	e000      	b.n	80031cc <xQueueGiveMutexRecursive+0x3a>
 80031ca:	2000      	movs	r0, #0
 80031cc:	bd38      	pop	{r3, r4, r5, pc}

080031ce <xQueueCreateMutex>:
 80031ce:	b510      	push	{r4, lr}
 80031d0:	4602      	mov	r2, r0
 80031d2:	2100      	movs	r1, #0
 80031d4:	2001      	movs	r0, #1
 80031d6:	f7ff fead 	bl	8002f34 <xQueueGenericCreate>
 80031da:	4604      	mov	r4, r0
 80031dc:	b138      	cbz	r0, 80031ee <xQueueCreateMutex+0x20>
 80031de:	2300      	movs	r3, #0
 80031e0:	6083      	str	r3, [r0, #8]
 80031e2:	6003      	str	r3, [r0, #0]
 80031e4:	60c3      	str	r3, [r0, #12]
 80031e6:	461a      	mov	r2, r3
 80031e8:	4619      	mov	r1, r3
 80031ea:	f7ff ff0b 	bl	8003004 <xQueueGenericSend>
 80031ee:	4620      	mov	r0, r4
 80031f0:	bd10      	pop	{r4, pc}

080031f2 <xQueueGenericSendFromISR>:
 80031f2:	e92d 43f8 	stmdb	sp!, {r3, r4, r5, r6, r7, r8, r9, lr}
 80031f6:	4689      	mov	r9, r1
 80031f8:	4690      	mov	r8, r2
 80031fa:	461f      	mov	r7, r3
 80031fc:	4604      	mov	r4, r0
 80031fe:	b940      	cbnz	r0, 8003212 <xQueueGenericSendFromISR+0x20>
 8003200:	f04f 0350 	mov.w	r3, #80	; 0x50
 8003204:	f383 8811 	msr	BASEPRI, r3
 8003208:	f3bf 8f6f 	isb	sy
 800320c:	f3bf 8f4f 	dsb	sy
 8003210:	e7fe      	b.n	8003210 <xQueueGenericSendFromISR+0x1e>
 8003212:	b951      	cbnz	r1, 800322a <xQueueGenericSendFromISR+0x38>
 8003214:	6c03      	ldr	r3, [r0, #64]	; 0x40
 8003216:	b143      	cbz	r3, 800322a <xQueueGenericSendFromISR+0x38>
 8003218:	f04f 0350 	mov.w	r3, #80	; 0x50
 800321c:	f383 8811 	msr	BASEPRI, r3
 8003220:	f3bf 8f6f 	isb	sy
 8003224:	f3bf 8f4f 	dsb	sy
 8003228:	e7fe      	b.n	8003228 <xQueueGenericSendFromISR+0x36>
 800322a:	2f02      	cmp	r7, #2
 800322c:	d10b      	bne.n	8003246 <xQueueGenericSendFromISR+0x54>
 800322e:	6be3      	ldr	r3, [r4, #60]	; 0x3c
 8003230:	2b01      	cmp	r3, #1
 8003232:	d008      	beq.n	8003246 <xQueueGenericSendFromISR+0x54>
 8003234:	f04f 0350 	mov.w	r3, #80	; 0x50
 8003238:	f383 8811 	msr	BASEPRI, r3
 800323c:	f3bf 8f6f 	isb	sy
 8003240:	f3bf 8f4f 	dsb	sy
 8003244:	e7fe      	b.n	8003244 <xQueueGenericSendFromISR+0x52>
 8003246:	f001 fbbd 	bl	80049c4 <vPortValidateInterruptPriority>
 800324a:	f3ef 8611 	mrs	r6, BASEPRI
 800324e:	f04f 0350 	mov.w	r3, #80	; 0x50
 8003252:	f383 8811 	msr	BASEPRI, r3
 8003256:	f3bf 8f6f 	isb	sy
 800325a:	f3bf 8f4f 	dsb	sy
 800325e:	6ba2      	ldr	r2, [r4, #56]	; 0x38
 8003260:	6be3      	ldr	r3, [r4, #60]	; 0x3c
 8003262:	429a      	cmp	r2, r3
 8003264:	d301      	bcc.n	800326a <xQueueGenericSendFromISR+0x78>
 8003266:	2f02      	cmp	r7, #2
 8003268:	d122      	bne.n	80032b0 <xQueueGenericSendFromISR+0xbe>
 800326a:	f894 5045 	ldrb.w	r5, [r4, #69]	; 0x45
 800326e:	463a      	mov	r2, r7
 8003270:	b26d      	sxtb	r5, r5
 8003272:	4649      	mov	r1, r9
 8003274:	4620      	mov	r0, r4
 8003276:	f7ff fd4e 	bl	8002d16 <prvCopyDataToQueue>
 800327a:	1c6b      	adds	r3, r5, #1
 800327c:	d113      	bne.n	80032a6 <xQueueGenericSendFromISR+0xb4>
 800327e:	6a63      	ldr	r3, [r4, #36]	; 0x24
 8003280:	b90b      	cbnz	r3, 8003286 <xQueueGenericSendFromISR+0x94>
 8003282:	2001      	movs	r0, #1
 8003284:	e00b      	b.n	800329e <xQueueGenericSendFromISR+0xac>
 8003286:	f104 0024 	add.w	r0, r4, #36	; 0x24
 800328a:	f000 fe9d 	bl	8003fc8 <xTaskRemoveFromEventList>
 800328e:	2800      	cmp	r0, #0
 8003290:	d0f7      	beq.n	8003282 <xQueueGenericSendFromISR+0x90>
 8003292:	f1b8 0f00 	cmp.w	r8, #0
 8003296:	d0f4      	beq.n	8003282 <xQueueGenericSendFromISR+0x90>
 8003298:	2001      	movs	r0, #1
 800329a:	f8c8 0000 	str.w	r0, [r8]
 800329e:	f386 8811 	msr	BASEPRI, r6
 80032a2:	e8bd 83f8 	ldmia.w	sp!, {r3, r4, r5, r6, r7, r8, r9, pc}
 80032a6:	3501      	adds	r5, #1
 80032a8:	b26d      	sxtb	r5, r5
 80032aa:	f884 5045 	strb.w	r5, [r4, #69]	; 0x45
 80032ae:	e7e8      	b.n	8003282 <xQueueGenericSendFromISR+0x90>
 80032b0:	2000      	movs	r0, #0
 80032b2:	e7f4      	b.n	800329e <xQueueGenericSendFromISR+0xac>

080032b4 <xQueueGiveFromISR>:
 80032b4:	b570      	push	{r4, r5, r6, lr}
 80032b6:	460d      	mov	r5, r1
 80032b8:	4604      	mov	r4, r0
 80032ba:	b940      	cbnz	r0, 80032ce <xQueueGiveFromISR+0x1a>
 80032bc:	f04f 0350 	mov.w	r3, #80	; 0x50
 80032c0:	f383 8811 	msr	BASEPRI, r3
 80032c4:	f3bf 8f6f 	isb	sy
 80032c8:	f3bf 8f4f 	dsb	sy
 80032cc:	e7fe      	b.n	80032cc <xQueueGiveFromISR+0x18>
 80032ce:	6c03      	ldr	r3, [r0, #64]	; 0x40
 80032d0:	b143      	cbz	r3, 80032e4 <xQueueGiveFromISR+0x30>
 80032d2:	f04f 0350 	mov.w	r3, #80	; 0x50
 80032d6:	f383 8811 	msr	BASEPRI, r3
 80032da:	f3bf 8f6f 	isb	sy
 80032de:	f3bf 8f4f 	dsb	sy
 80032e2:	e7fe      	b.n	80032e2 <xQueueGiveFromISR+0x2e>
 80032e4:	6803      	ldr	r3, [r0, #0]
 80032e6:	b953      	cbnz	r3, 80032fe <xQueueGiveFromISR+0x4a>
 80032e8:	6883      	ldr	r3, [r0, #8]
 80032ea:	b143      	cbz	r3, 80032fe <xQueueGiveFromISR+0x4a>
 80032ec:	f04f 0350 	mov.w	r3, #80	; 0x50
 80032f0:	f383 8811 	msr	BASEPRI, r3
 80032f4:	f3bf 8f6f 	isb	sy
 80032f8:	f3bf 8f4f 	dsb	sy
 80032fc:	e7fe      	b.n	80032fc <xQueueGiveFromISR+0x48>
 80032fe:	f001 fb61 	bl	80049c4 <vPortValidateInterruptPriority>
 8003302:	f3ef 8611 	mrs	r6, BASEPRI
 8003306:	f04f 0350 	mov.w	r3, #80	; 0x50
 800330a:	f383 8811 	msr	BASEPRI, r3
 800330e:	f3bf 8f6f 	isb	sy
 8003312:	f3bf 8f4f 	dsb	sy
 8003316:	6ba2      	ldr	r2, [r4, #56]	; 0x38
 8003318:	6be3      	ldr	r3, [r4, #60]	; 0x3c
 800331a:	4293      	cmp	r3, r2
 800331c:	d91c      	bls.n	8003358 <xQueueGiveFromISR+0xa4>
 800331e:	f894 3045 	ldrb.w	r3, [r4, #69]	; 0x45
 8003322:	3201      	adds	r2, #1
 8003324:	b25b      	sxtb	r3, r3
 8003326:	63a2      	str	r2, [r4, #56]	; 0x38
 8003328:	1c5a      	adds	r2, r3, #1
 800332a:	d110      	bne.n	800334e <xQueueGiveFromISR+0x9a>
 800332c:	6a63      	ldr	r3, [r4, #36]	; 0x24
 800332e:	b90b      	cbnz	r3, 8003334 <xQueueGiveFromISR+0x80>
 8003330:	2001      	movs	r0, #1
 8003332:	e009      	b.n	8003348 <xQueueGiveFromISR+0x94>
 8003334:	f104 0024 	add.w	r0, r4, #36	; 0x24
 8003338:	f000 fe46 	bl	8003fc8 <xTaskRemoveFromEventList>
 800333c:	2800      	cmp	r0, #0
 800333e:	d0f7      	beq.n	8003330 <xQueueGiveFromISR+0x7c>
 8003340:	2d00      	cmp	r5, #0
 8003342:	d0f5      	beq.n	8003330 <xQueueGiveFromISR+0x7c>
 8003344:	2001      	movs	r0, #1
 8003346:	6028      	str	r0, [r5, #0]
 8003348:	f386 8811 	msr	BASEPRI, r6
 800334c:	bd70      	pop	{r4, r5, r6, pc}
 800334e:	3301      	adds	r3, #1
 8003350:	b25b      	sxtb	r3, r3
 8003352:	f884 3045 	strb.w	r3, [r4, #69]	; 0x45
 8003356:	e7eb      	b.n	8003330 <xQueueGiveFromISR+0x7c>
 8003358:	2000      	movs	r0, #0
 800335a:	e7f5      	b.n	8003348 <xQueueGiveFromISR+0x94>

0800335c <xQueueReceive>:
 800335c:	e92d 43f0 	stmdb	sp!, {r4, r5, r6, r7, r8, r9, lr}
 8003360:	b085      	sub	sp, #20
 8003362:	460f      	mov	r7, r1
 8003364:	9201      	str	r2, [sp, #4]
 8003366:	4604      	mov	r4, r0
 8003368:	b940      	cbnz	r0, 800337c <xQueueReceive+0x20>
 800336a:	f04f 0350 	mov.w	r3, #80	; 0x50
 800336e:	f383 8811 	msr	BASEPRI, r3
 8003372:	f3bf 8f6f 	isb	sy
 8003376:	f3bf 8f4f 	dsb	sy
 800337a:	e7fe      	b.n	800337a <xQueueReceive+0x1e>
 800337c:	b951      	cbnz	r1, 8003394 <xQueueReceive+0x38>
 800337e:	6c03      	ldr	r3, [r0, #64]	; 0x40
 8003380:	b143      	cbz	r3, 8003394 <xQueueReceive+0x38>
 8003382:	f04f 0350 	mov.w	r3, #80	; 0x50
 8003386:	f383 8811 	msr	BASEPRI, r3
 800338a:	f3bf 8f6f 	isb	sy
 800338e:	f3bf 8f4f 	dsb	sy
 8003392:	e7fe      	b.n	8003392 <xQueueReceive+0x36>
 8003394:	f000 feac 	bl	80040f0 <xTaskGetSchedulerState>
 8003398:	b950      	cbnz	r0, 80033b0 <xQueueReceive+0x54>
 800339a:	9e01      	ldr	r6, [sp, #4]
 800339c:	b14e      	cbz	r6, 80033b2 <xQueueReceive+0x56>
 800339e:	f04f 0350 	mov.w	r3, #80	; 0x50
 80033a2:	f383 8811 	msr	BASEPRI, r3
 80033a6:	f3bf 8f6f 	isb	sy
 80033aa:	f3bf 8f4f 	dsb	sy
 80033ae:	e7fe      	b.n	80033ae <xQueueReceive+0x52>
 80033b0:	2600      	movs	r6, #0
 80033b2:	f04f 0800 	mov.w	r8, #0
 80033b6:	f8df 90e0 	ldr.w	r9, [pc, #224]	; 8003498 <xQueueReceive+0x13c>
 80033ba:	e03b      	b.n	8003434 <xQueueReceive+0xd8>
 80033bc:	9d01      	ldr	r5, [sp, #4]
 80033be:	b91d      	cbnz	r5, 80033c8 <xQueueReceive+0x6c>
 80033c0:	f001 fa0a 	bl	80047d8 <vPortExitCritical>
 80033c4:	2000      	movs	r0, #0
 80033c6:	e052      	b.n	800346e <xQueueReceive+0x112>
 80033c8:	b916      	cbnz	r6, 80033d0 <xQueueReceive+0x74>
 80033ca:	a802      	add	r0, sp, #8
 80033cc:	f000 fe3c 	bl	8004048 <vTaskInternalSetTimeOutState>
 80033d0:	f001 fa02 	bl	80047d8 <vPortExitCritical>
 80033d4:	f000 fc40 	bl	8003c58 <vTaskSuspendAll>
 80033d8:	f001 f9dc 	bl	8004794 <vPortEnterCritical>
 80033dc:	f894 3044 	ldrb.w	r3, [r4, #68]	; 0x44
 80033e0:	2bff      	cmp	r3, #255	; 0xff
 80033e2:	bf08      	it	eq
 80033e4:	f884 8044 	strbeq.w	r8, [r4, #68]	; 0x44
 80033e8:	f894 3045 	ldrb.w	r3, [r4, #69]	; 0x45
 80033ec:	2bff      	cmp	r3, #255	; 0xff
 80033ee:	bf08      	it	eq
 80033f0:	f884 8045 	strbeq.w	r8, [r4, #69]	; 0x45
 80033f4:	f001 f9f0 	bl	80047d8 <vPortExitCritical>
 80033f8:	a901      	add	r1, sp, #4
 80033fa:	a802      	add	r0, sp, #8
 80033fc:	f000 fe30 	bl	8004060 <xTaskCheckForTimeOut>
 8003400:	2800      	cmp	r0, #0
 8003402:	d13d      	bne.n	8003480 <xQueueReceive+0x124>
 8003404:	4620      	mov	r0, r4
 8003406:	f7ff fc7b 	bl	8002d00 <prvIsQueueEmpty>
 800340a:	b398      	cbz	r0, 8003474 <xQueueReceive+0x118>
 800340c:	9901      	ldr	r1, [sp, #4]
 800340e:	f104 0024 	add.w	r0, r4, #36	; 0x24
 8003412:	f000 fda1 	bl	8003f58 <vTaskPlaceOnEventList>
 8003416:	4620      	mov	r0, r4
 8003418:	f7ff fcc5 	bl	8002da6 <prvUnlockQueue>
 800341c:	f000 fcc2 	bl	8003da4 <xTaskResumeAll>
 8003420:	b938      	cbnz	r0, 8003432 <xQueueReceive+0xd6>
 8003422:	f04f 5380 	mov.w	r3, #268435456	; 0x10000000
 8003426:	f8c9 3000 	str.w	r3, [r9]
 800342a:	f3bf 8f4f 	dsb	sy
 800342e:	f3bf 8f6f 	isb	sy
 8003432:	2601      	movs	r6, #1
 8003434:	f001 f9ae 	bl	8004794 <vPortEnterCritical>
 8003438:	6ba5      	ldr	r5, [r4, #56]	; 0x38
 800343a:	2d00      	cmp	r5, #0
 800343c:	d0be      	beq.n	80033bc <xQueueReceive+0x60>
 800343e:	4639      	mov	r1, r7
 8003440:	4620      	mov	r0, r4
 8003442:	3d01      	subs	r5, #1
 8003444:	f7ff fc9a 	bl	8002d7c <prvCopyDataFromQueue>
 8003448:	63a5      	str	r5, [r4, #56]	; 0x38
 800344a:	6923      	ldr	r3, [r4, #16]
 800344c:	b163      	cbz	r3, 8003468 <xQueueReceive+0x10c>
 800344e:	f104 0010 	add.w	r0, r4, #16
 8003452:	f000 fdb9 	bl	8003fc8 <xTaskRemoveFromEventList>
 8003456:	b138      	cbz	r0, 8003468 <xQueueReceive+0x10c>
 8003458:	4b0f      	ldr	r3, [pc, #60]	; (8003498 <xQueueReceive+0x13c>)
 800345a:	f04f 5280 	mov.w	r2, #268435456	; 0x10000000
 800345e:	601a      	str	r2, [r3, #0]
 8003460:	f3bf 8f4f 	dsb	sy
 8003464:	f3bf 8f6f 	isb	sy
 8003468:	f001 f9b6 	bl	80047d8 <vPortExitCritical>
 800346c:	2001      	movs	r0, #1
 800346e:	b005      	add	sp, #20
 8003470:	e8bd 83f0 	ldmia.w	sp!, {r4, r5, r6, r7, r8, r9, pc}
 8003474:	4620      	mov	r0, r4
 8003476:	f7ff fc96 	bl	8002da6 <prvUnlockQueue>
 800347a:	f000 fc93 	bl	8003da4 <xTaskResumeAll>
 800347e:	e7d8      	b.n	8003432 <xQueueReceive+0xd6>
 8003480:	4620      	mov	r0, r4
 8003482:	f7ff fc90 	bl	8002da6 <prvUnlockQueue>
 8003486:	f000 fc8d 	bl	8003da4 <xTaskResumeAll>
 800348a:	4620      	mov	r0, r4
 800348c:	f7ff fc38 	bl	8002d00 <prvIsQueueEmpty>
 8003490:	2800      	cmp	r0, #0
 8003492:	d0ce      	beq.n	8003432 <xQueueReceive+0xd6>
 8003494:	e796      	b.n	80033c4 <xQueueReceive+0x68>
 8003496:	bf00      	nop
 8003498:	e000ed04 	.word	0xe000ed04

0800349c <xQueueSemaphoreTake>:
 800349c:	e92d 41ff 	stmdb	sp!, {r0, r1, r2, r3, r4, r5, r6, r7, r8, lr}
 80034a0:	4604      	mov	r4, r0
 80034a2:	9101      	str	r1, [sp, #4]
 80034a4:	b940      	cbnz	r0, 80034b8 <xQueueSemaphoreTake+0x1c>
 80034a6:	f04f 0350 	mov.w	r3, #80	; 0x50
 80034aa:	f383 8811 	msr	BASEPRI, r3
 80034ae:	f3bf 8f6f 	isb	sy
 80034b2:	f3bf 8f4f 	dsb	sy
 80034b6:	e7fe      	b.n	80034b6 <xQueueSemaphoreTake+0x1a>
 80034b8:	6c05      	ldr	r5, [r0, #64]	; 0x40
 80034ba:	b145      	cbz	r5, 80034ce <xQueueSemaphoreTake+0x32>
 80034bc:	f04f 0350 	mov.w	r3, #80	; 0x50
 80034c0:	f383 8811 	msr	BASEPRI, r3
 80034c4:	f3bf 8f6f 	isb	sy
 80034c8:	f3bf 8f4f 	dsb	sy
 80034cc:	e7fe      	b.n	80034cc <xQueueSemaphoreTake+0x30>
 80034ce:	f000 fe0f 	bl	80040f0 <xTaskGetSchedulerState>
 80034d2:	b950      	cbnz	r0, 80034ea <xQueueSemaphoreTake+0x4e>
 80034d4:	9d01      	ldr	r5, [sp, #4]
 80034d6:	b145      	cbz	r5, 80034ea <xQueueSemaphoreTake+0x4e>
 80034d8:	f04f 0350 	mov.w	r3, #80	; 0x50
 80034dc:	f383 8811 	msr	BASEPRI, r3
 80034e0:	f3bf 8f6f 	isb	sy
 80034e4:	f3bf 8f4f 	dsb	sy
 80034e8:	e7fe      	b.n	80034e8 <xQueueSemaphoreTake+0x4c>
 80034ea:	462e      	mov	r6, r5
 80034ec:	2700      	movs	r7, #0
 80034ee:	f8df 812c 	ldr.w	r8, [pc, #300]	; 800361c <xQueueSemaphoreTake+0x180>
 80034f2:	e04f      	b.n	8003594 <xQueueSemaphoreTake+0xf8>
 80034f4:	9b01      	ldr	r3, [sp, #4]
 80034f6:	b963      	cbnz	r3, 8003512 <xQueueSemaphoreTake+0x76>
 80034f8:	b145      	cbz	r5, 800350c <xQueueSemaphoreTake+0x70>
 80034fa:	f04f 0350 	mov.w	r3, #80	; 0x50
 80034fe:	f383 8811 	msr	BASEPRI, r3
 8003502:	f3bf 8f6f 	isb	sy
 8003506:	f3bf 8f4f 	dsb	sy
 800350a:	e7fe      	b.n	800350a <xQueueSemaphoreTake+0x6e>
 800350c:	f001 f964 	bl	80047d8 <vPortExitCritical>
 8003510:	e05e      	b.n	80035d0 <xQueueSemaphoreTake+0x134>
 8003512:	b916      	cbnz	r6, 800351a <xQueueSemaphoreTake+0x7e>
 8003514:	a802      	add	r0, sp, #8
 8003516:	f000 fd97 	bl	8004048 <vTaskInternalSetTimeOutState>
 800351a:	f001 f95d 	bl	80047d8 <vPortExitCritical>
 800351e:	f000 fb9b 	bl	8003c58 <vTaskSuspendAll>
 8003522:	f001 f937 	bl	8004794 <vPortEnterCritical>
 8003526:	f894 3044 	ldrb.w	r3, [r4, #68]	; 0x44
 800352a:	2bff      	cmp	r3, #255	; 0xff
 800352c:	bf08      	it	eq
 800352e:	f884 7044 	strbeq.w	r7, [r4, #68]	; 0x44
 8003532:	f894 3045 	ldrb.w	r3, [r4, #69]	; 0x45
 8003536:	2bff      	cmp	r3, #255	; 0xff
 8003538:	bf08      	it	eq
 800353a:	f884 7045 	strbeq.w	r7, [r4, #69]	; 0x45
 800353e:	f001 f94b 	bl	80047d8 <vPortExitCritical>
 8003542:	a901      	add	r1, sp, #4
 8003544:	a802      	add	r0, sp, #8
 8003546:	f000 fd8b 	bl	8004060 <xTaskCheckForTimeOut>
 800354a:	2800      	cmp	r0, #0
 800354c:	d14a      	bne.n	80035e4 <xQueueSemaphoreTake+0x148>
 800354e:	4620      	mov	r0, r4
 8003550:	f7ff fbd6 	bl	8002d00 <prvIsQueueEmpty>
 8003554:	2800      	cmp	r0, #0
 8003556:	d03f      	beq.n	80035d8 <xQueueSemaphoreTake+0x13c>
 8003558:	6823      	ldr	r3, [r4, #0]
 800355a:	b93b      	cbnz	r3, 800356c <xQueueSemaphoreTake+0xd0>
 800355c:	f001 f91a 	bl	8004794 <vPortEnterCritical>
 8003560:	68a0      	ldr	r0, [r4, #8]
 8003562:	f000 fdd5 	bl	8004110 <xTaskPriorityInherit>
 8003566:	4605      	mov	r5, r0
 8003568:	f001 f936 	bl	80047d8 <vPortExitCritical>
 800356c:	9901      	ldr	r1, [sp, #4]
 800356e:	f104 0024 	add.w	r0, r4, #36	; 0x24
 8003572:	f000 fcf1 	bl	8003f58 <vTaskPlaceOnEventList>
 8003576:	4620      	mov	r0, r4
 8003578:	f7ff fc15 	bl	8002da6 <prvUnlockQueue>
 800357c:	f000 fc12 	bl	8003da4 <xTaskResumeAll>
 8003580:	b938      	cbnz	r0, 8003592 <xQueueSemaphoreTake+0xf6>
 8003582:	f04f 5380 	mov.w	r3, #268435456	; 0x10000000
 8003586:	f8c8 3000 	str.w	r3, [r8]
 800358a:	f3bf 8f4f 	dsb	sy
 800358e:	f3bf 8f6f 	isb	sy
 8003592:	2601      	movs	r6, #1
 8003594:	f001 f8fe 	bl	8004794 <vPortEnterCritical>
 8003598:	6ba3      	ldr	r3, [r4, #56]	; 0x38
 800359a:	2b00      	cmp	r3, #0
 800359c:	d0aa      	beq.n	80034f4 <xQueueSemaphoreTake+0x58>
 800359e:	3b01      	subs	r3, #1
 80035a0:	63a3      	str	r3, [r4, #56]	; 0x38
 80035a2:	6823      	ldr	r3, [r4, #0]
 80035a4:	b913      	cbnz	r3, 80035ac <xQueueSemaphoreTake+0x110>
 80035a6:	f000 fe83 	bl	80042b0 <pvTaskIncrementMutexHeldCount>
 80035aa:	60a0      	str	r0, [r4, #8]
 80035ac:	6923      	ldr	r3, [r4, #16]
 80035ae:	b163      	cbz	r3, 80035ca <xQueueSemaphoreTake+0x12e>
 80035b0:	f104 0010 	add.w	r0, r4, #16
 80035b4:	f000 fd08 	bl	8003fc8 <xTaskRemoveFromEventList>
 80035b8:	b138      	cbz	r0, 80035ca <xQueueSemaphoreTake+0x12e>
 80035ba:	4b18      	ldr	r3, [pc, #96]	; (800361c <xQueueSemaphoreTake+0x180>)
 80035bc:	f04f 5280 	mov.w	r2, #268435456	; 0x10000000
 80035c0:	601a      	str	r2, [r3, #0]
 80035c2:	f3bf 8f4f 	dsb	sy
 80035c6:	f3bf 8f6f 	isb	sy
 80035ca:	f001 f905 	bl	80047d8 <vPortExitCritical>
 80035ce:	2501      	movs	r5, #1
 80035d0:	4628      	mov	r0, r5
 80035d2:	b004      	add	sp, #16
 80035d4:	e8bd 81f0 	ldmia.w	sp!, {r4, r5, r6, r7, r8, pc}
 80035d8:	4620      	mov	r0, r4
 80035da:	f7ff fbe4 	bl	8002da6 <prvUnlockQueue>
 80035de:	f000 fbe1 	bl	8003da4 <xTaskResumeAll>
 80035e2:	e7d6      	b.n	8003592 <xQueueSemaphoreTake+0xf6>
 80035e4:	4620      	mov	r0, r4
 80035e6:	f7ff fbde 	bl	8002da6 <prvUnlockQueue>
 80035ea:	f000 fbdb 	bl	8003da4 <xTaskResumeAll>
 80035ee:	4620      	mov	r0, r4
 80035f0:	f7ff fb86 	bl	8002d00 <prvIsQueueEmpty>
 80035f4:	2800      	cmp	r0, #0
 80035f6:	d0cc      	beq.n	8003592 <xQueueSemaphoreTake+0xf6>
 80035f8:	2d00      	cmp	r5, #0
 80035fa:	d0e9      	beq.n	80035d0 <xQueueSemaphoreTake+0x134>
 80035fc:	f001 f8ca 	bl	8004794 <vPortEnterCritical>
 8003600:	6a61      	ldr	r1, [r4, #36]	; 0x24
 8003602:	b119      	cbz	r1, 800360c <xQueueSemaphoreTake+0x170>
 8003604:	6b23      	ldr	r3, [r4, #48]	; 0x30
 8003606:	6819      	ldr	r1, [r3, #0]
 8003608:	f1c1 0138 	rsb	r1, r1, #56	; 0x38
 800360c:	68a0      	ldr	r0, [r4, #8]
 800360e:	f000 fe01 	bl	8004214 <vTaskPriorityDisinheritAfterTimeout>
 8003612:	2500      	movs	r5, #0
 8003614:	f001 f8e0 	bl	80047d8 <vPortExitCritical>
 8003618:	e7da      	b.n	80035d0 <xQueueSemaphoreTake+0x134>
 800361a:	bf00      	nop
 800361c:	e000ed04 	.word	0xe000ed04

08003620 <xQueueTakeMutexRecursive>:
 8003620:	b570      	push	{r4, r5, r6, lr}
 8003622:	460d      	mov	r5, r1
 8003624:	4604      	mov	r4, r0
 8003626:	b940      	cbnz	r0, 800363a <xQueueTakeMutexRecursive+0x1a>
 8003628:	f04f 0350 	mov.w	r3, #80	; 0x50
 800362c:	f383 8811 	msr	BASEPRI, r3
 8003630:	f3bf 8f6f 	isb	sy
 8003634:	f3bf 8f4f 	dsb	sy
 8003638:	e7fe      	b.n	8003638 <xQueueTakeMutexRecursive+0x18>
 800363a:	6886      	ldr	r6, [r0, #8]
 800363c:	f000 fd52 	bl	80040e4 <xTaskGetCurrentTaskHandle>
 8003640:	4286      	cmp	r6, r0
 8003642:	d104      	bne.n	800364e <xQueueTakeMutexRecursive+0x2e>
 8003644:	68e3      	ldr	r3, [r4, #12]
 8003646:	3301      	adds	r3, #1
 8003648:	60e3      	str	r3, [r4, #12]
 800364a:	2001      	movs	r0, #1
 800364c:	bd70      	pop	{r4, r5, r6, pc}
 800364e:	4629      	mov	r1, r5
 8003650:	4620      	mov	r0, r4
 8003652:	f7ff ff23 	bl	800349c <xQueueSemaphoreTake>
 8003656:	2800      	cmp	r0, #0
 8003658:	d0f8      	beq.n	800364c <xQueueTakeMutexRecursive+0x2c>
 800365a:	68e3      	ldr	r3, [r4, #12]
 800365c:	3301      	adds	r3, #1
 800365e:	60e3      	str	r3, [r4, #12]
 8003660:	e7f4      	b.n	800364c <xQueueTakeMutexRecursive+0x2c>

08003662 <xQueueReceiveFromISR>:
 8003662:	e92d 43f8 	stmdb	sp!, {r3, r4, r5, r6, r7, r8, r9, lr}
 8003666:	4689      	mov	r9, r1
 8003668:	4690      	mov	r8, r2
 800366a:	4605      	mov	r5, r0
 800366c:	b940      	cbnz	r0, 8003680 <xQueueReceiveFromISR+0x1e>
 800366e:	f04f 0350 	mov.w	r3, #80	; 0x50
 8003672:	f383 8811 	msr	BASEPRI, r3
 8003676:	f3bf 8f6f 	isb	sy
 800367a:	f3bf 8f4f 	dsb	sy
 800367e:	e7fe      	b.n	800367e <xQueueReceiveFromISR+0x1c>
 8003680:	b951      	cbnz	r1, 8003698 <xQueueReceiveFromISR+0x36>
 8003682:	6c03      	ldr	r3, [r0, #64]	; 0x40
 8003684:	b143      	cbz	r3, 8003698 <xQueueReceiveFromISR+0x36>
 8003686:	f04f 0350 	mov.w	r3, #80	; 0x50
 800368a:	f383 8811 	msr	BASEPRI, r3
 800368e:	f3bf 8f6f 	isb	sy
 8003692:	f3bf 8f4f 	dsb	sy
 8003696:	e7fe      	b.n	8003696 <xQueueReceiveFromISR+0x34>
 8003698:	f001 f994 	bl	80049c4 <vPortValidateInterruptPriority>
 800369c:	f3ef 8711 	mrs	r7, BASEPRI
 80036a0:	f04f 0350 	mov.w	r3, #80	; 0x50
 80036a4:	f383 8811 	msr	BASEPRI, r3
 80036a8:	f3bf 8f6f 	isb	sy
 80036ac:	f3bf 8f4f 	dsb	sy
 80036b0:	6bac      	ldr	r4, [r5, #56]	; 0x38
 80036b2:	b31c      	cbz	r4, 80036fc <xQueueReceiveFromISR+0x9a>
 80036b4:	f895 6044 	ldrb.w	r6, [r5, #68]	; 0x44
 80036b8:	4649      	mov	r1, r9
 80036ba:	b276      	sxtb	r6, r6
 80036bc:	4628      	mov	r0, r5
 80036be:	f7ff fb5d 	bl	8002d7c <prvCopyDataFromQueue>
 80036c2:	3c01      	subs	r4, #1
 80036c4:	1c73      	adds	r3, r6, #1
 80036c6:	63ac      	str	r4, [r5, #56]	; 0x38
 80036c8:	d113      	bne.n	80036f2 <xQueueReceiveFromISR+0x90>
 80036ca:	692b      	ldr	r3, [r5, #16]
 80036cc:	b90b      	cbnz	r3, 80036d2 <xQueueReceiveFromISR+0x70>
 80036ce:	2001      	movs	r0, #1
 80036d0:	e00b      	b.n	80036ea <xQueueReceiveFromISR+0x88>
 80036d2:	f105 0010 	add.w	r0, r5, #16
 80036d6:	f000 fc77 	bl	8003fc8 <xTaskRemoveFromEventList>
 80036da:	2800      	cmp	r0, #0
 80036dc:	d0f7      	beq.n	80036ce <xQueueReceiveFromISR+0x6c>
 80036de:	f1b8 0f00 	cmp.w	r8, #0
 80036e2:	d0f4      	beq.n	80036ce <xQueueReceiveFromISR+0x6c>
 80036e4:	2001      	movs	r0, #1
 80036e6:	f8c8 0000 	str.w	r0, [r8]
 80036ea:	f387 8811 	msr	BASEPRI, r7
 80036ee:	e8bd 83f8 	ldmia.w	sp!, {r3, r4, r5, r6, r7, r8, r9, pc}
 80036f2:	3601      	adds	r6, #1
 80036f4:	b276      	sxtb	r6, r6
 80036f6:	f885 6044 	strb.w	r6, [r5, #68]	; 0x44
 80036fa:	e7e8      	b.n	80036ce <xQueueReceiveFromISR+0x6c>
 80036fc:	4620      	mov	r0, r4
 80036fe:	e7f4      	b.n	80036ea <xQueueReceiveFromISR+0x88>

08003700 <uxQueueMessagesWaiting>:
 8003700:	b510      	push	{r4, lr}
 8003702:	4604      	mov	r4, r0
 8003704:	b940      	cbnz	r0, 8003718 <uxQueueMessagesWaiting+0x18>
 8003706:	f04f 0350 	mov.w	r3, #80	; 0x50
 800370a:	f383 8811 	msr	BASEPRI, r3
 800370e:	f3bf 8f6f 	isb	sy
 8003712:	f3bf 8f4f 	dsb	sy
 8003716:	e7fe      	b.n	8003716 <uxQueueMessagesWaiting+0x16>
 8003718:	f001 f83c 	bl	8004794 <vPortEnterCritical>
 800371c:	6ba4      	ldr	r4, [r4, #56]	; 0x38
 800371e:	f001 f85b 	bl	80047d8 <vPortExitCritical>
 8003722:	4620      	mov	r0, r4
 8003724:	bd10      	pop	{r4, pc}

08003726 <uxQueueMessagesWaitingFromISR>:
 8003726:	b940      	cbnz	r0, 800373a <uxQueueMessagesWaitingFromISR+0x14>
 8003728:	f04f 0350 	mov.w	r3, #80	; 0x50
 800372c:	f383 8811 	msr	BASEPRI, r3
 8003730:	f3bf 8f6f 	isb	sy
 8003734:	f3bf 8f4f 	dsb	sy
 8003738:	e7fe      	b.n	8003738 <uxQueueMessagesWaitingFromISR+0x12>
 800373a:	6b80      	ldr	r0, [r0, #56]	; 0x38
 800373c:	4770      	bx	lr
	...

08003740 <vQueueAddToRegistry>:
 8003740:	b530      	push	{r4, r5, lr}
 8003742:	4a07      	ldr	r2, [pc, #28]	; (8003760 <vQueueAddToRegistry+0x20>)
 8003744:	2300      	movs	r3, #0
 8003746:	f852 5033 	ldr.w	r5, [r2, r3, lsl #3]
 800374a:	eb02 04c3 	add.w	r4, r2, r3, lsl #3
 800374e:	b91d      	cbnz	r5, 8003758 <vQueueAddToRegistry+0x18>
 8003750:	f842 1033 	str.w	r1, [r2, r3, lsl #3]
 8003754:	6060      	str	r0, [r4, #4]
 8003756:	bd30      	pop	{r4, r5, pc}
 8003758:	3301      	adds	r3, #1
 800375a:	2b08      	cmp	r3, #8
 800375c:	d1f3      	bne.n	8003746 <vQueueAddToRegistry+0x6>
 800375e:	e7fa      	b.n	8003756 <vQueueAddToRegistry+0x16>
 8003760:	20007e7c 	.word	0x20007e7c

08003764 <vQueueUnregisterQueue>:
 8003764:	b510      	push	{r4, lr}
 8003766:	4a08      	ldr	r2, [pc, #32]	; (8003788 <vQueueUnregisterQueue+0x24>)
 8003768:	2300      	movs	r3, #0
 800376a:	eb02 01c3 	add.w	r1, r2, r3, lsl #3
 800376e:	684c      	ldr	r4, [r1, #4]
 8003770:	4284      	cmp	r4, r0
 8003772:	d104      	bne.n	800377e <vQueueUnregisterQueue+0x1a>
 8003774:	2000      	movs	r0, #0
 8003776:	f842 0033 	str.w	r0, [r2, r3, lsl #3]
 800377a:	6048      	str	r0, [r1, #4]
 800377c:	bd10      	pop	{r4, pc}
 800377e:	3301      	adds	r3, #1
 8003780:	2b08      	cmp	r3, #8
 8003782:	d1f2      	bne.n	800376a <vQueueUnregisterQueue+0x6>
 8003784:	e7fa      	b.n	800377c <vQueueUnregisterQueue+0x18>
 8003786:	bf00      	nop
 8003788:	20007e7c 	.word	0x20007e7c

0800378c <vQueueDelete>:
 800378c:	b510      	push	{r4, lr}
 800378e:	4604      	mov	r4, r0
 8003790:	b940      	cbnz	r0, 80037a4 <vQueueDelete+0x18>
 8003792:	f04f 0350 	mov.w	r3, #80	; 0x50
 8003796:	f383 8811 	msr	BASEPRI, r3
 800379a:	f3bf 8f6f 	isb	sy
 800379e:	f3bf 8f4f 	dsb	sy
 80037a2:	e7fe      	b.n	80037a2 <vQueueDelete+0x16>
 80037a4:	f7ff ffde 	bl	8003764 <vQueueUnregisterQueue>
 80037a8:	f894 3046 	ldrb.w	r3, [r4, #70]	; 0x46
 80037ac:	b923      	cbnz	r3, 80037b8 <vQueueDelete+0x2c>
 80037ae:	4620      	mov	r0, r4
 80037b0:	e8bd 4010 	ldmia.w	sp!, {r4, lr}
 80037b4:	f001 b9d4 	b.w	8004b60 <vPortFree>
 80037b8:	bd10      	pop	{r4, pc}

080037ba <vQueueWaitForMessageRestricted>:
 80037ba:	b570      	push	{r4, r5, r6, lr}
 80037bc:	4604      	mov	r4, r0
 80037be:	460d      	mov	r5, r1
 80037c0:	4616      	mov	r6, r2
 80037c2:	f000 ffe7 	bl	8004794 <vPortEnterCritical>
 80037c6:	f894 3044 	ldrb.w	r3, [r4, #68]	; 0x44
 80037ca:	2bff      	cmp	r3, #255	; 0xff
 80037cc:	bf04      	itt	eq
 80037ce:	2300      	moveq	r3, #0
 80037d0:	f884 3044 	strbeq.w	r3, [r4, #68]	; 0x44
 80037d4:	f894 3045 	ldrb.w	r3, [r4, #69]	; 0x45
 80037d8:	2bff      	cmp	r3, #255	; 0xff
 80037da:	bf04      	itt	eq
 80037dc:	2300      	moveq	r3, #0
 80037de:	f884 3045 	strbeq.w	r3, [r4, #69]	; 0x45
 80037e2:	f000 fff9 	bl	80047d8 <vPortExitCritical>
 80037e6:	6ba3      	ldr	r3, [r4, #56]	; 0x38
 80037e8:	b92b      	cbnz	r3, 80037f6 <vQueueWaitForMessageRestricted+0x3c>
 80037ea:	4632      	mov	r2, r6
 80037ec:	4629      	mov	r1, r5
 80037ee:	f104 0024 	add.w	r0, r4, #36	; 0x24
 80037f2:	f000 fbcb 	bl	8003f8c <vTaskPlaceOnEventListRestricted>
 80037f6:	4620      	mov	r0, r4
 80037f8:	e8bd 4070 	ldmia.w	sp!, {r4, r5, r6, lr}
 80037fc:	f7ff bad3 	b.w	8002da6 <prvUnlockQueue>

08003800 <prvAddNewTaskToReadyList>:
 8003800:	e92d 41f0 	stmdb	sp!, {r4, r5, r6, r7, r8, lr}
 8003804:	4604      	mov	r4, r0
 8003806:	f000 ffc5 	bl	8004794 <vPortEnterCritical>
 800380a:	4b2f      	ldr	r3, [pc, #188]	; (80038c8 <prvAddNewTaskToReadyList+0xc8>)
 800380c:	4d2f      	ldr	r5, [pc, #188]	; (80038cc <prvAddNewTaskToReadyList+0xcc>)
 800380e:	681a      	ldr	r2, [r3, #0]
 8003810:	4f2f      	ldr	r7, [pc, #188]	; (80038d0 <prvAddNewTaskToReadyList+0xd0>)
 8003812:	3201      	adds	r2, #1
 8003814:	601a      	str	r2, [r3, #0]
 8003816:	682e      	ldr	r6, [r5, #0]
 8003818:	2e00      	cmp	r6, #0
 800381a:	d149      	bne.n	80038b0 <prvAddNewTaskToReadyList+0xb0>
 800381c:	602c      	str	r4, [r5, #0]
 800381e:	681b      	ldr	r3, [r3, #0]
 8003820:	2b01      	cmp	r3, #1
 8003822:	d11f      	bne.n	8003864 <prvAddNewTaskToReadyList+0x64>
 8003824:	f04f 0814 	mov.w	r8, #20
 8003828:	fb08 7006 	mla	r0, r8, r6, r7
 800382c:	3601      	adds	r6, #1
 800382e:	f7ff fa25 	bl	8002c7c <vListInitialise>
 8003832:	2e38      	cmp	r6, #56	; 0x38
 8003834:	d1f8      	bne.n	8003828 <prvAddNewTaskToReadyList+0x28>
 8003836:	f8df 80c4 	ldr.w	r8, [pc, #196]	; 80038fc <prvAddNewTaskToReadyList+0xfc>
 800383a:	4e26      	ldr	r6, [pc, #152]	; (80038d4 <prvAddNewTaskToReadyList+0xd4>)
 800383c:	4640      	mov	r0, r8
 800383e:	f7ff fa1d 	bl	8002c7c <vListInitialise>
 8003842:	4630      	mov	r0, r6
 8003844:	f7ff fa1a 	bl	8002c7c <vListInitialise>
 8003848:	4823      	ldr	r0, [pc, #140]	; (80038d8 <prvAddNewTaskToReadyList+0xd8>)
 800384a:	f7ff fa17 	bl	8002c7c <vListInitialise>
 800384e:	4823      	ldr	r0, [pc, #140]	; (80038dc <prvAddNewTaskToReadyList+0xdc>)
 8003850:	f7ff fa14 	bl	8002c7c <vListInitialise>
 8003854:	4822      	ldr	r0, [pc, #136]	; (80038e0 <prvAddNewTaskToReadyList+0xe0>)
 8003856:	f7ff fa11 	bl	8002c7c <vListInitialise>
 800385a:	4b22      	ldr	r3, [pc, #136]	; (80038e4 <prvAddNewTaskToReadyList+0xe4>)
 800385c:	f8c3 8000 	str.w	r8, [r3]
 8003860:	4b21      	ldr	r3, [pc, #132]	; (80038e8 <prvAddNewTaskToReadyList+0xe8>)
 8003862:	601e      	str	r6, [r3, #0]
 8003864:	4a21      	ldr	r2, [pc, #132]	; (80038ec <prvAddNewTaskToReadyList+0xec>)
 8003866:	6813      	ldr	r3, [r2, #0]
 8003868:	3301      	adds	r3, #1
 800386a:	6013      	str	r3, [r2, #0]
 800386c:	4a20      	ldr	r2, [pc, #128]	; (80038f0 <prvAddNewTaskToReadyList+0xf0>)
 800386e:	6463      	str	r3, [r4, #68]	; 0x44
 8003870:	6811      	ldr	r1, [r2, #0]
 8003872:	6ae3      	ldr	r3, [r4, #44]	; 0x2c
 8003874:	2014      	movs	r0, #20
 8003876:	428b      	cmp	r3, r1
 8003878:	fb00 7003 	mla	r0, r0, r3, r7
 800387c:	f104 0104 	add.w	r1, r4, #4
 8003880:	bf88      	it	hi
 8003882:	6013      	strhi	r3, [r2, #0]
 8003884:	f7ff fa08 	bl	8002c98 <vListInsertEnd>
 8003888:	f000 ffa6 	bl	80047d8 <vPortExitCritical>
 800388c:	4b19      	ldr	r3, [pc, #100]	; (80038f4 <prvAddNewTaskToReadyList+0xf4>)
 800388e:	681b      	ldr	r3, [r3, #0]
 8003890:	b163      	cbz	r3, 80038ac <prvAddNewTaskToReadyList+0xac>
 8003892:	682b      	ldr	r3, [r5, #0]
 8003894:	6ada      	ldr	r2, [r3, #44]	; 0x2c
 8003896:	6ae3      	ldr	r3, [r4, #44]	; 0x2c
 8003898:	429a      	cmp	r2, r3
 800389a:	d207      	bcs.n	80038ac <prvAddNewTaskToReadyList+0xac>
 800389c:	4b16      	ldr	r3, [pc, #88]	; (80038f8 <prvAddNewTaskToReadyList+0xf8>)
 800389e:	f04f 5280 	mov.w	r2, #268435456	; 0x10000000
 80038a2:	601a      	str	r2, [r3, #0]
 80038a4:	f3bf 8f4f 	dsb	sy
 80038a8:	f3bf 8f6f 	isb	sy
 80038ac:	e8bd 81f0 	ldmia.w	sp!, {r4, r5, r6, r7, r8, pc}
 80038b0:	4b10      	ldr	r3, [pc, #64]	; (80038f4 <prvAddNewTaskToReadyList+0xf4>)
 80038b2:	681b      	ldr	r3, [r3, #0]
 80038b4:	2b00      	cmp	r3, #0
 80038b6:	d1d5      	bne.n	8003864 <prvAddNewTaskToReadyList+0x64>
 80038b8:	682b      	ldr	r3, [r5, #0]
 80038ba:	6ada      	ldr	r2, [r3, #44]	; 0x2c
 80038bc:	6ae3      	ldr	r3, [r4, #44]	; 0x2c
 80038be:	429a      	cmp	r2, r3
 80038c0:	bf98      	it	ls
 80038c2:	602c      	strls	r4, [r5, #0]
 80038c4:	e7ce      	b.n	8003864 <prvAddNewTaskToReadyList+0x64>
 80038c6:	bf00      	nop
 80038c8:	20000c98 	.word	0x20000c98
 80038cc:	2000082c 	.word	0x2000082c
 80038d0:	20000838 	.word	0x20000838
 80038d4:	20000cc4 	.word	0x20000cc4
 80038d8:	20000ce0 	.word	0x20000ce0
 80038dc:	20000d0c 	.word	0x20000d0c
 80038e0:	20000cf8 	.word	0x20000cf8
 80038e4:	20000830 	.word	0x20000830
 80038e8:	20000834 	.word	0x20000834
 80038ec:	20000ca8 	.word	0x20000ca8
 80038f0:	20000cac 	.word	0x20000cac
 80038f4:	20000cf4 	.word	0x20000cf4
 80038f8:	e000ed04 	.word	0xe000ed04
 80038fc:	20000cb0 	.word	0x20000cb0

08003900 <prvDeleteTCB>:
 8003900:	b510      	push	{r4, lr}
 8003902:	4604      	mov	r4, r0
 8003904:	3054      	adds	r0, #84	; 0x54
 8003906:	f008 ff4d 	bl	800c7a4 <_reclaim_reent>
 800390a:	f894 30b9 	ldrb.w	r3, [r4, #185]	; 0xb9
 800390e:	b93b      	cbnz	r3, 8003920 <prvDeleteTCB+0x20>
 8003910:	6b20      	ldr	r0, [r4, #48]	; 0x30
 8003912:	f001 f925 	bl	8004b60 <vPortFree>
 8003916:	4620      	mov	r0, r4
 8003918:	e8bd 4010 	ldmia.w	sp!, {r4, lr}
 800391c:	f001 b920 	b.w	8004b60 <vPortFree>
 8003920:	2b01      	cmp	r3, #1
 8003922:	d0f8      	beq.n	8003916 <prvDeleteTCB+0x16>
 8003924:	2b02      	cmp	r3, #2
 8003926:	d008      	beq.n	800393a <prvDeleteTCB+0x3a>
 8003928:	f04f 0350 	mov.w	r3, #80	; 0x50
 800392c:	f383 8811 	msr	BASEPRI, r3
 8003930:	f3bf 8f6f 	isb	sy
 8003934:	f3bf 8f4f 	dsb	sy
 8003938:	e7fe      	b.n	8003938 <prvDeleteTCB+0x38>
 800393a:	bd10      	pop	{r4, pc}

0800393c <prvIdleTask>:
 800393c:	b580      	push	{r7, lr}
 800393e:	f8df 805c 	ldr.w	r8, [pc, #92]	; 800399c <prvIdleTask+0x60>
 8003942:	4f12      	ldr	r7, [pc, #72]	; (800398c <prvIdleTask+0x50>)
 8003944:	4c12      	ldr	r4, [pc, #72]	; (8003990 <prvIdleTask+0x54>)
 8003946:	4d13      	ldr	r5, [pc, #76]	; (8003994 <prvIdleTask+0x58>)
 8003948:	6823      	ldr	r3, [r4, #0]
 800394a:	b963      	cbnz	r3, 8003966 <prvIdleTask+0x2a>
 800394c:	4b12      	ldr	r3, [pc, #72]	; (8003998 <prvIdleTask+0x5c>)
 800394e:	681b      	ldr	r3, [r3, #0]
 8003950:	2b01      	cmp	r3, #1
 8003952:	d9f8      	bls.n	8003946 <prvIdleTask+0xa>
 8003954:	f04f 5380 	mov.w	r3, #268435456	; 0x10000000
 8003958:	f8c8 3000 	str.w	r3, [r8]
 800395c:	f3bf 8f4f 	dsb	sy
 8003960:	f3bf 8f6f 	isb	sy
 8003964:	e7ee      	b.n	8003944 <prvIdleTask+0x8>
 8003966:	f000 ff15 	bl	8004794 <vPortEnterCritical>
 800396a:	68fb      	ldr	r3, [r7, #12]
 800396c:	68de      	ldr	r6, [r3, #12]
 800396e:	1d30      	adds	r0, r6, #4
 8003970:	f7ff f9b5 	bl	8002cde <uxListRemove>
 8003974:	682b      	ldr	r3, [r5, #0]
 8003976:	3b01      	subs	r3, #1
 8003978:	602b      	str	r3, [r5, #0]
 800397a:	6823      	ldr	r3, [r4, #0]
 800397c:	3b01      	subs	r3, #1
 800397e:	6023      	str	r3, [r4, #0]
 8003980:	f000 ff2a 	bl	80047d8 <vPortExitCritical>
 8003984:	4630      	mov	r0, r6
 8003986:	f7ff ffbb 	bl	8003900 <prvDeleteTCB>
 800398a:	e7dd      	b.n	8003948 <prvIdleTask+0xc>
 800398c:	20000d0c 	.word	0x20000d0c
 8003990:	20000c9c 	.word	0x20000c9c
 8003994:	20000c98 	.word	0x20000c98
 8003998:	20000838 	.word	0x20000838
 800399c:	e000ed04 	.word	0xe000ed04

080039a0 <prvResetNextTaskUnblockTime>:
 80039a0:	4a06      	ldr	r2, [pc, #24]	; (80039bc <prvResetNextTaskUnblockTime+0x1c>)
 80039a2:	6813      	ldr	r3, [r2, #0]
 80039a4:	6819      	ldr	r1, [r3, #0]
 80039a6:	4b06      	ldr	r3, [pc, #24]	; (80039c0 <prvResetNextTaskUnblockTime+0x20>)
 80039a8:	b919      	cbnz	r1, 80039b2 <prvResetNextTaskUnblockTime+0x12>
 80039aa:	f04f 32ff 	mov.w	r2, #4294967295
 80039ae:	601a      	str	r2, [r3, #0]
 80039b0:	4770      	bx	lr
 80039b2:	6812      	ldr	r2, [r2, #0]
 80039b4:	68d2      	ldr	r2, [r2, #12]
 80039b6:	68d2      	ldr	r2, [r2, #12]
 80039b8:	6852      	ldr	r2, [r2, #4]
 80039ba:	e7f8      	b.n	80039ae <prvResetNextTaskUnblockTime+0xe>
 80039bc:	20000830 	.word	0x20000830
 80039c0:	20000cd8 	.word	0x20000cd8

080039c4 <prvInitialiseNewTask.isra.2>:
 80039c4:	e92d 47f0 	stmdb	sp!, {r4, r5, r6, r7, r8, r9, sl, lr}
 80039c8:	e9dd 6409 	ldrd	r6, r4, [sp, #36]	; 0x24
 80039cc:	ea4f 0982 	mov.w	r9, r2, lsl #2
 80039d0:	464a      	mov	r2, r9
 80039d2:	4607      	mov	r7, r0
 80039d4:	460d      	mov	r5, r1
 80039d6:	6b20      	ldr	r0, [r4, #48]	; 0x30
 80039d8:	21a5      	movs	r1, #165	; 0xa5
 80039da:	4698      	mov	r8, r3
 80039dc:	f008 fe26 	bl	800c62c <memset>
 80039e0:	6b23      	ldr	r3, [r4, #48]	; 0x30
 80039e2:	f1a9 0904 	sub.w	r9, r9, #4
 80039e6:	4499      	add	r9, r3
 80039e8:	f029 0907 	bic.w	r9, r9, #7
 80039ec:	2d00      	cmp	r5, #0
 80039ee:	d03e      	beq.n	8003a6e <prvInitialiseNewTask.isra.2+0xaa>
 80039f0:	1e6b      	subs	r3, r5, #1
 80039f2:	f104 0234 	add.w	r2, r4, #52	; 0x34
 80039f6:	350f      	adds	r5, #15
 80039f8:	f813 1f01 	ldrb.w	r1, [r3, #1]!
 80039fc:	f802 1b01 	strb.w	r1, [r2], #1
 8003a00:	7819      	ldrb	r1, [r3, #0]
 8003a02:	b109      	cbz	r1, 8003a08 <prvInitialiseNewTask.isra.2+0x44>
 8003a04:	42ab      	cmp	r3, r5
 8003a06:	d1f7      	bne.n	80039f8 <prvInitialiseNewTask.isra.2+0x34>
 8003a08:	2300      	movs	r3, #0
 8003a0a:	f884 3043 	strb.w	r3, [r4, #67]	; 0x43
 8003a0e:	9d08      	ldr	r5, [sp, #32]
 8003a10:	2d37      	cmp	r5, #55	; 0x37
 8003a12:	bf28      	it	cs
 8003a14:	2537      	movcs	r5, #55	; 0x37
 8003a16:	f04f 0a00 	mov.w	sl, #0
 8003a1a:	62e5      	str	r5, [r4, #44]	; 0x2c
 8003a1c:	64e5      	str	r5, [r4, #76]	; 0x4c
 8003a1e:	1d20      	adds	r0, r4, #4
 8003a20:	f8c4 a050 	str.w	sl, [r4, #80]	; 0x50
 8003a24:	f7ff f935 	bl	8002c92 <vListInitialiseItem>
 8003a28:	f1c5 0538 	rsb	r5, r5, #56	; 0x38
 8003a2c:	f104 0018 	add.w	r0, r4, #24
 8003a30:	f7ff f92f 	bl	8002c92 <vListInitialiseItem>
 8003a34:	f8c4 a0b4 	str.w	sl, [r4, #180]	; 0xb4
 8003a38:	2260      	movs	r2, #96	; 0x60
 8003a3a:	4651      	mov	r1, sl
 8003a3c:	6124      	str	r4, [r4, #16]
 8003a3e:	61a5      	str	r5, [r4, #24]
 8003a40:	6264      	str	r4, [r4, #36]	; 0x24
 8003a42:	f884 a0b8 	strb.w	sl, [r4, #184]	; 0xb8
 8003a46:	f104 0054 	add.w	r0, r4, #84	; 0x54
 8003a4a:	f008 fdef 	bl	800c62c <memset>
 8003a4e:	4b09      	ldr	r3, [pc, #36]	; (8003a74 <prvInitialiseNewTask.isra.2+0xb0>)
 8003a50:	65a3      	str	r3, [r4, #88]	; 0x58
 8003a52:	4b09      	ldr	r3, [pc, #36]	; (8003a78 <prvInitialiseNewTask.isra.2+0xb4>)
 8003a54:	65e3      	str	r3, [r4, #92]	; 0x5c
 8003a56:	4b09      	ldr	r3, [pc, #36]	; (8003a7c <prvInitialiseNewTask.isra.2+0xb8>)
 8003a58:	6623      	str	r3, [r4, #96]	; 0x60
 8003a5a:	4642      	mov	r2, r8
 8003a5c:	4639      	mov	r1, r7
 8003a5e:	4648      	mov	r0, r9
 8003a60:	f000 fe70 	bl	8004744 <pxPortInitialiseStack>
 8003a64:	6020      	str	r0, [r4, #0]
 8003a66:	b106      	cbz	r6, 8003a6a <prvInitialiseNewTask.isra.2+0xa6>
 8003a68:	6034      	str	r4, [r6, #0]
 8003a6a:	e8bd 87f0 	ldmia.w	sp!, {r4, r5, r6, r7, r8, r9, sl, pc}
 8003a6e:	f884 5034 	strb.w	r5, [r4, #52]	; 0x34
 8003a72:	e7cc      	b.n	8003a0e <prvInitialiseNewTask.isra.2+0x4a>
 8003a74:	0800fa94 	.word	0x0800fa94
 8003a78:	0800fab4 	.word	0x0800fab4
 8003a7c:	0800fa74 	.word	0x0800fa74

08003a80 <prvAddCurrentTaskToDelayedList>:
 8003a80:	b5f8      	push	{r3, r4, r5, r6, r7, lr}
 8003a82:	4b16      	ldr	r3, [pc, #88]	; (8003adc <prvAddCurrentTaskToDelayedList+0x5c>)
 8003a84:	4e16      	ldr	r6, [pc, #88]	; (8003ae0 <prvAddCurrentTaskToDelayedList+0x60>)
 8003a86:	681c      	ldr	r4, [r3, #0]
 8003a88:	4605      	mov	r5, r0
 8003a8a:	6830      	ldr	r0, [r6, #0]
 8003a8c:	3004      	adds	r0, #4
 8003a8e:	460f      	mov	r7, r1
 8003a90:	f7ff f925 	bl	8002cde <uxListRemove>
 8003a94:	1c6b      	adds	r3, r5, #1
 8003a96:	4633      	mov	r3, r6
 8003a98:	d107      	bne.n	8003aaa <prvAddCurrentTaskToDelayedList+0x2a>
 8003a9a:	b137      	cbz	r7, 8003aaa <prvAddCurrentTaskToDelayedList+0x2a>
 8003a9c:	6831      	ldr	r1, [r6, #0]
 8003a9e:	4811      	ldr	r0, [pc, #68]	; (8003ae4 <prvAddCurrentTaskToDelayedList+0x64>)
 8003aa0:	3104      	adds	r1, #4
 8003aa2:	e8bd 40f8 	ldmia.w	sp!, {r3, r4, r5, r6, r7, lr}
 8003aa6:	f7ff b8f7 	b.w	8002c98 <vListInsertEnd>
 8003aaa:	681a      	ldr	r2, [r3, #0]
 8003aac:	1964      	adds	r4, r4, r5
 8003aae:	6054      	str	r4, [r2, #4]
 8003ab0:	d307      	bcc.n	8003ac2 <prvAddCurrentTaskToDelayedList+0x42>
 8003ab2:	4a0d      	ldr	r2, [pc, #52]	; (8003ae8 <prvAddCurrentTaskToDelayedList+0x68>)
 8003ab4:	6810      	ldr	r0, [r2, #0]
 8003ab6:	6819      	ldr	r1, [r3, #0]
 8003ab8:	e8bd 40f8 	ldmia.w	sp!, {r3, r4, r5, r6, r7, lr}
 8003abc:	3104      	adds	r1, #4
 8003abe:	f7ff b8f7 	b.w	8002cb0 <vListInsert>
 8003ac2:	4a0a      	ldr	r2, [pc, #40]	; (8003aec <prvAddCurrentTaskToDelayedList+0x6c>)
 8003ac4:	6810      	ldr	r0, [r2, #0]
 8003ac6:	6819      	ldr	r1, [r3, #0]
 8003ac8:	3104      	adds	r1, #4
 8003aca:	f7ff f8f1 	bl	8002cb0 <vListInsert>
 8003ace:	4b08      	ldr	r3, [pc, #32]	; (8003af0 <prvAddCurrentTaskToDelayedList+0x70>)
 8003ad0:	681a      	ldr	r2, [r3, #0]
 8003ad2:	42a2      	cmp	r2, r4
 8003ad4:	bf88      	it	hi
 8003ad6:	601c      	strhi	r4, [r3, #0]
 8003ad8:	bdf8      	pop	{r3, r4, r5, r6, r7, pc}
 8003ada:	bf00      	nop
 8003adc:	20000d20 	.word	0x20000d20
 8003ae0:	2000082c 	.word	0x2000082c
 8003ae4:	20000cf8 	.word	0x20000cf8
 8003ae8:	20000834 	.word	0x20000834
 8003aec:	20000830 	.word	0x20000830
 8003af0:	20000cd8 	.word	0x20000cd8

08003af4 <xTaskCreateStatic>:
 8003af4:	b570      	push	{r4, r5, r6, lr}
 8003af6:	b086      	sub	sp, #24
 8003af8:	e9dd 540b 	ldrd	r5, r4, [sp, #44]	; 0x2c
 8003afc:	b945      	cbnz	r5, 8003b10 <xTaskCreateStatic+0x1c>
 8003afe:	f04f 0350 	mov.w	r3, #80	; 0x50
 8003b02:	f383 8811 	msr	BASEPRI, r3
 8003b06:	f3bf 8f6f 	isb	sy
 8003b0a:	f3bf 8f4f 	dsb	sy
 8003b0e:	e7fe      	b.n	8003b0e <xTaskCreateStatic+0x1a>
 8003b10:	b944      	cbnz	r4, 8003b24 <xTaskCreateStatic+0x30>
 8003b12:	f04f 0350 	mov.w	r3, #80	; 0x50
 8003b16:	f383 8811 	msr	BASEPRI, r3
 8003b1a:	f3bf 8f6f 	isb	sy
 8003b1e:	f3bf 8f4f 	dsb	sy
 8003b22:	e7fe      	b.n	8003b22 <xTaskCreateStatic+0x2e>
 8003b24:	26bc      	movs	r6, #188	; 0xbc
 8003b26:	9605      	str	r6, [sp, #20]
 8003b28:	9e05      	ldr	r6, [sp, #20]
 8003b2a:	2ebc      	cmp	r6, #188	; 0xbc
 8003b2c:	d008      	beq.n	8003b40 <xTaskCreateStatic+0x4c>
 8003b2e:	f04f 0350 	mov.w	r3, #80	; 0x50
 8003b32:	f383 8811 	msr	BASEPRI, r3
 8003b36:	f3bf 8f6f 	isb	sy
 8003b3a:	f3bf 8f4f 	dsb	sy
 8003b3e:	e7fe      	b.n	8003b3e <xTaskCreateStatic+0x4a>
 8003b40:	6325      	str	r5, [r4, #48]	; 0x30
 8003b42:	2502      	movs	r5, #2
 8003b44:	f884 50b9 	strb.w	r5, [r4, #185]	; 0xb9
 8003b48:	ad04      	add	r5, sp, #16
 8003b4a:	9501      	str	r5, [sp, #4]
 8003b4c:	9d0a      	ldr	r5, [sp, #40]	; 0x28
 8003b4e:	9402      	str	r4, [sp, #8]
 8003b50:	9500      	str	r5, [sp, #0]
 8003b52:	9e05      	ldr	r6, [sp, #20]
 8003b54:	f7ff ff36 	bl	80039c4 <prvInitialiseNewTask.isra.2>
 8003b58:	4620      	mov	r0, r4
 8003b5a:	f7ff fe51 	bl	8003800 <prvAddNewTaskToReadyList>
 8003b5e:	9804      	ldr	r0, [sp, #16]
 8003b60:	b006      	add	sp, #24
 8003b62:	bd70      	pop	{r4, r5, r6, pc}

08003b64 <xTaskCreate>:
 8003b64:	e92d 43f0 	stmdb	sp!, {r4, r5, r6, r7, r8, r9, lr}
 8003b68:	4607      	mov	r7, r0
 8003b6a:	b085      	sub	sp, #20
 8003b6c:	0090      	lsls	r0, r2, #2
 8003b6e:	4688      	mov	r8, r1
 8003b70:	4616      	mov	r6, r2
 8003b72:	4699      	mov	r9, r3
 8003b74:	f000 ff68 	bl	8004a48 <pvPortMalloc>
 8003b78:	4605      	mov	r5, r0
 8003b7a:	b1e8      	cbz	r0, 8003bb8 <xTaskCreate+0x54>
 8003b7c:	20bc      	movs	r0, #188	; 0xbc
 8003b7e:	f000 ff63 	bl	8004a48 <pvPortMalloc>
 8003b82:	4604      	mov	r4, r0
 8003b84:	b1a8      	cbz	r0, 8003bb2 <xTaskCreate+0x4e>
 8003b86:	2300      	movs	r3, #0
 8003b88:	f880 30b9 	strb.w	r3, [r0, #185]	; 0xb9
 8003b8c:	9b0d      	ldr	r3, [sp, #52]	; 0x34
 8003b8e:	6305      	str	r5, [r0, #48]	; 0x30
 8003b90:	9301      	str	r3, [sp, #4]
 8003b92:	9b0c      	ldr	r3, [sp, #48]	; 0x30
 8003b94:	9002      	str	r0, [sp, #8]
 8003b96:	9300      	str	r3, [sp, #0]
 8003b98:	4632      	mov	r2, r6
 8003b9a:	464b      	mov	r3, r9
 8003b9c:	4641      	mov	r1, r8
 8003b9e:	4638      	mov	r0, r7
 8003ba0:	f7ff ff10 	bl	80039c4 <prvInitialiseNewTask.isra.2>
 8003ba4:	4620      	mov	r0, r4
 8003ba6:	f7ff fe2b 	bl	8003800 <prvAddNewTaskToReadyList>
 8003baa:	2001      	movs	r0, #1
 8003bac:	b005      	add	sp, #20
 8003bae:	e8bd 83f0 	ldmia.w	sp!, {r4, r5, r6, r7, r8, r9, pc}
 8003bb2:	4628      	mov	r0, r5
 8003bb4:	f000 ffd4 	bl	8004b60 <vPortFree>
 8003bb8:	f04f 30ff 	mov.w	r0, #4294967295
 8003bbc:	e7f6      	b.n	8003bac <xTaskCreate+0x48>
	...

08003bc0 <vTaskStartScheduler>:
 8003bc0:	b510      	push	{r4, lr}
 8003bc2:	b088      	sub	sp, #32
 8003bc4:	2400      	movs	r4, #0
 8003bc6:	aa07      	add	r2, sp, #28
 8003bc8:	a906      	add	r1, sp, #24
 8003bca:	a805      	add	r0, sp, #20
 8003bcc:	e9cd 4405 	strd	r4, r4, [sp, #20]
 8003bd0:	f7ff f83c 	bl	8002c4c <vApplicationGetIdleTaskMemory>
 8003bd4:	9b05      	ldr	r3, [sp, #20]
 8003bd6:	9302      	str	r3, [sp, #8]
 8003bd8:	9b06      	ldr	r3, [sp, #24]
 8003bda:	9a07      	ldr	r2, [sp, #28]
 8003bdc:	4917      	ldr	r1, [pc, #92]	; (8003c3c <vTaskStartScheduler+0x7c>)
 8003bde:	4818      	ldr	r0, [pc, #96]	; (8003c40 <vTaskStartScheduler+0x80>)
 8003be0:	e9cd 4300 	strd	r4, r3, [sp]
 8003be4:	4623      	mov	r3, r4
 8003be6:	f7ff ff85 	bl	8003af4 <xTaskCreateStatic>
 8003bea:	b1d0      	cbz	r0, 8003c22 <vTaskStartScheduler+0x62>
 8003bec:	f000 fbbe 	bl	800436c <xTimerCreateTimerTask>
 8003bf0:	2801      	cmp	r0, #1
 8003bf2:	d118      	bne.n	8003c26 <vTaskStartScheduler+0x66>
 8003bf4:	f04f 0350 	mov.w	r3, #80	; 0x50
 8003bf8:	f383 8811 	msr	BASEPRI, r3
 8003bfc:	f3bf 8f6f 	isb	sy
 8003c00:	f3bf 8f4f 	dsb	sy
 8003c04:	4b0f      	ldr	r3, [pc, #60]	; (8003c44 <vTaskStartScheduler+0x84>)
 8003c06:	4a10      	ldr	r2, [pc, #64]	; (8003c48 <vTaskStartScheduler+0x88>)
 8003c08:	681b      	ldr	r3, [r3, #0]
 8003c0a:	3354      	adds	r3, #84	; 0x54
 8003c0c:	6013      	str	r3, [r2, #0]
 8003c0e:	4b0f      	ldr	r3, [pc, #60]	; (8003c4c <vTaskStartScheduler+0x8c>)
 8003c10:	f04f 32ff 	mov.w	r2, #4294967295
 8003c14:	601a      	str	r2, [r3, #0]
 8003c16:	4b0e      	ldr	r3, [pc, #56]	; (8003c50 <vTaskStartScheduler+0x90>)
 8003c18:	6018      	str	r0, [r3, #0]
 8003c1a:	4b0e      	ldr	r3, [pc, #56]	; (8003c54 <vTaskStartScheduler+0x94>)
 8003c1c:	601c      	str	r4, [r3, #0]
 8003c1e:	f000 fe51 	bl	80048c4 <xPortStartScheduler>
 8003c22:	b008      	add	sp, #32
 8003c24:	bd10      	pop	{r4, pc}
 8003c26:	3001      	adds	r0, #1
 8003c28:	d1fb      	bne.n	8003c22 <vTaskStartScheduler+0x62>
 8003c2a:	f04f 0350 	mov.w	r3, #80	; 0x50
 8003c2e:	f383 8811 	msr	BASEPRI, r3
 8003c32:	f3bf 8f6f 	isb	sy
 8003c36:	f3bf 8f4f 	dsb	sy
 8003c3a:	e7fe      	b.n	8003c3a <vTaskStartScheduler+0x7a>
 8003c3c:	0800d54c 	.word	0x0800d54c
 8003c40:	0800393d 	.word	0x0800393d
 8003c44:	2000082c 	.word	0x2000082c
 8003c48:	2000001c 	.word	0x2000001c
 8003c4c:	20000cd8 	.word	0x20000cd8
 8003c50:	20000cf4 	.word	0x20000cf4
 8003c54:	20000d20 	.word	0x20000d20

08003c58 <vTaskSuspendAll>:
 8003c58:	4a02      	ldr	r2, [pc, #8]	; (8003c64 <vTaskSuspendAll+0xc>)
 8003c5a:	6813      	ldr	r3, [r2, #0]
 8003c5c:	3301      	adds	r3, #1
 8003c5e:	6013      	str	r3, [r2, #0]
 8003c60:	4770      	bx	lr
 8003c62:	bf00      	nop
 8003c64:	20000ca4 	.word	0x20000ca4

08003c68 <xTaskGetTickCount>:
 8003c68:	4b01      	ldr	r3, [pc, #4]	; (8003c70 <xTaskGetTickCount+0x8>)
 8003c6a:	6818      	ldr	r0, [r3, #0]
 8003c6c:	4770      	bx	lr
 8003c6e:	bf00      	nop
 8003c70:	20000d20 	.word	0x20000d20

08003c74 <xTaskGetTickCountFromISR>:
 8003c74:	b508      	push	{r3, lr}
 8003c76:	f000 fea5 	bl	80049c4 <vPortValidateInterruptPriority>
 8003c7a:	4b01      	ldr	r3, [pc, #4]	; (8003c80 <xTaskGetTickCountFromISR+0xc>)
 8003c7c:	6818      	ldr	r0, [r3, #0]
 8003c7e:	bd08      	pop	{r3, pc}
 8003c80:	20000d20 	.word	0x20000d20

08003c84 <xTaskIncrementTick>:
 8003c84:	e92d 4ff8 	stmdb	sp!, {r3, r4, r5, r6, r7, r8, r9, sl, fp, lr}
 8003c88:	4b3b      	ldr	r3, [pc, #236]	; (8003d78 <xTaskIncrementTick+0xf4>)
 8003c8a:	681b      	ldr	r3, [r3, #0]
 8003c8c:	2b00      	cmp	r3, #0
 8003c8e:	d16c      	bne.n	8003d6a <xTaskIncrementTick+0xe6>
 8003c90:	4b3a      	ldr	r3, [pc, #232]	; (8003d7c <xTaskIncrementTick+0xf8>)
 8003c92:	681c      	ldr	r4, [r3, #0]
 8003c94:	3401      	adds	r4, #1
 8003c96:	601c      	str	r4, [r3, #0]
 8003c98:	b9bc      	cbnz	r4, 8003cca <xTaskIncrementTick+0x46>
 8003c9a:	4b39      	ldr	r3, [pc, #228]	; (8003d80 <xTaskIncrementTick+0xfc>)
 8003c9c:	681a      	ldr	r2, [r3, #0]
 8003c9e:	6812      	ldr	r2, [r2, #0]
 8003ca0:	b142      	cbz	r2, 8003cb4 <xTaskIncrementTick+0x30>
 8003ca2:	f04f 0350 	mov.w	r3, #80	; 0x50
 8003ca6:	f383 8811 	msr	BASEPRI, r3
 8003caa:	f3bf 8f6f 	isb	sy
 8003cae:	f3bf 8f4f 	dsb	sy
 8003cb2:	e7fe      	b.n	8003cb2 <xTaskIncrementTick+0x2e>
 8003cb4:	4a33      	ldr	r2, [pc, #204]	; (8003d84 <xTaskIncrementTick+0x100>)
 8003cb6:	6819      	ldr	r1, [r3, #0]
 8003cb8:	6810      	ldr	r0, [r2, #0]
 8003cba:	6018      	str	r0, [r3, #0]
 8003cbc:	6011      	str	r1, [r2, #0]
 8003cbe:	4a32      	ldr	r2, [pc, #200]	; (8003d88 <xTaskIncrementTick+0x104>)
 8003cc0:	6813      	ldr	r3, [r2, #0]
 8003cc2:	3301      	adds	r3, #1
 8003cc4:	6013      	str	r3, [r2, #0]
 8003cc6:	f7ff fe6b 	bl	80039a0 <prvResetNextTaskUnblockTime>
 8003cca:	4d30      	ldr	r5, [pc, #192]	; (8003d8c <xTaskIncrementTick+0x108>)
 8003ccc:	4f30      	ldr	r7, [pc, #192]	; (8003d90 <xTaskIncrementTick+0x10c>)
 8003cce:	682b      	ldr	r3, [r5, #0]
 8003cd0:	42a3      	cmp	r3, r4
 8003cd2:	f04f 0b00 	mov.w	fp, #0
 8003cd6:	d911      	bls.n	8003cfc <xTaskIncrementTick+0x78>
 8003cd8:	683a      	ldr	r2, [r7, #0]
 8003cda:	4b2e      	ldr	r3, [pc, #184]	; (8003d94 <xTaskIncrementTick+0x110>)
 8003cdc:	6ad1      	ldr	r1, [r2, #44]	; 0x2c
 8003cde:	2214      	movs	r2, #20
 8003ce0:	434a      	muls	r2, r1
 8003ce2:	589a      	ldr	r2, [r3, r2]
 8003ce4:	2a02      	cmp	r2, #2
 8003ce6:	bf28      	it	cs
 8003ce8:	f04f 0b01 	movcs.w	fp, #1
 8003cec:	4a2a      	ldr	r2, [pc, #168]	; (8003d98 <xTaskIncrementTick+0x114>)
 8003cee:	6812      	ldr	r2, [r2, #0]
 8003cf0:	2a00      	cmp	r2, #0
 8003cf2:	bf0c      	ite	eq
 8003cf4:	4658      	moveq	r0, fp
 8003cf6:	2001      	movne	r0, #1
 8003cf8:	e8bd 8ff8 	ldmia.w	sp!, {r3, r4, r5, r6, r7, r8, r9, sl, fp, pc}
 8003cfc:	f8df 9080 	ldr.w	r9, [pc, #128]	; 8003d80 <xTaskIncrementTick+0xfc>
 8003d00:	f8df a09c 	ldr.w	sl, [pc, #156]	; 8003da0 <xTaskIncrementTick+0x11c>
 8003d04:	f8d9 2000 	ldr.w	r2, [r9]
 8003d08:	6812      	ldr	r2, [r2, #0]
 8003d0a:	b91a      	cbnz	r2, 8003d14 <xTaskIncrementTick+0x90>
 8003d0c:	f04f 32ff 	mov.w	r2, #4294967295
 8003d10:	602a      	str	r2, [r5, #0]
 8003d12:	e7e1      	b.n	8003cd8 <xTaskIncrementTick+0x54>
 8003d14:	f8d9 2000 	ldr.w	r2, [r9]
 8003d18:	68d2      	ldr	r2, [r2, #12]
 8003d1a:	68d6      	ldr	r6, [r2, #12]
 8003d1c:	6871      	ldr	r1, [r6, #4]
 8003d1e:	428c      	cmp	r4, r1
 8003d20:	d201      	bcs.n	8003d26 <xTaskIncrementTick+0xa2>
 8003d22:	6029      	str	r1, [r5, #0]
 8003d24:	e7d8      	b.n	8003cd8 <xTaskIncrementTick+0x54>
 8003d26:	f106 0804 	add.w	r8, r6, #4
 8003d2a:	4640      	mov	r0, r8
 8003d2c:	f7fe ffd7 	bl	8002cde <uxListRemove>
 8003d30:	6ab1      	ldr	r1, [r6, #40]	; 0x28
 8003d32:	b119      	cbz	r1, 8003d3c <xTaskIncrementTick+0xb8>
 8003d34:	f106 0018 	add.w	r0, r6, #24
 8003d38:	f7fe ffd1 	bl	8002cde <uxListRemove>
 8003d3c:	6af0      	ldr	r0, [r6, #44]	; 0x2c
 8003d3e:	f8da 1000 	ldr.w	r1, [sl]
 8003d42:	4b14      	ldr	r3, [pc, #80]	; (8003d94 <xTaskIncrementTick+0x110>)
 8003d44:	4288      	cmp	r0, r1
 8003d46:	f04f 0214 	mov.w	r2, #20
 8003d4a:	bf88      	it	hi
 8003d4c:	f8ca 0000 	strhi.w	r0, [sl]
 8003d50:	4641      	mov	r1, r8
 8003d52:	fb02 3000 	mla	r0, r2, r0, r3
 8003d56:	f7fe ff9f 	bl	8002c98 <vListInsertEnd>
 8003d5a:	6838      	ldr	r0, [r7, #0]
 8003d5c:	6af1      	ldr	r1, [r6, #44]	; 0x2c
 8003d5e:	6ac2      	ldr	r2, [r0, #44]	; 0x2c
 8003d60:	4291      	cmp	r1, r2
 8003d62:	bf28      	it	cs
 8003d64:	f04f 0b01 	movcs.w	fp, #1
 8003d68:	e7cc      	b.n	8003d04 <xTaskIncrementTick+0x80>
 8003d6a:	4a0c      	ldr	r2, [pc, #48]	; (8003d9c <xTaskIncrementTick+0x118>)
 8003d6c:	6813      	ldr	r3, [r2, #0]
 8003d6e:	3301      	adds	r3, #1
 8003d70:	6013      	str	r3, [r2, #0]
 8003d72:	f04f 0b00 	mov.w	fp, #0
 8003d76:	e7b9      	b.n	8003cec <xTaskIncrementTick+0x68>
 8003d78:	20000ca4 	.word	0x20000ca4
 8003d7c:	20000d20 	.word	0x20000d20
 8003d80:	20000830 	.word	0x20000830
 8003d84:	20000834 	.word	0x20000834
 8003d88:	20000cdc 	.word	0x20000cdc
 8003d8c:	20000cd8 	.word	0x20000cd8
 8003d90:	2000082c 	.word	0x2000082c
 8003d94:	20000838 	.word	0x20000838
 8003d98:	20000d24 	.word	0x20000d24
 8003d9c:	20000ca0 	.word	0x20000ca0
 8003da0:	20000cac 	.word	0x20000cac

08003da4 <xTaskResumeAll>:
 8003da4:	e92d 41f0 	stmdb	sp!, {r4, r5, r6, r7, r8, lr}
 8003da8:	4c2f      	ldr	r4, [pc, #188]	; (8003e68 <xTaskResumeAll+0xc4>)
 8003daa:	6823      	ldr	r3, [r4, #0]
 8003dac:	b943      	cbnz	r3, 8003dc0 <xTaskResumeAll+0x1c>
 8003dae:	f04f 0350 	mov.w	r3, #80	; 0x50
 8003db2:	f383 8811 	msr	BASEPRI, r3
 8003db6:	f3bf 8f6f 	isb	sy
 8003dba:	f3bf 8f4f 	dsb	sy
 8003dbe:	e7fe      	b.n	8003dbe <xTaskResumeAll+0x1a>
 8003dc0:	f000 fce8 	bl	8004794 <vPortEnterCritical>
 8003dc4:	6823      	ldr	r3, [r4, #0]
 8003dc6:	3b01      	subs	r3, #1
 8003dc8:	6023      	str	r3, [r4, #0]
 8003dca:	6824      	ldr	r4, [r4, #0]
 8003dcc:	b12c      	cbz	r4, 8003dda <xTaskResumeAll+0x36>
 8003dce:	2400      	movs	r4, #0
 8003dd0:	f000 fd02 	bl	80047d8 <vPortExitCritical>
 8003dd4:	4620      	mov	r0, r4
 8003dd6:	e8bd 81f0 	ldmia.w	sp!, {r4, r5, r6, r7, r8, pc}
 8003dda:	4b24      	ldr	r3, [pc, #144]	; (8003e6c <xTaskResumeAll+0xc8>)
 8003ddc:	681b      	ldr	r3, [r3, #0]
 8003dde:	2b00      	cmp	r3, #0
 8003de0:	d0f5      	beq.n	8003dce <xTaskResumeAll+0x2a>
 8003de2:	4d23      	ldr	r5, [pc, #140]	; (8003e70 <xTaskResumeAll+0xcc>)
 8003de4:	4e23      	ldr	r6, [pc, #140]	; (8003e74 <xTaskResumeAll+0xd0>)
 8003de6:	f8df 80a0 	ldr.w	r8, [pc, #160]	; 8003e88 <xTaskResumeAll+0xe4>
 8003dea:	e01d      	b.n	8003e28 <xTaskResumeAll+0x84>
 8003dec:	68eb      	ldr	r3, [r5, #12]
 8003dee:	68dc      	ldr	r4, [r3, #12]
 8003df0:	1d27      	adds	r7, r4, #4
 8003df2:	f104 0018 	add.w	r0, r4, #24
 8003df6:	f7fe ff72 	bl	8002cde <uxListRemove>
 8003dfa:	4638      	mov	r0, r7
 8003dfc:	f7fe ff6f 	bl	8002cde <uxListRemove>
 8003e00:	6ae3      	ldr	r3, [r4, #44]	; 0x2c
 8003e02:	6832      	ldr	r2, [r6, #0]
 8003e04:	2014      	movs	r0, #20
 8003e06:	4293      	cmp	r3, r2
 8003e08:	fb00 8003 	mla	r0, r0, r3, r8
 8003e0c:	4639      	mov	r1, r7
 8003e0e:	bf88      	it	hi
 8003e10:	6033      	strhi	r3, [r6, #0]
 8003e12:	f7fe ff41 	bl	8002c98 <vListInsertEnd>
 8003e16:	4b18      	ldr	r3, [pc, #96]	; (8003e78 <xTaskResumeAll+0xd4>)
 8003e18:	6ae2      	ldr	r2, [r4, #44]	; 0x2c
 8003e1a:	681b      	ldr	r3, [r3, #0]
 8003e1c:	6adb      	ldr	r3, [r3, #44]	; 0x2c
 8003e1e:	429a      	cmp	r2, r3
 8003e20:	d302      	bcc.n	8003e28 <xTaskResumeAll+0x84>
 8003e22:	4b16      	ldr	r3, [pc, #88]	; (8003e7c <xTaskResumeAll+0xd8>)
 8003e24:	2201      	movs	r2, #1
 8003e26:	601a      	str	r2, [r3, #0]
 8003e28:	682b      	ldr	r3, [r5, #0]
 8003e2a:	2b00      	cmp	r3, #0
 8003e2c:	d1de      	bne.n	8003dec <xTaskResumeAll+0x48>
 8003e2e:	b10c      	cbz	r4, 8003e34 <xTaskResumeAll+0x90>
 8003e30:	f7ff fdb6 	bl	80039a0 <prvResetNextTaskUnblockTime>
 8003e34:	4d12      	ldr	r5, [pc, #72]	; (8003e80 <xTaskResumeAll+0xdc>)
 8003e36:	682c      	ldr	r4, [r5, #0]
 8003e38:	b144      	cbz	r4, 8003e4c <xTaskResumeAll+0xa8>
 8003e3a:	4e10      	ldr	r6, [pc, #64]	; (8003e7c <xTaskResumeAll+0xd8>)
 8003e3c:	2701      	movs	r7, #1
 8003e3e:	f7ff ff21 	bl	8003c84 <xTaskIncrementTick>
 8003e42:	b100      	cbz	r0, 8003e46 <xTaskResumeAll+0xa2>
 8003e44:	6037      	str	r7, [r6, #0]
 8003e46:	3c01      	subs	r4, #1
 8003e48:	d1f9      	bne.n	8003e3e <xTaskResumeAll+0x9a>
 8003e4a:	602c      	str	r4, [r5, #0]
 8003e4c:	4b0b      	ldr	r3, [pc, #44]	; (8003e7c <xTaskResumeAll+0xd8>)
 8003e4e:	681b      	ldr	r3, [r3, #0]
 8003e50:	2b00      	cmp	r3, #0
 8003e52:	d0bc      	beq.n	8003dce <xTaskResumeAll+0x2a>
 8003e54:	4b0b      	ldr	r3, [pc, #44]	; (8003e84 <xTaskResumeAll+0xe0>)
 8003e56:	f04f 5280 	mov.w	r2, #268435456	; 0x10000000
 8003e5a:	601a      	str	r2, [r3, #0]
 8003e5c:	f3bf 8f4f 	dsb	sy
 8003e60:	f3bf 8f6f 	isb	sy
 8003e64:	2401      	movs	r4, #1
 8003e66:	e7b3      	b.n	8003dd0 <xTaskResumeAll+0x2c>
 8003e68:	20000ca4 	.word	0x20000ca4
 8003e6c:	20000c98 	.word	0x20000c98
 8003e70:	20000ce0 	.word	0x20000ce0
 8003e74:	20000cac 	.word	0x20000cac
 8003e78:	2000082c 	.word	0x2000082c
 8003e7c:	20000d24 	.word	0x20000d24
 8003e80:	20000ca0 	.word	0x20000ca0
 8003e84:	e000ed04 	.word	0xe000ed04
 8003e88:	20000838 	.word	0x20000838

08003e8c <vTaskDelay>:
 8003e8c:	b508      	push	{r3, lr}
 8003e8e:	b940      	cbnz	r0, 8003ea2 <vTaskDelay+0x16>
 8003e90:	4b0e      	ldr	r3, [pc, #56]	; (8003ecc <vTaskDelay+0x40>)
 8003e92:	f04f 5280 	mov.w	r2, #268435456	; 0x10000000
 8003e96:	601a      	str	r2, [r3, #0]
 8003e98:	f3bf 8f4f 	dsb	sy
 8003e9c:	f3bf 8f6f 	isb	sy
 8003ea0:	bd08      	pop	{r3, pc}
 8003ea2:	4b0b      	ldr	r3, [pc, #44]	; (8003ed0 <vTaskDelay+0x44>)
 8003ea4:	6819      	ldr	r1, [r3, #0]
 8003ea6:	b141      	cbz	r1, 8003eba <vTaskDelay+0x2e>
 8003ea8:	f04f 0350 	mov.w	r3, #80	; 0x50
 8003eac:	f383 8811 	msr	BASEPRI, r3
 8003eb0:	f3bf 8f6f 	isb	sy
 8003eb4:	f3bf 8f4f 	dsb	sy
 8003eb8:	e7fe      	b.n	8003eb8 <vTaskDelay+0x2c>
 8003eba:	f7ff fecd 	bl	8003c58 <vTaskSuspendAll>
 8003ebe:	f7ff fddf 	bl	8003a80 <prvAddCurrentTaskToDelayedList>
 8003ec2:	f7ff ff6f 	bl	8003da4 <xTaskResumeAll>
 8003ec6:	2800      	cmp	r0, #0
 8003ec8:	d0e2      	beq.n	8003e90 <vTaskDelay+0x4>
 8003eca:	e7e9      	b.n	8003ea0 <vTaskDelay+0x14>
 8003ecc:	e000ed04 	.word	0xe000ed04
 8003ed0:	20000ca4 	.word	0x20000ca4

08003ed4 <vTaskSwitchContext>:
 8003ed4:	4b1a      	ldr	r3, [pc, #104]	; (8003f40 <vTaskSwitchContext+0x6c>)
 8003ed6:	681a      	ldr	r2, [r3, #0]
 8003ed8:	4b1a      	ldr	r3, [pc, #104]	; (8003f44 <vTaskSwitchContext+0x70>)
 8003eda:	b5f0      	push	{r4, r5, r6, r7, lr}
 8003edc:	b112      	cbz	r2, 8003ee4 <vTaskSwitchContext+0x10>
 8003ede:	2201      	movs	r2, #1
 8003ee0:	601a      	str	r2, [r3, #0]
 8003ee2:	bdf0      	pop	{r4, r5, r6, r7, pc}
 8003ee4:	4d18      	ldr	r5, [pc, #96]	; (8003f48 <vTaskSwitchContext+0x74>)
 8003ee6:	601a      	str	r2, [r3, #0]
 8003ee8:	4a18      	ldr	r2, [pc, #96]	; (8003f4c <vTaskSwitchContext+0x78>)
 8003eea:	682b      	ldr	r3, [r5, #0]
 8003eec:	2714      	movs	r7, #20
 8003eee:	4616      	mov	r6, r2
 8003ef0:	fb07 f103 	mul.w	r1, r7, r3
 8003ef4:	1850      	adds	r0, r2, r1
 8003ef6:	5854      	ldr	r4, [r2, r1]
 8003ef8:	b1ac      	cbz	r4, 8003f26 <vTaskSwitchContext+0x52>
 8003efa:	6844      	ldr	r4, [r0, #4]
 8003efc:	3108      	adds	r1, #8
 8003efe:	6864      	ldr	r4, [r4, #4]
 8003f00:	6044      	str	r4, [r0, #4]
 8003f02:	440a      	add	r2, r1
 8003f04:	4294      	cmp	r4, r2
 8003f06:	bf04      	itt	eq
 8003f08:	6862      	ldreq	r2, [r4, #4]
 8003f0a:	6042      	streq	r2, [r0, #4]
 8003f0c:	2214      	movs	r2, #20
 8003f0e:	fb02 6203 	mla	r2, r2, r3, r6
 8003f12:	6852      	ldr	r2, [r2, #4]
 8003f14:	68d1      	ldr	r1, [r2, #12]
 8003f16:	4a0e      	ldr	r2, [pc, #56]	; (8003f50 <vTaskSwitchContext+0x7c>)
 8003f18:	6011      	str	r1, [r2, #0]
 8003f1a:	602b      	str	r3, [r5, #0]
 8003f1c:	6813      	ldr	r3, [r2, #0]
 8003f1e:	4a0d      	ldr	r2, [pc, #52]	; (8003f54 <vTaskSwitchContext+0x80>)
 8003f20:	3354      	adds	r3, #84	; 0x54
 8003f22:	6013      	str	r3, [r2, #0]
 8003f24:	e7dd      	b.n	8003ee2 <vTaskSwitchContext+0xe>
 8003f26:	b943      	cbnz	r3, 8003f3a <vTaskSwitchContext+0x66>
 8003f28:	f04f 0350 	mov.w	r3, #80	; 0x50
 8003f2c:	f383 8811 	msr	BASEPRI, r3
 8003f30:	f3bf 8f6f 	isb	sy
 8003f34:	f3bf 8f4f 	dsb	sy
 8003f38:	e7fe      	b.n	8003f38 <vTaskSwitchContext+0x64>
 8003f3a:	3b01      	subs	r3, #1
 8003f3c:	e7d8      	b.n	8003ef0 <vTaskSwitchContext+0x1c>
 8003f3e:	bf00      	nop
 8003f40:	20000ca4 	.word	0x20000ca4
 8003f44:	20000d24 	.word	0x20000d24
 8003f48:	20000cac 	.word	0x20000cac
 8003f4c:	20000838 	.word	0x20000838
 8003f50:	2000082c 	.word	0x2000082c
 8003f54:	2000001c 	.word	0x2000001c

08003f58 <vTaskPlaceOnEventList>:
 8003f58:	b510      	push	{r4, lr}
 8003f5a:	460c      	mov	r4, r1
 8003f5c:	b940      	cbnz	r0, 8003f70 <vTaskPlaceOnEventList+0x18>
 8003f5e:	f04f 0350 	mov.w	r3, #80	; 0x50
 8003f62:	f383 8811 	msr	BASEPRI, r3
 8003f66:	f3bf 8f6f 	isb	sy
 8003f6a:	f3bf 8f4f 	dsb	sy
 8003f6e:	e7fe      	b.n	8003f6e <vTaskPlaceOnEventList+0x16>
 8003f70:	4b05      	ldr	r3, [pc, #20]	; (8003f88 <vTaskPlaceOnEventList+0x30>)
 8003f72:	6819      	ldr	r1, [r3, #0]
 8003f74:	3118      	adds	r1, #24
 8003f76:	f7fe fe9b 	bl	8002cb0 <vListInsert>
 8003f7a:	4620      	mov	r0, r4
 8003f7c:	2101      	movs	r1, #1
 8003f7e:	e8bd 4010 	ldmia.w	sp!, {r4, lr}
 8003f82:	f7ff bd7d 	b.w	8003a80 <prvAddCurrentTaskToDelayedList>
 8003f86:	bf00      	nop
 8003f88:	2000082c 	.word	0x2000082c

08003f8c <vTaskPlaceOnEventListRestricted>:
 8003f8c:	b538      	push	{r3, r4, r5, lr}
 8003f8e:	460d      	mov	r5, r1
 8003f90:	4614      	mov	r4, r2
 8003f92:	b940      	cbnz	r0, 8003fa6 <vTaskPlaceOnEventListRestricted+0x1a>
 8003f94:	f04f 0350 	mov.w	r3, #80	; 0x50
 8003f98:	f383 8811 	msr	BASEPRI, r3
 8003f9c:	f3bf 8f6f 	isb	sy
 8003fa0:	f3bf 8f4f 	dsb	sy
 8003fa4:	e7fe      	b.n	8003fa4 <vTaskPlaceOnEventListRestricted+0x18>
 8003fa6:	4b07      	ldr	r3, [pc, #28]	; (8003fc4 <vTaskPlaceOnEventListRestricted+0x38>)
 8003fa8:	6819      	ldr	r1, [r3, #0]
 8003faa:	3118      	adds	r1, #24
 8003fac:	f7fe fe74 	bl	8002c98 <vListInsertEnd>
 8003fb0:	2c00      	cmp	r4, #0
 8003fb2:	4621      	mov	r1, r4
 8003fb4:	bf0c      	ite	eq
 8003fb6:	4628      	moveq	r0, r5
 8003fb8:	f04f 30ff 	movne.w	r0, #4294967295
 8003fbc:	e8bd 4038 	ldmia.w	sp!, {r3, r4, r5, lr}
 8003fc0:	f7ff bd5e 	b.w	8003a80 <prvAddCurrentTaskToDelayedList>
 8003fc4:	2000082c 	.word	0x2000082c

08003fc8 <xTaskRemoveFromEventList>:
 8003fc8:	b538      	push	{r3, r4, r5, lr}
 8003fca:	68c3      	ldr	r3, [r0, #12]
 8003fcc:	68dc      	ldr	r4, [r3, #12]
 8003fce:	b944      	cbnz	r4, 8003fe2 <xTaskRemoveFromEventList+0x1a>
 8003fd0:	f04f 0350 	mov.w	r3, #80	; 0x50
 8003fd4:	f383 8811 	msr	BASEPRI, r3
 8003fd8:	f3bf 8f6f 	isb	sy
 8003fdc:	f3bf 8f4f 	dsb	sy
 8003fe0:	e7fe      	b.n	8003fe0 <xTaskRemoveFromEventList+0x18>
 8003fe2:	f104 0518 	add.w	r5, r4, #24
 8003fe6:	4628      	mov	r0, r5
 8003fe8:	f7fe fe79 	bl	8002cde <uxListRemove>
 8003fec:	4b10      	ldr	r3, [pc, #64]	; (8004030 <xTaskRemoveFromEventList+0x68>)
 8003fee:	681b      	ldr	r3, [r3, #0]
 8003ff0:	b9db      	cbnz	r3, 800402a <xTaskRemoveFromEventList+0x62>
 8003ff2:	1d25      	adds	r5, r4, #4
 8003ff4:	4628      	mov	r0, r5
 8003ff6:	f7fe fe72 	bl	8002cde <uxListRemove>
 8003ffa:	4a0e      	ldr	r2, [pc, #56]	; (8004034 <xTaskRemoveFromEventList+0x6c>)
 8003ffc:	6ae3      	ldr	r3, [r4, #44]	; 0x2c
 8003ffe:	6811      	ldr	r1, [r2, #0]
 8004000:	428b      	cmp	r3, r1
 8004002:	bf88      	it	hi
 8004004:	6013      	strhi	r3, [r2, #0]
 8004006:	4a0c      	ldr	r2, [pc, #48]	; (8004038 <xTaskRemoveFromEventList+0x70>)
 8004008:	2014      	movs	r0, #20
 800400a:	4629      	mov	r1, r5
 800400c:	fb00 2003 	mla	r0, r0, r3, r2
 8004010:	f7fe fe42 	bl	8002c98 <vListInsertEnd>
 8004014:	4b09      	ldr	r3, [pc, #36]	; (800403c <xTaskRemoveFromEventList+0x74>)
 8004016:	6ae2      	ldr	r2, [r4, #44]	; 0x2c
 8004018:	681b      	ldr	r3, [r3, #0]
 800401a:	6adb      	ldr	r3, [r3, #44]	; 0x2c
 800401c:	429a      	cmp	r2, r3
 800401e:	bf83      	ittte	hi
 8004020:	4b07      	ldrhi	r3, [pc, #28]	; (8004040 <xTaskRemoveFromEventList+0x78>)
 8004022:	2001      	movhi	r0, #1
 8004024:	6018      	strhi	r0, [r3, #0]
 8004026:	2000      	movls	r0, #0
 8004028:	bd38      	pop	{r3, r4, r5, pc}
 800402a:	4629      	mov	r1, r5
 800402c:	4805      	ldr	r0, [pc, #20]	; (8004044 <xTaskRemoveFromEventList+0x7c>)
 800402e:	e7ef      	b.n	8004010 <xTaskRemoveFromEventList+0x48>
 8004030:	20000ca4 	.word	0x20000ca4
 8004034:	20000cac 	.word	0x20000cac
 8004038:	20000838 	.word	0x20000838
 800403c:	2000082c 	.word	0x2000082c
 8004040:	20000d24 	.word	0x20000d24
 8004044:	20000ce0 	.word	0x20000ce0

08004048 <vTaskInternalSetTimeOutState>:
 8004048:	4b03      	ldr	r3, [pc, #12]	; (8004058 <vTaskInternalSetTimeOutState+0x10>)
 800404a:	681b      	ldr	r3, [r3, #0]
 800404c:	6003      	str	r3, [r0, #0]
 800404e:	4b03      	ldr	r3, [pc, #12]	; (800405c <vTaskInternalSetTimeOutState+0x14>)
 8004050:	681b      	ldr	r3, [r3, #0]
 8004052:	6043      	str	r3, [r0, #4]
 8004054:	4770      	bx	lr
 8004056:	bf00      	nop
 8004058:	20000cdc 	.word	0x20000cdc
 800405c:	20000d20 	.word	0x20000d20

08004060 <xTaskCheckForTimeOut>:
 8004060:	b5f8      	push	{r3, r4, r5, r6, r7, lr}
 8004062:	460c      	mov	r4, r1
 8004064:	4605      	mov	r5, r0
 8004066:	b940      	cbnz	r0, 800407a <xTaskCheckForTimeOut+0x1a>
 8004068:	f04f 0350 	mov.w	r3, #80	; 0x50
 800406c:	f383 8811 	msr	BASEPRI, r3
 8004070:	f3bf 8f6f 	isb	sy
 8004074:	f3bf 8f4f 	dsb	sy
 8004078:	e7fe      	b.n	8004078 <xTaskCheckForTimeOut+0x18>
 800407a:	b941      	cbnz	r1, 800408e <xTaskCheckForTimeOut+0x2e>
 800407c:	f04f 0350 	mov.w	r3, #80	; 0x50
 8004080:	f383 8811 	msr	BASEPRI, r3
 8004084:	f3bf 8f6f 	isb	sy
 8004088:	f3bf 8f4f 	dsb	sy
 800408c:	e7fe      	b.n	800408c <xTaskCheckForTimeOut+0x2c>
 800408e:	f000 fb81 	bl	8004794 <vPortEnterCritical>
 8004092:	4b0f      	ldr	r3, [pc, #60]	; (80040d0 <xTaskCheckForTimeOut+0x70>)
 8004094:	6868      	ldr	r0, [r5, #4]
 8004096:	6819      	ldr	r1, [r3, #0]
 8004098:	6823      	ldr	r3, [r4, #0]
 800409a:	1c5e      	adds	r6, r3, #1
 800409c:	eba1 0200 	sub.w	r2, r1, r0
 80040a0:	d00d      	beq.n	80040be <xTaskCheckForTimeOut+0x5e>
 80040a2:	4e0c      	ldr	r6, [pc, #48]	; (80040d4 <xTaskCheckForTimeOut+0x74>)
 80040a4:	682f      	ldr	r7, [r5, #0]
 80040a6:	6836      	ldr	r6, [r6, #0]
 80040a8:	42b7      	cmp	r7, r6
 80040aa:	d001      	beq.n	80040b0 <xTaskCheckForTimeOut+0x50>
 80040ac:	4288      	cmp	r0, r1
 80040ae:	d90d      	bls.n	80040cc <xTaskCheckForTimeOut+0x6c>
 80040b0:	4293      	cmp	r3, r2
 80040b2:	d909      	bls.n	80040c8 <xTaskCheckForTimeOut+0x68>
 80040b4:	1a9b      	subs	r3, r3, r2
 80040b6:	6023      	str	r3, [r4, #0]
 80040b8:	4628      	mov	r0, r5
 80040ba:	f7ff ffc5 	bl	8004048 <vTaskInternalSetTimeOutState>
 80040be:	2400      	movs	r4, #0
 80040c0:	f000 fb8a 	bl	80047d8 <vPortExitCritical>
 80040c4:	4620      	mov	r0, r4
 80040c6:	bdf8      	pop	{r3, r4, r5, r6, r7, pc}
 80040c8:	2300      	movs	r3, #0
 80040ca:	6023      	str	r3, [r4, #0]
 80040cc:	2401      	movs	r4, #1
 80040ce:	e7f7      	b.n	80040c0 <xTaskCheckForTimeOut+0x60>
 80040d0:	20000d20 	.word	0x20000d20
 80040d4:	20000cdc 	.word	0x20000cdc

080040d8 <vTaskMissedYield>:
 80040d8:	4b01      	ldr	r3, [pc, #4]	; (80040e0 <vTaskMissedYield+0x8>)
 80040da:	2201      	movs	r2, #1
 80040dc:	601a      	str	r2, [r3, #0]
 80040de:	4770      	bx	lr
 80040e0:	20000d24 	.word	0x20000d24

080040e4 <xTaskGetCurrentTaskHandle>:
 80040e4:	4b01      	ldr	r3, [pc, #4]	; (80040ec <xTaskGetCurrentTaskHandle+0x8>)
 80040e6:	6818      	ldr	r0, [r3, #0]
 80040e8:	4770      	bx	lr
 80040ea:	bf00      	nop
 80040ec:	2000082c 	.word	0x2000082c

080040f0 <xTaskGetSchedulerState>:
 80040f0:	4b05      	ldr	r3, [pc, #20]	; (8004108 <xTaskGetSchedulerState+0x18>)
 80040f2:	681b      	ldr	r3, [r3, #0]
 80040f4:	b133      	cbz	r3, 8004104 <xTaskGetSchedulerState+0x14>
 80040f6:	4b05      	ldr	r3, [pc, #20]	; (800410c <xTaskGetSchedulerState+0x1c>)
 80040f8:	681b      	ldr	r3, [r3, #0]
 80040fa:	2b00      	cmp	r3, #0
 80040fc:	bf0c      	ite	eq
 80040fe:	2002      	moveq	r0, #2
 8004100:	2000      	movne	r0, #0
 8004102:	4770      	bx	lr
 8004104:	2001      	movs	r0, #1
 8004106:	4770      	bx	lr
 8004108:	20000cf4 	.word	0x20000cf4
 800410c:	20000ca4 	.word	0x20000ca4

08004110 <xTaskPriorityInherit>:
 8004110:	b5f8      	push	{r3, r4, r5, r6, r7, lr}
 8004112:	4604      	mov	r4, r0
 8004114:	b340      	cbz	r0, 8004168 <xTaskPriorityInherit+0x58>
 8004116:	4a1b      	ldr	r2, [pc, #108]	; (8004184 <xTaskPriorityInherit+0x74>)
 8004118:	6ac3      	ldr	r3, [r0, #44]	; 0x2c
 800411a:	6811      	ldr	r1, [r2, #0]
 800411c:	6ac9      	ldr	r1, [r1, #44]	; 0x2c
 800411e:	428b      	cmp	r3, r1
 8004120:	4616      	mov	r6, r2
 8004122:	d226      	bcs.n	8004172 <xTaskPriorityInherit+0x62>
 8004124:	6982      	ldr	r2, [r0, #24]
 8004126:	4d18      	ldr	r5, [pc, #96]	; (8004188 <xTaskPriorityInherit+0x78>)
 8004128:	2a00      	cmp	r2, #0
 800412a:	bfa1      	itttt	ge
 800412c:	6832      	ldrge	r2, [r6, #0]
 800412e:	6ad2      	ldrge	r2, [r2, #44]	; 0x2c
 8004130:	f1c2 0238 	rsbge	r2, r2, #56	; 0x38
 8004134:	6182      	strge	r2, [r0, #24]
 8004136:	2214      	movs	r2, #20
 8004138:	fb02 5303 	mla	r3, r2, r3, r5
 800413c:	6942      	ldr	r2, [r0, #20]
 800413e:	429a      	cmp	r2, r3
 8004140:	d113      	bne.n	800416a <xTaskPriorityInherit+0x5a>
 8004142:	1d07      	adds	r7, r0, #4
 8004144:	4638      	mov	r0, r7
 8004146:	f7fe fdca 	bl	8002cde <uxListRemove>
 800414a:	6833      	ldr	r3, [r6, #0]
 800414c:	4a0f      	ldr	r2, [pc, #60]	; (800418c <xTaskPriorityInherit+0x7c>)
 800414e:	6adb      	ldr	r3, [r3, #44]	; 0x2c
 8004150:	6811      	ldr	r1, [r2, #0]
 8004152:	62e3      	str	r3, [r4, #44]	; 0x2c
 8004154:	2014      	movs	r0, #20
 8004156:	428b      	cmp	r3, r1
 8004158:	fb00 5003 	mla	r0, r0, r3, r5
 800415c:	4639      	mov	r1, r7
 800415e:	bf88      	it	hi
 8004160:	6013      	strhi	r3, [r2, #0]
 8004162:	f7fe fd99 	bl	8002c98 <vListInsertEnd>
 8004166:	2001      	movs	r0, #1
 8004168:	bdf8      	pop	{r3, r4, r5, r6, r7, pc}
 800416a:	6833      	ldr	r3, [r6, #0]
 800416c:	6adb      	ldr	r3, [r3, #44]	; 0x2c
 800416e:	62c3      	str	r3, [r0, #44]	; 0x2c
 8004170:	e7f9      	b.n	8004166 <xTaskPriorityInherit+0x56>
 8004172:	6813      	ldr	r3, [r2, #0]
 8004174:	6cc0      	ldr	r0, [r0, #76]	; 0x4c
 8004176:	6adc      	ldr	r4, [r3, #44]	; 0x2c
 8004178:	42a0      	cmp	r0, r4
 800417a:	bf2c      	ite	cs
 800417c:	2000      	movcs	r0, #0
 800417e:	2001      	movcc	r0, #1
 8004180:	e7f2      	b.n	8004168 <xTaskPriorityInherit+0x58>
 8004182:	bf00      	nop
 8004184:	2000082c 	.word	0x2000082c
 8004188:	20000838 	.word	0x20000838
 800418c:	20000cac 	.word	0x20000cac

08004190 <xTaskPriorityDisinherit>:
 8004190:	b538      	push	{r3, r4, r5, lr}
 8004192:	b908      	cbnz	r0, 8004198 <xTaskPriorityDisinherit+0x8>
 8004194:	2000      	movs	r0, #0
 8004196:	bd38      	pop	{r3, r4, r5, pc}
 8004198:	4b1b      	ldr	r3, [pc, #108]	; (8004208 <xTaskPriorityDisinherit+0x78>)
 800419a:	681c      	ldr	r4, [r3, #0]
 800419c:	4284      	cmp	r4, r0
 800419e:	d008      	beq.n	80041b2 <xTaskPriorityDisinherit+0x22>
 80041a0:	f04f 0350 	mov.w	r3, #80	; 0x50
 80041a4:	f383 8811 	msr	BASEPRI, r3
 80041a8:	f3bf 8f6f 	isb	sy
 80041ac:	f3bf 8f4f 	dsb	sy
 80041b0:	e7fe      	b.n	80041b0 <xTaskPriorityDisinherit+0x20>
 80041b2:	6d23      	ldr	r3, [r4, #80]	; 0x50
 80041b4:	b943      	cbnz	r3, 80041c8 <xTaskPriorityDisinherit+0x38>
 80041b6:	f04f 0350 	mov.w	r3, #80	; 0x50
 80041ba:	f383 8811 	msr	BASEPRI, r3
 80041be:	f3bf 8f6f 	isb	sy
 80041c2:	f3bf 8f4f 	dsb	sy
 80041c6:	e7fe      	b.n	80041c6 <xTaskPriorityDisinherit+0x36>
 80041c8:	6ae1      	ldr	r1, [r4, #44]	; 0x2c
 80041ca:	6ce2      	ldr	r2, [r4, #76]	; 0x4c
 80041cc:	3b01      	subs	r3, #1
 80041ce:	4291      	cmp	r1, r2
 80041d0:	6523      	str	r3, [r4, #80]	; 0x50
 80041d2:	d0df      	beq.n	8004194 <xTaskPriorityDisinherit+0x4>
 80041d4:	2b00      	cmp	r3, #0
 80041d6:	d1dd      	bne.n	8004194 <xTaskPriorityDisinherit+0x4>
 80041d8:	1d25      	adds	r5, r4, #4
 80041da:	4628      	mov	r0, r5
 80041dc:	f7fe fd7f 	bl	8002cde <uxListRemove>
 80041e0:	6ce3      	ldr	r3, [r4, #76]	; 0x4c
 80041e2:	62e3      	str	r3, [r4, #44]	; 0x2c
 80041e4:	f1c3 0238 	rsb	r2, r3, #56	; 0x38
 80041e8:	61a2      	str	r2, [r4, #24]
 80041ea:	4a08      	ldr	r2, [pc, #32]	; (800420c <xTaskPriorityDisinherit+0x7c>)
 80041ec:	6811      	ldr	r1, [r2, #0]
 80041ee:	428b      	cmp	r3, r1
 80041f0:	bf88      	it	hi
 80041f2:	6013      	strhi	r3, [r2, #0]
 80041f4:	4a06      	ldr	r2, [pc, #24]	; (8004210 <xTaskPriorityDisinherit+0x80>)
 80041f6:	2014      	movs	r0, #20
 80041f8:	fb00 2003 	mla	r0, r0, r3, r2
 80041fc:	4629      	mov	r1, r5
 80041fe:	f7fe fd4b 	bl	8002c98 <vListInsertEnd>
 8004202:	2001      	movs	r0, #1
 8004204:	e7c7      	b.n	8004196 <xTaskPriorityDisinherit+0x6>
 8004206:	bf00      	nop
 8004208:	2000082c 	.word	0x2000082c
 800420c:	20000cac 	.word	0x20000cac
 8004210:	20000838 	.word	0x20000838

08004214 <vTaskPriorityDisinheritAfterTimeout>:
 8004214:	b570      	push	{r4, r5, r6, lr}
 8004216:	4604      	mov	r4, r0
 8004218:	2800      	cmp	r0, #0
 800421a:	d041      	beq.n	80042a0 <vTaskPriorityDisinheritAfterTimeout+0x8c>
 800421c:	6d02      	ldr	r2, [r0, #80]	; 0x50
 800421e:	b942      	cbnz	r2, 8004232 <vTaskPriorityDisinheritAfterTimeout+0x1e>
 8004220:	f04f 0350 	mov.w	r3, #80	; 0x50
 8004224:	f383 8811 	msr	BASEPRI, r3
 8004228:	f3bf 8f6f 	isb	sy
 800422c:	f3bf 8f4f 	dsb	sy
 8004230:	e7fe      	b.n	8004230 <vTaskPriorityDisinheritAfterTimeout+0x1c>
 8004232:	6cc3      	ldr	r3, [r0, #76]	; 0x4c
 8004234:	4299      	cmp	r1, r3
 8004236:	bf38      	it	cc
 8004238:	4619      	movcc	r1, r3
 800423a:	6ac3      	ldr	r3, [r0, #44]	; 0x2c
 800423c:	428b      	cmp	r3, r1
 800423e:	d02f      	beq.n	80042a0 <vTaskPriorityDisinheritAfterTimeout+0x8c>
 8004240:	2a01      	cmp	r2, #1
 8004242:	d12d      	bne.n	80042a0 <vTaskPriorityDisinheritAfterTimeout+0x8c>
 8004244:	4a17      	ldr	r2, [pc, #92]	; (80042a4 <vTaskPriorityDisinheritAfterTimeout+0x90>)
 8004246:	6812      	ldr	r2, [r2, #0]
 8004248:	4282      	cmp	r2, r0
 800424a:	d108      	bne.n	800425e <vTaskPriorityDisinheritAfterTimeout+0x4a>
 800424c:	f04f 0350 	mov.w	r3, #80	; 0x50
 8004250:	f383 8811 	msr	BASEPRI, r3
 8004254:	f3bf 8f6f 	isb	sy
 8004258:	f3bf 8f4f 	dsb	sy
 800425c:	e7fe      	b.n	800425c <vTaskPriorityDisinheritAfterTimeout+0x48>
 800425e:	6982      	ldr	r2, [r0, #24]
 8004260:	4d11      	ldr	r5, [pc, #68]	; (80042a8 <vTaskPriorityDisinheritAfterTimeout+0x94>)
 8004262:	62c1      	str	r1, [r0, #44]	; 0x2c
 8004264:	2a00      	cmp	r2, #0
 8004266:	f04f 0214 	mov.w	r2, #20
 800426a:	fb02 5303 	mla	r3, r2, r3, r5
 800426e:	6942      	ldr	r2, [r0, #20]
 8004270:	bfa4      	itt	ge
 8004272:	f1c1 0138 	rsbge	r1, r1, #56	; 0x38
 8004276:	6181      	strge	r1, [r0, #24]
 8004278:	429a      	cmp	r2, r3
 800427a:	d111      	bne.n	80042a0 <vTaskPriorityDisinheritAfterTimeout+0x8c>
 800427c:	1d06      	adds	r6, r0, #4
 800427e:	4630      	mov	r0, r6
 8004280:	f7fe fd2d 	bl	8002cde <uxListRemove>
 8004284:	4a09      	ldr	r2, [pc, #36]	; (80042ac <vTaskPriorityDisinheritAfterTimeout+0x98>)
 8004286:	6ae3      	ldr	r3, [r4, #44]	; 0x2c
 8004288:	6811      	ldr	r1, [r2, #0]
 800428a:	2014      	movs	r0, #20
 800428c:	428b      	cmp	r3, r1
 800428e:	fb00 5003 	mla	r0, r0, r3, r5
 8004292:	4631      	mov	r1, r6
 8004294:	e8bd 4070 	ldmia.w	sp!, {r4, r5, r6, lr}
 8004298:	bf88      	it	hi
 800429a:	6013      	strhi	r3, [r2, #0]
 800429c:	f7fe bcfc 	b.w	8002c98 <vListInsertEnd>
 80042a0:	bd70      	pop	{r4, r5, r6, pc}
 80042a2:	bf00      	nop
 80042a4:	2000082c 	.word	0x2000082c
 80042a8:	20000838 	.word	0x20000838
 80042ac:	20000cac 	.word	0x20000cac

080042b0 <pvTaskIncrementMutexHeldCount>:
 80042b0:	4b04      	ldr	r3, [pc, #16]	; (80042c4 <pvTaskIncrementMutexHeldCount+0x14>)
 80042b2:	681a      	ldr	r2, [r3, #0]
 80042b4:	b11a      	cbz	r2, 80042be <pvTaskIncrementMutexHeldCount+0xe>
 80042b6:	6819      	ldr	r1, [r3, #0]
 80042b8:	6d0a      	ldr	r2, [r1, #80]	; 0x50
 80042ba:	3201      	adds	r2, #1
 80042bc:	650a      	str	r2, [r1, #80]	; 0x50
 80042be:	6818      	ldr	r0, [r3, #0]
 80042c0:	4770      	bx	lr
 80042c2:	bf00      	nop
 80042c4:	2000082c 	.word	0x2000082c

080042c8 <prvCheckForValidListAndQueue>:
 80042c8:	b5f7      	push	{r0, r1, r2, r4, r5, r6, r7, lr}
 80042ca:	4c11      	ldr	r4, [pc, #68]	; (8004310 <prvCheckForValidListAndQueue+0x48>)
 80042cc:	f000 fa62 	bl	8004794 <vPortEnterCritical>
 80042d0:	6825      	ldr	r5, [r4, #0]
 80042d2:	b9bd      	cbnz	r5, 8004304 <prvCheckForValidListAndQueue+0x3c>
 80042d4:	4f0f      	ldr	r7, [pc, #60]	; (8004314 <prvCheckForValidListAndQueue+0x4c>)
 80042d6:	4e10      	ldr	r6, [pc, #64]	; (8004318 <prvCheckForValidListAndQueue+0x50>)
 80042d8:	4638      	mov	r0, r7
 80042da:	f7fe fccf 	bl	8002c7c <vListInitialise>
 80042de:	4630      	mov	r0, r6
 80042e0:	f7fe fccc 	bl	8002c7c <vListInitialise>
 80042e4:	4b0d      	ldr	r3, [pc, #52]	; (800431c <prvCheckForValidListAndQueue+0x54>)
 80042e6:	4a0e      	ldr	r2, [pc, #56]	; (8004320 <prvCheckForValidListAndQueue+0x58>)
 80042e8:	601f      	str	r7, [r3, #0]
 80042ea:	4b0e      	ldr	r3, [pc, #56]	; (8004324 <prvCheckForValidListAndQueue+0x5c>)
 80042ec:	2110      	movs	r1, #16
 80042ee:	601e      	str	r6, [r3, #0]
 80042f0:	200a      	movs	r0, #10
 80042f2:	9500      	str	r5, [sp, #0]
 80042f4:	4b0c      	ldr	r3, [pc, #48]	; (8004328 <prvCheckForValidListAndQueue+0x60>)
 80042f6:	f7fe fdcf 	bl	8002e98 <xQueueGenericCreateStatic>
 80042fa:	6020      	str	r0, [r4, #0]
 80042fc:	b110      	cbz	r0, 8004304 <prvCheckForValidListAndQueue+0x3c>
 80042fe:	490b      	ldr	r1, [pc, #44]	; (800432c <prvCheckForValidListAndQueue+0x64>)
 8004300:	f7ff fa1e 	bl	8003740 <vQueueAddToRegistry>
 8004304:	b003      	add	sp, #12
 8004306:	e8bd 40f0 	ldmia.w	sp!, {r4, r5, r6, r7, lr}
 800430a:	f000 ba65 	b.w	80047d8 <vPortExitCritical>
 800430e:	bf00      	nop
 8004310:	20000e4c 	.word	0x20000e4c
 8004314:	20000dd0 	.word	0x20000dd0
 8004318:	20000de4 	.word	0x20000de4
 800431c:	20000d28 	.word	0x20000d28
 8004320:	20000d30 	.word	0x20000d30
 8004324:	20000d2c 	.word	0x20000d2c
 8004328:	20000dfc 	.word	0x20000dfc
 800432c:	0800d551 	.word	0x0800d551

08004330 <prvInsertTimerInActiveList>:
 8004330:	4291      	cmp	r1, r2
 8004332:	b508      	push	{r3, lr}
 8004334:	6041      	str	r1, [r0, #4]
 8004336:	6100      	str	r0, [r0, #16]
 8004338:	d80a      	bhi.n	8004350 <prvInsertTimerInActiveList+0x20>
 800433a:	1ad2      	subs	r2, r2, r3
 800433c:	6983      	ldr	r3, [r0, #24]
 800433e:	429a      	cmp	r2, r3
 8004340:	d20d      	bcs.n	800435e <prvInsertTimerInActiveList+0x2e>
 8004342:	4b08      	ldr	r3, [pc, #32]	; (8004364 <prvInsertTimerInActiveList+0x34>)
 8004344:	1d01      	adds	r1, r0, #4
 8004346:	6818      	ldr	r0, [r3, #0]
 8004348:	f7fe fcb2 	bl	8002cb0 <vListInsert>
 800434c:	2000      	movs	r0, #0
 800434e:	bd08      	pop	{r3, pc}
 8004350:	429a      	cmp	r2, r3
 8004352:	d201      	bcs.n	8004358 <prvInsertTimerInActiveList+0x28>
 8004354:	4299      	cmp	r1, r3
 8004356:	d202      	bcs.n	800435e <prvInsertTimerInActiveList+0x2e>
 8004358:	1d01      	adds	r1, r0, #4
 800435a:	4b03      	ldr	r3, [pc, #12]	; (8004368 <prvInsertTimerInActiveList+0x38>)
 800435c:	e7f3      	b.n	8004346 <prvInsertTimerInActiveList+0x16>
 800435e:	2001      	movs	r0, #1
 8004360:	e7f5      	b.n	800434e <prvInsertTimerInActiveList+0x1e>
 8004362:	bf00      	nop
 8004364:	20000d2c 	.word	0x20000d2c
 8004368:	20000d28 	.word	0x20000d28

0800436c <xTimerCreateTimerTask>:
 800436c:	b510      	push	{r4, lr}
 800436e:	b088      	sub	sp, #32
 8004370:	f7ff ffaa 	bl	80042c8 <prvCheckForValidListAndQueue>
 8004374:	4b12      	ldr	r3, [pc, #72]	; (80043c0 <xTimerCreateTimerTask+0x54>)
 8004376:	681b      	ldr	r3, [r3, #0]
 8004378:	b1b3      	cbz	r3, 80043a8 <xTimerCreateTimerTask+0x3c>
 800437a:	2400      	movs	r4, #0
 800437c:	aa07      	add	r2, sp, #28
 800437e:	a906      	add	r1, sp, #24
 8004380:	a805      	add	r0, sp, #20
 8004382:	e9cd 4405 	strd	r4, r4, [sp, #20]
 8004386:	f7fe fc6d 	bl	8002c64 <vApplicationGetTimerTaskMemory>
 800438a:	9b05      	ldr	r3, [sp, #20]
 800438c:	9302      	str	r3, [sp, #8]
 800438e:	9b06      	ldr	r3, [sp, #24]
 8004390:	9301      	str	r3, [sp, #4]
 8004392:	2302      	movs	r3, #2
 8004394:	9300      	str	r3, [sp, #0]
 8004396:	9a07      	ldr	r2, [sp, #28]
 8004398:	490a      	ldr	r1, [pc, #40]	; (80043c4 <xTimerCreateTimerTask+0x58>)
 800439a:	480b      	ldr	r0, [pc, #44]	; (80043c8 <xTimerCreateTimerTask+0x5c>)
 800439c:	4623      	mov	r3, r4
 800439e:	f7ff fba9 	bl	8003af4 <xTaskCreateStatic>
 80043a2:	4b0a      	ldr	r3, [pc, #40]	; (80043cc <xTimerCreateTimerTask+0x60>)
 80043a4:	6018      	str	r0, [r3, #0]
 80043a6:	b940      	cbnz	r0, 80043ba <xTimerCreateTimerTask+0x4e>
 80043a8:	f04f 0350 	mov.w	r3, #80	; 0x50
 80043ac:	f383 8811 	msr	BASEPRI, r3
 80043b0:	f3bf 8f6f 	isb	sy
 80043b4:	f3bf 8f4f 	dsb	sy
 80043b8:	e7fe      	b.n	80043b8 <xTimerCreateTimerTask+0x4c>
 80043ba:	2001      	movs	r0, #1
 80043bc:	b008      	add	sp, #32
 80043be:	bd10      	pop	{r4, pc}
 80043c0:	20000e4c 	.word	0x20000e4c
 80043c4:	0800d556 	.word	0x0800d556
 80043c8:	080044a9 	.word	0x080044a9
 80043cc:	20000e50 	.word	0x20000e50

080043d0 <xTimerGenericCommand>:
 80043d0:	b530      	push	{r4, r5, lr}
 80043d2:	4615      	mov	r5, r2
 80043d4:	b085      	sub	sp, #20
 80043d6:	461a      	mov	r2, r3
 80043d8:	4603      	mov	r3, r0
 80043da:	b940      	cbnz	r0, 80043ee <xTimerGenericCommand+0x1e>
 80043dc:	f04f 0350 	mov.w	r3, #80	; 0x50
 80043e0:	f383 8811 	msr	BASEPRI, r3
 80043e4:	f3bf 8f6f 	isb	sy
 80043e8:	f3bf 8f4f 	dsb	sy
 80043ec:	e7fe      	b.n	80043ec <xTimerGenericCommand+0x1c>
 80043ee:	4c0d      	ldr	r4, [pc, #52]	; (8004424 <xTimerGenericCommand+0x54>)
 80043f0:	6820      	ldr	r0, [r4, #0]
 80043f2:	b180      	cbz	r0, 8004416 <xTimerGenericCommand+0x46>
 80043f4:	2905      	cmp	r1, #5
 80043f6:	e9cd 1500 	strd	r1, r5, [sp]
 80043fa:	9302      	str	r3, [sp, #8]
 80043fc:	dc0d      	bgt.n	800441a <xTimerGenericCommand+0x4a>
 80043fe:	f7ff fe77 	bl	80040f0 <xTaskGetSchedulerState>
 8004402:	2300      	movs	r3, #0
 8004404:	2802      	cmp	r0, #2
 8004406:	bf08      	it	eq
 8004408:	9a08      	ldreq	r2, [sp, #32]
 800440a:	6820      	ldr	r0, [r4, #0]
 800440c:	bf18      	it	ne
 800440e:	461a      	movne	r2, r3
 8004410:	4669      	mov	r1, sp
 8004412:	f7fe fdf7 	bl	8003004 <xQueueGenericSend>
 8004416:	b005      	add	sp, #20
 8004418:	bd30      	pop	{r4, r5, pc}
 800441a:	2300      	movs	r3, #0
 800441c:	4669      	mov	r1, sp
 800441e:	f7fe fee8 	bl	80031f2 <xQueueGenericSendFromISR>
 8004422:	e7f8      	b.n	8004416 <xTimerGenericCommand+0x46>
 8004424:	20000e4c 	.word	0x20000e4c

08004428 <prvSwitchTimerLists>:
 8004428:	e92d 41f3 	stmdb	sp!, {r0, r1, r4, r5, r6, r7, r8, lr}
 800442c:	4d1c      	ldr	r5, [pc, #112]	; (80044a0 <prvSwitchTimerLists+0x78>)
 800442e:	f04f 0800 	mov.w	r8, #0
 8004432:	682b      	ldr	r3, [r5, #0]
 8004434:	681a      	ldr	r2, [r3, #0]
 8004436:	b932      	cbnz	r2, 8004446 <prvSwitchTimerLists+0x1e>
 8004438:	4a1a      	ldr	r2, [pc, #104]	; (80044a4 <prvSwitchTimerLists+0x7c>)
 800443a:	6811      	ldr	r1, [r2, #0]
 800443c:	6029      	str	r1, [r5, #0]
 800443e:	6013      	str	r3, [r2, #0]
 8004440:	b002      	add	sp, #8
 8004442:	e8bd 81f0 	ldmia.w	sp!, {r4, r5, r6, r7, r8, pc}
 8004446:	68db      	ldr	r3, [r3, #12]
 8004448:	68dc      	ldr	r4, [r3, #12]
 800444a:	681e      	ldr	r6, [r3, #0]
 800444c:	1d27      	adds	r7, r4, #4
 800444e:	4638      	mov	r0, r7
 8004450:	f7fe fc45 	bl	8002cde <uxListRemove>
 8004454:	6a23      	ldr	r3, [r4, #32]
 8004456:	4620      	mov	r0, r4
 8004458:	4798      	blx	r3
 800445a:	f894 3028 	ldrb.w	r3, [r4, #40]	; 0x28
 800445e:	075b      	lsls	r3, r3, #29
 8004460:	d5e7      	bpl.n	8004432 <prvSwitchTimerLists+0xa>
 8004462:	69a3      	ldr	r3, [r4, #24]
 8004464:	4433      	add	r3, r6
 8004466:	429e      	cmp	r6, r3
 8004468:	d206      	bcs.n	8004478 <prvSwitchTimerLists+0x50>
 800446a:	6063      	str	r3, [r4, #4]
 800446c:	6124      	str	r4, [r4, #16]
 800446e:	4639      	mov	r1, r7
 8004470:	6828      	ldr	r0, [r5, #0]
 8004472:	f7fe fc1d 	bl	8002cb0 <vListInsert>
 8004476:	e7dc      	b.n	8004432 <prvSwitchTimerLists+0xa>
 8004478:	2300      	movs	r3, #0
 800447a:	f8cd 8000 	str.w	r8, [sp]
 800447e:	4632      	mov	r2, r6
 8004480:	4619      	mov	r1, r3
 8004482:	4620      	mov	r0, r4
 8004484:	f7ff ffa4 	bl	80043d0 <xTimerGenericCommand>
 8004488:	2800      	cmp	r0, #0
 800448a:	d1d2      	bne.n	8004432 <prvSwitchTimerLists+0xa>
 800448c:	f04f 0350 	mov.w	r3, #80	; 0x50
 8004490:	f383 8811 	msr	BASEPRI, r3
 8004494:	f3bf 8f6f 	isb	sy
 8004498:	f3bf 8f4f 	dsb	sy
 800449c:	e7fe      	b.n	800449c <prvSwitchTimerLists+0x74>
 800449e:	bf00      	nop
 80044a0:	20000d28 	.word	0x20000d28
 80044a4:	20000d2c 	.word	0x20000d2c

080044a8 <prvTimerTask>:
 80044a8:	e92d 4ff0 	stmdb	sp!, {r4, r5, r6, r7, r8, r9, sl, fp, lr}
 80044ac:	4d81      	ldr	r5, [pc, #516]	; (80046b4 <prvTimerTask+0x20c>)
 80044ae:	f8df 8210 	ldr.w	r8, [pc, #528]	; 80046c0 <prvTimerTask+0x218>
 80044b2:	b087      	sub	sp, #28
 80044b4:	462f      	mov	r7, r5
 80044b6:	682a      	ldr	r2, [r5, #0]
 80044b8:	6813      	ldr	r3, [r2, #0]
 80044ba:	b353      	cbz	r3, 8004512 <prvTimerTask+0x6a>
 80044bc:	68d3      	ldr	r3, [r2, #12]
 80044be:	f8d3 9000 	ldr.w	r9, [r3]
 80044c2:	2400      	movs	r4, #0
 80044c4:	f8df b1fc 	ldr.w	fp, [pc, #508]	; 80046c4 <prvTimerTask+0x21c>
 80044c8:	f7ff fbc6 	bl	8003c58 <vTaskSuspendAll>
 80044cc:	f7ff fbcc 	bl	8003c68 <xTaskGetTickCount>
 80044d0:	f8db 3000 	ldr.w	r3, [fp]
 80044d4:	4298      	cmp	r0, r3
 80044d6:	4682      	mov	sl, r0
 80044d8:	465e      	mov	r6, fp
 80044da:	d31d      	bcc.n	8004518 <prvTimerTask+0x70>
 80044dc:	f8cb 0000 	str.w	r0, [fp]
 80044e0:	b32c      	cbz	r4, 800452e <prvTimerTask+0x86>
 80044e2:	4b75      	ldr	r3, [pc, #468]	; (80046b8 <prvTimerTask+0x210>)
 80044e4:	681b      	ldr	r3, [r3, #0]
 80044e6:	681a      	ldr	r2, [r3, #0]
 80044e8:	fab2 f282 	clz	r2, r2
 80044ec:	0952      	lsrs	r2, r2, #5
 80044ee:	4b73      	ldr	r3, [pc, #460]	; (80046bc <prvTimerTask+0x214>)
 80044f0:	eba9 010a 	sub.w	r1, r9, sl
 80044f4:	6818      	ldr	r0, [r3, #0]
 80044f6:	f7ff f960 	bl	80037ba <vQueueWaitForMessageRestricted>
 80044fa:	f7ff fc53 	bl	8003da4 <xTaskResumeAll>
 80044fe:	b988      	cbnz	r0, 8004524 <prvTimerTask+0x7c>
 8004500:	f04f 5380 	mov.w	r3, #268435456	; 0x10000000
 8004504:	f8c8 3000 	str.w	r3, [r8]
 8004508:	f3bf 8f4f 	dsb	sy
 800450c:	f3bf 8f6f 	isb	sy
 8004510:	e008      	b.n	8004524 <prvTimerTask+0x7c>
 8004512:	2401      	movs	r4, #1
 8004514:	4699      	mov	r9, r3
 8004516:	e7d5      	b.n	80044c4 <prvTimerTask+0x1c>
 8004518:	f7ff ff86 	bl	8004428 <prvSwitchTimerLists>
 800451c:	f8cb a000 	str.w	sl, [fp]
 8004520:	f7ff fc40 	bl	8003da4 <xTaskResumeAll>
 8004524:	f8df 9194 	ldr.w	r9, [pc, #404]	; 80046bc <prvTimerTask+0x214>
 8004528:	f04f 0a00 	mov.w	sl, #0
 800452c:	e07d      	b.n	800462a <prvTimerTask+0x182>
 800452e:	4581      	cmp	r9, r0
 8004530:	d830      	bhi.n	8004594 <prvTimerTask+0xec>
 8004532:	f7ff fc37 	bl	8003da4 <xTaskResumeAll>
 8004536:	683b      	ldr	r3, [r7, #0]
 8004538:	68db      	ldr	r3, [r3, #12]
 800453a:	f8d3 b00c 	ldr.w	fp, [r3, #12]
 800453e:	f10b 0004 	add.w	r0, fp, #4
 8004542:	f7fe fbcc 	bl	8002cde <uxListRemove>
 8004546:	f89b 3028 	ldrb.w	r3, [fp, #40]	; 0x28
 800454a:	0758      	lsls	r0, r3, #29
 800454c:	d519      	bpl.n	8004582 <prvTimerTask+0xda>
 800454e:	f8db 1018 	ldr.w	r1, [fp, #24]
 8004552:	464b      	mov	r3, r9
 8004554:	4652      	mov	r2, sl
 8004556:	4449      	add	r1, r9
 8004558:	4658      	mov	r0, fp
 800455a:	f7ff fee9 	bl	8004330 <prvInsertTimerInActiveList>
 800455e:	b1a0      	cbz	r0, 800458a <prvTimerTask+0xe2>
 8004560:	9400      	str	r4, [sp, #0]
 8004562:	4623      	mov	r3, r4
 8004564:	464a      	mov	r2, r9
 8004566:	4621      	mov	r1, r4
 8004568:	4658      	mov	r0, fp
 800456a:	f7ff ff31 	bl	80043d0 <xTimerGenericCommand>
 800456e:	b960      	cbnz	r0, 800458a <prvTimerTask+0xe2>
 8004570:	f04f 0350 	mov.w	r3, #80	; 0x50
 8004574:	f383 8811 	msr	BASEPRI, r3
 8004578:	f3bf 8f6f 	isb	sy
 800457c:	f3bf 8f4f 	dsb	sy
 8004580:	e7fe      	b.n	8004580 <prvTimerTask+0xd8>
 8004582:	f023 0301 	bic.w	r3, r3, #1
 8004586:	f88b 3028 	strb.w	r3, [fp, #40]	; 0x28
 800458a:	f8db 3020 	ldr.w	r3, [fp, #32]
 800458e:	4658      	mov	r0, fp
 8004590:	4798      	blx	r3
 8004592:	e7c7      	b.n	8004524 <prvTimerTask+0x7c>
 8004594:	4622      	mov	r2, r4
 8004596:	e7aa      	b.n	80044ee <prvTimerTask+0x46>
 8004598:	f894 3028 	ldrb.w	r3, [r4, #40]	; 0x28
 800459c:	69a1      	ldr	r1, [r4, #24]
 800459e:	f043 0301 	orr.w	r3, r3, #1
 80045a2:	f884 3028 	strb.w	r3, [r4, #40]	; 0x28
 80045a6:	9b03      	ldr	r3, [sp, #12]
 80045a8:	465a      	mov	r2, fp
 80045aa:	4419      	add	r1, r3
 80045ac:	4620      	mov	r0, r4
 80045ae:	f7ff febf 	bl	8004330 <prvInsertTimerInActiveList>
 80045b2:	2800      	cmp	r0, #0
 80045b4:	d039      	beq.n	800462a <prvTimerTask+0x182>
 80045b6:	6a23      	ldr	r3, [r4, #32]
 80045b8:	4620      	mov	r0, r4
 80045ba:	4798      	blx	r3
 80045bc:	f894 3028 	ldrb.w	r3, [r4, #40]	; 0x28
 80045c0:	0759      	lsls	r1, r3, #29
 80045c2:	d532      	bpl.n	800462a <prvTimerTask+0x182>
 80045c4:	69a2      	ldr	r2, [r4, #24]
 80045c6:	9903      	ldr	r1, [sp, #12]
 80045c8:	f8cd a000 	str.w	sl, [sp]
 80045cc:	2300      	movs	r3, #0
 80045ce:	440a      	add	r2, r1
 80045d0:	4620      	mov	r0, r4
 80045d2:	4619      	mov	r1, r3
 80045d4:	f7ff fefc 	bl	80043d0 <xTimerGenericCommand>
 80045d8:	bb38      	cbnz	r0, 800462a <prvTimerTask+0x182>
 80045da:	f04f 0350 	mov.w	r3, #80	; 0x50
 80045de:	f383 8811 	msr	BASEPRI, r3
 80045e2:	f3bf 8f6f 	isb	sy
 80045e6:	f3bf 8f4f 	dsb	sy
 80045ea:	e7fe      	b.n	80045ea <prvTimerTask+0x142>
 80045ec:	f894 3028 	ldrb.w	r3, [r4, #40]	; 0x28
 80045f0:	f023 0301 	bic.w	r3, r3, #1
 80045f4:	f884 3028 	strb.w	r3, [r4, #40]	; 0x28
 80045f8:	e017      	b.n	800462a <prvTimerTask+0x182>
 80045fa:	f894 3028 	ldrb.w	r3, [r4, #40]	; 0x28
 80045fe:	9903      	ldr	r1, [sp, #12]
 8004600:	61a1      	str	r1, [r4, #24]
 8004602:	f043 0301 	orr.w	r3, r3, #1
 8004606:	f884 3028 	strb.w	r3, [r4, #40]	; 0x28
 800460a:	b941      	cbnz	r1, 800461e <prvTimerTask+0x176>
 800460c:	f04f 0350 	mov.w	r3, #80	; 0x50
 8004610:	f383 8811 	msr	BASEPRI, r3
 8004614:	f3bf 8f6f 	isb	sy
 8004618:	f3bf 8f4f 	dsb	sy
 800461c:	e7fe      	b.n	800461c <prvTimerTask+0x174>
 800461e:	465b      	mov	r3, fp
 8004620:	465a      	mov	r2, fp
 8004622:	4459      	add	r1, fp
 8004624:	4620      	mov	r0, r4
 8004626:	f7ff fe83 	bl	8004330 <prvInsertTimerInActiveList>
 800462a:	2200      	movs	r2, #0
 800462c:	a902      	add	r1, sp, #8
 800462e:	f8d9 0000 	ldr.w	r0, [r9]
 8004632:	f7fe fe93 	bl	800335c <xQueueReceive>
 8004636:	2800      	cmp	r0, #0
 8004638:	f43f af3d 	beq.w	80044b6 <prvTimerTask+0xe>
 800463c:	9b02      	ldr	r3, [sp, #8]
 800463e:	2b00      	cmp	r3, #0
 8004640:	da03      	bge.n	800464a <prvTimerTask+0x1a2>
 8004642:	e9dd 0104 	ldrd	r0, r1, [sp, #16]
 8004646:	9b03      	ldr	r3, [sp, #12]
 8004648:	4798      	blx	r3
 800464a:	9b02      	ldr	r3, [sp, #8]
 800464c:	2b00      	cmp	r3, #0
 800464e:	dbec      	blt.n	800462a <prvTimerTask+0x182>
 8004650:	9c04      	ldr	r4, [sp, #16]
 8004652:	6963      	ldr	r3, [r4, #20]
 8004654:	b113      	cbz	r3, 800465c <prvTimerTask+0x1b4>
 8004656:	1d20      	adds	r0, r4, #4
 8004658:	f7fe fb41 	bl	8002cde <uxListRemove>
 800465c:	f7ff fb04 	bl	8003c68 <xTaskGetTickCount>
 8004660:	6833      	ldr	r3, [r6, #0]
 8004662:	4298      	cmp	r0, r3
 8004664:	4683      	mov	fp, r0
 8004666:	d201      	bcs.n	800466c <prvTimerTask+0x1c4>
 8004668:	f7ff fede 	bl	8004428 <prvSwitchTimerLists>
 800466c:	9b02      	ldr	r3, [sp, #8]
 800466e:	f8c6 b000 	str.w	fp, [r6]
 8004672:	2b09      	cmp	r3, #9
 8004674:	d8d9      	bhi.n	800462a <prvTimerTask+0x182>
 8004676:	a201      	add	r2, pc, #4	; (adr r2, 800467c <prvTimerTask+0x1d4>)
 8004678:	f852 f023 	ldr.w	pc, [r2, r3, lsl #2]
 800467c:	08004599 	.word	0x08004599
 8004680:	08004599 	.word	0x08004599
 8004684:	08004599 	.word	0x08004599
 8004688:	080045ed 	.word	0x080045ed
 800468c:	080045fb 	.word	0x080045fb
 8004690:	080046a5 	.word	0x080046a5
 8004694:	08004599 	.word	0x08004599
 8004698:	08004599 	.word	0x08004599
 800469c:	080045ed 	.word	0x080045ed
 80046a0:	080045fb 	.word	0x080045fb
 80046a4:	f894 3028 	ldrb.w	r3, [r4, #40]	; 0x28
 80046a8:	079a      	lsls	r2, r3, #30
 80046aa:	d4a1      	bmi.n	80045f0 <prvTimerTask+0x148>
 80046ac:	4620      	mov	r0, r4
 80046ae:	f000 fa57 	bl	8004b60 <vPortFree>
 80046b2:	e7ba      	b.n	800462a <prvTimerTask+0x182>
 80046b4:	20000d28 	.word	0x20000d28
 80046b8:	20000d2c 	.word	0x20000d2c
 80046bc:	20000e4c 	.word	0x20000e4c
 80046c0:	e000ed04 	.word	0xe000ed04
 80046c4:	20000df8 	.word	0x20000df8

080046c8 <prvTaskExitError>:
 80046c8:	b082      	sub	sp, #8
 80046ca:	2300      	movs	r3, #0
 80046cc:	9301      	str	r3, [sp, #4]
 80046ce:	4b0d      	ldr	r3, [pc, #52]	; (8004704 <prvTaskExitError+0x3c>)
 80046d0:	681b      	ldr	r3, [r3, #0]
 80046d2:	3301      	adds	r3, #1
 80046d4:	d008      	beq.n	80046e8 <prvTaskExitError+0x20>
 80046d6:	f04f 0350 	mov.w	r3, #80	; 0x50
 80046da:	f383 8811 	msr	BASEPRI, r3
 80046de:	f3bf 8f6f 	isb	sy
 80046e2:	f3bf 8f4f 	dsb	sy
 80046e6:	e7fe      	b.n	80046e6 <prvTaskExitError+0x1e>
 80046e8:	f04f 0350 	mov.w	r3, #80	; 0x50
 80046ec:	f383 8811 	msr	BASEPRI, r3
 80046f0:	f3bf 8f6f 	isb	sy
 80046f4:	f3bf 8f4f 	dsb	sy
 80046f8:	9b01      	ldr	r3, [sp, #4]
 80046fa:	2b00      	cmp	r3, #0
 80046fc:	d0fc      	beq.n	80046f8 <prvTaskExitError+0x30>
 80046fe:	b002      	add	sp, #8
 8004700:	4770      	bx	lr
 8004702:	bf00      	nop
 8004704:	20000010 	.word	0x20000010

08004708 <prvPortStartFirstTask>:
 8004708:	4808      	ldr	r0, [pc, #32]	; (800472c <prvPortStartFirstTask+0x24>)
 800470a:	6800      	ldr	r0, [r0, #0]
 800470c:	6800      	ldr	r0, [r0, #0]
 800470e:	f380 8808 	msr	MSP, r0
 8004712:	f04f 0000 	mov.w	r0, #0
 8004716:	f380 8814 	msr	CONTROL, r0
 800471a:	b662      	cpsie	i
 800471c:	b661      	cpsie	f
 800471e:	f3bf 8f4f 	dsb	sy
 8004722:	f3bf 8f6f 	isb	sy
 8004726:	df00      	svc	0
 8004728:	bf00      	nop
 800472a:	0000      	.short	0x0000
 800472c:	e000ed08 	.word	0xe000ed08

08004730 <vPortEnableVFP>:
 8004730:	f8df 000c 	ldr.w	r0, [pc, #12]	; 8004740 <vPortEnableVFP+0x10>
 8004734:	6801      	ldr	r1, [r0, #0]
 8004736:	f441 0170 	orr.w	r1, r1, #15728640	; 0xf00000
 800473a:	6001      	str	r1, [r0, #0]
 800473c:	4770      	bx	lr
 800473e:	0000      	.short	0x0000
 8004740:	e000ed88 	.word	0xe000ed88

08004744 <pxPortInitialiseStack>:
 8004744:	f04f 7380 	mov.w	r3, #16777216	; 0x1000000
 8004748:	f840 3c04 	str.w	r3, [r0, #-4]
 800474c:	4b07      	ldr	r3, [pc, #28]	; (800476c <pxPortInitialiseStack+0x28>)
 800474e:	f840 3c0c 	str.w	r3, [r0, #-12]
 8004752:	f021 0101 	bic.w	r1, r1, #1
 8004756:	f06f 0302 	mvn.w	r3, #2
 800475a:	f840 1c08 	str.w	r1, [r0, #-8]
 800475e:	f840 2c20 	str.w	r2, [r0, #-32]
 8004762:	f840 3c24 	str.w	r3, [r0, #-36]
 8004766:	3844      	subs	r0, #68	; 0x44
 8004768:	4770      	bx	lr
 800476a:	bf00      	nop
 800476c:	080046c9 	.word	0x080046c9

08004770 <SVC_Handler>:
 8004770:	4b07      	ldr	r3, [pc, #28]	; (8004790 <pxCurrentTCBConst2>)
 8004772:	6819      	ldr	r1, [r3, #0]
 8004774:	6808      	ldr	r0, [r1, #0]
 8004776:	e8b0 4ff0 	ldmia.w	r0!, {r4, r5, r6, r7, r8, r9, sl, fp, lr}
 800477a:	f380 8809 	msr	PSP, r0
 800477e:	f3bf 8f6f 	isb	sy
 8004782:	f04f 0000 	mov.w	r0, #0
 8004786:	f380 8811 	msr	BASEPRI, r0
 800478a:	4770      	bx	lr
 800478c:	f3af 8000 	nop.w

08004790 <pxCurrentTCBConst2>:
 8004790:	2000082c 	.word	0x2000082c

08004794 <vPortEnterCritical>:
 8004794:	f04f 0350 	mov.w	r3, #80	; 0x50
 8004798:	f383 8811 	msr	BASEPRI, r3
 800479c:	f3bf 8f6f 	isb	sy
 80047a0:	f3bf 8f4f 	dsb	sy
 80047a4:	4a0a      	ldr	r2, [pc, #40]	; (80047d0 <vPortEnterCritical+0x3c>)
 80047a6:	6813      	ldr	r3, [r2, #0]
 80047a8:	3301      	adds	r3, #1
 80047aa:	2b01      	cmp	r3, #1
 80047ac:	6013      	str	r3, [r2, #0]
 80047ae:	d10d      	bne.n	80047cc <vPortEnterCritical+0x38>
 80047b0:	4b08      	ldr	r3, [pc, #32]	; (80047d4 <vPortEnterCritical+0x40>)
 80047b2:	681b      	ldr	r3, [r3, #0]
 80047b4:	f013 0fff 	tst.w	r3, #255	; 0xff
 80047b8:	d008      	beq.n	80047cc <vPortEnterCritical+0x38>
 80047ba:	f04f 0350 	mov.w	r3, #80	; 0x50
 80047be:	f383 8811 	msr	BASEPRI, r3
 80047c2:	f3bf 8f6f 	isb	sy
 80047c6:	f3bf 8f4f 	dsb	sy
 80047ca:	e7fe      	b.n	80047ca <vPortEnterCritical+0x36>
 80047cc:	4770      	bx	lr
 80047ce:	bf00      	nop
 80047d0:	20000010 	.word	0x20000010
 80047d4:	e000ed04 	.word	0xe000ed04

080047d8 <vPortExitCritical>:
 80047d8:	4a08      	ldr	r2, [pc, #32]	; (80047fc <vPortExitCritical+0x24>)
 80047da:	6813      	ldr	r3, [r2, #0]
 80047dc:	b943      	cbnz	r3, 80047f0 <vPortExitCritical+0x18>
 80047de:	f04f 0350 	mov.w	r3, #80	; 0x50
 80047e2:	f383 8811 	msr	BASEPRI, r3
 80047e6:	f3bf 8f6f 	isb	sy
 80047ea:	f3bf 8f4f 	dsb	sy
 80047ee:	e7fe      	b.n	80047ee <vPortExitCritical+0x16>
 80047f0:	3b01      	subs	r3, #1
 80047f2:	6013      	str	r3, [r2, #0]
 80047f4:	b90b      	cbnz	r3, 80047fa <vPortExitCritical+0x22>
 80047f6:	f383 8811 	msr	BASEPRI, r3
 80047fa:	4770      	bx	lr
 80047fc:	20000010 	.word	0x20000010

08004800 <PendSV_Handler>:
 8004800:	f3ef 8009 	mrs	r0, PSP
 8004804:	f3bf 8f6f 	isb	sy
 8004808:	4b15      	ldr	r3, [pc, #84]	; (8004860 <pxCurrentTCBConst>)
 800480a:	681a      	ldr	r2, [r3, #0]
 800480c:	f01e 0f10 	tst.w	lr, #16
 8004810:	bf08      	it	eq
 8004812:	ed20 8a10 	vstmdbeq	r0!, {s16-s31}
 8004816:	e920 4ff0 	stmdb	r0!, {r4, r5, r6, r7, r8, r9, sl, fp, lr}
 800481a:	6010      	str	r0, [r2, #0]
 800481c:	e92d 0009 	stmdb	sp!, {r0, r3}
 8004820:	f04f 0050 	mov.w	r0, #80	; 0x50
 8004824:	f380 8811 	msr	BASEPRI, r0
 8004828:	f3bf 8f4f 	dsb	sy
 800482c:	f3bf 8f6f 	isb	sy
 8004830:	f7ff fb50 	bl	8003ed4 <vTaskSwitchContext>
 8004834:	f04f 0000 	mov.w	r0, #0
 8004838:	f380 8811 	msr	BASEPRI, r0
 800483c:	bc09      	pop	{r0, r3}
 800483e:	6819      	ldr	r1, [r3, #0]
 8004840:	6808      	ldr	r0, [r1, #0]
 8004842:	e8b0 4ff0 	ldmia.w	r0!, {r4, r5, r6, r7, r8, r9, sl, fp, lr}
 8004846:	f01e 0f10 	tst.w	lr, #16
 800484a:	bf08      	it	eq
 800484c:	ecb0 8a10 	vldmiaeq	r0!, {s16-s31}
 8004850:	f380 8809 	msr	PSP, r0
 8004854:	f3bf 8f6f 	isb	sy
 8004858:	4770      	bx	lr
 800485a:	bf00      	nop
 800485c:	f3af 8000 	nop.w

08004860 <pxCurrentTCBConst>:
 8004860:	2000082c 	.word	0x2000082c

08004864 <SysTick_Handler>:
 8004864:	b508      	push	{r3, lr}
 8004866:	f04f 0350 	mov.w	r3, #80	; 0x50
 800486a:	f383 8811 	msr	BASEPRI, r3
 800486e:	f3bf 8f6f 	isb	sy
 8004872:	f3bf 8f4f 	dsb	sy
 8004876:	f7ff fa05 	bl	8003c84 <xTaskIncrementTick>
 800487a:	b118      	cbz	r0, 8004884 <SysTick_Handler+0x20>
 800487c:	4b03      	ldr	r3, [pc, #12]	; (800488c <SysTick_Handler+0x28>)
 800487e:	f04f 5280 	mov.w	r2, #268435456	; 0x10000000
 8004882:	601a      	str	r2, [r3, #0]
 8004884:	2300      	movs	r3, #0
 8004886:	f383 8811 	msr	BASEPRI, r3
 800488a:	bd08      	pop	{r3, pc}
 800488c:	e000ed04 	.word	0xe000ed04

08004890 <vPortSetupTimerInterrupt>:
 8004890:	4a08      	ldr	r2, [pc, #32]	; (80048b4 <vPortSetupTimerInterrupt+0x24>)
 8004892:	4909      	ldr	r1, [pc, #36]	; (80048b8 <vPortSetupTimerInterrupt+0x28>)
 8004894:	2300      	movs	r3, #0
 8004896:	6013      	str	r3, [r2, #0]
 8004898:	600b      	str	r3, [r1, #0]
 800489a:	4b08      	ldr	r3, [pc, #32]	; (80048bc <vPortSetupTimerInterrupt+0x2c>)
 800489c:	f44f 717a 	mov.w	r1, #1000	; 0x3e8
 80048a0:	681b      	ldr	r3, [r3, #0]
 80048a2:	fbb3 f3f1 	udiv	r3, r3, r1
 80048a6:	4906      	ldr	r1, [pc, #24]	; (80048c0 <vPortSetupTimerInterrupt+0x30>)
 80048a8:	3b01      	subs	r3, #1
 80048aa:	600b      	str	r3, [r1, #0]
 80048ac:	2307      	movs	r3, #7
 80048ae:	6013      	str	r3, [r2, #0]
 80048b0:	4770      	bx	lr
 80048b2:	bf00      	nop
 80048b4:	e000e010 	.word	0xe000e010
 80048b8:	e000e018 	.word	0xe000e018
 80048bc:	20000000 	.word	0x20000000
 80048c0:	e000e014 	.word	0xe000e014

080048c4 <xPortStartScheduler>:
 80048c4:	4b37      	ldr	r3, [pc, #220]	; (80049a4 <xPortStartScheduler+0xe0>)
 80048c6:	4a38      	ldr	r2, [pc, #224]	; (80049a8 <xPortStartScheduler+0xe4>)
 80048c8:	b513      	push	{r0, r1, r4, lr}
 80048ca:	6819      	ldr	r1, [r3, #0]
 80048cc:	4291      	cmp	r1, r2
 80048ce:	d108      	bne.n	80048e2 <xPortStartScheduler+0x1e>
 80048d0:	f04f 0350 	mov.w	r3, #80	; 0x50
 80048d4:	f383 8811 	msr	BASEPRI, r3
 80048d8:	f3bf 8f6f 	isb	sy
 80048dc:	f3bf 8f4f 	dsb	sy
 80048e0:	e7fe      	b.n	80048e0 <xPortStartScheduler+0x1c>
 80048e2:	681a      	ldr	r2, [r3, #0]
 80048e4:	4b31      	ldr	r3, [pc, #196]	; (80049ac <xPortStartScheduler+0xe8>)
 80048e6:	429a      	cmp	r2, r3
 80048e8:	d108      	bne.n	80048fc <xPortStartScheduler+0x38>
 80048ea:	f04f 0350 	mov.w	r3, #80	; 0x50
 80048ee:	f383 8811 	msr	BASEPRI, r3
 80048f2:	f3bf 8f6f 	isb	sy
 80048f6:	f3bf 8f4f 	dsb	sy
 80048fa:	e7fe      	b.n	80048fa <xPortStartScheduler+0x36>
 80048fc:	4b2c      	ldr	r3, [pc, #176]	; (80049b0 <xPortStartScheduler+0xec>)
 80048fe:	781a      	ldrb	r2, [r3, #0]
 8004900:	b2d2      	uxtb	r2, r2
 8004902:	9201      	str	r2, [sp, #4]
 8004904:	22ff      	movs	r2, #255	; 0xff
 8004906:	701a      	strb	r2, [r3, #0]
 8004908:	781b      	ldrb	r3, [r3, #0]
 800490a:	b2db      	uxtb	r3, r3
 800490c:	f88d 3003 	strb.w	r3, [sp, #3]
 8004910:	f89d 3003 	ldrb.w	r3, [sp, #3]
 8004914:	4b27      	ldr	r3, [pc, #156]	; (80049b4 <xPortStartScheduler+0xf0>)
 8004916:	2207      	movs	r2, #7
 8004918:	601a      	str	r2, [r3, #0]
 800491a:	2100      	movs	r1, #0
 800491c:	f89d 0003 	ldrb.w	r0, [sp, #3]
 8004920:	0600      	lsls	r0, r0, #24
 8004922:	f102 34ff 	add.w	r4, r2, #4294967295
 8004926:	d40d      	bmi.n	8004944 <xPortStartScheduler+0x80>
 8004928:	b101      	cbz	r1, 800492c <xPortStartScheduler+0x68>
 800492a:	601a      	str	r2, [r3, #0]
 800492c:	681a      	ldr	r2, [r3, #0]
 800492e:	2a03      	cmp	r2, #3
 8004930:	d011      	beq.n	8004956 <xPortStartScheduler+0x92>
 8004932:	f04f 0350 	mov.w	r3, #80	; 0x50
 8004936:	f383 8811 	msr	BASEPRI, r3
 800493a:	f3bf 8f6f 	isb	sy
 800493e:	f3bf 8f4f 	dsb	sy
 8004942:	e7fe      	b.n	8004942 <xPortStartScheduler+0x7e>
 8004944:	f89d 2003 	ldrb.w	r2, [sp, #3]
 8004948:	0052      	lsls	r2, r2, #1
 800494a:	b2d2      	uxtb	r2, r2
 800494c:	f88d 2003 	strb.w	r2, [sp, #3]
 8004950:	2101      	movs	r1, #1
 8004952:	4622      	mov	r2, r4
 8004954:	e7e2      	b.n	800491c <xPortStartScheduler+0x58>
 8004956:	0212      	lsls	r2, r2, #8
 8004958:	f402 62e0 	and.w	r2, r2, #1792	; 0x700
 800495c:	601a      	str	r2, [r3, #0]
 800495e:	9b01      	ldr	r3, [sp, #4]
 8004960:	4a13      	ldr	r2, [pc, #76]	; (80049b0 <xPortStartScheduler+0xec>)
 8004962:	b2db      	uxtb	r3, r3
 8004964:	7013      	strb	r3, [r2, #0]
 8004966:	4b14      	ldr	r3, [pc, #80]	; (80049b8 <xPortStartScheduler+0xf4>)
 8004968:	681a      	ldr	r2, [r3, #0]
 800496a:	f442 0270 	orr.w	r2, r2, #15728640	; 0xf00000
 800496e:	601a      	str	r2, [r3, #0]
 8004970:	681a      	ldr	r2, [r3, #0]
 8004972:	f042 4270 	orr.w	r2, r2, #4026531840	; 0xf0000000
 8004976:	601a      	str	r2, [r3, #0]
 8004978:	f7ff ff8a 	bl	8004890 <vPortSetupTimerInterrupt>
 800497c:	4b0f      	ldr	r3, [pc, #60]	; (80049bc <xPortStartScheduler+0xf8>)
 800497e:	2400      	movs	r4, #0
 8004980:	601c      	str	r4, [r3, #0]
 8004982:	f7ff fed5 	bl	8004730 <vPortEnableVFP>
 8004986:	4a0e      	ldr	r2, [pc, #56]	; (80049c0 <xPortStartScheduler+0xfc>)
 8004988:	6813      	ldr	r3, [r2, #0]
 800498a:	f043 4340 	orr.w	r3, r3, #3221225472	; 0xc0000000
 800498e:	6013      	str	r3, [r2, #0]
 8004990:	f7ff feba 	bl	8004708 <prvPortStartFirstTask>
 8004994:	f7ff fa9e 	bl	8003ed4 <vTaskSwitchContext>
 8004998:	f7ff fe96 	bl	80046c8 <prvTaskExitError>
 800499c:	4620      	mov	r0, r4
 800499e:	b002      	add	sp, #8
 80049a0:	bd10      	pop	{r4, pc}
 80049a2:	bf00      	nop
 80049a4:	e000ed00 	.word	0xe000ed00
 80049a8:	410fc271 	.word	0x410fc271
 80049ac:	410fc270 	.word	0x410fc270
 80049b0:	e000e400 	.word	0xe000e400
 80049b4:	20000e54 	.word	0x20000e54
 80049b8:	e000ed20 	.word	0xe000ed20
 80049bc:	20000010 	.word	0x20000010
 80049c0:	e000ef34 	.word	0xe000ef34

080049c4 <vPortValidateInterruptPriority>:
 80049c4:	f3ef 8305 	mrs	r3, IPSR
 80049c8:	2b0f      	cmp	r3, #15
 80049ca:	bf84      	itt	hi
 80049cc:	4a09      	ldrhi	r2, [pc, #36]	; (80049f4 <vPortValidateInterruptPriority+0x30>)
 80049ce:	5c9b      	ldrbhi	r3, [r3, r2]
 80049d0:	4b09      	ldr	r3, [pc, #36]	; (80049f8 <vPortValidateInterruptPriority+0x34>)
 80049d2:	4a0a      	ldr	r2, [pc, #40]	; (80049fc <vPortValidateInterruptPriority+0x38>)
 80049d4:	681b      	ldr	r3, [r3, #0]
 80049d6:	6812      	ldr	r2, [r2, #0]
 80049d8:	f403 63e0 	and.w	r3, r3, #1792	; 0x700
 80049dc:	4293      	cmp	r3, r2
 80049de:	d908      	bls.n	80049f2 <vPortValidateInterruptPriority+0x2e>
 80049e0:	f04f 0350 	mov.w	r3, #80	; 0x50
 80049e4:	f383 8811 	msr	BASEPRI, r3
 80049e8:	f3bf 8f6f 	isb	sy
 80049ec:	f3bf 8f4f 	dsb	sy
 80049f0:	e7fe      	b.n	80049f0 <vPortValidateInterruptPriority+0x2c>
 80049f2:	4770      	bx	lr
 80049f4:	e000e3f0 	.word	0xe000e3f0
 80049f8:	e000ed0c 	.word	0xe000ed0c
 80049fc:	20000e54 	.word	0x20000e54

08004a00 <prvInsertBlockIntoFreeList>:
 8004a00:	b510      	push	{r4, lr}
 8004a02:	4b0f      	ldr	r3, [pc, #60]	; (8004a40 <prvInsertBlockIntoFreeList+0x40>)
 8004a04:	681a      	ldr	r2, [r3, #0]
 8004a06:	4282      	cmp	r2, r0
 8004a08:	d318      	bcc.n	8004a3c <prvInsertBlockIntoFreeList+0x3c>
 8004a0a:	685c      	ldr	r4, [r3, #4]
 8004a0c:	1919      	adds	r1, r3, r4
 8004a0e:	4288      	cmp	r0, r1
 8004a10:	bf01      	itttt	eq
 8004a12:	6841      	ldreq	r1, [r0, #4]
 8004a14:	4618      	moveq	r0, r3
 8004a16:	1909      	addeq	r1, r1, r4
 8004a18:	6059      	streq	r1, [r3, #4]
 8004a1a:	6844      	ldr	r4, [r0, #4]
 8004a1c:	1901      	adds	r1, r0, r4
 8004a1e:	428a      	cmp	r2, r1
 8004a20:	d107      	bne.n	8004a32 <prvInsertBlockIntoFreeList+0x32>
 8004a22:	4908      	ldr	r1, [pc, #32]	; (8004a44 <prvInsertBlockIntoFreeList+0x44>)
 8004a24:	6809      	ldr	r1, [r1, #0]
 8004a26:	428a      	cmp	r2, r1
 8004a28:	bf1f      	itttt	ne
 8004a2a:	6851      	ldrne	r1, [r2, #4]
 8004a2c:	6812      	ldrne	r2, [r2, #0]
 8004a2e:	1909      	addne	r1, r1, r4
 8004a30:	6041      	strne	r1, [r0, #4]
 8004a32:	4298      	cmp	r0, r3
 8004a34:	6002      	str	r2, [r0, #0]
 8004a36:	bf18      	it	ne
 8004a38:	6018      	strne	r0, [r3, #0]
 8004a3a:	bd10      	pop	{r4, pc}
 8004a3c:	4613      	mov	r3, r2
 8004a3e:	e7e1      	b.n	8004a04 <prvInsertBlockIntoFreeList+0x4>
 8004a40:	20004a68 	.word	0x20004a68
 8004a44:	20000e58 	.word	0x20000e58

08004a48 <pvPortMalloc>:
 8004a48:	e92d 41f0 	stmdb	sp!, {r4, r5, r6, r7, r8, lr}
 8004a4c:	4604      	mov	r4, r0
 8004a4e:	f7ff f903 	bl	8003c58 <vTaskSuspendAll>
 8004a52:	493d      	ldr	r1, [pc, #244]	; (8004b48 <pvPortMalloc+0x100>)
 8004a54:	4d3d      	ldr	r5, [pc, #244]	; (8004b4c <pvPortMalloc+0x104>)
 8004a56:	680b      	ldr	r3, [r1, #0]
 8004a58:	b9fb      	cbnz	r3, 8004a9a <pvPortMalloc+0x52>
 8004a5a:	4a3d      	ldr	r2, [pc, #244]	; (8004b50 <pvPortMalloc+0x108>)
 8004a5c:	0756      	lsls	r6, r2, #29
 8004a5e:	f502 5370 	add.w	r3, r2, #15360	; 0x3c00
 8004a62:	bf1d      	ittte	ne
 8004a64:	3207      	addne	r2, #7
 8004a66:	f022 0207 	bicne.w	r2, r2, #7
 8004a6a:	1a9b      	subne	r3, r3, r2
 8004a6c:	f44f 5370 	moveq.w	r3, #15360	; 0x3c00
 8004a70:	4413      	add	r3, r2
 8004a72:	4e38      	ldr	r6, [pc, #224]	; (8004b54 <pvPortMalloc+0x10c>)
 8004a74:	3b08      	subs	r3, #8
 8004a76:	f023 0307 	bic.w	r3, r3, #7
 8004a7a:	2000      	movs	r0, #0
 8004a7c:	6070      	str	r0, [r6, #4]
 8004a7e:	6032      	str	r2, [r6, #0]
 8004a80:	e9c3 0000 	strd	r0, r0, [r3]
 8004a84:	1a98      	subs	r0, r3, r2
 8004a86:	600b      	str	r3, [r1, #0]
 8004a88:	e9c2 3000 	strd	r3, r0, [r2]
 8004a8c:	4b32      	ldr	r3, [pc, #200]	; (8004b58 <pvPortMalloc+0x110>)
 8004a8e:	6018      	str	r0, [r3, #0]
 8004a90:	4b32      	ldr	r3, [pc, #200]	; (8004b5c <pvPortMalloc+0x114>)
 8004a92:	6018      	str	r0, [r3, #0]
 8004a94:	f04f 4300 	mov.w	r3, #2147483648	; 0x80000000
 8004a98:	602b      	str	r3, [r5, #0]
 8004a9a:	682f      	ldr	r7, [r5, #0]
 8004a9c:	4227      	tst	r7, r4
 8004a9e:	d14e      	bne.n	8004b3e <pvPortMalloc+0xf6>
 8004aa0:	2c00      	cmp	r4, #0
 8004aa2:	d03f      	beq.n	8004b24 <pvPortMalloc+0xdc>
 8004aa4:	f104 0308 	add.w	r3, r4, #8
 8004aa8:	0758      	lsls	r0, r3, #29
 8004aaa:	bf1c      	itt	ne
 8004aac:	f023 0307 	bicne.w	r3, r3, #7
 8004ab0:	3308      	addne	r3, #8
 8004ab2:	2b00      	cmp	r3, #0
 8004ab4:	d043      	beq.n	8004b3e <pvPortMalloc+0xf6>
 8004ab6:	4a29      	ldr	r2, [pc, #164]	; (8004b5c <pvPortMalloc+0x114>)
 8004ab8:	6816      	ldr	r6, [r2, #0]
 8004aba:	429e      	cmp	r6, r3
 8004abc:	4690      	mov	r8, r2
 8004abe:	d33e      	bcc.n	8004b3e <pvPortMalloc+0xf6>
 8004ac0:	4a24      	ldr	r2, [pc, #144]	; (8004b54 <pvPortMalloc+0x10c>)
 8004ac2:	6815      	ldr	r5, [r2, #0]
 8004ac4:	6868      	ldr	r0, [r5, #4]
 8004ac6:	4298      	cmp	r0, r3
 8004ac8:	d201      	bcs.n	8004ace <pvPortMalloc+0x86>
 8004aca:	682c      	ldr	r4, [r5, #0]
 8004acc:	b9a4      	cbnz	r4, 8004af8 <pvPortMalloc+0xb0>
 8004ace:	6809      	ldr	r1, [r1, #0]
 8004ad0:	42a9      	cmp	r1, r5
 8004ad2:	d034      	beq.n	8004b3e <pvPortMalloc+0xf6>
 8004ad4:	6829      	ldr	r1, [r5, #0]
 8004ad6:	6814      	ldr	r4, [r2, #0]
 8004ad8:	6011      	str	r1, [r2, #0]
 8004ada:	1ac2      	subs	r2, r0, r3
 8004adc:	2a10      	cmp	r2, #16
 8004ade:	d912      	bls.n	8004b06 <pvPortMalloc+0xbe>
 8004ae0:	18e8      	adds	r0, r5, r3
 8004ae2:	0741      	lsls	r1, r0, #29
 8004ae4:	d00b      	beq.n	8004afe <pvPortMalloc+0xb6>
 8004ae6:	f04f 0350 	mov.w	r3, #80	; 0x50
 8004aea:	f383 8811 	msr	BASEPRI, r3
 8004aee:	f3bf 8f6f 	isb	sy
 8004af2:	f3bf 8f4f 	dsb	sy
 8004af6:	e7fe      	b.n	8004af6 <pvPortMalloc+0xae>
 8004af8:	462a      	mov	r2, r5
 8004afa:	4625      	mov	r5, r4
 8004afc:	e7e2      	b.n	8004ac4 <pvPortMalloc+0x7c>
 8004afe:	6042      	str	r2, [r0, #4]
 8004b00:	606b      	str	r3, [r5, #4]
 8004b02:	f7ff ff7d 	bl	8004a00 <prvInsertBlockIntoFreeList>
 8004b06:	4914      	ldr	r1, [pc, #80]	; (8004b58 <pvPortMalloc+0x110>)
 8004b08:	686b      	ldr	r3, [r5, #4]
 8004b0a:	6808      	ldr	r0, [r1, #0]
 8004b0c:	1af6      	subs	r6, r6, r3
 8004b0e:	431f      	orrs	r7, r3
 8004b10:	4286      	cmp	r6, r0
 8004b12:	f04f 0300 	mov.w	r3, #0
 8004b16:	f8c8 6000 	str.w	r6, [r8]
 8004b1a:	bf38      	it	cc
 8004b1c:	600e      	strcc	r6, [r1, #0]
 8004b1e:	3408      	adds	r4, #8
 8004b20:	606f      	str	r7, [r5, #4]
 8004b22:	602b      	str	r3, [r5, #0]
 8004b24:	f7ff f93e 	bl	8003da4 <xTaskResumeAll>
 8004b28:	0763      	lsls	r3, r4, #29
 8004b2a:	d00a      	beq.n	8004b42 <pvPortMalloc+0xfa>
 8004b2c:	f04f 0350 	mov.w	r3, #80	; 0x50
 8004b30:	f383 8811 	msr	BASEPRI, r3
 8004b34:	f3bf 8f6f 	isb	sy
 8004b38:	f3bf 8f4f 	dsb	sy
 8004b3c:	e7fe      	b.n	8004b3c <pvPortMalloc+0xf4>
 8004b3e:	2400      	movs	r4, #0
 8004b40:	e7f0      	b.n	8004b24 <pvPortMalloc+0xdc>
 8004b42:	4620      	mov	r0, r4
 8004b44:	e8bd 81f0 	ldmia.w	sp!, {r4, r5, r6, r7, r8, pc}
 8004b48:	20000e58 	.word	0x20000e58
 8004b4c:	20004a5c 	.word	0x20004a5c
 8004b50:	20000e5c 	.word	0x20000e5c
 8004b54:	20004a68 	.word	0x20004a68
 8004b58:	20004a64 	.word	0x20004a64
 8004b5c:	20004a60 	.word	0x20004a60

08004b60 <vPortFree>:
 8004b60:	b510      	push	{r4, lr}
 8004b62:	4604      	mov	r4, r0
 8004b64:	b370      	cbz	r0, 8004bc4 <vPortFree+0x64>
 8004b66:	4a18      	ldr	r2, [pc, #96]	; (8004bc8 <vPortFree+0x68>)
 8004b68:	f850 3c04 	ldr.w	r3, [r0, #-4]
 8004b6c:	6812      	ldr	r2, [r2, #0]
 8004b6e:	4213      	tst	r3, r2
 8004b70:	d108      	bne.n	8004b84 <vPortFree+0x24>
 8004b72:	f04f 0350 	mov.w	r3, #80	; 0x50
 8004b76:	f383 8811 	msr	BASEPRI, r3
 8004b7a:	f3bf 8f6f 	isb	sy
 8004b7e:	f3bf 8f4f 	dsb	sy
 8004b82:	e7fe      	b.n	8004b82 <vPortFree+0x22>
 8004b84:	f850 1c08 	ldr.w	r1, [r0, #-8]
 8004b88:	b141      	cbz	r1, 8004b9c <vPortFree+0x3c>
 8004b8a:	f04f 0350 	mov.w	r3, #80	; 0x50
 8004b8e:	f383 8811 	msr	BASEPRI, r3
 8004b92:	f3bf 8f6f 	isb	sy
 8004b96:	f3bf 8f4f 	dsb	sy
 8004b9a:	e7fe      	b.n	8004b9a <vPortFree+0x3a>
 8004b9c:	ea23 0302 	bic.w	r3, r3, r2
 8004ba0:	f840 3c04 	str.w	r3, [r0, #-4]
 8004ba4:	f7ff f858 	bl	8003c58 <vTaskSuspendAll>
 8004ba8:	4a08      	ldr	r2, [pc, #32]	; (8004bcc <vPortFree+0x6c>)
 8004baa:	f854 3c04 	ldr.w	r3, [r4, #-4]
 8004bae:	6811      	ldr	r1, [r2, #0]
 8004bb0:	f1a4 0008 	sub.w	r0, r4, #8
 8004bb4:	440b      	add	r3, r1
 8004bb6:	6013      	str	r3, [r2, #0]
 8004bb8:	f7ff ff22 	bl	8004a00 <prvInsertBlockIntoFreeList>
 8004bbc:	e8bd 4010 	ldmia.w	sp!, {r4, lr}
 8004bc0:	f7ff b8f0 	b.w	8003da4 <xTaskResumeAll>
 8004bc4:	bd10      	pop	{r4, pc}
 8004bc6:	bf00      	nop
 8004bc8:	20004a5c 	.word	0x20004a5c
 8004bcc:	20004a60 	.word	0x20004a60

08004bd0 <netconn_apimsg>:
 8004bd0:	680a      	ldr	r2, [r1, #0]
 8004bd2:	b510      	push	{r4, lr}
 8004bd4:	320c      	adds	r2, #12
 8004bd6:	460c      	mov	r4, r1
 8004bd8:	f001 fa8a 	bl	80060f0 <tcpip_send_msg_wait_sem>
 8004bdc:	b908      	cbnz	r0, 8004be2 <netconn_apimsg+0x12>
 8004bde:	f994 0004 	ldrsb.w	r0, [r4, #4]
 8004be2:	bd10      	pop	{r4, pc}

08004be4 <netconn_close_shutdown>:
 8004be4:	b500      	push	{lr}
 8004be6:	b089      	sub	sp, #36	; 0x24
 8004be8:	b958      	cbnz	r0, 8004c02 <netconn_close_shutdown+0x1e>
 8004bea:	4b0b      	ldr	r3, [pc, #44]	; (8004c18 <netconn_close_shutdown+0x34>)
 8004bec:	490b      	ldr	r1, [pc, #44]	; (8004c1c <netconn_close_shutdown+0x38>)
 8004bee:	480c      	ldr	r0, [pc, #48]	; (8004c20 <netconn_close_shutdown+0x3c>)
 8004bf0:	f240 4247 	movw	r2, #1095	; 0x447
 8004bf4:	f007 fd7c 	bl	800c6f0 <iprintf>
 8004bf8:	f06f 000f 	mvn.w	r0, #15
 8004bfc:	b009      	add	sp, #36	; 0x24
 8004bfe:	f85d fb04 	ldr.w	pc, [sp], #4
 8004c02:	9000      	str	r0, [sp, #0]
 8004c04:	f88d 1008 	strb.w	r1, [sp, #8]
 8004c08:	2329      	movs	r3, #41	; 0x29
 8004c0a:	4669      	mov	r1, sp
 8004c0c:	4805      	ldr	r0, [pc, #20]	; (8004c24 <netconn_close_shutdown+0x40>)
 8004c0e:	f88d 3009 	strb.w	r3, [sp, #9]
 8004c12:	f7ff ffdd 	bl	8004bd0 <netconn_apimsg>
 8004c16:	e7f1      	b.n	8004bfc <netconn_close_shutdown+0x18>
 8004c18:	0800d579 	.word	0x0800d579
 8004c1c:	0800d5ab 	.word	0x0800d5ab
 8004c20:	0800d51e 	.word	0x0800d51e
 8004c24:	08005e3d 	.word	0x08005e3d

08004c28 <netconn_new_with_proto_and_callback>:
 8004c28:	b570      	push	{r4, r5, r6, lr}
 8004c2a:	460d      	mov	r5, r1
 8004c2c:	b088      	sub	sp, #32
 8004c2e:	4611      	mov	r1, r2
 8004c30:	f000 febc 	bl	80059ac <netconn_alloc>
 8004c34:	4604      	mov	r4, r0
 8004c36:	2800      	cmp	r0, #0
 8004c38:	d03f      	beq.n	8004cba <netconn_new_with_proto_and_callback+0x92>
 8004c3a:	a908      	add	r1, sp, #32
 8004c3c:	f88d 5008 	strb.w	r5, [sp, #8]
 8004c40:	f841 0d20 	str.w	r0, [r1, #-32]!
 8004c44:	481e      	ldr	r0, [pc, #120]	; (8004cc0 <netconn_new_with_proto_and_callback+0x98>)
 8004c46:	f7ff ffc3 	bl	8004bd0 <netconn_apimsg>
 8004c4a:	2800      	cmp	r0, #0
 8004c4c:	d035      	beq.n	8004cba <netconn_new_with_proto_and_callback+0x92>
 8004c4e:	6863      	ldr	r3, [r4, #4]
 8004c50:	b12b      	cbz	r3, 8004c5e <netconn_new_with_proto_and_callback+0x36>
 8004c52:	4b1c      	ldr	r3, [pc, #112]	; (8004cc4 <netconn_new_with_proto_and_callback+0x9c>)
 8004c54:	491c      	ldr	r1, [pc, #112]	; (8004cc8 <netconn_new_with_proto_and_callback+0xa0>)
 8004c56:	481d      	ldr	r0, [pc, #116]	; (8004ccc <netconn_new_with_proto_and_callback+0xa4>)
 8004c58:	22a3      	movs	r2, #163	; 0xa3
 8004c5a:	f007 fd49 	bl	800c6f0 <iprintf>
 8004c5e:	f104 0510 	add.w	r5, r4, #16
 8004c62:	4628      	mov	r0, r5
 8004c64:	f007 fb50 	bl	800c308 <sys_mbox_valid>
 8004c68:	b928      	cbnz	r0, 8004c76 <netconn_new_with_proto_and_callback+0x4e>
 8004c6a:	4b16      	ldr	r3, [pc, #88]	; (8004cc4 <netconn_new_with_proto_and_callback+0x9c>)
 8004c6c:	4918      	ldr	r1, [pc, #96]	; (8004cd0 <netconn_new_with_proto_and_callback+0xa8>)
 8004c6e:	4817      	ldr	r0, [pc, #92]	; (8004ccc <netconn_new_with_proto_and_callback+0xa4>)
 8004c70:	22a4      	movs	r2, #164	; 0xa4
 8004c72:	f007 fd3d 	bl	800c6f0 <iprintf>
 8004c76:	f104 0014 	add.w	r0, r4, #20
 8004c7a:	f007 fb45 	bl	800c308 <sys_mbox_valid>
 8004c7e:	b128      	cbz	r0, 8004c8c <netconn_new_with_proto_and_callback+0x64>
 8004c80:	4b10      	ldr	r3, [pc, #64]	; (8004cc4 <netconn_new_with_proto_and_callback+0x9c>)
 8004c82:	4914      	ldr	r1, [pc, #80]	; (8004cd4 <netconn_new_with_proto_and_callback+0xac>)
 8004c84:	4811      	ldr	r0, [pc, #68]	; (8004ccc <netconn_new_with_proto_and_callback+0xa4>)
 8004c86:	22a6      	movs	r2, #166	; 0xa6
 8004c88:	f007 fd32 	bl	800c6f0 <iprintf>
 8004c8c:	f104 060c 	add.w	r6, r4, #12
 8004c90:	4630      	mov	r0, r6
 8004c92:	f007 fb75 	bl	800c380 <sys_sem_valid>
 8004c96:	b928      	cbnz	r0, 8004ca4 <netconn_new_with_proto_and_callback+0x7c>
 8004c98:	4b0a      	ldr	r3, [pc, #40]	; (8004cc4 <netconn_new_with_proto_and_callback+0x9c>)
 8004c9a:	490f      	ldr	r1, [pc, #60]	; (8004cd8 <netconn_new_with_proto_and_callback+0xb0>)
 8004c9c:	480b      	ldr	r0, [pc, #44]	; (8004ccc <netconn_new_with_proto_and_callback+0xa4>)
 8004c9e:	22a9      	movs	r2, #169	; 0xa9
 8004ca0:	f007 fd26 	bl	800c6f0 <iprintf>
 8004ca4:	4630      	mov	r0, r6
 8004ca6:	f007 fb68 	bl	800c37a <sys_sem_free>
 8004caa:	4628      	mov	r0, r5
 8004cac:	f007 fae9 	bl	800c282 <sys_mbox_free>
 8004cb0:	4621      	mov	r1, r4
 8004cb2:	2006      	movs	r0, #6
 8004cb4:	f001 fd68 	bl	8006788 <memp_free>
 8004cb8:	2400      	movs	r4, #0
 8004cba:	4620      	mov	r0, r4
 8004cbc:	b008      	add	sp, #32
 8004cbe:	bd70      	pop	{r4, r5, r6, pc}
 8004cc0:	08005975 	.word	0x08005975
 8004cc4:	0800d579 	.word	0x0800d579
 8004cc8:	0800d5e5 	.word	0x0800d5e5
 8004ccc:	0800d51e 	.word	0x0800d51e
 8004cd0:	0800d606 	.word	0x0800d606
 8004cd4:	0800d61b 	.word	0x0800d61b
 8004cd8:	0800d63c 	.word	0x0800d63c

08004cdc <netconn_prepare_delete>:
 8004cdc:	b500      	push	{lr}
 8004cde:	b089      	sub	sp, #36	; 0x24
 8004ce0:	b138      	cbz	r0, 8004cf2 <netconn_prepare_delete+0x16>
 8004ce2:	9000      	str	r0, [sp, #0]
 8004ce4:	2329      	movs	r3, #41	; 0x29
 8004ce6:	4669      	mov	r1, sp
 8004ce8:	4803      	ldr	r0, [pc, #12]	; (8004cf8 <netconn_prepare_delete+0x1c>)
 8004cea:	f88d 3009 	strb.w	r3, [sp, #9]
 8004cee:	f7ff ff6f 	bl	8004bd0 <netconn_apimsg>
 8004cf2:	b009      	add	sp, #36	; 0x24
 8004cf4:	f85d fb04 	ldr.w	pc, [sp], #4
 8004cf8:	08005b4d 	.word	0x08005b4d

08004cfc <netconn_delete>:
 8004cfc:	b538      	push	{r3, r4, r5, lr}
 8004cfe:	4605      	mov	r5, r0
 8004d00:	b140      	cbz	r0, 8004d14 <netconn_delete+0x18>
 8004d02:	f7ff ffeb 	bl	8004cdc <netconn_prepare_delete>
 8004d06:	4604      	mov	r4, r0
 8004d08:	b910      	cbnz	r0, 8004d10 <netconn_delete+0x14>
 8004d0a:	4628      	mov	r0, r5
 8004d0c:	f000 fe92 	bl	8005a34 <netconn_free>
 8004d10:	4620      	mov	r0, r4
 8004d12:	bd38      	pop	{r3, r4, r5, pc}
 8004d14:	4604      	mov	r4, r0
 8004d16:	e7fb      	b.n	8004d10 <netconn_delete+0x14>

08004d18 <netconn_bind>:
 8004d18:	b500      	push	{lr}
 8004d1a:	b089      	sub	sp, #36	; 0x24
 8004d1c:	b958      	cbnz	r0, 8004d36 <netconn_bind+0x1e>
 8004d1e:	4b0c      	ldr	r3, [pc, #48]	; (8004d50 <netconn_bind+0x38>)
 8004d20:	490c      	ldr	r1, [pc, #48]	; (8004d54 <netconn_bind+0x3c>)
 8004d22:	480d      	ldr	r0, [pc, #52]	; (8004d58 <netconn_bind+0x40>)
 8004d24:	f44f 729c 	mov.w	r2, #312	; 0x138
 8004d28:	f007 fce2 	bl	800c6f0 <iprintf>
 8004d2c:	f06f 000f 	mvn.w	r0, #15
 8004d30:	b009      	add	sp, #36	; 0x24
 8004d32:	f85d fb04 	ldr.w	pc, [sp], #4
 8004d36:	4b09      	ldr	r3, [pc, #36]	; (8004d5c <netconn_bind+0x44>)
 8004d38:	9000      	str	r0, [sp, #0]
 8004d3a:	2900      	cmp	r1, #0
 8004d3c:	bf08      	it	eq
 8004d3e:	4619      	moveq	r1, r3
 8004d40:	9102      	str	r1, [sp, #8]
 8004d42:	4807      	ldr	r0, [pc, #28]	; (8004d60 <netconn_bind+0x48>)
 8004d44:	f8ad 200c 	strh.w	r2, [sp, #12]
 8004d48:	4669      	mov	r1, sp
 8004d4a:	f7ff ff41 	bl	8004bd0 <netconn_apimsg>
 8004d4e:	e7ef      	b.n	8004d30 <netconn_bind+0x18>
 8004d50:	0800d579 	.word	0x0800d579
 8004d54:	0800d55e 	.word	0x0800d55e
 8004d58:	0800d51e 	.word	0x0800d51e
 8004d5c:	0800f838 	.word	0x0800f838
 8004d60:	08005c4d 	.word	0x08005c4d

08004d64 <netconn_connect>:
 8004d64:	b500      	push	{lr}
 8004d66:	b089      	sub	sp, #36	; 0x24
 8004d68:	b958      	cbnz	r0, 8004d82 <netconn_connect+0x1e>
 8004d6a:	4b0c      	ldr	r3, [pc, #48]	; (8004d9c <netconn_connect+0x38>)
 8004d6c:	490c      	ldr	r1, [pc, #48]	; (8004da0 <netconn_connect+0x3c>)
 8004d6e:	480d      	ldr	r0, [pc, #52]	; (8004da4 <netconn_connect+0x40>)
 8004d70:	f44f 72bf 	mov.w	r2, #382	; 0x17e
 8004d74:	f007 fcbc 	bl	800c6f0 <iprintf>
 8004d78:	f06f 000f 	mvn.w	r0, #15
 8004d7c:	b009      	add	sp, #36	; 0x24
 8004d7e:	f85d fb04 	ldr.w	pc, [sp], #4
 8004d82:	4b09      	ldr	r3, [pc, #36]	; (8004da8 <netconn_connect+0x44>)
 8004d84:	9000      	str	r0, [sp, #0]
 8004d86:	2900      	cmp	r1, #0
 8004d88:	bf08      	it	eq
 8004d8a:	4619      	moveq	r1, r3
 8004d8c:	9102      	str	r1, [sp, #8]
 8004d8e:	4807      	ldr	r0, [pc, #28]	; (8004dac <netconn_connect+0x48>)
 8004d90:	f8ad 200c 	strh.w	r2, [sp, #12]
 8004d94:	4669      	mov	r1, sp
 8004d96:	f7ff ff1b 	bl	8004bd0 <netconn_apimsg>
 8004d9a:	e7ef      	b.n	8004d7c <netconn_connect+0x18>
 8004d9c:	0800d579 	.word	0x0800d579
 8004da0:	0800d5c7 	.word	0x0800d5c7
 8004da4:	0800d51e 	.word	0x0800d51e
 8004da8:	0800f838 	.word	0x0800f838
 8004dac:	08005c75 	.word	0x08005c75

08004db0 <netconn_write_vectors_partly>:
 8004db0:	e92d 41f0 	stmdb	sp!, {r4, r5, r6, r7, r8, lr}
 8004db4:	b088      	sub	sp, #32
 8004db6:	f8dd 8038 	ldr.w	r8, [sp, #56]	; 0x38
 8004dba:	b960      	cbnz	r0, 8004dd6 <netconn_write_vectors_partly+0x26>
 8004dbc:	4b32      	ldr	r3, [pc, #200]	; (8004e88 <netconn_write_vectors_partly+0xd8>)
 8004dbe:	4933      	ldr	r1, [pc, #204]	; (8004e8c <netconn_write_vectors_partly+0xdc>)
 8004dc0:	4833      	ldr	r0, [pc, #204]	; (8004e90 <netconn_write_vectors_partly+0xe0>)
 8004dc2:	f240 32ee 	movw	r2, #1006	; 0x3ee
 8004dc6:	f007 fc93 	bl	800c6f0 <iprintf>
 8004dca:	f06f 040f 	mvn.w	r4, #15
 8004dce:	4620      	mov	r0, r4
 8004dd0:	b008      	add	sp, #32
 8004dd2:	e8bd 81f0 	ldmia.w	sp!, {r4, r5, r6, r7, r8, pc}
 8004dd6:	7804      	ldrb	r4, [r0, #0]
 8004dd8:	f004 04f0 	and.w	r4, r4, #240	; 0xf0
 8004ddc:	2c10      	cmp	r4, #16
 8004dde:	d009      	beq.n	8004df4 <netconn_write_vectors_partly+0x44>
 8004de0:	4b29      	ldr	r3, [pc, #164]	; (8004e88 <netconn_write_vectors_partly+0xd8>)
 8004de2:	492c      	ldr	r1, [pc, #176]	; (8004e94 <netconn_write_vectors_partly+0xe4>)
 8004de4:	482a      	ldr	r0, [pc, #168]	; (8004e90 <netconn_write_vectors_partly+0xe0>)
 8004de6:	f240 32ef 	movw	r2, #1007	; 0x3ef
 8004dea:	f007 fc81 	bl	800c6f0 <iprintf>
 8004dee:	f06f 0405 	mvn.w	r4, #5
 8004df2:	e7ec      	b.n	8004dce <netconn_write_vectors_partly+0x1e>
 8004df4:	7f04      	ldrb	r4, [r0, #28]
 8004df6:	07a4      	lsls	r4, r4, #30
 8004df8:	d402      	bmi.n	8004e00 <netconn_write_vectors_partly+0x50>
 8004dfa:	f013 0704 	ands.w	r7, r3, #4
 8004dfe:	d003      	beq.n	8004e08 <netconn_write_vectors_partly+0x58>
 8004e00:	f1b8 0f00 	cmp.w	r8, #0
 8004e04:	d0f3      	beq.n	8004dee <netconn_write_vectors_partly+0x3e>
 8004e06:	2701      	movs	r7, #1
 8004e08:	2400      	movs	r4, #0
 8004e0a:	4625      	mov	r5, r4
 8004e0c:	e00c      	b.n	8004e28 <netconn_write_vectors_partly+0x78>
 8004e0e:	eb01 06c4 	add.w	r6, r1, r4, lsl #3
 8004e12:	f04f 0c00 	mov.w	ip, #0
 8004e16:	6876      	ldr	r6, [r6, #4]
 8004e18:	1975      	adds	r5, r6, r5
 8004e1a:	bf28      	it	cs
 8004e1c:	f04f 0c01 	movcs.w	ip, #1
 8004e20:	f1bc 0f00 	cmp.w	ip, #0
 8004e24:	d1e3      	bne.n	8004dee <netconn_write_vectors_partly+0x3e>
 8004e26:	3401      	adds	r4, #1
 8004e28:	42a2      	cmp	r2, r4
 8004e2a:	dcf0      	bgt.n	8004e0e <netconn_write_vectors_partly+0x5e>
 8004e2c:	2d00      	cmp	r5, #0
 8004e2e:	d101      	bne.n	8004e34 <netconn_write_vectors_partly+0x84>
 8004e30:	2400      	movs	r4, #0
 8004e32:	e7cc      	b.n	8004dce <netconn_write_vectors_partly+0x1e>
 8004e34:	da04      	bge.n	8004e40 <netconn_write_vectors_partly+0x90>
 8004e36:	f1b8 0f00 	cmp.w	r8, #0
 8004e3a:	d0d8      	beq.n	8004dee <netconn_write_vectors_partly+0x3e>
 8004e3c:	f06f 4500 	mvn.w	r5, #2147483648	; 0x80000000
 8004e40:	9000      	str	r0, [sp, #0]
 8004e42:	9102      	str	r1, [sp, #8]
 8004e44:	f8ad 200c 	strh.w	r2, [sp, #12]
 8004e48:	4669      	mov	r1, sp
 8004e4a:	2200      	movs	r2, #0
 8004e4c:	4812      	ldr	r0, [pc, #72]	; (8004e98 <netconn_write_vectors_partly+0xe8>)
 8004e4e:	9204      	str	r2, [sp, #16]
 8004e50:	f88d 301c 	strb.w	r3, [sp, #28]
 8004e54:	e9cd 5205 	strd	r5, r2, [sp, #20]
 8004e58:	f7ff feba 	bl	8004bd0 <netconn_apimsg>
 8004e5c:	4604      	mov	r4, r0
 8004e5e:	2800      	cmp	r0, #0
 8004e60:	d1b5      	bne.n	8004dce <netconn_write_vectors_partly+0x1e>
 8004e62:	f1b8 0f00 	cmp.w	r8, #0
 8004e66:	d002      	beq.n	8004e6e <netconn_write_vectors_partly+0xbe>
 8004e68:	9b06      	ldr	r3, [sp, #24]
 8004e6a:	f8c8 3000 	str.w	r3, [r8]
 8004e6e:	2f00      	cmp	r7, #0
 8004e70:	d1de      	bne.n	8004e30 <netconn_write_vectors_partly+0x80>
 8004e72:	9b06      	ldr	r3, [sp, #24]
 8004e74:	42ab      	cmp	r3, r5
 8004e76:	d0db      	beq.n	8004e30 <netconn_write_vectors_partly+0x80>
 8004e78:	4b03      	ldr	r3, [pc, #12]	; (8004e88 <netconn_write_vectors_partly+0xd8>)
 8004e7a:	4908      	ldr	r1, [pc, #32]	; (8004e9c <netconn_write_vectors_partly+0xec>)
 8004e7c:	4804      	ldr	r0, [pc, #16]	; (8004e90 <netconn_write_vectors_partly+0xe0>)
 8004e7e:	f44f 6286 	mov.w	r2, #1072	; 0x430
 8004e82:	f007 fc35 	bl	800c6f0 <iprintf>
 8004e86:	e7a2      	b.n	8004dce <netconn_write_vectors_partly+0x1e>
 8004e88:	0800d579 	.word	0x0800d579
 8004e8c:	0800d6b2 	.word	0x0800d6b2
 8004e90:	0800d51e 	.word	0x0800d51e
 8004e94:	0800d6ce 	.word	0x0800d6ce
 8004e98:	08005d75 	.word	0x08005d75
 8004e9c:	0800d6f0 	.word	0x0800d6f0

08004ea0 <netconn_write_partly>:
 8004ea0:	b51f      	push	{r0, r1, r2, r3, r4, lr}
 8004ea2:	e9cd 1202 	strd	r1, r2, [sp, #8]
 8004ea6:	9a06      	ldr	r2, [sp, #24]
 8004ea8:	9200      	str	r2, [sp, #0]
 8004eaa:	a902      	add	r1, sp, #8
 8004eac:	2201      	movs	r2, #1
 8004eae:	f7ff ff7f 	bl	8004db0 <netconn_write_vectors_partly>
 8004eb2:	b005      	add	sp, #20
 8004eb4:	f85d fb04 	ldr.w	pc, [sp], #4

08004eb8 <netconn_close>:
 8004eb8:	2103      	movs	r1, #3
 8004eba:	f7ff be93 	b.w	8004be4 <netconn_close_shutdown>

08004ebe <netconn_err>:
 8004ebe:	b538      	push	{r3, r4, r5, lr}
 8004ec0:	4604      	mov	r4, r0
 8004ec2:	b148      	cbz	r0, 8004ed8 <netconn_err+0x1a>
 8004ec4:	f007 fa98 	bl	800c3f8 <sys_arch_protect>
 8004ec8:	2300      	movs	r3, #0
 8004eca:	f994 5008 	ldrsb.w	r5, [r4, #8]
 8004ece:	7223      	strb	r3, [r4, #8]
 8004ed0:	f007 fa9e 	bl	800c410 <sys_arch_unprotect>
 8004ed4:	4628      	mov	r0, r5
 8004ed6:	bd38      	pop	{r3, r4, r5, pc}
 8004ed8:	4605      	mov	r5, r0
 8004eda:	e7fb      	b.n	8004ed4 <netconn_err+0x16>

08004edc <netconn_recv_data>:
 8004edc:	b5f7      	push	{r0, r1, r2, r4, r5, r6, r7, lr}
 8004ede:	2300      	movs	r3, #0
 8004ee0:	4604      	mov	r4, r0
 8004ee2:	4617      	mov	r7, r2
 8004ee4:	9301      	str	r3, [sp, #4]
 8004ee6:	460d      	mov	r5, r1
 8004ee8:	b951      	cbnz	r1, 8004f00 <netconn_recv_data+0x24>
 8004eea:	4b2b      	ldr	r3, [pc, #172]	; (8004f98 <netconn_recv_data+0xbc>)
 8004eec:	492b      	ldr	r1, [pc, #172]	; (8004f9c <netconn_recv_data+0xc0>)
 8004eee:	f44f 7212 	mov.w	r2, #584	; 0x248
 8004ef2:	482b      	ldr	r0, [pc, #172]	; (8004fa0 <netconn_recv_data+0xc4>)
 8004ef4:	f007 fbfc 	bl	800c6f0 <iprintf>
 8004ef8:	f06f 000f 	mvn.w	r0, #15
 8004efc:	b003      	add	sp, #12
 8004efe:	bdf0      	pop	{r4, r5, r6, r7, pc}
 8004f00:	600b      	str	r3, [r1, #0]
 8004f02:	b920      	cbnz	r0, 8004f0e <netconn_recv_data+0x32>
 8004f04:	4b24      	ldr	r3, [pc, #144]	; (8004f98 <netconn_recv_data+0xbc>)
 8004f06:	4927      	ldr	r1, [pc, #156]	; (8004fa4 <netconn_recv_data+0xc8>)
 8004f08:	f240 224a 	movw	r2, #586	; 0x24a
 8004f0c:	e7f1      	b.n	8004ef2 <netconn_recv_data+0x16>
 8004f0e:	f100 0610 	add.w	r6, r0, #16
 8004f12:	4630      	mov	r0, r6
 8004f14:	f007 f9f8 	bl	800c308 <sys_mbox_valid>
 8004f18:	b938      	cbnz	r0, 8004f2a <netconn_recv_data+0x4e>
 8004f1a:	4620      	mov	r0, r4
 8004f1c:	f7ff ffcf 	bl	8004ebe <netconn_err>
 8004f20:	2800      	cmp	r0, #0
 8004f22:	d1eb      	bne.n	8004efc <netconn_recv_data+0x20>
 8004f24:	f06f 000a 	mvn.w	r0, #10
 8004f28:	e7e8      	b.n	8004efc <netconn_recv_data+0x20>
 8004f2a:	7f23      	ldrb	r3, [r4, #28]
 8004f2c:	0798      	lsls	r0, r3, #30
 8004f2e:	d406      	bmi.n	8004f3e <netconn_recv_data+0x62>
 8004f30:	0779      	lsls	r1, r7, #29
 8004f32:	d404      	bmi.n	8004f3e <netconn_recv_data+0x62>
 8004f34:	07da      	lsls	r2, r3, #31
 8004f36:	d402      	bmi.n	8004f3e <netconn_recv_data+0x62>
 8004f38:	f994 2008 	ldrsb.w	r2, [r4, #8]
 8004f3c:	b182      	cbz	r2, 8004f60 <netconn_recv_data+0x84>
 8004f3e:	a901      	add	r1, sp, #4
 8004f40:	4630      	mov	r0, r6
 8004f42:	f007 f9d6 	bl	800c2f2 <sys_arch_mbox_tryfetch>
 8004f46:	3001      	adds	r0, #1
 8004f48:	d10e      	bne.n	8004f68 <netconn_recv_data+0x8c>
 8004f4a:	4620      	mov	r0, r4
 8004f4c:	f7ff ffb7 	bl	8004ebe <netconn_err>
 8004f50:	2800      	cmp	r0, #0
 8004f52:	d1d3      	bne.n	8004efc <netconn_recv_data+0x20>
 8004f54:	7f23      	ldrb	r3, [r4, #28]
 8004f56:	07db      	lsls	r3, r3, #31
 8004f58:	d4e4      	bmi.n	8004f24 <netconn_recv_data+0x48>
 8004f5a:	f06f 0006 	mvn.w	r0, #6
 8004f5e:	e7cd      	b.n	8004efc <netconn_recv_data+0x20>
 8004f60:	a901      	add	r1, sp, #4
 8004f62:	4630      	mov	r0, r6
 8004f64:	f007 f9a7 	bl	800c2b6 <sys_arch_mbox_fetch>
 8004f68:	f10d 0103 	add.w	r1, sp, #3
 8004f6c:	9801      	ldr	r0, [sp, #4]
 8004f6e:	f000 fcd7 	bl	8005920 <lwip_netconn_is_err_msg>
 8004f72:	b130      	cbz	r0, 8004f82 <netconn_recv_data+0xa6>
 8004f74:	f99d 0003 	ldrsb.w	r0, [sp, #3]
 8004f78:	f110 0f0f 	cmn.w	r0, #15
 8004f7c:	bf08      	it	eq
 8004f7e:	2000      	moveq	r0, #0
 8004f80:	e7bc      	b.n	8004efc <netconn_recv_data+0x20>
 8004f82:	9b01      	ldr	r3, [sp, #4]
 8004f84:	891a      	ldrh	r2, [r3, #8]
 8004f86:	6a63      	ldr	r3, [r4, #36]	; 0x24
 8004f88:	b113      	cbz	r3, 8004f90 <netconn_recv_data+0xb4>
 8004f8a:	2101      	movs	r1, #1
 8004f8c:	4620      	mov	r0, r4
 8004f8e:	4798      	blx	r3
 8004f90:	9b01      	ldr	r3, [sp, #4]
 8004f92:	602b      	str	r3, [r5, #0]
 8004f94:	2000      	movs	r0, #0
 8004f96:	e7b1      	b.n	8004efc <netconn_recv_data+0x20>
 8004f98:	0800d579 	.word	0x0800d579
 8004f9c:	0800d655 	.word	0x0800d655
 8004fa0:	0800d51e 	.word	0x0800d51e
 8004fa4:	0800d673 	.word	0x0800d673

08004fa8 <netconn_recv_data_tcp>:
 8004fa8:	b5f0      	push	{r4, r5, r6, r7, lr}
 8004faa:	4604      	mov	r4, r0
 8004fac:	b089      	sub	sp, #36	; 0x24
 8004fae:	3010      	adds	r0, #16
 8004fb0:	460f      	mov	r7, r1
 8004fb2:	4616      	mov	r6, r2
 8004fb4:	f007 f9a8 	bl	800c308 <sys_mbox_valid>
 8004fb8:	2800      	cmp	r0, #0
 8004fba:	d04a      	beq.n	8005052 <netconn_recv_data_tcp+0xaa>
 8004fbc:	7f23      	ldrb	r3, [r4, #28]
 8004fbe:	0619      	lsls	r1, r3, #24
 8004fc0:	d513      	bpl.n	8004fea <netconn_recv_data_tcp+0x42>
 8004fc2:	f003 037f 	and.w	r3, r3, #127	; 0x7f
 8004fc6:	7723      	strb	r3, [r4, #28]
 8004fc8:	6a63      	ldr	r3, [r4, #36]	; 0x24
 8004fca:	b11b      	cbz	r3, 8004fd4 <netconn_recv_data_tcp+0x2c>
 8004fcc:	2200      	movs	r2, #0
 8004fce:	2101      	movs	r1, #1
 8004fd0:	4620      	mov	r0, r4
 8004fd2:	4798      	blx	r3
 8004fd4:	6863      	ldr	r3, [r4, #4]
 8004fd6:	2b00      	cmp	r3, #0
 8004fd8:	d134      	bne.n	8005044 <netconn_recv_data_tcp+0x9c>
 8004fda:	4620      	mov	r0, r4
 8004fdc:	f7ff ff6f 	bl	8004ebe <netconn_err>
 8004fe0:	1e05      	subs	r5, r0, #0
 8004fe2:	bf08      	it	eq
 8004fe4:	f06f 050d 	mvneq.w	r5, #13
 8004fe8:	e020      	b.n	800502c <netconn_recv_data_tcp+0x84>
 8004fea:	4632      	mov	r2, r6
 8004fec:	4639      	mov	r1, r7
 8004fee:	4620      	mov	r0, r4
 8004ff0:	f7ff ff74 	bl	8004edc <netconn_recv_data>
 8004ff4:	4605      	mov	r5, r0
 8004ff6:	b9c8      	cbnz	r0, 800502c <netconn_recv_data_tcp+0x84>
 8004ff8:	0732      	lsls	r2, r6, #28
 8004ffa:	683f      	ldr	r7, [r7, #0]
 8004ffc:	d40d      	bmi.n	800501a <netconn_recv_data_tcp+0x72>
 8004ffe:	b1c7      	cbz	r7, 8005032 <netconn_recv_data_tcp+0x8a>
 8005000:	893a      	ldrh	r2, [r7, #8]
 8005002:	7823      	ldrb	r3, [r4, #0]
 8005004:	f003 03f0 	and.w	r3, r3, #240	; 0xf0
 8005008:	2b10      	cmp	r3, #16
 800500a:	d014      	beq.n	8005036 <netconn_recv_data_tcp+0x8e>
 800500c:	4b12      	ldr	r3, [pc, #72]	; (8005058 <netconn_recv_data_tcp+0xb0>)
 800500e:	4913      	ldr	r1, [pc, #76]	; (800505c <netconn_recv_data_tcp+0xb4>)
 8005010:	4813      	ldr	r0, [pc, #76]	; (8005060 <netconn_recv_data_tcp+0xb8>)
 8005012:	f44f 722a 	mov.w	r2, #680	; 0x2a8
 8005016:	f007 fb6b 	bl	800c6f0 <iprintf>
 800501a:	b93f      	cbnz	r7, 800502c <netconn_recv_data_tcp+0x84>
 800501c:	06f3      	lsls	r3, r6, #27
 800501e:	d5d3      	bpl.n	8004fc8 <netconn_recv_data_tcp+0x20>
 8005020:	7f23      	ldrb	r3, [r4, #28]
 8005022:	f063 037f 	orn	r3, r3, #127	; 0x7f
 8005026:	7723      	strb	r3, [r4, #28]
 8005028:	f06f 0506 	mvn.w	r5, #6
 800502c:	4628      	mov	r0, r5
 800502e:	b009      	add	sp, #36	; 0x24
 8005030:	bdf0      	pop	{r4, r5, r6, r7, pc}
 8005032:	2201      	movs	r2, #1
 8005034:	e7e5      	b.n	8005002 <netconn_recv_data_tcp+0x5a>
 8005036:	4669      	mov	r1, sp
 8005038:	480a      	ldr	r0, [pc, #40]	; (8005064 <netconn_recv_data_tcp+0xbc>)
 800503a:	9400      	str	r4, [sp, #0]
 800503c:	9202      	str	r2, [sp, #8]
 800503e:	f7ff fdc7 	bl	8004bd0 <netconn_apimsg>
 8005042:	e7ea      	b.n	800501a <netconn_recv_data_tcp+0x72>
 8005044:	2101      	movs	r1, #1
 8005046:	4620      	mov	r0, r4
 8005048:	f7ff fdcc 	bl	8004be4 <netconn_close_shutdown>
 800504c:	f06f 050e 	mvn.w	r5, #14
 8005050:	e7ec      	b.n	800502c <netconn_recv_data_tcp+0x84>
 8005052:	f06f 050a 	mvn.w	r5, #10
 8005056:	e7e9      	b.n	800502c <netconn_recv_data_tcp+0x84>
 8005058:	0800d579 	.word	0x0800d579
 800505c:	0800d68e 	.word	0x0800d68e
 8005060:	0800d51e 	.word	0x0800d51e
 8005064:	08005d3d 	.word	0x08005d3d

08005068 <netconn_recv>:
 8005068:	b5f7      	push	{r0, r1, r2, r4, r5, r6, r7, lr}
 800506a:	4607      	mov	r7, r0
 800506c:	460e      	mov	r6, r1
 800506e:	b959      	cbnz	r1, 8005088 <netconn_recv+0x20>
 8005070:	4b1c      	ldr	r3, [pc, #112]	; (80050e4 <netconn_recv+0x7c>)
 8005072:	491d      	ldr	r1, [pc, #116]	; (80050e8 <netconn_recv+0x80>)
 8005074:	f240 3263 	movw	r2, #867	; 0x363
 8005078:	481c      	ldr	r0, [pc, #112]	; (80050ec <netconn_recv+0x84>)
 800507a:	f007 fb39 	bl	800c6f0 <iprintf>
 800507e:	f06f 050f 	mvn.w	r5, #15
 8005082:	4628      	mov	r0, r5
 8005084:	b003      	add	sp, #12
 8005086:	bdf0      	pop	{r4, r5, r6, r7, pc}
 8005088:	2500      	movs	r5, #0
 800508a:	600d      	str	r5, [r1, #0]
 800508c:	b920      	cbnz	r0, 8005098 <netconn_recv+0x30>
 800508e:	4b15      	ldr	r3, [pc, #84]	; (80050e4 <netconn_recv+0x7c>)
 8005090:	4917      	ldr	r1, [pc, #92]	; (80050f0 <netconn_recv+0x88>)
 8005092:	f240 3265 	movw	r2, #869	; 0x365
 8005096:	e7ef      	b.n	8005078 <netconn_recv+0x10>
 8005098:	2005      	movs	r0, #5
 800509a:	9501      	str	r5, [sp, #4]
 800509c:	f001 fb58 	bl	8006750 <memp_malloc>
 80050a0:	4604      	mov	r4, r0
 80050a2:	b1e0      	cbz	r0, 80050de <netconn_recv+0x76>
 80050a4:	462a      	mov	r2, r5
 80050a6:	a901      	add	r1, sp, #4
 80050a8:	4638      	mov	r0, r7
 80050aa:	f7ff ff7d 	bl	8004fa8 <netconn_recv_data_tcp>
 80050ae:	4605      	mov	r5, r0
 80050b0:	b120      	cbz	r0, 80050bc <netconn_recv+0x54>
 80050b2:	4621      	mov	r1, r4
 80050b4:	2005      	movs	r0, #5
 80050b6:	f001 fb67 	bl	8006788 <memp_free>
 80050ba:	e7e2      	b.n	8005082 <netconn_recv+0x1a>
 80050bc:	9b01      	ldr	r3, [sp, #4]
 80050be:	b933      	cbnz	r3, 80050ce <netconn_recv+0x66>
 80050c0:	4b08      	ldr	r3, [pc, #32]	; (80050e4 <netconn_recv+0x7c>)
 80050c2:	490c      	ldr	r1, [pc, #48]	; (80050f4 <netconn_recv+0x8c>)
 80050c4:	4809      	ldr	r0, [pc, #36]	; (80050ec <netconn_recv+0x84>)
 80050c6:	f240 3279 	movw	r2, #889	; 0x379
 80050ca:	f007 fb11 	bl	800c6f0 <iprintf>
 80050ce:	9b01      	ldr	r3, [sp, #4]
 80050d0:	e9c4 3300 	strd	r3, r3, [r4]
 80050d4:	2300      	movs	r3, #0
 80050d6:	81a3      	strh	r3, [r4, #12]
 80050d8:	60a3      	str	r3, [r4, #8]
 80050da:	6034      	str	r4, [r6, #0]
 80050dc:	e7d1      	b.n	8005082 <netconn_recv+0x1a>
 80050de:	f04f 35ff 	mov.w	r5, #4294967295
 80050e2:	e7ce      	b.n	8005082 <netconn_recv+0x1a>
 80050e4:	0800d579 	.word	0x0800d579
 80050e8:	0800d655 	.word	0x0800d655
 80050ec:	0800d51e 	.word	0x0800d51e
 80050f0:	0800d673 	.word	0x0800d673
 80050f4:	0800e349 	.word	0x0800e349

080050f8 <setup_tcp>:
 80050f8:	b510      	push	{r4, lr}
 80050fa:	6844      	ldr	r4, [r0, #4]
 80050fc:	4601      	mov	r1, r0
 80050fe:	4620      	mov	r0, r4
 8005100:	f002 f9d4 	bl	80074ac <tcp_arg>
 8005104:	4620      	mov	r0, r4
 8005106:	4909      	ldr	r1, [pc, #36]	; (800512c <setup_tcp+0x34>)
 8005108:	f002 f9d4 	bl	80074b4 <tcp_recv>
 800510c:	4620      	mov	r0, r4
 800510e:	4908      	ldr	r1, [pc, #32]	; (8005130 <setup_tcp+0x38>)
 8005110:	f002 f9e8 	bl	80074e4 <tcp_sent>
 8005114:	4620      	mov	r0, r4
 8005116:	4907      	ldr	r1, [pc, #28]	; (8005134 <setup_tcp+0x3c>)
 8005118:	2202      	movs	r2, #2
 800511a:	f002 fa19 	bl	8007550 <tcp_poll>
 800511e:	4620      	mov	r0, r4
 8005120:	4905      	ldr	r1, [pc, #20]	; (8005138 <setup_tcp+0x40>)
 8005122:	e8bd 4010 	ldmia.w	sp!, {r4, lr}
 8005126:	f002 b9f5 	b.w	8007514 <tcp_err>
 800512a:	bf00      	nop
 800512c:	08005691 	.word	0x08005691
 8005130:	080058b5 	.word	0x080058b5
 8005134:	08005619 	.word	0x08005619
 8005138:	08005761 	.word	0x08005761

0800513c <lwip_netconn_do_connected>:
 800513c:	b570      	push	{r4, r5, r6, lr}
 800513e:	4616      	mov	r6, r2
 8005140:	4604      	mov	r4, r0
 8005142:	2800      	cmp	r0, #0
 8005144:	d043      	beq.n	80051ce <lwip_netconn_do_connected+0x92>
 8005146:	7843      	ldrb	r3, [r0, #1]
 8005148:	2b03      	cmp	r3, #3
 800514a:	d006      	beq.n	800515a <lwip_netconn_do_connected+0x1e>
 800514c:	4b21      	ldr	r3, [pc, #132]	; (80051d4 <lwip_netconn_do_connected+0x98>)
 800514e:	4922      	ldr	r1, [pc, #136]	; (80051d8 <lwip_netconn_do_connected+0x9c>)
 8005150:	4822      	ldr	r0, [pc, #136]	; (80051dc <lwip_netconn_do_connected+0xa0>)
 8005152:	f240 5223 	movw	r2, #1315	; 0x523
 8005156:	f007 facb 	bl	800c6f0 <iprintf>
 800515a:	6a23      	ldr	r3, [r4, #32]
 800515c:	b94b      	cbnz	r3, 8005172 <lwip_netconn_do_connected+0x36>
 800515e:	7f23      	ldrb	r3, [r4, #28]
 8005160:	075b      	lsls	r3, r3, #29
 8005162:	d406      	bmi.n	8005172 <lwip_netconn_do_connected+0x36>
 8005164:	4b1b      	ldr	r3, [pc, #108]	; (80051d4 <lwip_netconn_do_connected+0x98>)
 8005166:	491e      	ldr	r1, [pc, #120]	; (80051e0 <lwip_netconn_do_connected+0xa4>)
 8005168:	481c      	ldr	r0, [pc, #112]	; (80051dc <lwip_netconn_do_connected+0xa0>)
 800516a:	f240 5225 	movw	r2, #1317	; 0x525
 800516e:	f007 fabf 	bl	800c6f0 <iprintf>
 8005172:	6a25      	ldr	r5, [r4, #32]
 8005174:	b115      	cbz	r5, 800517c <lwip_netconn_do_connected+0x40>
 8005176:	712e      	strb	r6, [r5, #4]
 8005178:	682d      	ldr	r5, [r5, #0]
 800517a:	350c      	adds	r5, #12
 800517c:	7823      	ldrb	r3, [r4, #0]
 800517e:	f003 03f0 	and.w	r3, r3, #240	; 0xf0
 8005182:	2b10      	cmp	r3, #16
 8005184:	d103      	bne.n	800518e <lwip_netconn_do_connected+0x52>
 8005186:	b916      	cbnz	r6, 800518e <lwip_netconn_do_connected+0x52>
 8005188:	4620      	mov	r0, r4
 800518a:	f7ff ffb5 	bl	80050f8 <setup_tcp>
 800518e:	7f20      	ldrb	r0, [r4, #28]
 8005190:	f020 0304 	bic.w	r3, r0, #4
 8005194:	f010 0604 	ands.w	r6, r0, #4
 8005198:	7723      	strb	r3, [r4, #28]
 800519a:	d108      	bne.n	80051ae <lwip_netconn_do_connected+0x72>
 800519c:	b94d      	cbnz	r5, 80051b2 <lwip_netconn_do_connected+0x76>
 800519e:	4b0d      	ldr	r3, [pc, #52]	; (80051d4 <lwip_netconn_do_connected+0x98>)
 80051a0:	4910      	ldr	r1, [pc, #64]	; (80051e4 <lwip_netconn_do_connected+0xa8>)
 80051a2:	480e      	ldr	r0, [pc, #56]	; (80051dc <lwip_netconn_do_connected+0xa0>)
 80051a4:	f240 5232 	movw	r2, #1330	; 0x532
 80051a8:	f007 faa2 	bl	800c6f0 <iprintf>
 80051ac:	e001      	b.n	80051b2 <lwip_netconn_do_connected+0x76>
 80051ae:	2d00      	cmp	r5, #0
 80051b0:	d1f5      	bne.n	800519e <lwip_netconn_do_connected+0x62>
 80051b2:	6a63      	ldr	r3, [r4, #36]	; 0x24
 80051b4:	2200      	movs	r2, #0
 80051b6:	6222      	str	r2, [r4, #32]
 80051b8:	7062      	strb	r2, [r4, #1]
 80051ba:	b113      	cbz	r3, 80051c2 <lwip_netconn_do_connected+0x86>
 80051bc:	2102      	movs	r1, #2
 80051be:	4620      	mov	r0, r4
 80051c0:	4798      	blx	r3
 80051c2:	b916      	cbnz	r6, 80051ca <lwip_netconn_do_connected+0x8e>
 80051c4:	4628      	mov	r0, r5
 80051c6:	f007 f8d5 	bl	800c374 <sys_sem_signal>
 80051ca:	2000      	movs	r0, #0
 80051cc:	e001      	b.n	80051d2 <lwip_netconn_do_connected+0x96>
 80051ce:	f06f 0005 	mvn.w	r0, #5
 80051d2:	bd70      	pop	{r4, r5, r6, pc}
 80051d4:	0800d7e3 	.word	0x0800d7e3
 80051d8:	0800d815 	.word	0x0800d815
 80051dc:	0800d51e 	.word	0x0800d51e
 80051e0:	0800d834 	.word	0x0800d834
 80051e4:	0800d871 	.word	0x0800d871

080051e8 <lwip_netconn_do_writemore>:
 80051e8:	e92d 4ff8 	stmdb	sp!, {r3, r4, r5, r6, r7, r8, r9, sl, fp, lr}
 80051ec:	4688      	mov	r8, r1
 80051ee:	4604      	mov	r4, r0
 80051f0:	b930      	cbnz	r0, 8005200 <lwip_netconn_do_writemore+0x18>
 80051f2:	4b86      	ldr	r3, [pc, #536]	; (800540c <lwip_netconn_do_writemore+0x224>)
 80051f4:	4986      	ldr	r1, [pc, #536]	; (8005410 <lwip_netconn_do_writemore+0x228>)
 80051f6:	4887      	ldr	r0, [pc, #540]	; (8005414 <lwip_netconn_do_writemore+0x22c>)
 80051f8:	f240 6273 	movw	r2, #1651	; 0x673
 80051fc:	f007 fa78 	bl	800c6f0 <iprintf>
 8005200:	7863      	ldrb	r3, [r4, #1]
 8005202:	2b01      	cmp	r3, #1
 8005204:	d006      	beq.n	8005214 <lwip_netconn_do_writemore+0x2c>
 8005206:	4b81      	ldr	r3, [pc, #516]	; (800540c <lwip_netconn_do_writemore+0x224>)
 8005208:	4983      	ldr	r1, [pc, #524]	; (8005418 <lwip_netconn_do_writemore+0x230>)
 800520a:	4882      	ldr	r0, [pc, #520]	; (8005414 <lwip_netconn_do_writemore+0x22c>)
 800520c:	f240 6274 	movw	r2, #1652	; 0x674
 8005210:	f007 fa6e 	bl	800c6f0 <iprintf>
 8005214:	6a23      	ldr	r3, [r4, #32]
 8005216:	b933      	cbnz	r3, 8005226 <lwip_netconn_do_writemore+0x3e>
 8005218:	4b7c      	ldr	r3, [pc, #496]	; (800540c <lwip_netconn_do_writemore+0x224>)
 800521a:	4980      	ldr	r1, [pc, #512]	; (800541c <lwip_netconn_do_writemore+0x234>)
 800521c:	487d      	ldr	r0, [pc, #500]	; (8005414 <lwip_netconn_do_writemore+0x22c>)
 800521e:	f240 6275 	movw	r2, #1653	; 0x675
 8005222:	f007 fa65 	bl	800c6f0 <iprintf>
 8005226:	6863      	ldr	r3, [r4, #4]
 8005228:	b933      	cbnz	r3, 8005238 <lwip_netconn_do_writemore+0x50>
 800522a:	4b78      	ldr	r3, [pc, #480]	; (800540c <lwip_netconn_do_writemore+0x224>)
 800522c:	497c      	ldr	r1, [pc, #496]	; (8005420 <lwip_netconn_do_writemore+0x238>)
 800522e:	4879      	ldr	r0, [pc, #484]	; (8005414 <lwip_netconn_do_writemore+0x22c>)
 8005230:	f240 6276 	movw	r2, #1654	; 0x676
 8005234:	f007 fa5c 	bl	800c6f0 <iprintf>
 8005238:	6a23      	ldr	r3, [r4, #32]
 800523a:	e9d3 3205 	ldrd	r3, r2, [r3, #20]
 800523e:	429a      	cmp	r2, r3
 8005240:	d306      	bcc.n	8005250 <lwip_netconn_do_writemore+0x68>
 8005242:	4b72      	ldr	r3, [pc, #456]	; (800540c <lwip_netconn_do_writemore+0x224>)
 8005244:	4977      	ldr	r1, [pc, #476]	; (8005424 <lwip_netconn_do_writemore+0x23c>)
 8005246:	4873      	ldr	r0, [pc, #460]	; (8005414 <lwip_netconn_do_writemore+0x22c>)
 8005248:	f44f 62cf 	mov.w	r2, #1656	; 0x678
 800524c:	f007 fa50 	bl	800c6f0 <iprintf>
 8005250:	6a23      	ldr	r3, [r4, #32]
 8005252:	899b      	ldrh	r3, [r3, #12]
 8005254:	b933      	cbnz	r3, 8005264 <lwip_netconn_do_writemore+0x7c>
 8005256:	4b6d      	ldr	r3, [pc, #436]	; (800540c <lwip_netconn_do_writemore+0x224>)
 8005258:	4973      	ldr	r1, [pc, #460]	; (8005428 <lwip_netconn_do_writemore+0x240>)
 800525a:	486e      	ldr	r0, [pc, #440]	; (8005414 <lwip_netconn_do_writemore+0x22c>)
 800525c:	f240 6279 	movw	r2, #1657	; 0x679
 8005260:	f007 fa46 	bl	800c6f0 <iprintf>
 8005264:	6a23      	ldr	r3, [r4, #32]
 8005266:	f8df b1ac 	ldr.w	fp, [pc, #428]	; 8005414 <lwip_netconn_do_writemore+0x22c>
 800526a:	7f1e      	ldrb	r6, [r3, #28]
 800526c:	7f23      	ldrb	r3, [r4, #28]
 800526e:	079b      	lsls	r3, r3, #30
 8005270:	bf54      	ite	pl
 8005272:	f3c6 0780 	ubfxpl	r7, r6, #2, #1
 8005276:	2701      	movmi	r7, #1
 8005278:	6a21      	ldr	r1, [r4, #32]
 800527a:	6865      	ldr	r5, [r4, #4]
 800527c:	688a      	ldr	r2, [r1, #8]
 800527e:	690b      	ldr	r3, [r1, #16]
 8005280:	6810      	ldr	r0, [r2, #0]
 8005282:	f8b5 5064 	ldrh.w	r5, [r5, #100]	; 0x64
 8005286:	eb00 0a03 	add.w	sl, r0, r3
 800528a:	6850      	ldr	r0, [r2, #4]
 800528c:	eba0 0903 	sub.w	r9, r0, r3
 8005290:	f5b9 3f80 	cmp.w	r9, #65536	; 0x10000
 8005294:	bf2a      	itet	cs
 8005296:	f64f 72ff 	movwcs	r2, #65535	; 0xffff
 800529a:	fa1f f289 	uxthcc.w	r2, r9
 800529e:	f046 0602 	orrcs.w	r6, r6, #2
 80052a2:	42aa      	cmp	r2, r5
 80052a4:	d979      	bls.n	800539a <lwip_netconn_do_writemore+0x1b2>
 80052a6:	2f00      	cmp	r7, #0
 80052a8:	d037      	beq.n	800531a <lwip_netconn_do_writemore+0x132>
 80052aa:	2d00      	cmp	r5, #0
 80052ac:	d137      	bne.n	800531e <lwip_netconn_do_writemore+0x136>
 80052ae:	698b      	ldr	r3, [r1, #24]
 80052b0:	2b00      	cmp	r3, #0
 80052b2:	bf0c      	ite	eq
 80052b4:	f06f 0a06 	mvneq.w	sl, #6
 80052b8:	f04f 0a00 	movne.w	sl, #0
 80052bc:	6a23      	ldr	r3, [r4, #32]
 80052be:	e9d3 3205 	ldrd	r3, r2, [r3, #20]
 80052c2:	429a      	cmp	r2, r3
 80052c4:	d257      	bcs.n	8005376 <lwip_netconn_do_writemore+0x18e>
 80052c6:	6a63      	ldr	r3, [r4, #36]	; 0x24
 80052c8:	b11b      	cbz	r3, 80052d2 <lwip_netconn_do_writemore+0xea>
 80052ca:	2200      	movs	r2, #0
 80052cc:	2103      	movs	r1, #3
 80052ce:	4620      	mov	r0, r4
 80052d0:	4798      	blx	r3
 80052d2:	7f23      	ldrb	r3, [r4, #28]
 80052d4:	f043 0310 	orr.w	r3, r3, #16
 80052d8:	7723      	strb	r3, [r4, #28]
 80052da:	f1ba 0f00 	cmp.w	sl, #0
 80052de:	d179      	bne.n	80053d4 <lwip_netconn_do_writemore+0x1ec>
 80052e0:	6a23      	ldr	r3, [r4, #32]
 80052e2:	6860      	ldr	r0, [r4, #4]
 80052e4:	e9d3 3205 	ldrd	r3, r2, [r3, #20]
 80052e8:	429a      	cmp	r2, r3
 80052ea:	bf08      	it	eq
 80052ec:	2701      	moveq	r7, #1
 80052ee:	f005 f9e3 	bl	800a6b8 <tcp_output>
 80052f2:	3004      	adds	r0, #4
 80052f4:	f040 8081 	bne.w	80053fa <lwip_netconn_do_writemore+0x212>
 80052f8:	f06f 0a03 	mvn.w	sl, #3
 80052fc:	6a23      	ldr	r3, [r4, #32]
 80052fe:	2500      	movs	r5, #0
 8005300:	6818      	ldr	r0, [r3, #0]
 8005302:	f883 a004 	strb.w	sl, [r3, #4]
 8005306:	6225      	str	r5, [r4, #32]
 8005308:	7065      	strb	r5, [r4, #1]
 800530a:	f1b8 0f00 	cmp.w	r8, #0
 800530e:	d07a      	beq.n	8005406 <lwip_netconn_do_writemore+0x21e>
 8005310:	300c      	adds	r0, #12
 8005312:	f007 f82f 	bl	800c374 <sys_sem_signal>
 8005316:	4628      	mov	r0, r5
 8005318:	e067      	b.n	80053ea <lwip_netconn_do_writemore+0x202>
 800531a:	f046 0602 	orr.w	r6, r6, #2
 800531e:	442b      	add	r3, r5
 8005320:	4298      	cmp	r0, r3
 8005322:	d206      	bcs.n	8005332 <lwip_netconn_do_writemore+0x14a>
 8005324:	4b39      	ldr	r3, [pc, #228]	; (800540c <lwip_netconn_do_writemore+0x224>)
 8005326:	4941      	ldr	r1, [pc, #260]	; (800542c <lwip_netconn_do_writemore+0x244>)
 8005328:	f240 62a4 	movw	r2, #1700	; 0x6a4
 800532c:	4658      	mov	r0, fp
 800532e:	f007 f9df 	bl	800c6f0 <iprintf>
 8005332:	f64f 73ff 	movw	r3, #65535	; 0xffff
 8005336:	429d      	cmp	r5, r3
 8005338:	d102      	bne.n	8005340 <lwip_netconn_do_writemore+0x158>
 800533a:	f5b9 3f80 	cmp.w	r9, #65536	; 0x10000
 800533e:	d207      	bcs.n	8005350 <lwip_netconn_do_writemore+0x168>
 8005340:	fa1f f989 	uxth.w	r9, r9
 8005344:	45a9      	cmp	r9, r5
 8005346:	d12a      	bne.n	800539e <lwip_netconn_do_writemore+0x1b6>
 8005348:	6a23      	ldr	r3, [r4, #32]
 800534a:	899b      	ldrh	r3, [r3, #12]
 800534c:	2b01      	cmp	r3, #1
 800534e:	d926      	bls.n	800539e <lwip_netconn_do_writemore+0x1b6>
 8005350:	f046 0602 	orr.w	r6, r6, #2
 8005354:	f04f 0901 	mov.w	r9, #1
 8005358:	4651      	mov	r1, sl
 800535a:	4633      	mov	r3, r6
 800535c:	462a      	mov	r2, r5
 800535e:	6860      	ldr	r0, [r4, #4]
 8005360:	f004 fc50 	bl	8009c04 <tcp_write>
 8005364:	4682      	mov	sl, r0
 8005366:	b1e8      	cbz	r0, 80053a4 <lwip_netconn_do_writemore+0x1bc>
 8005368:	f10a 0301 	add.w	r3, sl, #1
 800536c:	b2db      	uxtb	r3, r3
 800536e:	2b01      	cmp	r3, #1
 8005370:	d8c4      	bhi.n	80052fc <lwip_netconn_do_writemore+0x114>
 8005372:	2f00      	cmp	r7, #0
 8005374:	d1a2      	bne.n	80052bc <lwip_netconn_do_writemore+0xd4>
 8005376:	6863      	ldr	r3, [r4, #4]
 8005378:	f8b3 2064 	ldrh.w	r2, [r3, #100]	; 0x64
 800537c:	f5b2 6f86 	cmp.w	r2, #1072	; 0x430
 8005380:	d303      	bcc.n	800538a <lwip_netconn_do_writemore+0x1a2>
 8005382:	f8b3 3066 	ldrh.w	r3, [r3, #102]	; 0x66
 8005386:	2b04      	cmp	r3, #4
 8005388:	d9a7      	bls.n	80052da <lwip_netconn_do_writemore+0xf2>
 800538a:	6a63      	ldr	r3, [r4, #36]	; 0x24
 800538c:	2b00      	cmp	r3, #0
 800538e:	d0a4      	beq.n	80052da <lwip_netconn_do_writemore+0xf2>
 8005390:	2200      	movs	r2, #0
 8005392:	2103      	movs	r1, #3
 8005394:	4620      	mov	r0, r4
 8005396:	4798      	blx	r3
 8005398:	e79f      	b.n	80052da <lwip_netconn_do_writemore+0xf2>
 800539a:	4615      	mov	r5, r2
 800539c:	e7bf      	b.n	800531e <lwip_netconn_do_writemore+0x136>
 800539e:	f04f 0900 	mov.w	r9, #0
 80053a2:	e7d9      	b.n	8005358 <lwip_netconn_do_writemore+0x170>
 80053a4:	6a23      	ldr	r3, [r4, #32]
 80053a6:	699a      	ldr	r2, [r3, #24]
 80053a8:	6899      	ldr	r1, [r3, #8]
 80053aa:	442a      	add	r2, r5
 80053ac:	619a      	str	r2, [r3, #24]
 80053ae:	691a      	ldr	r2, [r3, #16]
 80053b0:	4415      	add	r5, r2
 80053b2:	684a      	ldr	r2, [r1, #4]
 80053b4:	611d      	str	r5, [r3, #16]
 80053b6:	4295      	cmp	r5, r2
 80053b8:	d107      	bne.n	80053ca <lwip_netconn_do_writemore+0x1e2>
 80053ba:	899a      	ldrh	r2, [r3, #12]
 80053bc:	3a01      	subs	r2, #1
 80053be:	b292      	uxth	r2, r2
 80053c0:	819a      	strh	r2, [r3, #12]
 80053c2:	b112      	cbz	r2, 80053ca <lwip_netconn_do_writemore+0x1e2>
 80053c4:	3108      	adds	r1, #8
 80053c6:	6099      	str	r1, [r3, #8]
 80053c8:	6118      	str	r0, [r3, #16]
 80053ca:	f1b9 0f00 	cmp.w	r9, #0
 80053ce:	f47f af53 	bne.w	8005278 <lwip_netconn_do_writemore+0x90>
 80053d2:	e7c9      	b.n	8005368 <lwip_netconn_do_writemore+0x180>
 80053d4:	f1ba 3fff 	cmp.w	sl, #4294967295
 80053d8:	d190      	bne.n	80052fc <lwip_netconn_do_writemore+0x114>
 80053da:	6860      	ldr	r0, [r4, #4]
 80053dc:	f005 f96c 	bl	800a6b8 <tcp_output>
 80053e0:	3004      	adds	r0, #4
 80053e2:	d089      	beq.n	80052f8 <lwip_netconn_do_writemore+0x110>
 80053e4:	b91f      	cbnz	r7, 80053ee <lwip_netconn_do_writemore+0x206>
 80053e6:	f04f 30ff 	mov.w	r0, #4294967295
 80053ea:	e8bd 8ff8 	ldmia.w	sp!, {r3, r4, r5, r6, r7, r8, r9, sl, fp, pc}
 80053ee:	6a23      	ldr	r3, [r4, #32]
 80053f0:	699b      	ldr	r3, [r3, #24]
 80053f2:	b12b      	cbz	r3, 8005400 <lwip_netconn_do_writemore+0x218>
 80053f4:	f04f 0a00 	mov.w	sl, #0
 80053f8:	e780      	b.n	80052fc <lwip_netconn_do_writemore+0x114>
 80053fa:	2f00      	cmp	r7, #0
 80053fc:	d1fa      	bne.n	80053f4 <lwip_netconn_do_writemore+0x20c>
 80053fe:	e7f2      	b.n	80053e6 <lwip_netconn_do_writemore+0x1fe>
 8005400:	f06f 0a06 	mvn.w	sl, #6
 8005404:	e77a      	b.n	80052fc <lwip_netconn_do_writemore+0x114>
 8005406:	4640      	mov	r0, r8
 8005408:	e7ef      	b.n	80053ea <lwip_netconn_do_writemore+0x202>
 800540a:	bf00      	nop
 800540c:	0800d7e3 	.word	0x0800d7e3
 8005410:	0800d8d8 	.word	0x0800d8d8
 8005414:	0800d51e 	.word	0x0800d51e
 8005418:	0800d8e5 	.word	0x0800d8e5
 800541c:	0800d902 	.word	0x0800d902
 8005420:	0800d91c 	.word	0x0800d91c
 8005424:	0800d932 	.word	0x0800d932
 8005428:	0800d971 	.word	0x0800d971
 800542c:	0800d999 	.word	0x0800d999

08005430 <lwip_netconn_do_close_internal>:
 8005430:	e92d 4ff8 	stmdb	sp!, {r3, r4, r5, r6, r7, r8, r9, sl, fp, lr}
 8005434:	468a      	mov	sl, r1
 8005436:	4604      	mov	r4, r0
 8005438:	b930      	cbnz	r0, 8005448 <lwip_netconn_do_close_internal+0x18>
 800543a:	4b6c      	ldr	r3, [pc, #432]	; (80055ec <lwip_netconn_do_close_internal+0x1bc>)
 800543c:	496c      	ldr	r1, [pc, #432]	; (80055f0 <lwip_netconn_do_close_internal+0x1c0>)
 800543e:	486d      	ldr	r0, [pc, #436]	; (80055f4 <lwip_netconn_do_close_internal+0x1c4>)
 8005440:	f240 32a2 	movw	r2, #930	; 0x3a2
 8005444:	f007 f954 	bl	800c6f0 <iprintf>
 8005448:	7823      	ldrb	r3, [r4, #0]
 800544a:	f003 03f0 	and.w	r3, r3, #240	; 0xf0
 800544e:	2b10      	cmp	r3, #16
 8005450:	d006      	beq.n	8005460 <lwip_netconn_do_close_internal+0x30>
 8005452:	4b66      	ldr	r3, [pc, #408]	; (80055ec <lwip_netconn_do_close_internal+0x1bc>)
 8005454:	4968      	ldr	r1, [pc, #416]	; (80055f8 <lwip_netconn_do_close_internal+0x1c8>)
 8005456:	4867      	ldr	r0, [pc, #412]	; (80055f4 <lwip_netconn_do_close_internal+0x1c4>)
 8005458:	f240 32a3 	movw	r2, #931	; 0x3a3
 800545c:	f007 f948 	bl	800c6f0 <iprintf>
 8005460:	7863      	ldrb	r3, [r4, #1]
 8005462:	2b04      	cmp	r3, #4
 8005464:	d006      	beq.n	8005474 <lwip_netconn_do_close_internal+0x44>
 8005466:	4b61      	ldr	r3, [pc, #388]	; (80055ec <lwip_netconn_do_close_internal+0x1bc>)
 8005468:	4964      	ldr	r1, [pc, #400]	; (80055fc <lwip_netconn_do_close_internal+0x1cc>)
 800546a:	4862      	ldr	r0, [pc, #392]	; (80055f4 <lwip_netconn_do_close_internal+0x1c4>)
 800546c:	f44f 7269 	mov.w	r2, #932	; 0x3a4
 8005470:	f007 f93e 	bl	800c6f0 <iprintf>
 8005474:	6863      	ldr	r3, [r4, #4]
 8005476:	b933      	cbnz	r3, 8005486 <lwip_netconn_do_close_internal+0x56>
 8005478:	4b5c      	ldr	r3, [pc, #368]	; (80055ec <lwip_netconn_do_close_internal+0x1bc>)
 800547a:	4961      	ldr	r1, [pc, #388]	; (8005600 <lwip_netconn_do_close_internal+0x1d0>)
 800547c:	485d      	ldr	r0, [pc, #372]	; (80055f4 <lwip_netconn_do_close_internal+0x1c4>)
 800547e:	f240 32a5 	movw	r2, #933	; 0x3a5
 8005482:	f007 f935 	bl	800c6f0 <iprintf>
 8005486:	6a23      	ldr	r3, [r4, #32]
 8005488:	b933      	cbnz	r3, 8005498 <lwip_netconn_do_close_internal+0x68>
 800548a:	4b58      	ldr	r3, [pc, #352]	; (80055ec <lwip_netconn_do_close_internal+0x1bc>)
 800548c:	495d      	ldr	r1, [pc, #372]	; (8005604 <lwip_netconn_do_close_internal+0x1d4>)
 800548e:	4859      	ldr	r0, [pc, #356]	; (80055f4 <lwip_netconn_do_close_internal+0x1c4>)
 8005490:	f240 32a6 	movw	r2, #934	; 0x3a6
 8005494:	f007 f92c 	bl	800c6f0 <iprintf>
 8005498:	6a23      	ldr	r3, [r4, #32]
 800549a:	6865      	ldr	r5, [r4, #4]
 800549c:	7a1b      	ldrb	r3, [r3, #8]
 800549e:	2b03      	cmp	r3, #3
 80054a0:	f003 0901 	and.w	r9, r3, #1
 80054a4:	f003 0802 	and.w	r8, r3, #2
 80054a8:	d00f      	beq.n	80054ca <lwip_netconn_do_close_internal+0x9a>
 80054aa:	f1b9 0f00 	cmp.w	r9, #0
 80054ae:	d005      	beq.n	80054bc <lwip_netconn_do_close_internal+0x8c>
 80054b0:	7d2b      	ldrb	r3, [r5, #20]
 80054b2:	1f5a      	subs	r2, r3, #5
 80054b4:	2a01      	cmp	r2, #1
 80054b6:	d908      	bls.n	80054ca <lwip_netconn_do_close_internal+0x9a>
 80054b8:	2b08      	cmp	r3, #8
 80054ba:	d006      	beq.n	80054ca <lwip_netconn_do_close_internal+0x9a>
 80054bc:	f1b8 0f00 	cmp.w	r8, #0
 80054c0:	d016      	beq.n	80054f0 <lwip_netconn_do_close_internal+0xc0>
 80054c2:	8b6f      	ldrh	r7, [r5, #26]
 80054c4:	f017 0710 	ands.w	r7, r7, #16
 80054c8:	d004      	beq.n	80054d4 <lwip_netconn_do_close_internal+0xa4>
 80054ca:	2100      	movs	r1, #0
 80054cc:	4628      	mov	r0, r5
 80054ce:	f001 ffed 	bl	80074ac <tcp_arg>
 80054d2:	2701      	movs	r7, #1
 80054d4:	7d2b      	ldrb	r3, [r5, #20]
 80054d6:	2b01      	cmp	r3, #1
 80054d8:	d10c      	bne.n	80054f4 <lwip_netconn_do_close_internal+0xc4>
 80054da:	2100      	movs	r1, #0
 80054dc:	4628      	mov	r0, r5
 80054de:	f002 f831 	bl	8007544 <tcp_accept>
 80054e2:	bb27      	cbnz	r7, 800552e <lwip_netconn_do_close_internal+0xfe>
 80054e4:	4642      	mov	r2, r8
 80054e6:	4649      	mov	r1, r9
 80054e8:	4628      	mov	r0, r5
 80054ea:	f002 fcc1 	bl	8007e70 <tcp_shutdown>
 80054ee:	e021      	b.n	8005534 <lwip_netconn_do_close_internal+0x104>
 80054f0:	4647      	mov	r7, r8
 80054f2:	e7ef      	b.n	80054d4 <lwip_netconn_do_close_internal+0xa4>
 80054f4:	f1b9 0f00 	cmp.w	r9, #0
 80054f8:	d007      	beq.n	800550a <lwip_netconn_do_close_internal+0xda>
 80054fa:	2100      	movs	r1, #0
 80054fc:	4628      	mov	r0, r5
 80054fe:	f001 ffd9 	bl	80074b4 <tcp_recv>
 8005502:	2100      	movs	r1, #0
 8005504:	4628      	mov	r0, r5
 8005506:	f002 f81d 	bl	8007544 <tcp_accept>
 800550a:	f1b8 0f00 	cmp.w	r8, #0
 800550e:	d003      	beq.n	8005518 <lwip_netconn_do_close_internal+0xe8>
 8005510:	2100      	movs	r1, #0
 8005512:	4628      	mov	r0, r5
 8005514:	f001 ffe6 	bl	80074e4 <tcp_sent>
 8005518:	2f00      	cmp	r7, #0
 800551a:	d0e3      	beq.n	80054e4 <lwip_netconn_do_close_internal+0xb4>
 800551c:	2200      	movs	r2, #0
 800551e:	4611      	mov	r1, r2
 8005520:	4628      	mov	r0, r5
 8005522:	f002 f815 	bl	8007550 <tcp_poll>
 8005526:	2100      	movs	r1, #0
 8005528:	4628      	mov	r0, r5
 800552a:	f001 fff3 	bl	8007514 <tcp_err>
 800552e:	4628      	mov	r0, r5
 8005530:	f002 fbd6 	bl	8007ce0 <tcp_close>
 8005534:	4606      	mov	r6, r0
 8005536:	b160      	cbz	r0, 8005552 <lwip_netconn_do_close_internal+0x122>
 8005538:	1c43      	adds	r3, r0, #1
 800553a:	d10a      	bne.n	8005552 <lwip_netconn_do_close_internal+0x122>
 800553c:	6a23      	ldr	r3, [r4, #32]
 800553e:	f893 b009 	ldrb.w	fp, [r3, #9]
 8005542:	f1bb 0f00 	cmp.w	fp, #0
 8005546:	d130      	bne.n	80055aa <lwip_netconn_do_close_internal+0x17a>
 8005548:	b11f      	cbz	r7, 8005552 <lwip_netconn_do_close_internal+0x122>
 800554a:	4628      	mov	r0, r5
 800554c:	f002 fa16 	bl	800797c <tcp_abort>
 8005550:	465e      	mov	r6, fp
 8005552:	6a23      	ldr	r3, [r4, #32]
 8005554:	681d      	ldr	r5, [r3, #0]
 8005556:	711e      	strb	r6, [r3, #4]
 8005558:	2300      	movs	r3, #0
 800555a:	6223      	str	r3, [r4, #32]
 800555c:	7063      	strb	r3, [r4, #1]
 800555e:	b9ce      	cbnz	r6, 8005594 <lwip_netconn_do_close_internal+0x164>
 8005560:	b137      	cbz	r7, 8005570 <lwip_netconn_do_close_internal+0x140>
 8005562:	6a63      	ldr	r3, [r4, #36]	; 0x24
 8005564:	6066      	str	r6, [r4, #4]
 8005566:	b11b      	cbz	r3, 8005570 <lwip_netconn_do_close_internal+0x140>
 8005568:	4632      	mov	r2, r6
 800556a:	2104      	movs	r1, #4
 800556c:	4620      	mov	r0, r4
 800556e:	4798      	blx	r3
 8005570:	f1b9 0f00 	cmp.w	r9, #0
 8005574:	d005      	beq.n	8005582 <lwip_netconn_do_close_internal+0x152>
 8005576:	6a63      	ldr	r3, [r4, #36]	; 0x24
 8005578:	b163      	cbz	r3, 8005594 <lwip_netconn_do_close_internal+0x164>
 800557a:	2200      	movs	r2, #0
 800557c:	4611      	mov	r1, r2
 800557e:	4620      	mov	r0, r4
 8005580:	4798      	blx	r3
 8005582:	f1b8 0f00 	cmp.w	r8, #0
 8005586:	d005      	beq.n	8005594 <lwip_netconn_do_close_internal+0x164>
 8005588:	6a63      	ldr	r3, [r4, #36]	; 0x24
 800558a:	b11b      	cbz	r3, 8005594 <lwip_netconn_do_close_internal+0x164>
 800558c:	2200      	movs	r2, #0
 800558e:	2102      	movs	r1, #2
 8005590:	4620      	mov	r0, r4
 8005592:	4798      	blx	r3
 8005594:	f1ba 0f00 	cmp.w	sl, #0
 8005598:	d026      	beq.n	80055e8 <lwip_netconn_do_close_internal+0x1b8>
 800559a:	f105 000c 	add.w	r0, r5, #12
 800559e:	f006 fee9 	bl	800c374 <sys_sem_signal>
 80055a2:	2600      	movs	r6, #0
 80055a4:	4630      	mov	r0, r6
 80055a6:	e8bd 8ff8 	ldmia.w	sp!, {r3, r4, r5, r6, r7, r8, r9, sl, fp, pc}
 80055aa:	7d2b      	ldrb	r3, [r5, #20]
 80055ac:	2b01      	cmp	r3, #1
 80055ae:	d106      	bne.n	80055be <lwip_netconn_do_close_internal+0x18e>
 80055b0:	4b0e      	ldr	r3, [pc, #56]	; (80055ec <lwip_netconn_do_close_internal+0x1bc>)
 80055b2:	4915      	ldr	r1, [pc, #84]	; (8005608 <lwip_netconn_do_close_internal+0x1d8>)
 80055b4:	480f      	ldr	r0, [pc, #60]	; (80055f4 <lwip_netconn_do_close_internal+0x1c4>)
 80055b6:	f240 4241 	movw	r2, #1089	; 0x441
 80055ba:	f007 f899 	bl	800c6f0 <iprintf>
 80055be:	f1b8 0f00 	cmp.w	r8, #0
 80055c2:	d003      	beq.n	80055cc <lwip_netconn_do_close_internal+0x19c>
 80055c4:	4911      	ldr	r1, [pc, #68]	; (800560c <lwip_netconn_do_close_internal+0x1dc>)
 80055c6:	4628      	mov	r0, r5
 80055c8:	f001 ff8c 	bl	80074e4 <tcp_sent>
 80055cc:	2201      	movs	r2, #1
 80055ce:	4628      	mov	r0, r5
 80055d0:	490f      	ldr	r1, [pc, #60]	; (8005610 <lwip_netconn_do_close_internal+0x1e0>)
 80055d2:	f001 ffbd 	bl	8007550 <tcp_poll>
 80055d6:	4628      	mov	r0, r5
 80055d8:	490e      	ldr	r1, [pc, #56]	; (8005614 <lwip_netconn_do_close_internal+0x1e4>)
 80055da:	f001 ff9b 	bl	8007514 <tcp_err>
 80055de:	4621      	mov	r1, r4
 80055e0:	4628      	mov	r0, r5
 80055e2:	f001 ff63 	bl	80074ac <tcp_arg>
 80055e6:	e7dd      	b.n	80055a4 <lwip_netconn_do_close_internal+0x174>
 80055e8:	4656      	mov	r6, sl
 80055ea:	e7db      	b.n	80055a4 <lwip_netconn_do_close_internal+0x174>
 80055ec:	0800d7e3 	.word	0x0800d7e3
 80055f0:	0800d56c 	.word	0x0800d56c
 80055f4:	0800d51e 	.word	0x0800d51e
 80055f8:	0800d756 	.word	0x0800d756
 80055fc:	0800d774 	.word	0x0800d774
 8005600:	0800d798 	.word	0x0800d798
 8005604:	0800d902 	.word	0x0800d902
 8005608:	0800d7ab 	.word	0x0800d7ab
 800560c:	080058b5 	.word	0x080058b5
 8005610:	08005619 	.word	0x08005619
 8005614:	08005761 	.word	0x08005761

08005618 <poll_tcp>:
 8005618:	b510      	push	{r4, lr}
 800561a:	4604      	mov	r4, r0
 800561c:	b930      	cbnz	r0, 800562c <poll_tcp+0x14>
 800561e:	4b19      	ldr	r3, [pc, #100]	; (8005684 <poll_tcp+0x6c>)
 8005620:	4919      	ldr	r1, [pc, #100]	; (8005688 <poll_tcp+0x70>)
 8005622:	481a      	ldr	r0, [pc, #104]	; (800568c <poll_tcp+0x74>)
 8005624:	f44f 72b5 	mov.w	r2, #362	; 0x16a
 8005628:	f007 f862 	bl	800c6f0 <iprintf>
 800562c:	7861      	ldrb	r1, [r4, #1]
 800562e:	2901      	cmp	r1, #1
 8005630:	d11b      	bne.n	800566a <poll_tcp+0x52>
 8005632:	4620      	mov	r0, r4
 8005634:	f7ff fdd8 	bl	80051e8 <lwip_netconn_do_writemore>
 8005638:	7f23      	ldrb	r3, [r4, #28]
 800563a:	06da      	lsls	r2, r3, #27
 800563c:	d513      	bpl.n	8005666 <poll_tcp+0x4e>
 800563e:	6862      	ldr	r2, [r4, #4]
 8005640:	b18a      	cbz	r2, 8005666 <poll_tcp+0x4e>
 8005642:	f8b2 1064 	ldrh.w	r1, [r2, #100]	; 0x64
 8005646:	f5b1 6f86 	cmp.w	r1, #1072	; 0x430
 800564a:	d30c      	bcc.n	8005666 <poll_tcp+0x4e>
 800564c:	f8b2 2066 	ldrh.w	r2, [r2, #102]	; 0x66
 8005650:	2a04      	cmp	r2, #4
 8005652:	d808      	bhi.n	8005666 <poll_tcp+0x4e>
 8005654:	f023 0310 	bic.w	r3, r3, #16
 8005658:	7723      	strb	r3, [r4, #28]
 800565a:	6a63      	ldr	r3, [r4, #36]	; 0x24
 800565c:	b11b      	cbz	r3, 8005666 <poll_tcp+0x4e>
 800565e:	2200      	movs	r2, #0
 8005660:	2102      	movs	r1, #2
 8005662:	4620      	mov	r0, r4
 8005664:	4798      	blx	r3
 8005666:	2000      	movs	r0, #0
 8005668:	bd10      	pop	{r4, pc}
 800566a:	2904      	cmp	r1, #4
 800566c:	d1e4      	bne.n	8005638 <poll_tcp+0x20>
 800566e:	6a22      	ldr	r2, [r4, #32]
 8005670:	b11a      	cbz	r2, 800567a <poll_tcp+0x62>
 8005672:	7a53      	ldrb	r3, [r2, #9]
 8005674:	b10b      	cbz	r3, 800567a <poll_tcp+0x62>
 8005676:	3b01      	subs	r3, #1
 8005678:	7253      	strb	r3, [r2, #9]
 800567a:	2101      	movs	r1, #1
 800567c:	4620      	mov	r0, r4
 800567e:	f7ff fed7 	bl	8005430 <lwip_netconn_do_close_internal>
 8005682:	e7d9      	b.n	8005638 <poll_tcp+0x20>
 8005684:	0800d7e3 	.word	0x0800d7e3
 8005688:	0800d8d8 	.word	0x0800d8d8
 800568c:	0800d51e 	.word	0x0800d51e

08005690 <recv_tcp>:
 8005690:	e92d 41f0 	stmdb	sp!, {r4, r5, r6, r7, r8, lr}
 8005694:	4606      	mov	r6, r0
 8005696:	4615      	mov	r5, r2
 8005698:	461c      	mov	r4, r3
 800569a:	460f      	mov	r7, r1
 800569c:	b931      	cbnz	r1, 80056ac <recv_tcp+0x1c>
 800569e:	4b29      	ldr	r3, [pc, #164]	; (8005744 <recv_tcp+0xb4>)
 80056a0:	4929      	ldr	r1, [pc, #164]	; (8005748 <recv_tcp+0xb8>)
 80056a2:	482a      	ldr	r0, [pc, #168]	; (800574c <recv_tcp+0xbc>)
 80056a4:	f44f 7296 	mov.w	r2, #300	; 0x12c
 80056a8:	f007 f822 	bl	800c6f0 <iprintf>
 80056ac:	bb4e      	cbnz	r6, 8005702 <recv_tcp+0x72>
 80056ae:	4b25      	ldr	r3, [pc, #148]	; (8005744 <recv_tcp+0xb4>)
 80056b0:	4927      	ldr	r1, [pc, #156]	; (8005750 <recv_tcp+0xc0>)
 80056b2:	4826      	ldr	r0, [pc, #152]	; (800574c <recv_tcp+0xbc>)
 80056b4:	f240 122d 	movw	r2, #301	; 0x12d
 80056b8:	f007 f81a 	bl	800c6f0 <iprintf>
 80056bc:	bb14      	cbnz	r4, 8005704 <recv_tcp+0x74>
 80056be:	f06f 0405 	mvn.w	r4, #5
 80056c2:	4620      	mov	r0, r4
 80056c4:	e8bd 81f0 	ldmia.w	sp!, {r4, r5, r6, r7, r8, pc}
 80056c8:	4638      	mov	r0, r7
 80056ca:	8929      	ldrh	r1, [r5, #8]
 80056cc:	f001 fe78 	bl	80073c0 <tcp_recved>
 80056d0:	4628      	mov	r0, r5
 80056d2:	f001 fad7 	bl	8006c84 <pbuf_free>
 80056d6:	e7f4      	b.n	80056c2 <recv_tcp+0x32>
 80056d8:	b16d      	cbz	r5, 80056f6 <recv_tcp+0x66>
 80056da:	892f      	ldrh	r7, [r5, #8]
 80056dc:	4629      	mov	r1, r5
 80056de:	4640      	mov	r0, r8
 80056e0:	f006 fdd9 	bl	800c296 <sys_mbox_trypost>
 80056e4:	4604      	mov	r4, r0
 80056e6:	b948      	cbnz	r0, 80056fc <recv_tcp+0x6c>
 80056e8:	6a73      	ldr	r3, [r6, #36]	; 0x24
 80056ea:	b343      	cbz	r3, 800573e <recv_tcp+0xae>
 80056ec:	4601      	mov	r1, r0
 80056ee:	463a      	mov	r2, r7
 80056f0:	4630      	mov	r0, r6
 80056f2:	4798      	blx	r3
 80056f4:	e7e5      	b.n	80056c2 <recv_tcp+0x32>
 80056f6:	4d17      	ldr	r5, [pc, #92]	; (8005754 <recv_tcp+0xc4>)
 80056f8:	2700      	movs	r7, #0
 80056fa:	e7ef      	b.n	80056dc <recv_tcp+0x4c>
 80056fc:	f04f 34ff 	mov.w	r4, #4294967295
 8005700:	e7df      	b.n	80056c2 <recv_tcp+0x32>
 8005702:	b144      	cbz	r4, 8005716 <recv_tcp+0x86>
 8005704:	4b0f      	ldr	r3, [pc, #60]	; (8005744 <recv_tcp+0xb4>)
 8005706:	4914      	ldr	r1, [pc, #80]	; (8005758 <recv_tcp+0xc8>)
 8005708:	4810      	ldr	r0, [pc, #64]	; (800574c <recv_tcp+0xbc>)
 800570a:	f44f 7297 	mov.w	r2, #302	; 0x12e
 800570e:	f006 ffef 	bl	800c6f0 <iprintf>
 8005712:	2e00      	cmp	r6, #0
 8005714:	d0d3      	beq.n	80056be <recv_tcp+0x2e>
 8005716:	6873      	ldr	r3, [r6, #4]
 8005718:	42bb      	cmp	r3, r7
 800571a:	d006      	beq.n	800572a <recv_tcp+0x9a>
 800571c:	4b09      	ldr	r3, [pc, #36]	; (8005744 <recv_tcp+0xb4>)
 800571e:	490f      	ldr	r1, [pc, #60]	; (800575c <recv_tcp+0xcc>)
 8005720:	480a      	ldr	r0, [pc, #40]	; (800574c <recv_tcp+0xbc>)
 8005722:	f240 1235 	movw	r2, #309	; 0x135
 8005726:	f006 ffe3 	bl	800c6f0 <iprintf>
 800572a:	f106 0810 	add.w	r8, r6, #16
 800572e:	4640      	mov	r0, r8
 8005730:	f006 fdea 	bl	800c308 <sys_mbox_valid>
 8005734:	4604      	mov	r4, r0
 8005736:	2800      	cmp	r0, #0
 8005738:	d1ce      	bne.n	80056d8 <recv_tcp+0x48>
 800573a:	2d00      	cmp	r5, #0
 800573c:	d1c4      	bne.n	80056c8 <recv_tcp+0x38>
 800573e:	2400      	movs	r4, #0
 8005740:	e7bf      	b.n	80056c2 <recv_tcp+0x32>
 8005742:	bf00      	nop
 8005744:	0800d7e3 	.word	0x0800d7e3
 8005748:	0800da9d 	.word	0x0800da9d
 800574c:	0800d51e 	.word	0x0800d51e
 8005750:	0800dabf 	.word	0x0800dabf
 8005754:	0800d9f7 	.word	0x0800d9f7
 8005758:	0800dade 	.word	0x0800dade
 800575c:	0800daf6 	.word	0x0800daf6

08005760 <err_tcp>:
 8005760:	e92d 41f0 	stmdb	sp!, {r4, r5, r6, r7, r8, lr}
 8005764:	460d      	mov	r5, r1
 8005766:	4604      	mov	r4, r0
 8005768:	b930      	cbnz	r0, 8005778 <err_tcp+0x18>
 800576a:	4b48      	ldr	r3, [pc, #288]	; (800588c <err_tcp+0x12c>)
 800576c:	4948      	ldr	r1, [pc, #288]	; (8005890 <err_tcp+0x130>)
 800576e:	4849      	ldr	r0, [pc, #292]	; (8005894 <err_tcp+0x134>)
 8005770:	f44f 72dc 	mov.w	r2, #440	; 0x1b8
 8005774:	f006 ffbc 	bl	800c6f0 <iprintf>
 8005778:	f006 fe3e 	bl	800c3f8 <sys_arch_protect>
 800577c:	7f23      	ldrb	r3, [r4, #28]
 800577e:	7867      	ldrb	r7, [r4, #1]
 8005780:	7225      	strb	r5, [r4, #8]
 8005782:	f043 0301 	orr.w	r3, r3, #1
 8005786:	2600      	movs	r6, #0
 8005788:	7723      	strb	r3, [r4, #28]
 800578a:	6066      	str	r6, [r4, #4]
 800578c:	7066      	strb	r6, [r4, #1]
 800578e:	f006 fe3f 	bl	800c410 <sys_arch_unprotect>
 8005792:	6a63      	ldr	r3, [r4, #36]	; 0x24
 8005794:	b11b      	cbz	r3, 800579e <err_tcp+0x3e>
 8005796:	4632      	mov	r2, r6
 8005798:	2104      	movs	r1, #4
 800579a:	4620      	mov	r0, r4
 800579c:	4798      	blx	r3
 800579e:	6a63      	ldr	r3, [r4, #36]	; 0x24
 80057a0:	b11b      	cbz	r3, 80057aa <err_tcp+0x4a>
 80057a2:	2200      	movs	r2, #0
 80057a4:	4611      	mov	r1, r2
 80057a6:	4620      	mov	r0, r4
 80057a8:	4798      	blx	r3
 80057aa:	6a63      	ldr	r3, [r4, #36]	; 0x24
 80057ac:	b11b      	cbz	r3, 80057b6 <err_tcp+0x56>
 80057ae:	2200      	movs	r2, #0
 80057b0:	2102      	movs	r1, #2
 80057b2:	4620      	mov	r0, r4
 80057b4:	4798      	blx	r3
 80057b6:	f115 0f0e 	cmn.w	r5, #14
 80057ba:	d056      	beq.n	800586a <err_tcp+0x10a>
 80057bc:	f115 0f0d 	cmn.w	r5, #13
 80057c0:	d004      	beq.n	80057cc <err_tcp+0x6c>
 80057c2:	f115 0f0f 	cmn.w	r5, #15
 80057c6:	d147      	bne.n	8005858 <err_tcp+0xf8>
 80057c8:	4e33      	ldr	r6, [pc, #204]	; (8005898 <err_tcp+0x138>)
 80057ca:	e000      	b.n	80057ce <err_tcp+0x6e>
 80057cc:	4e33      	ldr	r6, [pc, #204]	; (800589c <err_tcp+0x13c>)
 80057ce:	f104 0810 	add.w	r8, r4, #16
 80057d2:	4640      	mov	r0, r8
 80057d4:	f006 fd98 	bl	800c308 <sys_mbox_valid>
 80057d8:	b118      	cbz	r0, 80057e2 <err_tcp+0x82>
 80057da:	4631      	mov	r1, r6
 80057dc:	4640      	mov	r0, r8
 80057de:	f006 fd5a 	bl	800c296 <sys_mbox_trypost>
 80057e2:	f104 0814 	add.w	r8, r4, #20
 80057e6:	4640      	mov	r0, r8
 80057e8:	f006 fd8e 	bl	800c308 <sys_mbox_valid>
 80057ec:	b118      	cbz	r0, 80057f6 <err_tcp+0x96>
 80057ee:	4631      	mov	r1, r6
 80057f0:	4640      	mov	r0, r8
 80057f2:	f006 fd50 	bl	800c296 <sys_mbox_trypost>
 80057f6:	2f01      	cmp	r7, #1
 80057f8:	d002      	beq.n	8005800 <err_tcp+0xa0>
 80057fa:	1efb      	subs	r3, r7, #3
 80057fc:	2b01      	cmp	r3, #1
 80057fe:	d838      	bhi.n	8005872 <err_tcp+0x112>
 8005800:	7f23      	ldrb	r3, [r4, #28]
 8005802:	f023 0204 	bic.w	r2, r3, #4
 8005806:	075b      	lsls	r3, r3, #29
 8005808:	7722      	strb	r2, [r4, #28]
 800580a:	d43d      	bmi.n	8005888 <err_tcp+0x128>
 800580c:	6a23      	ldr	r3, [r4, #32]
 800580e:	b933      	cbnz	r3, 800581e <err_tcp+0xbe>
 8005810:	4b1e      	ldr	r3, [pc, #120]	; (800588c <err_tcp+0x12c>)
 8005812:	4923      	ldr	r1, [pc, #140]	; (80058a0 <err_tcp+0x140>)
 8005814:	481f      	ldr	r0, [pc, #124]	; (8005894 <err_tcp+0x134>)
 8005816:	f44f 72f3 	mov.w	r2, #486	; 0x1e6
 800581a:	f006 ff69 	bl	800c6f0 <iprintf>
 800581e:	6a23      	ldr	r3, [r4, #32]
 8005820:	2f04      	cmp	r7, #4
 8005822:	bf18      	it	ne
 8005824:	711d      	strbne	r5, [r3, #4]
 8005826:	681d      	ldr	r5, [r3, #0]
 8005828:	bf08      	it	eq
 800582a:	2200      	moveq	r2, #0
 800582c:	f105 050c 	add.w	r5, r5, #12
 8005830:	bf08      	it	eq
 8005832:	711a      	strbeq	r2, [r3, #4]
 8005834:	4628      	mov	r0, r5
 8005836:	f006 fda3 	bl	800c380 <sys_sem_valid>
 800583a:	b930      	cbnz	r0, 800584a <err_tcp+0xea>
 800583c:	4b13      	ldr	r3, [pc, #76]	; (800588c <err_tcp+0x12c>)
 800583e:	4919      	ldr	r1, [pc, #100]	; (80058a4 <err_tcp+0x144>)
 8005840:	4814      	ldr	r0, [pc, #80]	; (8005894 <err_tcp+0x134>)
 8005842:	f240 12ef 	movw	r2, #495	; 0x1ef
 8005846:	f006 ff53 	bl	800c6f0 <iprintf>
 800584a:	2300      	movs	r3, #0
 800584c:	6223      	str	r3, [r4, #32]
 800584e:	4628      	mov	r0, r5
 8005850:	e8bd 41f0 	ldmia.w	sp!, {r4, r5, r6, r7, r8, lr}
 8005854:	f006 bd8e 	b.w	800c374 <sys_sem_signal>
 8005858:	b14d      	cbz	r5, 800586e <err_tcp+0x10e>
 800585a:	4b0c      	ldr	r3, [pc, #48]	; (800588c <err_tcp+0x12c>)
 800585c:	4912      	ldr	r1, [pc, #72]	; (80058a8 <err_tcp+0x148>)
 800585e:	480d      	ldr	r0, [pc, #52]	; (8005894 <err_tcp+0x134>)
 8005860:	227d      	movs	r2, #125	; 0x7d
 8005862:	f006 ff45 	bl	800c6f0 <iprintf>
 8005866:	2600      	movs	r6, #0
 8005868:	e7b1      	b.n	80057ce <err_tcp+0x6e>
 800586a:	4e10      	ldr	r6, [pc, #64]	; (80058ac <err_tcp+0x14c>)
 800586c:	e7af      	b.n	80057ce <err_tcp+0x6e>
 800586e:	462e      	mov	r6, r5
 8005870:	e7ad      	b.n	80057ce <err_tcp+0x6e>
 8005872:	6a23      	ldr	r3, [r4, #32]
 8005874:	b143      	cbz	r3, 8005888 <err_tcp+0x128>
 8005876:	4b05      	ldr	r3, [pc, #20]	; (800588c <err_tcp+0x12c>)
 8005878:	490d      	ldr	r1, [pc, #52]	; (80058b0 <err_tcp+0x150>)
 800587a:	4806      	ldr	r0, [pc, #24]	; (8005894 <err_tcp+0x134>)
 800587c:	f240 12f7 	movw	r2, #503	; 0x1f7
 8005880:	e8bd 41f0 	ldmia.w	sp!, {r4, r5, r6, r7, r8, lr}
 8005884:	f006 bf34 	b.w	800c6f0 <iprintf>
 8005888:	e8bd 81f0 	ldmia.w	sp!, {r4, r5, r6, r7, r8, pc}
 800588c:	0800d7e3 	.word	0x0800d7e3
 8005890:	0800d8d8 	.word	0x0800d8d8
 8005894:	0800d51e 	.word	0x0800d51e
 8005898:	0800d9f7 	.word	0x0800d9f7
 800589c:	0800d9d0 	.word	0x0800d9d0
 80058a0:	0800d902 	.word	0x0800d902
 80058a4:	0800d723 	.word	0x0800d723
 80058a8:	0800d713 	.word	0x0800d713
 80058ac:	0800da9c 	.word	0x0800da9c
 80058b0:	0800d73c 	.word	0x0800d73c

080058b4 <sent_tcp>:
 80058b4:	b538      	push	{r3, r4, r5, lr}
 80058b6:	4615      	mov	r5, r2
 80058b8:	4604      	mov	r4, r0
 80058ba:	b970      	cbnz	r0, 80058da <sent_tcp+0x26>
 80058bc:	4b15      	ldr	r3, [pc, #84]	; (8005914 <sent_tcp+0x60>)
 80058be:	4916      	ldr	r1, [pc, #88]	; (8005918 <sent_tcp+0x64>)
 80058c0:	4816      	ldr	r0, [pc, #88]	; (800591c <sent_tcp+0x68>)
 80058c2:	f240 1293 	movw	r2, #403	; 0x193
 80058c6:	f006 ff13 	bl	800c6f0 <iprintf>
 80058ca:	2000      	movs	r0, #0
 80058cc:	bd38      	pop	{r3, r4, r5, pc}
 80058ce:	2904      	cmp	r1, #4
 80058d0:	d108      	bne.n	80058e4 <sent_tcp+0x30>
 80058d2:	2101      	movs	r1, #1
 80058d4:	f7ff fdac 	bl	8005430 <lwip_netconn_do_close_internal>
 80058d8:	e004      	b.n	80058e4 <sent_tcp+0x30>
 80058da:	7841      	ldrb	r1, [r0, #1]
 80058dc:	2901      	cmp	r1, #1
 80058de:	d1f6      	bne.n	80058ce <sent_tcp+0x1a>
 80058e0:	f7ff fc82 	bl	80051e8 <lwip_netconn_do_writemore>
 80058e4:	6863      	ldr	r3, [r4, #4]
 80058e6:	2b00      	cmp	r3, #0
 80058e8:	d0ef      	beq.n	80058ca <sent_tcp+0x16>
 80058ea:	f8b3 2064 	ldrh.w	r2, [r3, #100]	; 0x64
 80058ee:	f5b2 6f86 	cmp.w	r2, #1072	; 0x430
 80058f2:	d3ea      	bcc.n	80058ca <sent_tcp+0x16>
 80058f4:	f8b3 3066 	ldrh.w	r3, [r3, #102]	; 0x66
 80058f8:	2b04      	cmp	r3, #4
 80058fa:	d8e6      	bhi.n	80058ca <sent_tcp+0x16>
 80058fc:	7f23      	ldrb	r3, [r4, #28]
 80058fe:	f023 0310 	bic.w	r3, r3, #16
 8005902:	7723      	strb	r3, [r4, #28]
 8005904:	6a63      	ldr	r3, [r4, #36]	; 0x24
 8005906:	2b00      	cmp	r3, #0
 8005908:	d0df      	beq.n	80058ca <sent_tcp+0x16>
 800590a:	462a      	mov	r2, r5
 800590c:	2102      	movs	r1, #2
 800590e:	4620      	mov	r0, r4
 8005910:	4798      	blx	r3
 8005912:	e7da      	b.n	80058ca <sent_tcp+0x16>
 8005914:	0800d7e3 	.word	0x0800d7e3
 8005918:	0800d8d8 	.word	0x0800d8d8
 800591c:	0800d51e 	.word	0x0800d51e

08005920 <lwip_netconn_is_err_msg>:
 8005920:	b538      	push	{r3, r4, r5, lr}
 8005922:	4605      	mov	r5, r0
 8005924:	460c      	mov	r4, r1
 8005926:	b929      	cbnz	r1, 8005934 <lwip_netconn_is_err_msg+0x14>
 8005928:	4b0c      	ldr	r3, [pc, #48]	; (800595c <lwip_netconn_is_err_msg+0x3c>)
 800592a:	490d      	ldr	r1, [pc, #52]	; (8005960 <lwip_netconn_is_err_msg+0x40>)
 800592c:	480d      	ldr	r0, [pc, #52]	; (8005964 <lwip_netconn_is_err_msg+0x44>)
 800592e:	2285      	movs	r2, #133	; 0x85
 8005930:	f006 fede 	bl	800c6f0 <iprintf>
 8005934:	4b0c      	ldr	r3, [pc, #48]	; (8005968 <lwip_netconn_is_err_msg+0x48>)
 8005936:	429d      	cmp	r5, r3
 8005938:	d103      	bne.n	8005942 <lwip_netconn_is_err_msg+0x22>
 800593a:	23f3      	movs	r3, #243	; 0xf3
 800593c:	7023      	strb	r3, [r4, #0]
 800593e:	2001      	movs	r0, #1
 8005940:	bd38      	pop	{r3, r4, r5, pc}
 8005942:	4b0a      	ldr	r3, [pc, #40]	; (800596c <lwip_netconn_is_err_msg+0x4c>)
 8005944:	429d      	cmp	r5, r3
 8005946:	d101      	bne.n	800594c <lwip_netconn_is_err_msg+0x2c>
 8005948:	23f2      	movs	r3, #242	; 0xf2
 800594a:	e7f7      	b.n	800593c <lwip_netconn_is_err_msg+0x1c>
 800594c:	4b08      	ldr	r3, [pc, #32]	; (8005970 <lwip_netconn_is_err_msg+0x50>)
 800594e:	429d      	cmp	r5, r3
 8005950:	d101      	bne.n	8005956 <lwip_netconn_is_err_msg+0x36>
 8005952:	23f1      	movs	r3, #241	; 0xf1
 8005954:	e7f2      	b.n	800593c <lwip_netconn_is_err_msg+0x1c>
 8005956:	2000      	movs	r0, #0
 8005958:	e7f2      	b.n	8005940 <lwip_netconn_is_err_msg+0x20>
 800595a:	bf00      	nop
 800595c:	0800d7e3 	.word	0x0800d7e3
 8005960:	0800d9c4 	.word	0x0800d9c4
 8005964:	0800d51e 	.word	0x0800d51e
 8005968:	0800d9d0 	.word	0x0800d9d0
 800596c:	0800da9c 	.word	0x0800da9c
 8005970:	0800d9f7 	.word	0x0800d9f7

08005974 <lwip_netconn_do_newconn>:
 8005974:	b538      	push	{r3, r4, r5, lr}
 8005976:	2300      	movs	r3, #0
 8005978:	6805      	ldr	r5, [r0, #0]
 800597a:	7103      	strb	r3, [r0, #4]
 800597c:	4604      	mov	r4, r0
 800597e:	6868      	ldr	r0, [r5, #4]
 8005980:	b998      	cbnz	r0, 80059aa <lwip_netconn_do_newconn+0x36>
 8005982:	782b      	ldrb	r3, [r5, #0]
 8005984:	f003 03f0 	and.w	r3, r3, #240	; 0xf0
 8005988:	2b10      	cmp	r3, #16
 800598a:	d10c      	bne.n	80059a6 <lwip_netconn_do_newconn+0x32>
 800598c:	f002 f8f4 	bl	8007b78 <tcp_new_ip_type>
 8005990:	6068      	str	r0, [r5, #4]
 8005992:	6820      	ldr	r0, [r4, #0]
 8005994:	6843      	ldr	r3, [r0, #4]
 8005996:	b10b      	cbz	r3, 800599c <lwip_netconn_do_newconn+0x28>
 8005998:	f7ff fbae 	bl	80050f8 <setup_tcp>
 800599c:	6823      	ldr	r3, [r4, #0]
 800599e:	685b      	ldr	r3, [r3, #4]
 80059a0:	b91b      	cbnz	r3, 80059aa <lwip_netconn_do_newconn+0x36>
 80059a2:	23ff      	movs	r3, #255	; 0xff
 80059a4:	e000      	b.n	80059a8 <lwip_netconn_do_newconn+0x34>
 80059a6:	23fa      	movs	r3, #250	; 0xfa
 80059a8:	7123      	strb	r3, [r4, #4]
 80059aa:	bd38      	pop	{r3, r4, r5, pc}

080059ac <netconn_alloc>:
 80059ac:	b5f8      	push	{r3, r4, r5, r6, r7, lr}
 80059ae:	4605      	mov	r5, r0
 80059b0:	2006      	movs	r0, #6
 80059b2:	460f      	mov	r7, r1
 80059b4:	f000 fecc 	bl	8006750 <memp_malloc>
 80059b8:	4604      	mov	r4, r0
 80059ba:	b390      	cbz	r0, 8005a22 <netconn_alloc+0x76>
 80059bc:	7005      	strb	r5, [r0, #0]
 80059be:	f005 05f0 	and.w	r5, r5, #240	; 0xf0
 80059c2:	2300      	movs	r3, #0
 80059c4:	2d10      	cmp	r5, #16
 80059c6:	7203      	strb	r3, [r0, #8]
 80059c8:	6043      	str	r3, [r0, #4]
 80059ca:	d10d      	bne.n	80059e8 <netconn_alloc+0x3c>
 80059cc:	f100 0610 	add.w	r6, r0, #16
 80059d0:	2106      	movs	r1, #6
 80059d2:	4630      	mov	r0, r6
 80059d4:	f006 fc48 	bl	800c268 <sys_mbox_new>
 80059d8:	4601      	mov	r1, r0
 80059da:	b168      	cbz	r0, 80059f8 <netconn_alloc+0x4c>
 80059dc:	4621      	mov	r1, r4
 80059de:	2006      	movs	r0, #6
 80059e0:	f000 fed2 	bl	8006788 <memp_free>
 80059e4:	2400      	movs	r4, #0
 80059e6:	e01c      	b.n	8005a22 <netconn_alloc+0x76>
 80059e8:	4b0f      	ldr	r3, [pc, #60]	; (8005a28 <netconn_alloc+0x7c>)
 80059ea:	4910      	ldr	r1, [pc, #64]	; (8005a2c <netconn_alloc+0x80>)
 80059ec:	4810      	ldr	r0, [pc, #64]	; (8005a30 <netconn_alloc+0x84>)
 80059ee:	f240 22e5 	movw	r2, #741	; 0x2e5
 80059f2:	f006 fe7d 	bl	800c6f0 <iprintf>
 80059f6:	e7f1      	b.n	80059dc <netconn_alloc+0x30>
 80059f8:	f104 000c 	add.w	r0, r4, #12
 80059fc:	f006 fc8c 	bl	800c318 <sys_sem_new>
 8005a00:	4605      	mov	r5, r0
 8005a02:	b118      	cbz	r0, 8005a0c <netconn_alloc+0x60>
 8005a04:	4630      	mov	r0, r6
 8005a06:	f006 fc3c 	bl	800c282 <sys_mbox_free>
 8005a0a:	e7e7      	b.n	80059dc <netconn_alloc+0x30>
 8005a0c:	f104 0014 	add.w	r0, r4, #20
 8005a10:	f006 fc7f 	bl	800c312 <sys_mbox_set_invalid>
 8005a14:	e9c4 5708 	strd	r5, r7, [r4, #32]
 8005a18:	f04f 33ff 	mov.w	r3, #4294967295
 8005a1c:	7065      	strb	r5, [r4, #1]
 8005a1e:	61a3      	str	r3, [r4, #24]
 8005a20:	7725      	strb	r5, [r4, #28]
 8005a22:	4620      	mov	r0, r4
 8005a24:	bdf8      	pop	{r3, r4, r5, r6, r7, pc}
 8005a26:	bf00      	nop
 8005a28:	0800d7e3 	.word	0x0800d7e3
 8005a2c:	0800d9d1 	.word	0x0800d9d1
 8005a30:	0800d51e 	.word	0x0800d51e

08005a34 <netconn_free>:
 8005a34:	b538      	push	{r3, r4, r5, lr}
 8005a36:	6843      	ldr	r3, [r0, #4]
 8005a38:	4604      	mov	r4, r0
 8005a3a:	b133      	cbz	r3, 8005a4a <netconn_free+0x16>
 8005a3c:	4b16      	ldr	r3, [pc, #88]	; (8005a98 <netconn_free+0x64>)
 8005a3e:	4917      	ldr	r1, [pc, #92]	; (8005a9c <netconn_free+0x68>)
 8005a40:	4817      	ldr	r0, [pc, #92]	; (8005aa0 <netconn_free+0x6c>)
 8005a42:	f44f 7247 	mov.w	r2, #796	; 0x31c
 8005a46:	f006 fe53 	bl	800c6f0 <iprintf>
 8005a4a:	f104 0010 	add.w	r0, r4, #16
 8005a4e:	f006 fc5b 	bl	800c308 <sys_mbox_valid>
 8005a52:	b130      	cbz	r0, 8005a62 <netconn_free+0x2e>
 8005a54:	4b10      	ldr	r3, [pc, #64]	; (8005a98 <netconn_free+0x64>)
 8005a56:	4913      	ldr	r1, [pc, #76]	; (8005aa4 <netconn_free+0x70>)
 8005a58:	4811      	ldr	r0, [pc, #68]	; (8005aa0 <netconn_free+0x6c>)
 8005a5a:	f44f 7249 	mov.w	r2, #804	; 0x324
 8005a5e:	f006 fe47 	bl	800c6f0 <iprintf>
 8005a62:	f104 0014 	add.w	r0, r4, #20
 8005a66:	f006 fc4f 	bl	800c308 <sys_mbox_valid>
 8005a6a:	b130      	cbz	r0, 8005a7a <netconn_free+0x46>
 8005a6c:	4b0a      	ldr	r3, [pc, #40]	; (8005a98 <netconn_free+0x64>)
 8005a6e:	490e      	ldr	r1, [pc, #56]	; (8005aa8 <netconn_free+0x74>)
 8005a70:	480b      	ldr	r0, [pc, #44]	; (8005aa0 <netconn_free+0x6c>)
 8005a72:	f240 3227 	movw	r2, #807	; 0x327
 8005a76:	f006 fe3b 	bl	800c6f0 <iprintf>
 8005a7a:	f104 050c 	add.w	r5, r4, #12
 8005a7e:	4628      	mov	r0, r5
 8005a80:	f006 fc7b 	bl	800c37a <sys_sem_free>
 8005a84:	4628      	mov	r0, r5
 8005a86:	f006 fc80 	bl	800c38a <sys_sem_set_invalid>
 8005a8a:	4621      	mov	r1, r4
 8005a8c:	2006      	movs	r0, #6
 8005a8e:	e8bd 4038 	ldmia.w	sp!, {r3, r4, r5, lr}
 8005a92:	f000 be79 	b.w	8006788 <memp_free>
 8005a96:	bf00      	nop
 8005a98:	0800d7e3 	.word	0x0800d7e3
 8005a9c:	0800d9f8 	.word	0x0800d9f8
 8005aa0:	0800d51e 	.word	0x0800d51e
 8005aa4:	0800da26 	.word	0x0800da26
 8005aa8:	0800da60 	.word	0x0800da60

08005aac <netconn_drain>:
 8005aac:	b573      	push	{r0, r1, r4, r5, r6, lr}
 8005aae:	f100 0510 	add.w	r5, r0, #16
 8005ab2:	4604      	mov	r4, r0
 8005ab4:	4628      	mov	r0, r5
 8005ab6:	f006 fc27 	bl	800c308 <sys_mbox_valid>
 8005aba:	b158      	cbz	r0, 8005ad4 <netconn_drain+0x28>
 8005abc:	a901      	add	r1, sp, #4
 8005abe:	4628      	mov	r0, r5
 8005ac0:	f006 fc17 	bl	800c2f2 <sys_arch_mbox_tryfetch>
 8005ac4:	3001      	adds	r0, #1
 8005ac6:	d118      	bne.n	8005afa <netconn_drain+0x4e>
 8005ac8:	4628      	mov	r0, r5
 8005aca:	f006 fbda 	bl	800c282 <sys_mbox_free>
 8005ace:	4628      	mov	r0, r5
 8005ad0:	f006 fc1f 	bl	800c312 <sys_mbox_set_invalid>
 8005ad4:	3414      	adds	r4, #20
 8005ad6:	4620      	mov	r0, r4
 8005ad8:	f006 fc16 	bl	800c308 <sys_mbox_valid>
 8005adc:	b158      	cbz	r0, 8005af6 <netconn_drain+0x4a>
 8005ade:	a901      	add	r1, sp, #4
 8005ae0:	4620      	mov	r0, r4
 8005ae2:	f006 fc06 	bl	800c2f2 <sys_arch_mbox_tryfetch>
 8005ae6:	3001      	adds	r0, #1
 8005ae8:	d11a      	bne.n	8005b20 <netconn_drain+0x74>
 8005aea:	4620      	mov	r0, r4
 8005aec:	f006 fbc9 	bl	800c282 <sys_mbox_free>
 8005af0:	4620      	mov	r0, r4
 8005af2:	f006 fc0e 	bl	800c312 <sys_mbox_set_invalid>
 8005af6:	b002      	add	sp, #8
 8005af8:	bd70      	pop	{r4, r5, r6, pc}
 8005afa:	7823      	ldrb	r3, [r4, #0]
 8005afc:	9801      	ldr	r0, [sp, #4]
 8005afe:	f003 03f0 	and.w	r3, r3, #240	; 0xf0
 8005b02:	2b10      	cmp	r3, #16
 8005b04:	d109      	bne.n	8005b1a <netconn_drain+0x6e>
 8005b06:	f10d 0103 	add.w	r1, sp, #3
 8005b0a:	f7ff ff09 	bl	8005920 <lwip_netconn_is_err_msg>
 8005b0e:	2800      	cmp	r0, #0
 8005b10:	d1d4      	bne.n	8005abc <netconn_drain+0x10>
 8005b12:	9801      	ldr	r0, [sp, #4]
 8005b14:	f001 f8b6 	bl	8006c84 <pbuf_free>
 8005b18:	e7d0      	b.n	8005abc <netconn_drain+0x10>
 8005b1a:	f000 f9ed 	bl	8005ef8 <netbuf_delete>
 8005b1e:	e7cd      	b.n	8005abc <netconn_drain+0x10>
 8005b20:	f10d 0103 	add.w	r1, sp, #3
 8005b24:	9801      	ldr	r0, [sp, #4]
 8005b26:	f7ff fefb 	bl	8005920 <lwip_netconn_is_err_msg>
 8005b2a:	4606      	mov	r6, r0
 8005b2c:	2800      	cmp	r0, #0
 8005b2e:	d1d6      	bne.n	8005ade <netconn_drain+0x32>
 8005b30:	9d01      	ldr	r5, [sp, #4]
 8005b32:	4628      	mov	r0, r5
 8005b34:	f7ff ffba 	bl	8005aac <netconn_drain>
 8005b38:	6868      	ldr	r0, [r5, #4]
 8005b3a:	b110      	cbz	r0, 8005b42 <netconn_drain+0x96>
 8005b3c:	f001 ff1e 	bl	800797c <tcp_abort>
 8005b40:	606e      	str	r6, [r5, #4]
 8005b42:	4628      	mov	r0, r5
 8005b44:	f7ff ff76 	bl	8005a34 <netconn_free>
 8005b48:	e7c9      	b.n	8005ade <netconn_drain+0x32>
	...

08005b4c <lwip_netconn_do_delconn>:
 8005b4c:	6803      	ldr	r3, [r0, #0]
 8005b4e:	b570      	push	{r4, r5, r6, lr}
 8005b50:	785d      	ldrb	r5, [r3, #1]
 8005b52:	4604      	mov	r4, r0
 8005b54:	b16d      	cbz	r5, 8005b72 <lwip_netconn_do_delconn+0x26>
 8005b56:	781b      	ldrb	r3, [r3, #0]
 8005b58:	f003 03f0 	and.w	r3, r3, #240	; 0xf0
 8005b5c:	2b10      	cmp	r3, #16
 8005b5e:	d006      	beq.n	8005b6e <lwip_netconn_do_delconn+0x22>
 8005b60:	4b34      	ldr	r3, [pc, #208]	; (8005c34 <lwip_netconn_do_delconn+0xe8>)
 8005b62:	4935      	ldr	r1, [pc, #212]	; (8005c38 <lwip_netconn_do_delconn+0xec>)
 8005b64:	4835      	ldr	r0, [pc, #212]	; (8005c3c <lwip_netconn_do_delconn+0xf0>)
 8005b66:	f240 425f 	movw	r2, #1119	; 0x45f
 8005b6a:	f006 fdc1 	bl	800c6f0 <iprintf>
 8005b6e:	2d02      	cmp	r5, #2
 8005b70:	d143      	bne.n	8005bfa <lwip_netconn_do_delconn+0xae>
 8005b72:	2500      	movs	r5, #0
 8005b74:	6820      	ldr	r0, [r4, #0]
 8005b76:	7125      	strb	r5, [r4, #4]
 8005b78:	f7ff ff98 	bl	8005aac <netconn_drain>
 8005b7c:	6820      	ldr	r0, [r4, #0]
 8005b7e:	6843      	ldr	r3, [r0, #4]
 8005b80:	2b00      	cmp	r3, #0
 8005b82:	d049      	beq.n	8005c18 <lwip_netconn_do_delconn+0xcc>
 8005b84:	7803      	ldrb	r3, [r0, #0]
 8005b86:	f003 03f0 	and.w	r3, r3, #240	; 0xf0
 8005b8a:	2b10      	cmp	r3, #16
 8005b8c:	d143      	bne.n	8005c16 <lwip_netconn_do_delconn+0xca>
 8005b8e:	6a03      	ldr	r3, [r0, #32]
 8005b90:	b133      	cbz	r3, 8005ba0 <lwip_netconn_do_delconn+0x54>
 8005b92:	4b28      	ldr	r3, [pc, #160]	; (8005c34 <lwip_netconn_do_delconn+0xe8>)
 8005b94:	492a      	ldr	r1, [pc, #168]	; (8005c40 <lwip_netconn_do_delconn+0xf4>)
 8005b96:	4829      	ldr	r0, [pc, #164]	; (8005c3c <lwip_netconn_do_delconn+0xf0>)
 8005b98:	f240 4294 	movw	r2, #1172	; 0x494
 8005b9c:	f006 fda8 	bl	800c6f0 <iprintf>
 8005ba0:	6820      	ldr	r0, [r4, #0]
 8005ba2:	2304      	movs	r3, #4
 8005ba4:	7043      	strb	r3, [r0, #1]
 8005ba6:	2303      	movs	r3, #3
 8005ba8:	7223      	strb	r3, [r4, #8]
 8005baa:	2100      	movs	r1, #0
 8005bac:	6204      	str	r4, [r0, #32]
 8005bae:	f7ff fc3f 	bl	8005430 <lwip_netconn_do_close_internal>
 8005bb2:	2800      	cmp	r0, #0
 8005bb4:	d03d      	beq.n	8005c32 <lwip_netconn_do_delconn+0xe6>
 8005bb6:	6823      	ldr	r3, [r4, #0]
 8005bb8:	785b      	ldrb	r3, [r3, #1]
 8005bba:	2b04      	cmp	r3, #4
 8005bbc:	d006      	beq.n	8005bcc <lwip_netconn_do_delconn+0x80>
 8005bbe:	4b1d      	ldr	r3, [pc, #116]	; (8005c34 <lwip_netconn_do_delconn+0xe8>)
 8005bc0:	4920      	ldr	r1, [pc, #128]	; (8005c44 <lwip_netconn_do_delconn+0xf8>)
 8005bc2:	481e      	ldr	r0, [pc, #120]	; (8005c3c <lwip_netconn_do_delconn+0xf0>)
 8005bc4:	f240 429a 	movw	r2, #1178	; 0x49a
 8005bc8:	f006 fd92 	bl	800c6f0 <iprintf>
 8005bcc:	481e      	ldr	r0, [pc, #120]	; (8005c48 <lwip_netconn_do_delconn+0xfc>)
 8005bce:	f006 fbf9 	bl	800c3c4 <sys_mutex_unlock>
 8005bd2:	6820      	ldr	r0, [r4, #0]
 8005bd4:	2100      	movs	r1, #0
 8005bd6:	300c      	adds	r0, #12
 8005bd8:	f006 fbb1 	bl	800c33e <sys_arch_sem_wait>
 8005bdc:	481a      	ldr	r0, [pc, #104]	; (8005c48 <lwip_netconn_do_delconn+0xfc>)
 8005bde:	f006 fbec 	bl	800c3ba <sys_mutex_lock>
 8005be2:	6823      	ldr	r3, [r4, #0]
 8005be4:	785b      	ldrb	r3, [r3, #1]
 8005be6:	b323      	cbz	r3, 8005c32 <lwip_netconn_do_delconn+0xe6>
 8005be8:	4b12      	ldr	r3, [pc, #72]	; (8005c34 <lwip_netconn_do_delconn+0xe8>)
 8005bea:	4916      	ldr	r1, [pc, #88]	; (8005c44 <lwip_netconn_do_delconn+0xf8>)
 8005bec:	4813      	ldr	r0, [pc, #76]	; (8005c3c <lwip_netconn_do_delconn+0xf0>)
 8005bee:	f240 429e 	movw	r2, #1182	; 0x49e
 8005bf2:	e8bd 4070 	ldmia.w	sp!, {r4, r5, r6, lr}
 8005bf6:	f006 bd7b 	b.w	800c6f0 <iprintf>
 8005bfa:	2d03      	cmp	r5, #3
 8005bfc:	d103      	bne.n	8005c06 <lwip_netconn_do_delconn+0xba>
 8005bfe:	6823      	ldr	r3, [r4, #0]
 8005c00:	7f1b      	ldrb	r3, [r3, #28]
 8005c02:	075b      	lsls	r3, r3, #29
 8005c04:	d4b5      	bmi.n	8005b72 <lwip_netconn_do_delconn+0x26>
 8005c06:	23fb      	movs	r3, #251	; 0xfb
 8005c08:	7123      	strb	r3, [r4, #4]
 8005c0a:	6820      	ldr	r0, [r4, #0]
 8005c0c:	e8bd 4070 	ldmia.w	sp!, {r4, r5, r6, lr}
 8005c10:	300c      	adds	r0, #12
 8005c12:	f006 bbb5 	b.w	800c380 <sys_sem_valid>
 8005c16:	6045      	str	r5, [r0, #4]
 8005c18:	6a43      	ldr	r3, [r0, #36]	; 0x24
 8005c1a:	b113      	cbz	r3, 8005c22 <lwip_netconn_do_delconn+0xd6>
 8005c1c:	2200      	movs	r2, #0
 8005c1e:	4611      	mov	r1, r2
 8005c20:	4798      	blx	r3
 8005c22:	6820      	ldr	r0, [r4, #0]
 8005c24:	6a43      	ldr	r3, [r0, #36]	; 0x24
 8005c26:	2b00      	cmp	r3, #0
 8005c28:	d0ef      	beq.n	8005c0a <lwip_netconn_do_delconn+0xbe>
 8005c2a:	2200      	movs	r2, #0
 8005c2c:	2102      	movs	r1, #2
 8005c2e:	4798      	blx	r3
 8005c30:	e7eb      	b.n	8005c0a <lwip_netconn_do_delconn+0xbe>
 8005c32:	bd70      	pop	{r4, r5, r6, pc}
 8005c34:	0800d7e3 	.word	0x0800d7e3
 8005c38:	0800d88e 	.word	0x0800d88e
 8005c3c:	0800d51e 	.word	0x0800d51e
 8005c40:	0800d8a2 	.word	0x0800d8a2
 8005c44:	0800d8bd 	.word	0x0800d8bd
 8005c48:	20007ebc 	.word	0x20007ebc

08005c4c <lwip_netconn_do_bind>:
 8005c4c:	6803      	ldr	r3, [r0, #0]
 8005c4e:	b510      	push	{r4, lr}
 8005c50:	4604      	mov	r4, r0
 8005c52:	6858      	ldr	r0, [r3, #4]
 8005c54:	b150      	cbz	r0, 8005c6c <lwip_netconn_do_bind+0x20>
 8005c56:	781b      	ldrb	r3, [r3, #0]
 8005c58:	f003 03f0 	and.w	r3, r3, #240	; 0xf0
 8005c5c:	2b10      	cmp	r3, #16
 8005c5e:	d105      	bne.n	8005c6c <lwip_netconn_do_bind+0x20>
 8005c60:	89a2      	ldrh	r2, [r4, #12]
 8005c62:	68a1      	ldr	r1, [r4, #8]
 8005c64:	f001 fb20 	bl	80072a8 <tcp_bind>
 8005c68:	7120      	strb	r0, [r4, #4]
 8005c6a:	bd10      	pop	{r4, pc}
 8005c6c:	f06f 0005 	mvn.w	r0, #5
 8005c70:	e7fa      	b.n	8005c68 <lwip_netconn_do_bind+0x1c>
	...

08005c74 <lwip_netconn_do_connect>:
 8005c74:	b570      	push	{r4, r5, r6, lr}
 8005c76:	4604      	mov	r4, r0
 8005c78:	6800      	ldr	r0, [r0, #0]
 8005c7a:	6843      	ldr	r3, [r0, #4]
 8005c7c:	2b00      	cmp	r3, #0
 8005c7e:	d047      	beq.n	8005d10 <lwip_netconn_do_connect+0x9c>
 8005c80:	7803      	ldrb	r3, [r0, #0]
 8005c82:	f003 03f0 	and.w	r3, r3, #240	; 0xf0
 8005c86:	2b10      	cmp	r3, #16
 8005c88:	d138      	bne.n	8005cfc <lwip_netconn_do_connect+0x88>
 8005c8a:	7843      	ldrb	r3, [r0, #1]
 8005c8c:	2b03      	cmp	r3, #3
 8005c8e:	d042      	beq.n	8005d16 <lwip_netconn_do_connect+0xa2>
 8005c90:	2b00      	cmp	r3, #0
 8005c92:	d143      	bne.n	8005d1c <lwip_netconn_do_connect+0xa8>
 8005c94:	f7ff fa30 	bl	80050f8 <setup_tcp>
 8005c98:	6820      	ldr	r0, [r4, #0]
 8005c9a:	4b22      	ldr	r3, [pc, #136]	; (8005d24 <lwip_netconn_do_connect+0xb0>)
 8005c9c:	89a2      	ldrh	r2, [r4, #12]
 8005c9e:	68a1      	ldr	r1, [r4, #8]
 8005ca0:	6840      	ldr	r0, [r0, #4]
 8005ca2:	f001 fcb1 	bl	8007608 <tcp_connect>
 8005ca6:	b958      	cbnz	r0, 8005cc0 <lwip_netconn_do_connect+0x4c>
 8005ca8:	6822      	ldr	r2, [r4, #0]
 8005caa:	7f13      	ldrb	r3, [r2, #28]
 8005cac:	2103      	movs	r1, #3
 8005cae:	f013 0502 	ands.w	r5, r3, #2
 8005cb2:	7051      	strb	r1, [r2, #1]
 8005cb4:	d006      	beq.n	8005cc4 <lwip_netconn_do_connect+0x50>
 8005cb6:	f043 0304 	orr.w	r3, r3, #4
 8005cba:	7713      	strb	r3, [r2, #28]
 8005cbc:	f06f 0004 	mvn.w	r0, #4
 8005cc0:	7120      	strb	r0, [r4, #4]
 8005cc2:	bd70      	pop	{r4, r5, r6, pc}
 8005cc4:	f023 0304 	bic.w	r3, r3, #4
 8005cc8:	7713      	strb	r3, [r2, #28]
 8005cca:	6214      	str	r4, [r2, #32]
 8005ccc:	4816      	ldr	r0, [pc, #88]	; (8005d28 <lwip_netconn_do_connect+0xb4>)
 8005cce:	f006 fb79 	bl	800c3c4 <sys_mutex_unlock>
 8005cd2:	6820      	ldr	r0, [r4, #0]
 8005cd4:	4629      	mov	r1, r5
 8005cd6:	300c      	adds	r0, #12
 8005cd8:	f006 fb31 	bl	800c33e <sys_arch_sem_wait>
 8005cdc:	4812      	ldr	r0, [pc, #72]	; (8005d28 <lwip_netconn_do_connect+0xb4>)
 8005cde:	f006 fb6c 	bl	800c3ba <sys_mutex_lock>
 8005ce2:	6823      	ldr	r3, [r4, #0]
 8005ce4:	785b      	ldrb	r3, [r3, #1]
 8005ce6:	2b03      	cmp	r3, #3
 8005ce8:	d1eb      	bne.n	8005cc2 <lwip_netconn_do_connect+0x4e>
 8005cea:	4b10      	ldr	r3, [pc, #64]	; (8005d2c <lwip_netconn_do_connect+0xb8>)
 8005cec:	4910      	ldr	r1, [pc, #64]	; (8005d30 <lwip_netconn_do_connect+0xbc>)
 8005cee:	4811      	ldr	r0, [pc, #68]	; (8005d34 <lwip_netconn_do_connect+0xc0>)
 8005cf0:	f240 5274 	movw	r2, #1396	; 0x574
 8005cf4:	e8bd 4070 	ldmia.w	sp!, {r4, r5, r6, lr}
 8005cf8:	f006 bcfa 	b.w	800c6f0 <iprintf>
 8005cfc:	4b0b      	ldr	r3, [pc, #44]	; (8005d2c <lwip_netconn_do_connect+0xb8>)
 8005cfe:	490e      	ldr	r1, [pc, #56]	; (8005d38 <lwip_netconn_do_connect+0xc4>)
 8005d00:	480c      	ldr	r0, [pc, #48]	; (8005d34 <lwip_netconn_do_connect+0xc0>)
 8005d02:	f240 527f 	movw	r2, #1407	; 0x57f
 8005d06:	f006 fcf3 	bl	800c6f0 <iprintf>
 8005d0a:	f06f 0005 	mvn.w	r0, #5
 8005d0e:	e7d7      	b.n	8005cc0 <lwip_netconn_do_connect+0x4c>
 8005d10:	f06f 000e 	mvn.w	r0, #14
 8005d14:	e7d4      	b.n	8005cc0 <lwip_netconn_do_connect+0x4c>
 8005d16:	f06f 0008 	mvn.w	r0, #8
 8005d1a:	e7d1      	b.n	8005cc0 <lwip_netconn_do_connect+0x4c>
 8005d1c:	f06f 0009 	mvn.w	r0, #9
 8005d20:	e7ce      	b.n	8005cc0 <lwip_netconn_do_connect+0x4c>
 8005d22:	bf00      	nop
 8005d24:	0800513d 	.word	0x0800513d
 8005d28:	20007ebc 	.word	0x20007ebc
 8005d2c:	0800d7e3 	.word	0x0800d7e3
 8005d30:	0800d8bd 	.word	0x0800d8bd
 8005d34:	0800d51e 	.word	0x0800d51e
 8005d38:	0800d7ce 	.word	0x0800d7ce

08005d3c <lwip_netconn_do_recv>:
 8005d3c:	b5f8      	push	{r3, r4, r5, r6, r7, lr}
 8005d3e:	2300      	movs	r3, #0
 8005d40:	7103      	strb	r3, [r0, #4]
 8005d42:	6803      	ldr	r3, [r0, #0]
 8005d44:	685a      	ldr	r2, [r3, #4]
 8005d46:	4605      	mov	r5, r0
 8005d48:	b192      	cbz	r2, 8005d70 <lwip_netconn_do_recv+0x34>
 8005d4a:	781b      	ldrb	r3, [r3, #0]
 8005d4c:	f003 03f0 	and.w	r3, r3, #240	; 0xf0
 8005d50:	2b10      	cmp	r3, #16
 8005d52:	d10d      	bne.n	8005d70 <lwip_netconn_do_recv+0x34>
 8005d54:	6884      	ldr	r4, [r0, #8]
 8005d56:	f64f 77ff 	movw	r7, #65535	; 0xffff
 8005d5a:	42bc      	cmp	r4, r7
 8005d5c:	682b      	ldr	r3, [r5, #0]
 8005d5e:	4626      	mov	r6, r4
 8005d60:	bf28      	it	cs
 8005d62:	463e      	movcs	r6, r7
 8005d64:	b2b1      	uxth	r1, r6
 8005d66:	6858      	ldr	r0, [r3, #4]
 8005d68:	f001 fb2a 	bl	80073c0 <tcp_recved>
 8005d6c:	1ba4      	subs	r4, r4, r6
 8005d6e:	d1f4      	bne.n	8005d5a <lwip_netconn_do_recv+0x1e>
 8005d70:	bdf8      	pop	{r3, r4, r5, r6, r7, pc}
	...

08005d74 <lwip_netconn_do_write>:
 8005d74:	b510      	push	{r4, lr}
 8005d76:	4604      	mov	r4, r0
 8005d78:	6800      	ldr	r0, [r0, #0]
 8005d7a:	f7ff f8a0 	bl	8004ebe <netconn_err>
 8005d7e:	2800      	cmp	r0, #0
 8005d80:	d14a      	bne.n	8005e18 <lwip_netconn_do_write+0xa4>
 8005d82:	6823      	ldr	r3, [r4, #0]
 8005d84:	781a      	ldrb	r2, [r3, #0]
 8005d86:	f002 02f0 	and.w	r2, r2, #240	; 0xf0
 8005d8a:	2a10      	cmp	r2, #16
 8005d8c:	d144      	bne.n	8005e18 <lwip_netconn_do_write+0xa4>
 8005d8e:	785a      	ldrb	r2, [r3, #1]
 8005d90:	2a00      	cmp	r2, #0
 8005d92:	d13f      	bne.n	8005e14 <lwip_netconn_do_write+0xa0>
 8005d94:	685a      	ldr	r2, [r3, #4]
 8005d96:	2a00      	cmp	r2, #0
 8005d98:	d040      	beq.n	8005e1c <lwip_netconn_do_write+0xa8>
 8005d9a:	2201      	movs	r2, #1
 8005d9c:	705a      	strb	r2, [r3, #1]
 8005d9e:	6a1b      	ldr	r3, [r3, #32]
 8005da0:	b133      	cbz	r3, 8005db0 <lwip_netconn_do_write+0x3c>
 8005da2:	4b20      	ldr	r3, [pc, #128]	; (8005e24 <lwip_netconn_do_write+0xb0>)
 8005da4:	4920      	ldr	r1, [pc, #128]	; (8005e28 <lwip_netconn_do_write+0xb4>)
 8005da6:	4821      	ldr	r0, [pc, #132]	; (8005e2c <lwip_netconn_do_write+0xb8>)
 8005da8:	f240 7223 	movw	r2, #1827	; 0x723
 8005dac:	f006 fca0 	bl	800c6f0 <iprintf>
 8005db0:	6963      	ldr	r3, [r4, #20]
 8005db2:	b933      	cbnz	r3, 8005dc2 <lwip_netconn_do_write+0x4e>
 8005db4:	4b1b      	ldr	r3, [pc, #108]	; (8005e24 <lwip_netconn_do_write+0xb0>)
 8005db6:	491e      	ldr	r1, [pc, #120]	; (8005e30 <lwip_netconn_do_write+0xbc>)
 8005db8:	481c      	ldr	r0, [pc, #112]	; (8005e2c <lwip_netconn_do_write+0xb8>)
 8005dba:	f240 7224 	movw	r2, #1828	; 0x724
 8005dbe:	f006 fc97 	bl	800c6f0 <iprintf>
 8005dc2:	6820      	ldr	r0, [r4, #0]
 8005dc4:	2100      	movs	r1, #0
 8005dc6:	6204      	str	r4, [r0, #32]
 8005dc8:	f7ff fa0e 	bl	80051e8 <lwip_netconn_do_writemore>
 8005dcc:	b328      	cbz	r0, 8005e1a <lwip_netconn_do_write+0xa6>
 8005dce:	6823      	ldr	r3, [r4, #0]
 8005dd0:	785b      	ldrb	r3, [r3, #1]
 8005dd2:	2b01      	cmp	r3, #1
 8005dd4:	d006      	beq.n	8005de4 <lwip_netconn_do_write+0x70>
 8005dd6:	4b13      	ldr	r3, [pc, #76]	; (8005e24 <lwip_netconn_do_write+0xb0>)
 8005dd8:	4916      	ldr	r1, [pc, #88]	; (8005e34 <lwip_netconn_do_write+0xc0>)
 8005dda:	4814      	ldr	r0, [pc, #80]	; (8005e2c <lwip_netconn_do_write+0xb8>)
 8005ddc:	f44f 62e5 	mov.w	r2, #1832	; 0x728
 8005de0:	f006 fc86 	bl	800c6f0 <iprintf>
 8005de4:	4814      	ldr	r0, [pc, #80]	; (8005e38 <lwip_netconn_do_write+0xc4>)
 8005de6:	f006 faed 	bl	800c3c4 <sys_mutex_unlock>
 8005dea:	6820      	ldr	r0, [r4, #0]
 8005dec:	2100      	movs	r1, #0
 8005dee:	300c      	adds	r0, #12
 8005df0:	f006 faa5 	bl	800c33e <sys_arch_sem_wait>
 8005df4:	4810      	ldr	r0, [pc, #64]	; (8005e38 <lwip_netconn_do_write+0xc4>)
 8005df6:	f006 fae0 	bl	800c3ba <sys_mutex_lock>
 8005dfa:	6823      	ldr	r3, [r4, #0]
 8005dfc:	785b      	ldrb	r3, [r3, #1]
 8005dfe:	2b01      	cmp	r3, #1
 8005e00:	d10b      	bne.n	8005e1a <lwip_netconn_do_write+0xa6>
 8005e02:	4b08      	ldr	r3, [pc, #32]	; (8005e24 <lwip_netconn_do_write+0xb0>)
 8005e04:	490b      	ldr	r1, [pc, #44]	; (8005e34 <lwip_netconn_do_write+0xc0>)
 8005e06:	4809      	ldr	r0, [pc, #36]	; (8005e2c <lwip_netconn_do_write+0xb8>)
 8005e08:	f240 722c 	movw	r2, #1836	; 0x72c
 8005e0c:	e8bd 4010 	ldmia.w	sp!, {r4, lr}
 8005e10:	f006 bc6e 	b.w	800c6f0 <iprintf>
 8005e14:	f06f 0004 	mvn.w	r0, #4
 8005e18:	7120      	strb	r0, [r4, #4]
 8005e1a:	bd10      	pop	{r4, pc}
 8005e1c:	f06f 000a 	mvn.w	r0, #10
 8005e20:	e7fa      	b.n	8005e18 <lwip_netconn_do_write+0xa4>
 8005e22:	bf00      	nop
 8005e24:	0800d7e3 	.word	0x0800d7e3
 8005e28:	0800d8a2 	.word	0x0800d8a2
 8005e2c:	0800d51e 	.word	0x0800d51e
 8005e30:	0800d8c4 	.word	0x0800d8c4
 8005e34:	0800d8bd 	.word	0x0800d8bd
 8005e38:	20007ebc 	.word	0x20007ebc

08005e3c <lwip_netconn_do_close>:
 8005e3c:	b510      	push	{r4, lr}
 8005e3e:	4604      	mov	r4, r0
 8005e40:	6800      	ldr	r0, [r0, #0]
 8005e42:	6843      	ldr	r3, [r0, #4]
 8005e44:	b163      	cbz	r3, 8005e60 <lwip_netconn_do_close+0x24>
 8005e46:	7803      	ldrb	r3, [r0, #0]
 8005e48:	f003 03f0 	and.w	r3, r3, #240	; 0xf0
 8005e4c:	2b10      	cmp	r3, #16
 8005e4e:	d107      	bne.n	8005e60 <lwip_netconn_do_close+0x24>
 8005e50:	7a22      	ldrb	r2, [r4, #8]
 8005e52:	7843      	ldrb	r3, [r0, #1]
 8005e54:	2a03      	cmp	r2, #3
 8005e56:	d001      	beq.n	8005e5c <lwip_netconn_do_close+0x20>
 8005e58:	2b02      	cmp	r3, #2
 8005e5a:	d001      	beq.n	8005e60 <lwip_netconn_do_close+0x24>
 8005e5c:	2b03      	cmp	r3, #3
 8005e5e:	d102      	bne.n	8005e66 <lwip_netconn_do_close+0x2a>
 8005e60:	23f5      	movs	r3, #245	; 0xf5
 8005e62:	7123      	strb	r3, [r4, #4]
 8005e64:	bd10      	pop	{r4, pc}
 8005e66:	2b01      	cmp	r3, #1
 8005e68:	d101      	bne.n	8005e6e <lwip_netconn_do_close+0x32>
 8005e6a:	23fb      	movs	r3, #251	; 0xfb
 8005e6c:	e7f9      	b.n	8005e62 <lwip_netconn_do_close+0x26>
 8005e6e:	07d3      	lsls	r3, r2, #31
 8005e70:	d501      	bpl.n	8005e76 <lwip_netconn_do_close+0x3a>
 8005e72:	f7ff fe1b 	bl	8005aac <netconn_drain>
 8005e76:	6823      	ldr	r3, [r4, #0]
 8005e78:	6a1b      	ldr	r3, [r3, #32]
 8005e7a:	b133      	cbz	r3, 8005e8a <lwip_netconn_do_close+0x4e>
 8005e7c:	4b19      	ldr	r3, [pc, #100]	; (8005ee4 <lwip_netconn_do_close+0xa8>)
 8005e7e:	491a      	ldr	r1, [pc, #104]	; (8005ee8 <lwip_netconn_do_close+0xac>)
 8005e80:	481a      	ldr	r0, [pc, #104]	; (8005eec <lwip_netconn_do_close+0xb0>)
 8005e82:	f240 72bd 	movw	r2, #1981	; 0x7bd
 8005e86:	f006 fc33 	bl	800c6f0 <iprintf>
 8005e8a:	6820      	ldr	r0, [r4, #0]
 8005e8c:	2304      	movs	r3, #4
 8005e8e:	7043      	strb	r3, [r0, #1]
 8005e90:	6204      	str	r4, [r0, #32]
 8005e92:	2100      	movs	r1, #0
 8005e94:	f7ff facc 	bl	8005430 <lwip_netconn_do_close_internal>
 8005e98:	2800      	cmp	r0, #0
 8005e9a:	d0e3      	beq.n	8005e64 <lwip_netconn_do_close+0x28>
 8005e9c:	6823      	ldr	r3, [r4, #0]
 8005e9e:	785b      	ldrb	r3, [r3, #1]
 8005ea0:	2b04      	cmp	r3, #4
 8005ea2:	d006      	beq.n	8005eb2 <lwip_netconn_do_close+0x76>
 8005ea4:	4b0f      	ldr	r3, [pc, #60]	; (8005ee4 <lwip_netconn_do_close+0xa8>)
 8005ea6:	4912      	ldr	r1, [pc, #72]	; (8005ef0 <lwip_netconn_do_close+0xb4>)
 8005ea8:	4810      	ldr	r0, [pc, #64]	; (8005eec <lwip_netconn_do_close+0xb0>)
 8005eaa:	f240 72c2 	movw	r2, #1986	; 0x7c2
 8005eae:	f006 fc1f 	bl	800c6f0 <iprintf>
 8005eb2:	4810      	ldr	r0, [pc, #64]	; (8005ef4 <lwip_netconn_do_close+0xb8>)
 8005eb4:	f006 fa86 	bl	800c3c4 <sys_mutex_unlock>
 8005eb8:	6820      	ldr	r0, [r4, #0]
 8005eba:	2100      	movs	r1, #0
 8005ebc:	300c      	adds	r0, #12
 8005ebe:	f006 fa3e 	bl	800c33e <sys_arch_sem_wait>
 8005ec2:	480c      	ldr	r0, [pc, #48]	; (8005ef4 <lwip_netconn_do_close+0xb8>)
 8005ec4:	f006 fa79 	bl	800c3ba <sys_mutex_lock>
 8005ec8:	6823      	ldr	r3, [r4, #0]
 8005eca:	785b      	ldrb	r3, [r3, #1]
 8005ecc:	2b00      	cmp	r3, #0
 8005ece:	d0c9      	beq.n	8005e64 <lwip_netconn_do_close+0x28>
 8005ed0:	4b04      	ldr	r3, [pc, #16]	; (8005ee4 <lwip_netconn_do_close+0xa8>)
 8005ed2:	4907      	ldr	r1, [pc, #28]	; (8005ef0 <lwip_netconn_do_close+0xb4>)
 8005ed4:	4805      	ldr	r0, [pc, #20]	; (8005eec <lwip_netconn_do_close+0xb0>)
 8005ed6:	f240 72c6 	movw	r2, #1990	; 0x7c6
 8005eda:	e8bd 4010 	ldmia.w	sp!, {r4, lr}
 8005ede:	f006 bc07 	b.w	800c6f0 <iprintf>
 8005ee2:	bf00      	nop
 8005ee4:	0800d7e3 	.word	0x0800d7e3
 8005ee8:	0800d8a2 	.word	0x0800d8a2
 8005eec:	0800d51e 	.word	0x0800d51e
 8005ef0:	0800d8bd 	.word	0x0800d8bd
 8005ef4:	20007ebc 	.word	0x20007ebc

08005ef8 <netbuf_delete>:
 8005ef8:	b510      	push	{r4, lr}
 8005efa:	4604      	mov	r4, r0
 8005efc:	b160      	cbz	r0, 8005f18 <netbuf_delete+0x20>
 8005efe:	6800      	ldr	r0, [r0, #0]
 8005f00:	b120      	cbz	r0, 8005f0c <netbuf_delete+0x14>
 8005f02:	f000 febf 	bl	8006c84 <pbuf_free>
 8005f06:	2300      	movs	r3, #0
 8005f08:	e9c4 3300 	strd	r3, r3, [r4]
 8005f0c:	4621      	mov	r1, r4
 8005f0e:	2005      	movs	r0, #5
 8005f10:	e8bd 4010 	ldmia.w	sp!, {r4, lr}
 8005f14:	f000 bc38 	b.w	8006788 <memp_free>
 8005f18:	bd10      	pop	{r4, pc}
	...

08005f1c <netbuf_next>:
 8005f1c:	b508      	push	{r3, lr}
 8005f1e:	b940      	cbnz	r0, 8005f32 <netbuf_next+0x16>
 8005f20:	4b09      	ldr	r3, [pc, #36]	; (8005f48 <netbuf_next+0x2c>)
 8005f22:	490a      	ldr	r1, [pc, #40]	; (8005f4c <netbuf_next+0x30>)
 8005f24:	480a      	ldr	r0, [pc, #40]	; (8005f50 <netbuf_next+0x34>)
 8005f26:	22e0      	movs	r2, #224	; 0xe0
 8005f28:	f006 fbe2 	bl	800c6f0 <iprintf>
 8005f2c:	f04f 30ff 	mov.w	r0, #4294967295
 8005f30:	e008      	b.n	8005f44 <netbuf_next+0x28>
 8005f32:	6843      	ldr	r3, [r0, #4]
 8005f34:	681b      	ldr	r3, [r3, #0]
 8005f36:	2b00      	cmp	r3, #0
 8005f38:	d0f8      	beq.n	8005f2c <netbuf_next+0x10>
 8005f3a:	6043      	str	r3, [r0, #4]
 8005f3c:	6818      	ldr	r0, [r3, #0]
 8005f3e:	fab0 f080 	clz	r0, r0
 8005f42:	0940      	lsrs	r0, r0, #5
 8005f44:	bd08      	pop	{r3, pc}
 8005f46:	bf00      	nop
 8005f48:	0800db14 	.word	0x0800db14
 8005f4c:	0800db83 	.word	0x0800db83
 8005f50:	0800d51e 	.word	0x0800d51e

08005f54 <tcpip_thread>:
 8005f54:	b583      	push	{r0, r1, r7, lr}
 8005f56:	482c      	ldr	r0, [pc, #176]	; (8006008 <tcpip_thread+0xb4>)
 8005f58:	f006 fa2f 	bl	800c3ba <sys_mutex_lock>
 8005f5c:	4b2b      	ldr	r3, [pc, #172]	; (800600c <tcpip_thread+0xb8>)
 8005f5e:	681b      	ldr	r3, [r3, #0]
 8005f60:	b113      	cbz	r3, 8005f68 <tcpip_thread+0x14>
 8005f62:	4a2b      	ldr	r2, [pc, #172]	; (8006010 <tcpip_thread+0xbc>)
 8005f64:	6810      	ldr	r0, [r2, #0]
 8005f66:	4798      	blx	r3
 8005f68:	4d27      	ldr	r5, [pc, #156]	; (8006008 <tcpip_thread+0xb4>)
 8005f6a:	4f2a      	ldr	r7, [pc, #168]	; (8006014 <tcpip_thread+0xc0>)
 8005f6c:	4e2a      	ldr	r6, [pc, #168]	; (8006018 <tcpip_thread+0xc4>)
 8005f6e:	f004 fee9 	bl	800ad44 <sys_timeouts_sleeptime>
 8005f72:	1c43      	adds	r3, r0, #1
 8005f74:	4604      	mov	r4, r0
 8005f76:	d113      	bne.n	8005fa0 <tcpip_thread+0x4c>
 8005f78:	4628      	mov	r0, r5
 8005f7a:	f006 fa23 	bl	800c3c4 <sys_mutex_unlock>
 8005f7e:	2200      	movs	r2, #0
 8005f80:	a901      	add	r1, sp, #4
 8005f82:	4638      	mov	r0, r7
 8005f84:	f006 f997 	bl	800c2b6 <sys_arch_mbox_fetch>
 8005f88:	4628      	mov	r0, r5
 8005f8a:	f006 fa16 	bl	800c3ba <sys_mutex_lock>
 8005f8e:	9c01      	ldr	r4, [sp, #4]
 8005f90:	b9cc      	cbnz	r4, 8005fc6 <tcpip_thread+0x72>
 8005f92:	4633      	mov	r3, r6
 8005f94:	2291      	movs	r2, #145	; 0x91
 8005f96:	4921      	ldr	r1, [pc, #132]	; (800601c <tcpip_thread+0xc8>)
 8005f98:	4821      	ldr	r0, [pc, #132]	; (8006020 <tcpip_thread+0xcc>)
 8005f9a:	f006 fba9 	bl	800c6f0 <iprintf>
 8005f9e:	e7e6      	b.n	8005f6e <tcpip_thread+0x1a>
 8005fa0:	b910      	cbnz	r0, 8005fa8 <tcpip_thread+0x54>
 8005fa2:	f004 fead 	bl	800ad00 <sys_check_timeouts>
 8005fa6:	e7e2      	b.n	8005f6e <tcpip_thread+0x1a>
 8005fa8:	4628      	mov	r0, r5
 8005faa:	f006 fa0b 	bl	800c3c4 <sys_mutex_unlock>
 8005fae:	4622      	mov	r2, r4
 8005fb0:	a901      	add	r1, sp, #4
 8005fb2:	4638      	mov	r0, r7
 8005fb4:	f006 f97f 	bl	800c2b6 <sys_arch_mbox_fetch>
 8005fb8:	4604      	mov	r4, r0
 8005fba:	4628      	mov	r0, r5
 8005fbc:	f006 f9fd 	bl	800c3ba <sys_mutex_lock>
 8005fc0:	3401      	adds	r4, #1
 8005fc2:	d0ee      	beq.n	8005fa2 <tcpip_thread+0x4e>
 8005fc4:	e7e3      	b.n	8005f8e <tcpip_thread+0x3a>
 8005fc6:	7823      	ldrb	r3, [r4, #0]
 8005fc8:	2b01      	cmp	r3, #1
 8005fca:	d012      	beq.n	8005ff2 <tcpip_thread+0x9e>
 8005fcc:	d304      	bcc.n	8005fd8 <tcpip_thread+0x84>
 8005fce:	2b02      	cmp	r3, #2
 8005fd0:	d015      	beq.n	8005ffe <tcpip_thread+0xaa>
 8005fd2:	4633      	mov	r3, r6
 8005fd4:	22cf      	movs	r2, #207	; 0xcf
 8005fd6:	e7de      	b.n	8005f96 <tcpip_thread+0x42>
 8005fd8:	e9d4 1302 	ldrd	r1, r3, [r4, #8]
 8005fdc:	6860      	ldr	r0, [r4, #4]
 8005fde:	4798      	blx	r3
 8005fe0:	b110      	cbz	r0, 8005fe8 <tcpip_thread+0x94>
 8005fe2:	6860      	ldr	r0, [r4, #4]
 8005fe4:	f000 fe4e 	bl	8006c84 <pbuf_free>
 8005fe8:	4621      	mov	r1, r4
 8005fea:	2008      	movs	r0, #8
 8005fec:	f000 fbcc 	bl	8006788 <memp_free>
 8005ff0:	e7bd      	b.n	8005f6e <tcpip_thread+0x1a>
 8005ff2:	e9d4 3001 	ldrd	r3, r0, [r4, #4]
 8005ff6:	4798      	blx	r3
 8005ff8:	4621      	mov	r1, r4
 8005ffa:	2007      	movs	r0, #7
 8005ffc:	e7f6      	b.n	8005fec <tcpip_thread+0x98>
 8005ffe:	e9d4 3001 	ldrd	r3, r0, [r4, #4]
 8006002:	4798      	blx	r3
 8006004:	e7b3      	b.n	8005f6e <tcpip_thread+0x1a>
 8006006:	bf00      	nop
 8006008:	20007ebc 	.word	0x20007ebc
 800600c:	20004a70 	.word	0x20004a70
 8006010:	20004a74 	.word	0x20004a74
 8006014:	20004a78 	.word	0x20004a78
 8006018:	0800dbfa 	.word	0x0800dbfa
 800601c:	0800dc2a 	.word	0x0800dc2a
 8006020:	0800d51e 	.word	0x0800d51e

08006024 <tcpip_inpkt>:
 8006024:	b5f8      	push	{r3, r4, r5, r6, r7, lr}
 8006026:	4607      	mov	r7, r0
 8006028:	4810      	ldr	r0, [pc, #64]	; (800606c <tcpip_inpkt+0x48>)
 800602a:	460e      	mov	r6, r1
 800602c:	4615      	mov	r5, r2
 800602e:	f006 f96b 	bl	800c308 <sys_mbox_valid>
 8006032:	b928      	cbnz	r0, 8006040 <tcpip_inpkt+0x1c>
 8006034:	4b0e      	ldr	r3, [pc, #56]	; (8006070 <tcpip_inpkt+0x4c>)
 8006036:	490f      	ldr	r1, [pc, #60]	; (8006074 <tcpip_inpkt+0x50>)
 8006038:	480f      	ldr	r0, [pc, #60]	; (8006078 <tcpip_inpkt+0x54>)
 800603a:	22fc      	movs	r2, #252	; 0xfc
 800603c:	f006 fb58 	bl	800c6f0 <iprintf>
 8006040:	2008      	movs	r0, #8
 8006042:	f000 fb85 	bl	8006750 <memp_malloc>
 8006046:	4604      	mov	r4, r0
 8006048:	b168      	cbz	r0, 8006066 <tcpip_inpkt+0x42>
 800604a:	2300      	movs	r3, #0
 800604c:	7003      	strb	r3, [r0, #0]
 800604e:	e9c0 7601 	strd	r7, r6, [r0, #4]
 8006052:	60c5      	str	r5, [r0, #12]
 8006054:	4601      	mov	r1, r0
 8006056:	4805      	ldr	r0, [pc, #20]	; (800606c <tcpip_inpkt+0x48>)
 8006058:	f006 f91d 	bl	800c296 <sys_mbox_trypost>
 800605c:	b128      	cbz	r0, 800606a <tcpip_inpkt+0x46>
 800605e:	4621      	mov	r1, r4
 8006060:	2008      	movs	r0, #8
 8006062:	f000 fb91 	bl	8006788 <memp_free>
 8006066:	f04f 30ff 	mov.w	r0, #4294967295
 800606a:	bdf8      	pop	{r3, r4, r5, r6, r7, pc}
 800606c:	20004a78 	.word	0x20004a78
 8006070:	0800dbfa 	.word	0x0800dbfa
 8006074:	0800dbed 	.word	0x0800dbed
 8006078:	0800d51e 	.word	0x0800d51e

0800607c <tcpip_input>:
 800607c:	f891 302d 	ldrb.w	r3, [r1, #45]	; 0x2d
 8006080:	f013 0f18 	tst.w	r3, #24
 8006084:	bf14      	ite	ne
 8006086:	4a02      	ldrne	r2, [pc, #8]	; (8006090 <tcpip_input+0x14>)
 8006088:	4a02      	ldreq	r2, [pc, #8]	; (8006094 <tcpip_input+0x18>)
 800608a:	f7ff bfcb 	b.w	8006024 <tcpip_inpkt>
 800608e:	bf00      	nop
 8006090:	0800c159 	.word	0x0800c159
 8006094:	0800b729 	.word	0x0800b729

08006098 <tcpip_try_callback>:
 8006098:	b570      	push	{r4, r5, r6, lr}
 800609a:	4606      	mov	r6, r0
 800609c:	4810      	ldr	r0, [pc, #64]	; (80060e0 <tcpip_try_callback+0x48>)
 800609e:	460d      	mov	r5, r1
 80060a0:	f006 f932 	bl	800c308 <sys_mbox_valid>
 80060a4:	b930      	cbnz	r0, 80060b4 <tcpip_try_callback+0x1c>
 80060a6:	4b0f      	ldr	r3, [pc, #60]	; (80060e4 <tcpip_try_callback+0x4c>)
 80060a8:	490f      	ldr	r1, [pc, #60]	; (80060e8 <tcpip_try_callback+0x50>)
 80060aa:	4810      	ldr	r0, [pc, #64]	; (80060ec <tcpip_try_callback+0x54>)
 80060ac:	f240 125d 	movw	r2, #349	; 0x15d
 80060b0:	f006 fb1e 	bl	800c6f0 <iprintf>
 80060b4:	2007      	movs	r0, #7
 80060b6:	f000 fb4b 	bl	8006750 <memp_malloc>
 80060ba:	4604      	mov	r4, r0
 80060bc:	b160      	cbz	r0, 80060d8 <tcpip_try_callback+0x40>
 80060be:	2301      	movs	r3, #1
 80060c0:	7003      	strb	r3, [r0, #0]
 80060c2:	e9c0 6501 	strd	r6, r5, [r0, #4]
 80060c6:	4601      	mov	r1, r0
 80060c8:	4805      	ldr	r0, [pc, #20]	; (80060e0 <tcpip_try_callback+0x48>)
 80060ca:	f006 f8e4 	bl	800c296 <sys_mbox_trypost>
 80060ce:	b128      	cbz	r0, 80060dc <tcpip_try_callback+0x44>
 80060d0:	4621      	mov	r1, r4
 80060d2:	2007      	movs	r0, #7
 80060d4:	f000 fb58 	bl	8006788 <memp_free>
 80060d8:	f04f 30ff 	mov.w	r0, #4294967295
 80060dc:	bd70      	pop	{r4, r5, r6, pc}
 80060de:	bf00      	nop
 80060e0:	20004a78 	.word	0x20004a78
 80060e4:	0800dbfa 	.word	0x0800dbfa
 80060e8:	0800dbed 	.word	0x0800dbed
 80060ec:	0800d51e 	.word	0x0800d51e

080060f0 <tcpip_send_msg_wait_sem>:
 80060f0:	b570      	push	{r4, r5, r6, lr}
 80060f2:	4c06      	ldr	r4, [pc, #24]	; (800610c <tcpip_send_msg_wait_sem+0x1c>)
 80060f4:	460e      	mov	r6, r1
 80060f6:	4605      	mov	r5, r0
 80060f8:	4620      	mov	r0, r4
 80060fa:	f006 f95e 	bl	800c3ba <sys_mutex_lock>
 80060fe:	4630      	mov	r0, r6
 8006100:	47a8      	blx	r5
 8006102:	4620      	mov	r0, r4
 8006104:	f006 f95e 	bl	800c3c4 <sys_mutex_unlock>
 8006108:	2000      	movs	r0, #0
 800610a:	bd70      	pop	{r4, r5, r6, pc}
 800610c:	20007ebc 	.word	0x20007ebc

08006110 <tcpip_init>:
 8006110:	b537      	push	{r0, r1, r2, r4, r5, lr}
 8006112:	4605      	mov	r5, r0
 8006114:	460c      	mov	r4, r1
 8006116:	f000 f840 	bl	800619a <lwip_init>
 800611a:	4b13      	ldr	r3, [pc, #76]	; (8006168 <tcpip_init+0x58>)
 800611c:	4813      	ldr	r0, [pc, #76]	; (800616c <tcpip_init+0x5c>)
 800611e:	601d      	str	r5, [r3, #0]
 8006120:	4b13      	ldr	r3, [pc, #76]	; (8006170 <tcpip_init+0x60>)
 8006122:	2106      	movs	r1, #6
 8006124:	601c      	str	r4, [r3, #0]
 8006126:	f006 f89f 	bl	800c268 <sys_mbox_new>
 800612a:	b130      	cbz	r0, 800613a <tcpip_init+0x2a>
 800612c:	4b11      	ldr	r3, [pc, #68]	; (8006174 <tcpip_init+0x64>)
 800612e:	4912      	ldr	r1, [pc, #72]	; (8006178 <tcpip_init+0x68>)
 8006130:	4812      	ldr	r0, [pc, #72]	; (800617c <tcpip_init+0x6c>)
 8006132:	f240 2261 	movw	r2, #609	; 0x261
 8006136:	f006 fadb 	bl	800c6f0 <iprintf>
 800613a:	4811      	ldr	r0, [pc, #68]	; (8006180 <tcpip_init+0x70>)
 800613c:	f006 f932 	bl	800c3a4 <sys_mutex_new>
 8006140:	b130      	cbz	r0, 8006150 <tcpip_init+0x40>
 8006142:	4b0c      	ldr	r3, [pc, #48]	; (8006174 <tcpip_init+0x64>)
 8006144:	490f      	ldr	r1, [pc, #60]	; (8006184 <tcpip_init+0x74>)
 8006146:	480d      	ldr	r0, [pc, #52]	; (800617c <tcpip_init+0x6c>)
 8006148:	f240 2265 	movw	r2, #613	; 0x265
 800614c:	f006 fad0 	bl	800c6f0 <iprintf>
 8006150:	2318      	movs	r3, #24
 8006152:	9300      	str	r3, [sp, #0]
 8006154:	2200      	movs	r2, #0
 8006156:	f44f 6380 	mov.w	r3, #1024	; 0x400
 800615a:	490b      	ldr	r1, [pc, #44]	; (8006188 <tcpip_init+0x78>)
 800615c:	480b      	ldr	r0, [pc, #44]	; (800618c <tcpip_init+0x7c>)
 800615e:	f006 f934 	bl	800c3ca <sys_thread_new>
 8006162:	b003      	add	sp, #12
 8006164:	bd30      	pop	{r4, r5, pc}
 8006166:	bf00      	nop
 8006168:	20004a70 	.word	0x20004a70
 800616c:	20004a78 	.word	0x20004a78
 8006170:	20004a74 	.word	0x20004a74
 8006174:	0800dbfa 	.word	0x0800dbfa
 8006178:	0800db9c 	.word	0x0800db9c
 800617c:	0800d51e 	.word	0x0800d51e
 8006180:	20007ebc 	.word	0x20007ebc
 8006184:	0800dbbf 	.word	0x0800dbbf
 8006188:	08005f55 	.word	0x08005f55
 800618c:	0800dbe0 	.word	0x0800dbe0

08006190 <lwip_htons>:
 8006190:	ba40      	rev16	r0, r0
 8006192:	b280      	uxth	r0, r0
 8006194:	4770      	bx	lr

08006196 <lwip_htonl>:
 8006196:	ba00      	rev	r0, r0
 8006198:	4770      	bx	lr

0800619a <lwip_init>:
 800619a:	b508      	push	{r3, lr}
 800619c:	f006 f8f8 	bl	800c390 <sys_init>
 80061a0:	f000 f80a 	bl	80061b8 <mem_init>
 80061a4:	f000 fac6 	bl	8006734 <memp_init>
 80061a8:	f000 fb58 	bl	800685c <netif_init>
 80061ac:	f001 f858 	bl	8007260 <tcp_init>
 80061b0:	e8bd 4008 	ldmia.w	sp!, {r3, lr}
 80061b4:	f004 bd8c 	b.w	800acd0 <sys_timeouts_init>

080061b8 <mem_init>:
 80061b8:	4b12      	ldr	r3, [pc, #72]	; (8006204 <mem_init+0x4c>)
 80061ba:	4a13      	ldr	r2, [pc, #76]	; (8006208 <mem_init+0x50>)
 80061bc:	4813      	ldr	r0, [pc, #76]	; (800620c <mem_init+0x54>)
 80061be:	f023 0303 	bic.w	r3, r3, #3
 80061c2:	b510      	push	{r4, lr}
 80061c4:	6013      	str	r3, [r2, #0]
 80061c6:	f44f 62c8 	mov.w	r2, #1600	; 0x640
 80061ca:	601a      	str	r2, [r3, #0]
 80061cc:	2200      	movs	r2, #0
 80061ce:	711a      	strb	r2, [r3, #4]
 80061d0:	4a0f      	ldr	r2, [pc, #60]	; (8006210 <mem_init+0x58>)
 80061d2:	f503 61c8 	add.w	r1, r3, #1600	; 0x640
 80061d6:	6011      	str	r1, [r2, #0]
 80061d8:	4a0e      	ldr	r2, [pc, #56]	; (8006214 <mem_init+0x5c>)
 80061da:	f8c3 2640 	str.w	r2, [r3, #1600]	; 0x640
 80061de:	2201      	movs	r2, #1
 80061e0:	f883 2644 	strb.w	r2, [r3, #1604]	; 0x644
 80061e4:	4a0c      	ldr	r2, [pc, #48]	; (8006218 <mem_init+0x60>)
 80061e6:	6013      	str	r3, [r2, #0]
 80061e8:	f006 f8dc 	bl	800c3a4 <sys_mutex_new>
 80061ec:	b140      	cbz	r0, 8006200 <mem_init+0x48>
 80061ee:	4b0b      	ldr	r3, [pc, #44]	; (800621c <mem_init+0x64>)
 80061f0:	490b      	ldr	r1, [pc, #44]	; (8006220 <mem_init+0x68>)
 80061f2:	480c      	ldr	r0, [pc, #48]	; (8006224 <mem_init+0x6c>)
 80061f4:	f240 221f 	movw	r2, #543	; 0x21f
 80061f8:	e8bd 4010 	ldmia.w	sp!, {r4, lr}
 80061fc:	f006 ba78 	b.w	800c6f0 <iprintf>
 8006200:	bd10      	pop	{r4, pc}
 8006202:	bf00      	nop
 8006204:	20007edb 	.word	0x20007edb
 8006208:	20004a84 	.word	0x20004a84
 800620c:	20004a80 	.word	0x20004a80
 8006210:	20004a88 	.word	0x20004a88
 8006214:	06400640 	.word	0x06400640
 8006218:	20004a7c 	.word	0x20004a7c
 800621c:	0800dd50 	.word	0x0800dd50
 8006220:	0800dd7f 	.word	0x0800dd7f
 8006224:	0800d51e 	.word	0x0800d51e

08006228 <mem_free>:
 8006228:	e92d 41f0 	stmdb	sp!, {r4, r5, r6, r7, r8, lr}
 800622c:	4604      	mov	r4, r0
 800622e:	2800      	cmp	r0, #0
 8006230:	f000 80b7 	beq.w	80063a2 <mem_free+0x17a>
 8006234:	0783      	lsls	r3, r0, #30
 8006236:	d00c      	beq.n	8006252 <mem_free+0x2a>
 8006238:	4b5b      	ldr	r3, [pc, #364]	; (80063a8 <mem_free+0x180>)
 800623a:	495c      	ldr	r1, [pc, #368]	; (80063ac <mem_free+0x184>)
 800623c:	f240 2273 	movw	r2, #627	; 0x273
 8006240:	485b      	ldr	r0, [pc, #364]	; (80063b0 <mem_free+0x188>)
 8006242:	f006 fa55 	bl	800c6f0 <iprintf>
 8006246:	f006 f8d7 	bl	800c3f8 <sys_arch_protect>
 800624a:	e8bd 41f0 	ldmia.w	sp!, {r4, r5, r6, r7, r8, lr}
 800624e:	f006 b8df 	b.w	800c410 <sys_arch_unprotect>
 8006252:	4b58      	ldr	r3, [pc, #352]	; (80063b4 <mem_free+0x18c>)
 8006254:	681a      	ldr	r2, [r3, #0]
 8006256:	f1a0 0508 	sub.w	r5, r0, #8
 800625a:	42aa      	cmp	r2, r5
 800625c:	4698      	mov	r8, r3
 800625e:	d805      	bhi.n	800626c <mem_free+0x44>
 8006260:	4f55      	ldr	r7, [pc, #340]	; (80063b8 <mem_free+0x190>)
 8006262:	683a      	ldr	r2, [r7, #0]
 8006264:	f100 030c 	add.w	r3, r0, #12
 8006268:	429a      	cmp	r2, r3
 800626a:	d204      	bcs.n	8006276 <mem_free+0x4e>
 800626c:	4b4e      	ldr	r3, [pc, #312]	; (80063a8 <mem_free+0x180>)
 800626e:	4953      	ldr	r1, [pc, #332]	; (80063bc <mem_free+0x194>)
 8006270:	f240 227f 	movw	r2, #639	; 0x27f
 8006274:	e7e4      	b.n	8006240 <mem_free+0x18>
 8006276:	4852      	ldr	r0, [pc, #328]	; (80063c0 <mem_free+0x198>)
 8006278:	f006 f89f 	bl	800c3ba <sys_mutex_lock>
 800627c:	f814 3c04 	ldrb.w	r3, [r4, #-4]
 8006280:	b953      	cbnz	r3, 8006298 <mem_free+0x70>
 8006282:	4b49      	ldr	r3, [pc, #292]	; (80063a8 <mem_free+0x180>)
 8006284:	494f      	ldr	r1, [pc, #316]	; (80063c4 <mem_free+0x19c>)
 8006286:	f44f 7223 	mov.w	r2, #652	; 0x28c
 800628a:	4849      	ldr	r0, [pc, #292]	; (80063b0 <mem_free+0x188>)
 800628c:	f006 fa30 	bl	800c6f0 <iprintf>
 8006290:	484b      	ldr	r0, [pc, #300]	; (80063c0 <mem_free+0x198>)
 8006292:	f006 f897 	bl	800c3c4 <sys_mutex_unlock>
 8006296:	e7d6      	b.n	8006246 <mem_free+0x1e>
 8006298:	f834 2c08 	ldrh.w	r2, [r4, #-8]
 800629c:	f5b2 6fc8 	cmp.w	r2, #1600	; 0x640
 80062a0:	d878      	bhi.n	8006394 <mem_free+0x16c>
 80062a2:	f834 0c06 	ldrh.w	r0, [r4, #-6]
 80062a6:	f5b0 6fc8 	cmp.w	r0, #1600	; 0x640
 80062aa:	d873      	bhi.n	8006394 <mem_free+0x16c>
 80062ac:	f8d8 1000 	ldr.w	r1, [r8]
 80062b0:	1a6b      	subs	r3, r5, r1
 80062b2:	b29b      	uxth	r3, r3
 80062b4:	4283      	cmp	r3, r0
 80062b6:	d002      	beq.n	80062be <mem_free+0x96>
 80062b8:	5a08      	ldrh	r0, [r1, r0]
 80062ba:	4298      	cmp	r0, r3
 80062bc:	d16a      	bne.n	8006394 <mem_free+0x16c>
 80062be:	6838      	ldr	r0, [r7, #0]
 80062c0:	440a      	add	r2, r1
 80062c2:	4282      	cmp	r2, r0
 80062c4:	d002      	beq.n	80062cc <mem_free+0xa4>
 80062c6:	8852      	ldrh	r2, [r2, #2]
 80062c8:	429a      	cmp	r2, r3
 80062ca:	d163      	bne.n	8006394 <mem_free+0x16c>
 80062cc:	4e3e      	ldr	r6, [pc, #248]	; (80063c8 <mem_free+0x1a0>)
 80062ce:	2300      	movs	r3, #0
 80062d0:	f804 3c04 	strb.w	r3, [r4, #-4]
 80062d4:	6833      	ldr	r3, [r6, #0]
 80062d6:	42ab      	cmp	r3, r5
 80062d8:	d861      	bhi.n	800639e <mem_free+0x176>
 80062da:	428d      	cmp	r5, r1
 80062dc:	d206      	bcs.n	80062ec <mem_free+0xc4>
 80062de:	4b32      	ldr	r3, [pc, #200]	; (80063a8 <mem_free+0x180>)
 80062e0:	493a      	ldr	r1, [pc, #232]	; (80063cc <mem_free+0x1a4>)
 80062e2:	4833      	ldr	r0, [pc, #204]	; (80063b0 <mem_free+0x188>)
 80062e4:	f240 12df 	movw	r2, #479	; 0x1df
 80062e8:	f006 fa02 	bl	800c6f0 <iprintf>
 80062ec:	683b      	ldr	r3, [r7, #0]
 80062ee:	429d      	cmp	r5, r3
 80062f0:	d306      	bcc.n	8006300 <mem_free+0xd8>
 80062f2:	4b2d      	ldr	r3, [pc, #180]	; (80063a8 <mem_free+0x180>)
 80062f4:	4936      	ldr	r1, [pc, #216]	; (80063d0 <mem_free+0x1a8>)
 80062f6:	482e      	ldr	r0, [pc, #184]	; (80063b0 <mem_free+0x188>)
 80062f8:	f44f 72f0 	mov.w	r2, #480	; 0x1e0
 80062fc:	f006 f9f8 	bl	800c6f0 <iprintf>
 8006300:	f814 3c04 	ldrb.w	r3, [r4, #-4]
 8006304:	b133      	cbz	r3, 8006314 <mem_free+0xec>
 8006306:	4b28      	ldr	r3, [pc, #160]	; (80063a8 <mem_free+0x180>)
 8006308:	4932      	ldr	r1, [pc, #200]	; (80063d4 <mem_free+0x1ac>)
 800630a:	4829      	ldr	r0, [pc, #164]	; (80063b0 <mem_free+0x188>)
 800630c:	f240 12e1 	movw	r2, #481	; 0x1e1
 8006310:	f006 f9ee 	bl	800c6f0 <iprintf>
 8006314:	f834 3c08 	ldrh.w	r3, [r4, #-8]
 8006318:	f5b3 6fc8 	cmp.w	r3, #1600	; 0x640
 800631c:	d906      	bls.n	800632c <mem_free+0x104>
 800631e:	4b22      	ldr	r3, [pc, #136]	; (80063a8 <mem_free+0x180>)
 8006320:	492d      	ldr	r1, [pc, #180]	; (80063d8 <mem_free+0x1b0>)
 8006322:	4823      	ldr	r0, [pc, #140]	; (80063b0 <mem_free+0x188>)
 8006324:	f44f 72f2 	mov.w	r2, #484	; 0x1e4
 8006328:	f006 f9e2 	bl	800c6f0 <iprintf>
 800632c:	f8d8 3000 	ldr.w	r3, [r8]
 8006330:	f834 1c08 	ldrh.w	r1, [r4, #-8]
 8006334:	185a      	adds	r2, r3, r1
 8006336:	4295      	cmp	r5, r2
 8006338:	d012      	beq.n	8006360 <mem_free+0x138>
 800633a:	7910      	ldrb	r0, [r2, #4]
 800633c:	b980      	cbnz	r0, 8006360 <mem_free+0x138>
 800633e:	6838      	ldr	r0, [r7, #0]
 8006340:	4282      	cmp	r2, r0
 8006342:	d00d      	beq.n	8006360 <mem_free+0x138>
 8006344:	6830      	ldr	r0, [r6, #0]
 8006346:	4282      	cmp	r2, r0
 8006348:	5a5a      	ldrh	r2, [r3, r1]
 800634a:	f824 2c08 	strh.w	r2, [r4, #-8]
 800634e:	5a5a      	ldrh	r2, [r3, r1]
 8006350:	bf08      	it	eq
 8006352:	6035      	streq	r5, [r6, #0]
 8006354:	f5b2 6fc8 	cmp.w	r2, #1600	; 0x640
 8006358:	bf1e      	ittt	ne
 800635a:	18d2      	addne	r2, r2, r3
 800635c:	1ae9      	subne	r1, r5, r3
 800635e:	8051      	strhne	r1, [r2, #2]
 8006360:	f834 2c06 	ldrh.w	r2, [r4, #-6]
 8006364:	1899      	adds	r1, r3, r2
 8006366:	428d      	cmp	r5, r1
 8006368:	d00f      	beq.n	800638a <mem_free+0x162>
 800636a:	7908      	ldrb	r0, [r1, #4]
 800636c:	b968      	cbnz	r0, 800638a <mem_free+0x162>
 800636e:	6830      	ldr	r0, [r6, #0]
 8006370:	4285      	cmp	r5, r0
 8006372:	bf08      	it	eq
 8006374:	6031      	streq	r1, [r6, #0]
 8006376:	f834 1c08 	ldrh.w	r1, [r4, #-8]
 800637a:	5299      	strh	r1, [r3, r2]
 800637c:	f834 1c08 	ldrh.w	r1, [r4, #-8]
 8006380:	f5b1 6fc8 	cmp.w	r1, #1600	; 0x640
 8006384:	bf1c      	itt	ne
 8006386:	185b      	addne	r3, r3, r1
 8006388:	805a      	strhne	r2, [r3, #2]
 800638a:	480d      	ldr	r0, [pc, #52]	; (80063c0 <mem_free+0x198>)
 800638c:	e8bd 41f0 	ldmia.w	sp!, {r4, r5, r6, r7, r8, lr}
 8006390:	f006 b818 	b.w	800c3c4 <sys_mutex_unlock>
 8006394:	4b04      	ldr	r3, [pc, #16]	; (80063a8 <mem_free+0x180>)
 8006396:	4911      	ldr	r1, [pc, #68]	; (80063dc <mem_free+0x1b4>)
 8006398:	f240 2295 	movw	r2, #661	; 0x295
 800639c:	e775      	b.n	800628a <mem_free+0x62>
 800639e:	6035      	str	r5, [r6, #0]
 80063a0:	e79b      	b.n	80062da <mem_free+0xb2>
 80063a2:	e8bd 81f0 	ldmia.w	sp!, {r4, r5, r6, r7, r8, pc}
 80063a6:	bf00      	nop
 80063a8:	0800dd50 	.word	0x0800dd50
 80063ac:	0800dc48 	.word	0x0800dc48
 80063b0:	0800d51e 	.word	0x0800d51e
 80063b4:	20004a84 	.word	0x20004a84
 80063b8:	20004a88 	.word	0x20004a88
 80063bc:	0800dc69 	.word	0x0800dc69
 80063c0:	20004a80 	.word	0x20004a80
 80063c4:	0800dc82 	.word	0x0800dc82
 80063c8:	20004a7c 	.word	0x20004a7c
 80063cc:	0800dcda 	.word	0x0800dcda
 80063d0:	0800dcf1 	.word	0x0800dcf1
 80063d4:	0800dd0b 	.word	0x0800dd0b
 80063d8:	0800dd26 	.word	0x0800dd26
 80063dc:	0800dca8 	.word	0x0800dca8

080063e0 <mem_trim>:
 80063e0:	e92d 4ff8 	stmdb	sp!, {r3, r4, r5, r6, r7, r8, r9, sl, fp, lr}
 80063e4:	1ccd      	adds	r5, r1, #3
 80063e6:	f025 0503 	bic.w	r5, r5, #3
 80063ea:	b2ad      	uxth	r5, r5
 80063ec:	2d0b      	cmp	r5, #11
 80063ee:	4604      	mov	r4, r0
 80063f0:	d904      	bls.n	80063fc <mem_trim+0x1c>
 80063f2:	f5b5 6fc8 	cmp.w	r5, #1600	; 0x640
 80063f6:	d902      	bls.n	80063fe <mem_trim+0x1e>
 80063f8:	2400      	movs	r4, #0
 80063fa:	e01c      	b.n	8006436 <mem_trim+0x56>
 80063fc:	250c      	movs	r5, #12
 80063fe:	42a9      	cmp	r1, r5
 8006400:	d8fa      	bhi.n	80063f8 <mem_trim+0x18>
 8006402:	4f44      	ldr	r7, [pc, #272]	; (8006514 <mem_trim+0x134>)
 8006404:	683b      	ldr	r3, [r7, #0]
 8006406:	42a3      	cmp	r3, r4
 8006408:	d803      	bhi.n	8006412 <mem_trim+0x32>
 800640a:	4b43      	ldr	r3, [pc, #268]	; (8006518 <mem_trim+0x138>)
 800640c:	681b      	ldr	r3, [r3, #0]
 800640e:	42a3      	cmp	r3, r4
 8006410:	d806      	bhi.n	8006420 <mem_trim+0x40>
 8006412:	4b42      	ldr	r3, [pc, #264]	; (800651c <mem_trim+0x13c>)
 8006414:	4942      	ldr	r1, [pc, #264]	; (8006520 <mem_trim+0x140>)
 8006416:	4843      	ldr	r0, [pc, #268]	; (8006524 <mem_trim+0x144>)
 8006418:	f240 22d2 	movw	r2, #722	; 0x2d2
 800641c:	f006 f968 	bl	800c6f0 <iprintf>
 8006420:	683b      	ldr	r3, [r7, #0]
 8006422:	42a3      	cmp	r3, r4
 8006424:	d803      	bhi.n	800642e <mem_trim+0x4e>
 8006426:	4a3c      	ldr	r2, [pc, #240]	; (8006518 <mem_trim+0x138>)
 8006428:	6812      	ldr	r2, [r2, #0]
 800642a:	42a2      	cmp	r2, r4
 800642c:	d806      	bhi.n	800643c <mem_trim+0x5c>
 800642e:	f005 ffe3 	bl	800c3f8 <sys_arch_protect>
 8006432:	f005 ffed 	bl	800c410 <sys_arch_unprotect>
 8006436:	4620      	mov	r0, r4
 8006438:	e8bd 8ff8 	ldmia.w	sp!, {r3, r4, r5, r6, r7, r8, r9, sl, fp, pc}
 800643c:	f1a4 0608 	sub.w	r6, r4, #8
 8006440:	f834 9c08 	ldrh.w	r9, [r4, #-8]
 8006444:	1af6      	subs	r6, r6, r3
 8006446:	b2b6      	uxth	r6, r6
 8006448:	f1a9 0908 	sub.w	r9, r9, #8
 800644c:	eba9 0906 	sub.w	r9, r9, r6
 8006450:	fa1f f989 	uxth.w	r9, r9
 8006454:	45a9      	cmp	r9, r5
 8006456:	d226      	bcs.n	80064a6 <mem_trim+0xc6>
 8006458:	4b30      	ldr	r3, [pc, #192]	; (800651c <mem_trim+0x13c>)
 800645a:	4933      	ldr	r1, [pc, #204]	; (8006528 <mem_trim+0x148>)
 800645c:	4831      	ldr	r0, [pc, #196]	; (8006524 <mem_trim+0x144>)
 800645e:	f44f 7239 	mov.w	r2, #740	; 0x2e4
 8006462:	f006 f945 	bl	800c6f0 <iprintf>
 8006466:	e7c7      	b.n	80063f8 <mem_trim+0x18>
 8006468:	f105 0314 	add.w	r3, r5, #20
 800646c:	454b      	cmp	r3, r9
 800646e:	d84c      	bhi.n	800650a <mem_trim+0x12a>
 8006470:	f106 0308 	add.w	r3, r6, #8
 8006474:	441d      	add	r5, r3
 8006476:	f5ba 6fc8 	cmp.w	sl, #1600	; 0x640
 800647a:	b2ad      	uxth	r5, r5
 800647c:	d106      	bne.n	800648c <mem_trim+0xac>
 800647e:	4b27      	ldr	r3, [pc, #156]	; (800651c <mem_trim+0x13c>)
 8006480:	492a      	ldr	r1, [pc, #168]	; (800652c <mem_trim+0x14c>)
 8006482:	4828      	ldr	r0, [pc, #160]	; (8006524 <mem_trim+0x144>)
 8006484:	f240 3216 	movw	r2, #790	; 0x316
 8006488:	f006 f932 	bl	800c6f0 <iprintf>
 800648c:	4928      	ldr	r1, [pc, #160]	; (8006530 <mem_trim+0x150>)
 800648e:	683b      	ldr	r3, [r7, #0]
 8006490:	6808      	ldr	r0, [r1, #0]
 8006492:	195a      	adds	r2, r3, r5
 8006494:	4290      	cmp	r0, r2
 8006496:	bf88      	it	hi
 8006498:	600a      	strhi	r2, [r1, #0]
 800649a:	2100      	movs	r1, #0
 800649c:	7111      	strb	r1, [r2, #4]
 800649e:	f834 1c08 	ldrh.w	r1, [r4, #-8]
 80064a2:	5359      	strh	r1, [r3, r5]
 80064a4:	e028      	b.n	80064f8 <mem_trim+0x118>
 80064a6:	d0c6      	beq.n	8006436 <mem_trim+0x56>
 80064a8:	4822      	ldr	r0, [pc, #136]	; (8006534 <mem_trim+0x154>)
 80064aa:	f005 ff86 	bl	800c3ba <sys_mutex_lock>
 80064ae:	f834 ac08 	ldrh.w	sl, [r4, #-8]
 80064b2:	f8d7 b000 	ldr.w	fp, [r7]
 80064b6:	eb0b 080a 	add.w	r8, fp, sl
 80064ba:	f898 3004 	ldrb.w	r3, [r8, #4]
 80064be:	2b00      	cmp	r3, #0
 80064c0:	d1d2      	bne.n	8006468 <mem_trim+0x88>
 80064c2:	f5ba 6fc8 	cmp.w	sl, #1600	; 0x640
 80064c6:	d106      	bne.n	80064d6 <mem_trim+0xf6>
 80064c8:	4b14      	ldr	r3, [pc, #80]	; (800651c <mem_trim+0x13c>)
 80064ca:	4918      	ldr	r1, [pc, #96]	; (800652c <mem_trim+0x14c>)
 80064cc:	4815      	ldr	r0, [pc, #84]	; (8006524 <mem_trim+0x144>)
 80064ce:	f240 22f5 	movw	r2, #757	; 0x2f5
 80064d2:	f006 f90d 	bl	800c6f0 <iprintf>
 80064d6:	4916      	ldr	r1, [pc, #88]	; (8006530 <mem_trim+0x150>)
 80064d8:	f83b c00a 	ldrh.w	ip, [fp, sl]
 80064dc:	6808      	ldr	r0, [r1, #0]
 80064de:	f106 0308 	add.w	r3, r6, #8
 80064e2:	441d      	add	r5, r3
 80064e4:	683b      	ldr	r3, [r7, #0]
 80064e6:	b2ad      	uxth	r5, r5
 80064e8:	195a      	adds	r2, r3, r5
 80064ea:	4540      	cmp	r0, r8
 80064ec:	bf08      	it	eq
 80064ee:	600a      	streq	r2, [r1, #0]
 80064f0:	2100      	movs	r1, #0
 80064f2:	7111      	strb	r1, [r2, #4]
 80064f4:	f823 c005 	strh.w	ip, [r3, r5]
 80064f8:	8056      	strh	r6, [r2, #2]
 80064fa:	f824 5c08 	strh.w	r5, [r4, #-8]
 80064fe:	5b5a      	ldrh	r2, [r3, r5]
 8006500:	f5b2 6fc8 	cmp.w	r2, #1600	; 0x640
 8006504:	bf1c      	itt	ne
 8006506:	189b      	addne	r3, r3, r2
 8006508:	805d      	strhne	r5, [r3, #2]
 800650a:	480a      	ldr	r0, [pc, #40]	; (8006534 <mem_trim+0x154>)
 800650c:	f005 ff5a 	bl	800c3c4 <sys_mutex_unlock>
 8006510:	e791      	b.n	8006436 <mem_trim+0x56>
 8006512:	bf00      	nop
 8006514:	20004a84 	.word	0x20004a84
 8006518:	20004a88 	.word	0x20004a88
 800651c:	0800dd50 	.word	0x0800dd50
 8006520:	0800de35 	.word	0x0800de35
 8006524:	0800d51e 	.word	0x0800d51e
 8006528:	0800de4c 	.word	0x0800de4c
 800652c:	0800de6c 	.word	0x0800de6c
 8006530:	20004a7c 	.word	0x20004a7c
 8006534:	20004a80 	.word	0x20004a80

08006538 <mem_malloc>:
 8006538:	e92d 43f8 	stmdb	sp!, {r3, r4, r5, r6, r7, r8, r9, lr}
 800653c:	2800      	cmp	r0, #0
 800653e:	f000 808a 	beq.w	8006656 <mem_malloc+0x11e>
 8006542:	1cc5      	adds	r5, r0, #3
 8006544:	f025 0503 	bic.w	r5, r5, #3
 8006548:	b2ad      	uxth	r5, r5
 800654a:	2d0b      	cmp	r5, #11
 800654c:	d904      	bls.n	8006558 <mem_malloc+0x20>
 800654e:	f5b5 6fc8 	cmp.w	r5, #1600	; 0x640
 8006552:	d902      	bls.n	800655a <mem_malloc+0x22>
 8006554:	2000      	movs	r0, #0
 8006556:	e07e      	b.n	8006656 <mem_malloc+0x11e>
 8006558:	250c      	movs	r5, #12
 800655a:	42a8      	cmp	r0, r5
 800655c:	d8fa      	bhi.n	8006554 <mem_malloc+0x1c>
 800655e:	4843      	ldr	r0, [pc, #268]	; (800666c <mem_malloc+0x134>)
 8006560:	f005 ff2b 	bl	800c3ba <sys_mutex_lock>
 8006564:	4942      	ldr	r1, [pc, #264]	; (8006670 <mem_malloc+0x138>)
 8006566:	4b43      	ldr	r3, [pc, #268]	; (8006674 <mem_malloc+0x13c>)
 8006568:	680a      	ldr	r2, [r1, #0]
 800656a:	681e      	ldr	r6, [r3, #0]
 800656c:	1ab6      	subs	r6, r6, r2
 800656e:	b2b6      	uxth	r6, r6
 8006570:	4689      	mov	r9, r1
 8006572:	4698      	mov	r8, r3
 8006574:	f5c5 60c8 	rsb	r0, r5, #1600	; 0x640
 8006578:	f06f 0707 	mvn.w	r7, #7
 800657c:	4286      	cmp	r6, r0
 800657e:	d303      	bcc.n	8006588 <mem_malloc+0x50>
 8006580:	483a      	ldr	r0, [pc, #232]	; (800666c <mem_malloc+0x134>)
 8006582:	f005 ff1f 	bl	800c3c4 <sys_mutex_unlock>
 8006586:	e7e5      	b.n	8006554 <mem_malloc+0x1c>
 8006588:	1994      	adds	r4, r2, r6
 800658a:	5b91      	ldrh	r1, [r2, r6]
 800658c:	7923      	ldrb	r3, [r4, #4]
 800658e:	2b00      	cmp	r3, #0
 8006590:	d169      	bne.n	8006666 <mem_malloc+0x12e>
 8006592:	1bbb      	subs	r3, r7, r6
 8006594:	440b      	add	r3, r1
 8006596:	42ab      	cmp	r3, r5
 8006598:	d365      	bcc.n	8006666 <mem_malloc+0x12e>
 800659a:	f105 0214 	add.w	r2, r5, #20
 800659e:	4293      	cmp	r3, r2
 80065a0:	d35b      	bcc.n	800665a <mem_malloc+0x122>
 80065a2:	f105 0708 	add.w	r7, r5, #8
 80065a6:	4437      	add	r7, r6
 80065a8:	b2bf      	uxth	r7, r7
 80065aa:	f5b7 6fc8 	cmp.w	r7, #1600	; 0x640
 80065ae:	d106      	bne.n	80065be <mem_malloc+0x86>
 80065b0:	4b31      	ldr	r3, [pc, #196]	; (8006678 <mem_malloc+0x140>)
 80065b2:	4932      	ldr	r1, [pc, #200]	; (800667c <mem_malloc+0x144>)
 80065b4:	4832      	ldr	r0, [pc, #200]	; (8006680 <mem_malloc+0x148>)
 80065b6:	f240 3287 	movw	r2, #903	; 0x387
 80065ba:	f006 f899 	bl	800c6f0 <iprintf>
 80065be:	f8d9 3000 	ldr.w	r3, [r9]
 80065c2:	19da      	adds	r2, r3, r7
 80065c4:	2100      	movs	r1, #0
 80065c6:	7111      	strb	r1, [r2, #4]
 80065c8:	8821      	ldrh	r1, [r4, #0]
 80065ca:	53d9      	strh	r1, [r3, r7]
 80065cc:	8056      	strh	r6, [r2, #2]
 80065ce:	2201      	movs	r2, #1
 80065d0:	8027      	strh	r7, [r4, #0]
 80065d2:	7122      	strb	r2, [r4, #4]
 80065d4:	5bda      	ldrh	r2, [r3, r7]
 80065d6:	f5b2 6fc8 	cmp.w	r2, #1600	; 0x640
 80065da:	d001      	beq.n	80065e0 <mem_malloc+0xa8>
 80065dc:	4413      	add	r3, r2
 80065de:	805f      	strh	r7, [r3, #2]
 80065e0:	f8d8 3000 	ldr.w	r3, [r8]
 80065e4:	4e27      	ldr	r6, [pc, #156]	; (8006684 <mem_malloc+0x14c>)
 80065e6:	42a3      	cmp	r3, r4
 80065e8:	d114      	bne.n	8006614 <mem_malloc+0xdc>
 80065ea:	6832      	ldr	r2, [r6, #0]
 80065ec:	f8d9 0000 	ldr.w	r0, [r9]
 80065f0:	4623      	mov	r3, r4
 80065f2:	7919      	ldrb	r1, [r3, #4]
 80065f4:	b111      	cbz	r1, 80065fc <mem_malloc+0xc4>
 80065f6:	429a      	cmp	r2, r3
 80065f8:	d132      	bne.n	8006660 <mem_malloc+0x128>
 80065fa:	4613      	mov	r3, r2
 80065fc:	429a      	cmp	r2, r3
 80065fe:	f8c8 3000 	str.w	r3, [r8]
 8006602:	d007      	beq.n	8006614 <mem_malloc+0xdc>
 8006604:	b131      	cbz	r1, 8006614 <mem_malloc+0xdc>
 8006606:	4b1c      	ldr	r3, [pc, #112]	; (8006678 <mem_malloc+0x140>)
 8006608:	491f      	ldr	r1, [pc, #124]	; (8006688 <mem_malloc+0x150>)
 800660a:	481d      	ldr	r0, [pc, #116]	; (8006680 <mem_malloc+0x148>)
 800660c:	f240 32b5 	movw	r2, #949	; 0x3b5
 8006610:	f006 f86e 	bl	800c6f0 <iprintf>
 8006614:	4815      	ldr	r0, [pc, #84]	; (800666c <mem_malloc+0x134>)
 8006616:	f005 fed5 	bl	800c3c4 <sys_mutex_unlock>
 800661a:	3508      	adds	r5, #8
 800661c:	6833      	ldr	r3, [r6, #0]
 800661e:	4425      	add	r5, r4
 8006620:	42ab      	cmp	r3, r5
 8006622:	d206      	bcs.n	8006632 <mem_malloc+0xfa>
 8006624:	4b14      	ldr	r3, [pc, #80]	; (8006678 <mem_malloc+0x140>)
 8006626:	4919      	ldr	r1, [pc, #100]	; (800668c <mem_malloc+0x154>)
 8006628:	4815      	ldr	r0, [pc, #84]	; (8006680 <mem_malloc+0x148>)
 800662a:	f240 32ba 	movw	r2, #954	; 0x3ba
 800662e:	f006 f85f 	bl	800c6f0 <iprintf>
 8006632:	07a3      	lsls	r3, r4, #30
 8006634:	d00d      	beq.n	8006652 <mem_malloc+0x11a>
 8006636:	4b10      	ldr	r3, [pc, #64]	; (8006678 <mem_malloc+0x140>)
 8006638:	4915      	ldr	r1, [pc, #84]	; (8006690 <mem_malloc+0x158>)
 800663a:	4811      	ldr	r0, [pc, #68]	; (8006680 <mem_malloc+0x148>)
 800663c:	f44f 726f 	mov.w	r2, #956	; 0x3bc
 8006640:	f006 f856 	bl	800c6f0 <iprintf>
 8006644:	4b0c      	ldr	r3, [pc, #48]	; (8006678 <mem_malloc+0x140>)
 8006646:	4913      	ldr	r1, [pc, #76]	; (8006694 <mem_malloc+0x15c>)
 8006648:	480d      	ldr	r0, [pc, #52]	; (8006680 <mem_malloc+0x148>)
 800664a:	f240 32be 	movw	r2, #958	; 0x3be
 800664e:	f006 f84f 	bl	800c6f0 <iprintf>
 8006652:	f104 0008 	add.w	r0, r4, #8
 8006656:	e8bd 83f8 	ldmia.w	sp!, {r3, r4, r5, r6, r7, r8, r9, pc}
 800665a:	2301      	movs	r3, #1
 800665c:	7123      	strb	r3, [r4, #4]
 800665e:	e7bf      	b.n	80065e0 <mem_malloc+0xa8>
 8006660:	881b      	ldrh	r3, [r3, #0]
 8006662:	4403      	add	r3, r0
 8006664:	e7c5      	b.n	80065f2 <mem_malloc+0xba>
 8006666:	460e      	mov	r6, r1
 8006668:	e788      	b.n	800657c <mem_malloc+0x44>
 800666a:	bf00      	nop
 800666c:	20004a80 	.word	0x20004a80
 8006670:	20004a84 	.word	0x20004a84
 8006674:	20004a7c 	.word	0x20004a7c
 8006678:	0800dd50 	.word	0x0800dd50
 800667c:	0800de6c 	.word	0x0800de6c
 8006680:	0800d51e 	.word	0x0800d51e
 8006684:	20004a88 	.word	0x20004a88
 8006688:	0800dd9a 	.word	0x0800dd9a
 800668c:	0800ddb3 	.word	0x0800ddb3
 8006690:	0800dde3 	.word	0x0800dde3
 8006694:	0800de12 	.word	0x0800de12

08006698 <do_memp_malloc_pool.isra.0>:
 8006698:	b538      	push	{r3, r4, r5, lr}
 800669a:	4604      	mov	r4, r0
 800669c:	f005 feac 	bl	800c3f8 <sys_arch_protect>
 80066a0:	6823      	ldr	r3, [r4, #0]
 80066a2:	681c      	ldr	r4, [r3, #0]
 80066a4:	4605      	mov	r5, r0
 80066a6:	b15c      	cbz	r4, 80066c0 <do_memp_malloc_pool.isra.0+0x28>
 80066a8:	6822      	ldr	r2, [r4, #0]
 80066aa:	601a      	str	r2, [r3, #0]
 80066ac:	07a3      	lsls	r3, r4, #30
 80066ae:	d006      	beq.n	80066be <do_memp_malloc_pool.isra.0+0x26>
 80066b0:	4b05      	ldr	r3, [pc, #20]	; (80066c8 <do_memp_malloc_pool.isra.0+0x30>)
 80066b2:	4906      	ldr	r1, [pc, #24]	; (80066cc <do_memp_malloc_pool.isra.0+0x34>)
 80066b4:	4806      	ldr	r0, [pc, #24]	; (80066d0 <do_memp_malloc_pool.isra.0+0x38>)
 80066b6:	f240 1219 	movw	r2, #281	; 0x119
 80066ba:	f006 f819 	bl	800c6f0 <iprintf>
 80066be:	4628      	mov	r0, r5
 80066c0:	f005 fea6 	bl	800c410 <sys_arch_unprotect>
 80066c4:	4620      	mov	r0, r4
 80066c6:	bd38      	pop	{r3, r4, r5, pc}
 80066c8:	0800de9d 	.word	0x0800de9d
 80066cc:	0800decd 	.word	0x0800decd
 80066d0:	0800d51e 	.word	0x0800d51e

080066d4 <do_memp_free_pool.isra.1>:
 80066d4:	b538      	push	{r3, r4, r5, lr}
 80066d6:	078b      	lsls	r3, r1, #30
 80066d8:	4605      	mov	r5, r0
 80066da:	460c      	mov	r4, r1
 80066dc:	d006      	beq.n	80066ec <do_memp_free_pool.isra.1+0x18>
 80066de:	4b08      	ldr	r3, [pc, #32]	; (8006700 <do_memp_free_pool.isra.1+0x2c>)
 80066e0:	4908      	ldr	r1, [pc, #32]	; (8006704 <do_memp_free_pool.isra.1+0x30>)
 80066e2:	4809      	ldr	r0, [pc, #36]	; (8006708 <do_memp_free_pool.isra.1+0x34>)
 80066e4:	f240 126d 	movw	r2, #365	; 0x16d
 80066e8:	f006 f802 	bl	800c6f0 <iprintf>
 80066ec:	f005 fe84 	bl	800c3f8 <sys_arch_protect>
 80066f0:	682b      	ldr	r3, [r5, #0]
 80066f2:	681a      	ldr	r2, [r3, #0]
 80066f4:	6022      	str	r2, [r4, #0]
 80066f6:	601c      	str	r4, [r3, #0]
 80066f8:	e8bd 4038 	ldmia.w	sp!, {r3, r4, r5, lr}
 80066fc:	f005 be88 	b.w	800c410 <sys_arch_unprotect>
 8006700:	0800de9d 	.word	0x0800de9d
 8006704:	0800de7d 	.word	0x0800de7d
 8006708:	0800d51e 	.word	0x0800d51e

0800670c <memp_init_pool>:
 800670c:	6843      	ldr	r3, [r0, #4]
 800670e:	6881      	ldr	r1, [r0, #8]
 8006710:	b530      	push	{r4, r5, lr}
 8006712:	2200      	movs	r2, #0
 8006714:	3303      	adds	r3, #3
 8006716:	8844      	ldrh	r4, [r0, #2]
 8006718:	600a      	str	r2, [r1, #0]
 800671a:	f023 0303 	bic.w	r3, r3, #3
 800671e:	4294      	cmp	r4, r2
 8006720:	dc00      	bgt.n	8006724 <memp_init_pool+0x18>
 8006722:	bd30      	pop	{r4, r5, pc}
 8006724:	680d      	ldr	r5, [r1, #0]
 8006726:	601d      	str	r5, [r3, #0]
 8006728:	8805      	ldrh	r5, [r0, #0]
 800672a:	600b      	str	r3, [r1, #0]
 800672c:	3201      	adds	r2, #1
 800672e:	442b      	add	r3, r5
 8006730:	e7f5      	b.n	800671e <memp_init_pool+0x12>
	...

08006734 <memp_init>:
 8006734:	b538      	push	{r3, r4, r5, lr}
 8006736:	4d05      	ldr	r5, [pc, #20]	; (800674c <memp_init+0x18>)
 8006738:	2400      	movs	r4, #0
 800673a:	f855 0024 	ldr.w	r0, [r5, r4, lsl #2]
 800673e:	3401      	adds	r4, #1
 8006740:	f7ff ffe4 	bl	800670c <memp_init_pool>
 8006744:	2c0c      	cmp	r4, #12
 8006746:	d1f8      	bne.n	800673a <memp_init+0x6>
 8006748:	bd38      	pop	{r3, r4, r5, pc}
 800674a:	bf00      	nop
 800674c:	0800dfb8 	.word	0x0800dfb8

08006750 <memp_malloc>:
 8006750:	280b      	cmp	r0, #11
 8006752:	b508      	push	{r3, lr}
 8006754:	d807      	bhi.n	8006766 <memp_malloc+0x16>
 8006756:	4b08      	ldr	r3, [pc, #32]	; (8006778 <memp_malloc+0x28>)
 8006758:	f853 0020 	ldr.w	r0, [r3, r0, lsl #2]
 800675c:	e8bd 4008 	ldmia.w	sp!, {r3, lr}
 8006760:	3008      	adds	r0, #8
 8006762:	f7ff bf99 	b.w	8006698 <do_memp_malloc_pool.isra.0>
 8006766:	4b05      	ldr	r3, [pc, #20]	; (800677c <memp_malloc+0x2c>)
 8006768:	4905      	ldr	r1, [pc, #20]	; (8006780 <memp_malloc+0x30>)
 800676a:	4806      	ldr	r0, [pc, #24]	; (8006784 <memp_malloc+0x34>)
 800676c:	f240 1257 	movw	r2, #343	; 0x157
 8006770:	f005 ffbe 	bl	800c6f0 <iprintf>
 8006774:	2000      	movs	r0, #0
 8006776:	bd08      	pop	{r3, pc}
 8006778:	0800dfb8 	.word	0x0800dfb8
 800677c:	0800de9d 	.word	0x0800de9d
 8006780:	0800df9b 	.word	0x0800df9b
 8006784:	0800d51e 	.word	0x0800d51e

08006788 <memp_free>:
 8006788:	280b      	cmp	r0, #11
 800678a:	d906      	bls.n	800679a <memp_free+0x12>
 800678c:	4b07      	ldr	r3, [pc, #28]	; (80067ac <memp_free+0x24>)
 800678e:	4908      	ldr	r1, [pc, #32]	; (80067b0 <memp_free+0x28>)
 8006790:	4808      	ldr	r0, [pc, #32]	; (80067b4 <memp_free+0x2c>)
 8006792:	f44f 72d5 	mov.w	r2, #426	; 0x1aa
 8006796:	f005 bfab 	b.w	800c6f0 <iprintf>
 800679a:	b129      	cbz	r1, 80067a8 <memp_free+0x20>
 800679c:	4b06      	ldr	r3, [pc, #24]	; (80067b8 <memp_free+0x30>)
 800679e:	f853 0020 	ldr.w	r0, [r3, r0, lsl #2]
 80067a2:	3008      	adds	r0, #8
 80067a4:	f7ff bf96 	b.w	80066d4 <do_memp_free_pool.isra.1>
 80067a8:	4770      	bx	lr
 80067aa:	bf00      	nop
 80067ac:	0800de9d 	.word	0x0800de9d
 80067b0:	0800df80 	.word	0x0800df80
 80067b4:	0800d51e 	.word	0x0800d51e
 80067b8:	0800dfb8 	.word	0x0800dfb8

080067bc <netif_null_output_ip4>:
 80067bc:	f06f 000b 	mvn.w	r0, #11
 80067c0:	4770      	bx	lr
	...

080067c4 <netif_issue_reports>:
 80067c4:	b538      	push	{r3, r4, r5, lr}
 80067c6:	460d      	mov	r5, r1
 80067c8:	4604      	mov	r4, r0
 80067ca:	b930      	cbnz	r0, 80067da <netif_issue_reports+0x16>
 80067cc:	4b0c      	ldr	r3, [pc, #48]	; (8006800 <netif_issue_reports+0x3c>)
 80067ce:	490d      	ldr	r1, [pc, #52]	; (8006804 <netif_issue_reports+0x40>)
 80067d0:	480d      	ldr	r0, [pc, #52]	; (8006808 <netif_issue_reports+0x44>)
 80067d2:	f240 326d 	movw	r2, #877	; 0x36d
 80067d6:	f005 ff8b 	bl	800c6f0 <iprintf>
 80067da:	f894 302d 	ldrb.w	r3, [r4, #45]	; 0x2d
 80067de:	f003 0205 	and.w	r2, r3, #5
 80067e2:	2a05      	cmp	r2, #5
 80067e4:	d10b      	bne.n	80067fe <netif_issue_reports+0x3a>
 80067e6:	07ea      	lsls	r2, r5, #31
 80067e8:	d509      	bpl.n	80067fe <netif_issue_reports+0x3a>
 80067ea:	6862      	ldr	r2, [r4, #4]
 80067ec:	b13a      	cbz	r2, 80067fe <netif_issue_reports+0x3a>
 80067ee:	071b      	lsls	r3, r3, #28
 80067f0:	d505      	bpl.n	80067fe <netif_issue_reports+0x3a>
 80067f2:	1d21      	adds	r1, r4, #4
 80067f4:	4620      	mov	r0, r4
 80067f6:	e8bd 4038 	ldmia.w	sp!, {r3, r4, r5, lr}
 80067fa:	f004 bc7b 	b.w	800b0f4 <etharp_request>
 80067fe:	bd38      	pop	{r3, r4, r5, pc}
 8006800:	0800e065 	.word	0x0800e065
 8006804:	0800e096 	.word	0x0800e096
 8006808:	0800d51e 	.word	0x0800d51e

0800680c <netif_do_set_ipaddr>:
 800680c:	b573      	push	{r0, r1, r4, r5, r6, lr}
 800680e:	4605      	mov	r5, r0
 8006810:	4616      	mov	r6, r2
 8006812:	460c      	mov	r4, r1
 8006814:	b931      	cbnz	r1, 8006824 <netif_do_set_ipaddr+0x18>
 8006816:	4b0e      	ldr	r3, [pc, #56]	; (8006850 <netif_do_set_ipaddr+0x44>)
 8006818:	490e      	ldr	r1, [pc, #56]	; (8006854 <netif_do_set_ipaddr+0x48>)
 800681a:	480f      	ldr	r0, [pc, #60]	; (8006858 <netif_do_set_ipaddr+0x4c>)
 800681c:	f240 12cb 	movw	r2, #459	; 0x1cb
 8006820:	f005 ff66 	bl	800c6f0 <iprintf>
 8006824:	686b      	ldr	r3, [r5, #4]
 8006826:	6822      	ldr	r2, [r4, #0]
 8006828:	429a      	cmp	r2, r3
 800682a:	d101      	bne.n	8006830 <netif_do_set_ipaddr+0x24>
 800682c:	2000      	movs	r0, #0
 800682e:	e00d      	b.n	800684c <netif_do_set_ipaddr+0x40>
 8006830:	a902      	add	r1, sp, #8
 8006832:	6033      	str	r3, [r6, #0]
 8006834:	f841 2d04 	str.w	r2, [r1, #-4]!
 8006838:	4630      	mov	r0, r6
 800683a:	f001 f8c1 	bl	80079c0 <tcp_netif_ip_addr_changed>
 800683e:	6823      	ldr	r3, [r4, #0]
 8006840:	606b      	str	r3, [r5, #4]
 8006842:	4628      	mov	r0, r5
 8006844:	2101      	movs	r1, #1
 8006846:	f7ff ffbd 	bl	80067c4 <netif_issue_reports>
 800684a:	2001      	movs	r0, #1
 800684c:	b002      	add	sp, #8
 800684e:	bd70      	pop	{r4, r5, r6, pc}
 8006850:	0800e065 	.word	0x0800e065
 8006854:	0800d663 	.word	0x0800d663
 8006858:	0800d51e 	.word	0x0800d51e

0800685c <netif_init>:
 800685c:	4770      	bx	lr
	...

08006860 <netif_set_addr>:
 8006860:	b5f7      	push	{r0, r1, r2, r4, r5, r6, r7, lr}
 8006862:	4d14      	ldr	r5, [pc, #80]	; (80068b4 <netif_set_addr+0x54>)
 8006864:	2900      	cmp	r1, #0
 8006866:	bf14      	ite	ne
 8006868:	460e      	movne	r6, r1
 800686a:	462e      	moveq	r6, r5
 800686c:	2a00      	cmp	r2, #0
 800686e:	bf14      	ite	ne
 8006870:	4617      	movne	r7, r2
 8006872:	462f      	moveq	r7, r5
 8006874:	2b00      	cmp	r3, #0
 8006876:	bf18      	it	ne
 8006878:	461d      	movne	r5, r3
 800687a:	6833      	ldr	r3, [r6, #0]
 800687c:	4604      	mov	r4, r0
 800687e:	b9b3      	cbnz	r3, 80068ae <netif_set_addr+0x4e>
 8006880:	aa01      	add	r2, sp, #4
 8006882:	4631      	mov	r1, r6
 8006884:	f7ff ffc2 	bl	800680c <netif_do_set_ipaddr>
 8006888:	2301      	movs	r3, #1
 800688a:	683a      	ldr	r2, [r7, #0]
 800688c:	68a1      	ldr	r1, [r4, #8]
 800688e:	428a      	cmp	r2, r1
 8006890:	bf18      	it	ne
 8006892:	60a2      	strne	r2, [r4, #8]
 8006894:	682a      	ldr	r2, [r5, #0]
 8006896:	68e1      	ldr	r1, [r4, #12]
 8006898:	428a      	cmp	r2, r1
 800689a:	bf18      	it	ne
 800689c:	60e2      	strne	r2, [r4, #12]
 800689e:	b923      	cbnz	r3, 80068aa <netif_set_addr+0x4a>
 80068a0:	aa01      	add	r2, sp, #4
 80068a2:	4631      	mov	r1, r6
 80068a4:	4620      	mov	r0, r4
 80068a6:	f7ff ffb1 	bl	800680c <netif_do_set_ipaddr>
 80068aa:	b003      	add	sp, #12
 80068ac:	bdf0      	pop	{r4, r5, r6, r7, pc}
 80068ae:	2300      	movs	r3, #0
 80068b0:	e7eb      	b.n	800688a <netif_set_addr+0x2a>
 80068b2:	bf00      	nop
 80068b4:	0800f838 	.word	0x0800f838

080068b8 <netif_add>:
 80068b8:	e92d 4ff8 	stmdb	sp!, {r3, r4, r5, r6, r7, r8, r9, sl, fp, lr}
 80068bc:	9f0b      	ldr	r7, [sp, #44]	; 0x2c
 80068be:	469e      	mov	lr, r3
 80068c0:	4604      	mov	r4, r0
 80068c2:	b948      	cbnz	r0, 80068d8 <netif_add+0x20>
 80068c4:	4b3e      	ldr	r3, [pc, #248]	; (80069c0 <netif_add+0x108>)
 80068c6:	493f      	ldr	r1, [pc, #252]	; (80069c4 <netif_add+0x10c>)
 80068c8:	483f      	ldr	r0, [pc, #252]	; (80069c8 <netif_add+0x110>)
 80068ca:	f240 1227 	movw	r2, #295	; 0x127
 80068ce:	f005 ff0f 	bl	800c6f0 <iprintf>
 80068d2:	4620      	mov	r0, r4
 80068d4:	e8bd 8ff8 	ldmia.w	sp!, {r3, r4, r5, r6, r7, r8, r9, sl, fp, pc}
 80068d8:	b947      	cbnz	r7, 80068ec <netif_add+0x34>
 80068da:	4b39      	ldr	r3, [pc, #228]	; (80069c0 <netif_add+0x108>)
 80068dc:	493b      	ldr	r1, [pc, #236]	; (80069cc <netif_add+0x114>)
 80068de:	483a      	ldr	r0, [pc, #232]	; (80069c8 <netif_add+0x110>)
 80068e0:	f44f 7294 	mov.w	r2, #296	; 0x128
 80068e4:	f005 ff04 	bl	800c6f0 <iprintf>
 80068e8:	463c      	mov	r4, r7
 80068ea:	e7f2      	b.n	80068d2 <netif_add+0x1a>
 80068ec:	f8df 80ec 	ldr.w	r8, [pc, #236]	; 80069dc <netif_add+0x124>
 80068f0:	4e37      	ldr	r6, [pc, #220]	; (80069d0 <netif_add+0x118>)
 80068f2:	9b0a      	ldr	r3, [sp, #40]	; 0x28
 80068f4:	f8df c0e8 	ldr.w	ip, [pc, #232]	; 80069e0 <netif_add+0x128>
 80068f8:	f8c0 c014 	str.w	ip, [r0, #20]
 80068fc:	2500      	movs	r5, #0
 80068fe:	6203      	str	r3, [r0, #32]
 8006900:	f898 c000 	ldrb.w	ip, [r8]
 8006904:	9b0c      	ldr	r3, [sp, #48]	; 0x30
 8006906:	f880 c030 	strb.w	ip, [r0, #48]	; 0x30
 800690a:	6103      	str	r3, [r0, #16]
 800690c:	42aa      	cmp	r2, r5
 800690e:	bf08      	it	eq
 8006910:	4632      	moveq	r2, r6
 8006912:	45ae      	cmp	lr, r5
 8006914:	bf14      	ite	ne
 8006916:	4673      	movne	r3, lr
 8006918:	4633      	moveq	r3, r6
 800691a:	42a9      	cmp	r1, r5
 800691c:	bf08      	it	eq
 800691e:	4631      	moveq	r1, r6
 8006920:	e9c0 5501 	strd	r5, r5, [r0, #4]
 8006924:	60c5      	str	r5, [r0, #12]
 8006926:	8485      	strh	r5, [r0, #36]	; 0x24
 8006928:	f880 502d 	strb.w	r5, [r0, #45]	; 0x2d
 800692c:	61c5      	str	r5, [r0, #28]
 800692e:	f7ff ff97 	bl	8006860 <netif_set_addr>
 8006932:	4620      	mov	r0, r4
 8006934:	47b8      	blx	r7
 8006936:	4646      	mov	r6, r8
 8006938:	2800      	cmp	r0, #0
 800693a:	d13e      	bne.n	80069ba <netif_add+0x102>
 800693c:	f8df 90a4 	ldr.w	r9, [pc, #164]	; 80069e4 <netif_add+0x12c>
 8006940:	f8df a07c 	ldr.w	sl, [pc, #124]	; 80069c0 <netif_add+0x108>
 8006944:	46c8      	mov	r8, r9
 8006946:	f894 3030 	ldrb.w	r3, [r4, #48]	; 0x30
 800694a:	f8d9 5000 	ldr.w	r5, [r9]
 800694e:	f8df b078 	ldr.w	fp, [pc, #120]	; 80069c8 <netif_add+0x110>
 8006952:	2bff      	cmp	r3, #255	; 0xff
 8006954:	bf04      	itt	eq
 8006956:	2300      	moveq	r3, #0
 8006958:	f884 3030 	strbeq.w	r3, [r4, #48]	; 0x30
 800695c:	2700      	movs	r7, #0
 800695e:	b955      	cbnz	r5, 8006976 <netif_add+0xbe>
 8006960:	f894 3030 	ldrb.w	r3, [r4, #48]	; 0x30
 8006964:	2bfe      	cmp	r3, #254	; 0xfe
 8006966:	d125      	bne.n	80069b4 <netif_add+0xfc>
 8006968:	7035      	strb	r5, [r6, #0]
 800696a:	f8d8 3000 	ldr.w	r3, [r8]
 800696e:	6023      	str	r3, [r4, #0]
 8006970:	f8c8 4000 	str.w	r4, [r8]
 8006974:	e7ad      	b.n	80068d2 <netif_add+0x1a>
 8006976:	42a5      	cmp	r5, r4
 8006978:	d106      	bne.n	8006988 <netif_add+0xd0>
 800697a:	4653      	mov	r3, sl
 800697c:	f240 128b 	movw	r2, #395	; 0x18b
 8006980:	4914      	ldr	r1, [pc, #80]	; (80069d4 <netif_add+0x11c>)
 8006982:	4658      	mov	r0, fp
 8006984:	f005 feb4 	bl	800c6f0 <iprintf>
 8006988:	3701      	adds	r7, #1
 800698a:	2fff      	cmp	r7, #255	; 0xff
 800698c:	dd06      	ble.n	800699c <netif_add+0xe4>
 800698e:	4653      	mov	r3, sl
 8006990:	f240 128d 	movw	r2, #397	; 0x18d
 8006994:	4910      	ldr	r1, [pc, #64]	; (80069d8 <netif_add+0x120>)
 8006996:	4658      	mov	r0, fp
 8006998:	f005 feaa 	bl	800c6f0 <iprintf>
 800699c:	f895 2030 	ldrb.w	r2, [r5, #48]	; 0x30
 80069a0:	f894 3030 	ldrb.w	r3, [r4, #48]	; 0x30
 80069a4:	4293      	cmp	r3, r2
 80069a6:	d103      	bne.n	80069b0 <netif_add+0xf8>
 80069a8:	3301      	adds	r3, #1
 80069aa:	f884 3030 	strb.w	r3, [r4, #48]	; 0x30
 80069ae:	e7ca      	b.n	8006946 <netif_add+0x8e>
 80069b0:	682d      	ldr	r5, [r5, #0]
 80069b2:	e7d4      	b.n	800695e <netif_add+0xa6>
 80069b4:	3301      	adds	r3, #1
 80069b6:	7033      	strb	r3, [r6, #0]
 80069b8:	e7d7      	b.n	800696a <netif_add+0xb2>
 80069ba:	462c      	mov	r4, r5
 80069bc:	e789      	b.n	80068d2 <netif_add+0x1a>
 80069be:	bf00      	nop
 80069c0:	0800e065 	.word	0x0800e065
 80069c4:	0800dfe8 	.word	0x0800dfe8
 80069c8:	0800d51e 	.word	0x0800d51e
 80069cc:	0800e001 	.word	0x0800e001
 80069d0:	0800f838 	.word	0x0800f838
 80069d4:	0800e023 	.word	0x0800e023
 80069d8:	0800e037 	.word	0x0800e037
 80069dc:	20004abc 	.word	0x20004abc
 80069e0:	080067bd 	.word	0x080067bd
 80069e4:	2000b534 	.word	0x2000b534

080069e8 <netif_set_default>:
 80069e8:	4b01      	ldr	r3, [pc, #4]	; (80069f0 <netif_set_default+0x8>)
 80069ea:	6018      	str	r0, [r3, #0]
 80069ec:	4770      	bx	lr
 80069ee:	bf00      	nop
 80069f0:	2000b538 	.word	0x2000b538

080069f4 <netif_set_up>:
 80069f4:	b930      	cbnz	r0, 8006a04 <netif_set_up+0x10>
 80069f6:	4b09      	ldr	r3, [pc, #36]	; (8006a1c <netif_set_up+0x28>)
 80069f8:	4909      	ldr	r1, [pc, #36]	; (8006a20 <netif_set_up+0x2c>)
 80069fa:	480a      	ldr	r0, [pc, #40]	; (8006a24 <netif_set_up+0x30>)
 80069fc:	f44f 7254 	mov.w	r2, #848	; 0x350
 8006a00:	f005 be76 	b.w	800c6f0 <iprintf>
 8006a04:	f890 302d 	ldrb.w	r3, [r0, #45]	; 0x2d
 8006a08:	07d9      	lsls	r1, r3, #31
 8006a0a:	d406      	bmi.n	8006a1a <netif_set_up+0x26>
 8006a0c:	f043 0301 	orr.w	r3, r3, #1
 8006a10:	f880 302d 	strb.w	r3, [r0, #45]	; 0x2d
 8006a14:	2103      	movs	r1, #3
 8006a16:	f7ff bed5 	b.w	80067c4 <netif_issue_reports>
 8006a1a:	4770      	bx	lr
 8006a1c:	0800e065 	.word	0x0800e065
 8006a20:	0800e11b 	.word	0x0800e11b
 8006a24:	0800d51e 	.word	0x0800d51e

08006a28 <netif_set_down>:
 8006a28:	b930      	cbnz	r0, 8006a38 <netif_set_down+0x10>
 8006a2a:	4b0a      	ldr	r3, [pc, #40]	; (8006a54 <netif_set_down+0x2c>)
 8006a2c:	490a      	ldr	r1, [pc, #40]	; (8006a58 <netif_set_down+0x30>)
 8006a2e:	480b      	ldr	r0, [pc, #44]	; (8006a5c <netif_set_down+0x34>)
 8006a30:	f240 329b 	movw	r2, #923	; 0x39b
 8006a34:	f005 be5c 	b.w	800c6f0 <iprintf>
 8006a38:	f890 302d 	ldrb.w	r3, [r0, #45]	; 0x2d
 8006a3c:	07d9      	lsls	r1, r3, #31
 8006a3e:	d507      	bpl.n	8006a50 <netif_set_down+0x28>
 8006a40:	f023 0101 	bic.w	r1, r3, #1
 8006a44:	071b      	lsls	r3, r3, #28
 8006a46:	f880 102d 	strb.w	r1, [r0, #45]	; 0x2d
 8006a4a:	d501      	bpl.n	8006a50 <netif_set_down+0x28>
 8006a4c:	f004 ba9e 	b.w	800af8c <etharp_cleanup_netif>
 8006a50:	4770      	bx	lr
 8006a52:	bf00      	nop
 8006a54:	0800e065 	.word	0x0800e065
 8006a58:	0800e0b9 	.word	0x0800e0b9
 8006a5c:	0800d51e 	.word	0x0800d51e

08006a60 <netif_set_link_up>:
 8006a60:	b510      	push	{r4, lr}
 8006a62:	4604      	mov	r4, r0
 8006a64:	b940      	cbnz	r0, 8006a78 <netif_set_link_up+0x18>
 8006a66:	4b0d      	ldr	r3, [pc, #52]	; (8006a9c <netif_set_link_up+0x3c>)
 8006a68:	490d      	ldr	r1, [pc, #52]	; (8006aa0 <netif_set_link_up+0x40>)
 8006a6a:	480e      	ldr	r0, [pc, #56]	; (8006aa4 <netif_set_link_up+0x44>)
 8006a6c:	f44f 7278 	mov.w	r2, #992	; 0x3e0
 8006a70:	e8bd 4010 	ldmia.w	sp!, {r4, lr}
 8006a74:	f005 be3c 	b.w	800c6f0 <iprintf>
 8006a78:	f890 302d 	ldrb.w	r3, [r0, #45]	; 0x2d
 8006a7c:	075a      	lsls	r2, r3, #29
 8006a7e:	d40c      	bmi.n	8006a9a <netif_set_link_up+0x3a>
 8006a80:	f043 0304 	orr.w	r3, r3, #4
 8006a84:	f880 302d 	strb.w	r3, [r0, #45]	; 0x2d
 8006a88:	2103      	movs	r1, #3
 8006a8a:	f7ff fe9b 	bl	80067c4 <netif_issue_reports>
 8006a8e:	69e3      	ldr	r3, [r4, #28]
 8006a90:	b11b      	cbz	r3, 8006a9a <netif_set_link_up+0x3a>
 8006a92:	4620      	mov	r0, r4
 8006a94:	e8bd 4010 	ldmia.w	sp!, {r4, lr}
 8006a98:	4718      	bx	r3
 8006a9a:	bd10      	pop	{r4, pc}
 8006a9c:	0800e065 	.word	0x0800e065
 8006aa0:	0800e0fa 	.word	0x0800e0fa
 8006aa4:	0800d51e 	.word	0x0800d51e

08006aa8 <netif_set_link_down>:
 8006aa8:	b930      	cbnz	r0, 8006ab8 <netif_set_link_down+0x10>
 8006aaa:	4b09      	ldr	r3, [pc, #36]	; (8006ad0 <netif_set_link_down+0x28>)
 8006aac:	4909      	ldr	r1, [pc, #36]	; (8006ad4 <netif_set_link_down+0x2c>)
 8006aae:	480a      	ldr	r0, [pc, #40]	; (8006ad8 <netif_set_link_down+0x30>)
 8006ab0:	f240 4206 	movw	r2, #1030	; 0x406
 8006ab4:	f005 be1c 	b.w	800c6f0 <iprintf>
 8006ab8:	f890 302d 	ldrb.w	r3, [r0, #45]	; 0x2d
 8006abc:	0759      	lsls	r1, r3, #29
 8006abe:	d506      	bpl.n	8006ace <netif_set_link_down+0x26>
 8006ac0:	f023 0304 	bic.w	r3, r3, #4
 8006ac4:	f880 302d 	strb.w	r3, [r0, #45]	; 0x2d
 8006ac8:	69c3      	ldr	r3, [r0, #28]
 8006aca:	b103      	cbz	r3, 8006ace <netif_set_link_down+0x26>
 8006acc:	4718      	bx	r3
 8006ace:	4770      	bx	lr
 8006ad0:	0800e065 	.word	0x0800e065
 8006ad4:	0800e0d7 	.word	0x0800e0d7
 8006ad8:	0800d51e 	.word	0x0800d51e

08006adc <netif_set_link_callback>:
 8006adc:	b100      	cbz	r0, 8006ae0 <netif_set_link_callback+0x4>
 8006ade:	61c1      	str	r1, [r0, #28]
 8006ae0:	4770      	bx	lr
	...

08006ae4 <netif_get_by_index>:
 8006ae4:	b150      	cbz	r0, 8006afc <netif_get_by_index+0x18>
 8006ae6:	4b06      	ldr	r3, [pc, #24]	; (8006b00 <netif_get_by_index+0x1c>)
 8006ae8:	681b      	ldr	r3, [r3, #0]
 8006aea:	b12b      	cbz	r3, 8006af8 <netif_get_by_index+0x14>
 8006aec:	f893 2030 	ldrb.w	r2, [r3, #48]	; 0x30
 8006af0:	3201      	adds	r2, #1
 8006af2:	b2d2      	uxtb	r2, r2
 8006af4:	4282      	cmp	r2, r0
 8006af6:	d1f7      	bne.n	8006ae8 <netif_get_by_index+0x4>
 8006af8:	4618      	mov	r0, r3
 8006afa:	4770      	bx	lr
 8006afc:	4603      	mov	r3, r0
 8006afe:	e7fb      	b.n	8006af8 <netif_get_by_index+0x14>
 8006b00:	2000b534 	.word	0x2000b534

08006b04 <pbuf_free_ooseq_callback>:
 8006b04:	b508      	push	{r3, lr}
 8006b06:	f005 fc77 	bl	800c3f8 <sys_arch_protect>
 8006b0a:	4b08      	ldr	r3, [pc, #32]	; (8006b2c <pbuf_free_ooseq_callback+0x28>)
 8006b0c:	2200      	movs	r2, #0
 8006b0e:	701a      	strb	r2, [r3, #0]
 8006b10:	f005 fc7e 	bl	800c410 <sys_arch_unprotect>
 8006b14:	4b06      	ldr	r3, [pc, #24]	; (8006b30 <pbuf_free_ooseq_callback+0x2c>)
 8006b16:	6818      	ldr	r0, [r3, #0]
 8006b18:	b900      	cbnz	r0, 8006b1c <pbuf_free_ooseq_callback+0x18>
 8006b1a:	bd08      	pop	{r3, pc}
 8006b1c:	6f43      	ldr	r3, [r0, #116]	; 0x74
 8006b1e:	b11b      	cbz	r3, 8006b28 <pbuf_free_ooseq_callback+0x24>
 8006b20:	e8bd 4008 	ldmia.w	sp!, {r3, lr}
 8006b24:	f000 be08 	b.w	8007738 <tcp_free_ooseq>
 8006b28:	68c0      	ldr	r0, [r0, #12]
 8006b2a:	e7f5      	b.n	8006b18 <pbuf_free_ooseq_callback+0x14>
 8006b2c:	2000b53c 	.word	0x2000b53c
 8006b30:	2000b544 	.word	0x2000b544

08006b34 <pbuf_add_header_impl>:
 8006b34:	b538      	push	{r3, r4, r5, lr}
 8006b36:	b968      	cbnz	r0, 8006b54 <pbuf_add_header_impl+0x20>
 8006b38:	4b14      	ldr	r3, [pc, #80]	; (8006b8c <pbuf_add_header_impl+0x58>)
 8006b3a:	4915      	ldr	r1, [pc, #84]	; (8006b90 <pbuf_add_header_impl+0x5c>)
 8006b3c:	4815      	ldr	r0, [pc, #84]	; (8006b94 <pbuf_add_header_impl+0x60>)
 8006b3e:	f240 12df 	movw	r2, #479	; 0x1df
 8006b42:	f005 fdd5 	bl	800c6f0 <iprintf>
 8006b46:	2001      	movs	r0, #1
 8006b48:	e01e      	b.n	8006b88 <pbuf_add_header_impl+0x54>
 8006b4a:	2a00      	cmp	r2, #0
 8006b4c:	d0fb      	beq.n	8006b46 <pbuf_add_header_impl+0x12>
 8006b4e:	6842      	ldr	r2, [r0, #4]
 8006b50:	1a51      	subs	r1, r2, r1
 8006b52:	e013      	b.n	8006b7c <pbuf_add_header_impl+0x48>
 8006b54:	f5b1 3f80 	cmp.w	r1, #65536	; 0x10000
 8006b58:	d2f5      	bcs.n	8006b46 <pbuf_add_header_impl+0x12>
 8006b5a:	b1a1      	cbz	r1, 8006b86 <pbuf_add_header_impl+0x52>
 8006b5c:	8903      	ldrh	r3, [r0, #8]
 8006b5e:	b28c      	uxth	r4, r1
 8006b60:	4423      	add	r3, r4
 8006b62:	b29b      	uxth	r3, r3
 8006b64:	429c      	cmp	r4, r3
 8006b66:	d8ee      	bhi.n	8006b46 <pbuf_add_header_impl+0x12>
 8006b68:	f990 500c 	ldrsb.w	r5, [r0, #12]
 8006b6c:	2d00      	cmp	r5, #0
 8006b6e:	daec      	bge.n	8006b4a <pbuf_add_header_impl+0x16>
 8006b70:	6842      	ldr	r2, [r0, #4]
 8006b72:	1a51      	subs	r1, r2, r1
 8006b74:	f100 0210 	add.w	r2, r0, #16
 8006b78:	4291      	cmp	r1, r2
 8006b7a:	d3e4      	bcc.n	8006b46 <pbuf_add_header_impl+0x12>
 8006b7c:	8942      	ldrh	r2, [r0, #10]
 8006b7e:	6041      	str	r1, [r0, #4]
 8006b80:	4414      	add	r4, r2
 8006b82:	8144      	strh	r4, [r0, #10]
 8006b84:	8103      	strh	r3, [r0, #8]
 8006b86:	2000      	movs	r0, #0
 8006b88:	bd38      	pop	{r3, r4, r5, pc}
 8006b8a:	bf00      	nop
 8006b8c:	0800e137 	.word	0x0800e137
 8006b90:	0800e349 	.word	0x0800e349
 8006b94:	0800d51e 	.word	0x0800d51e

08006b98 <pbuf_alloc_reference>:
 8006b98:	f022 0340 	bic.w	r3, r2, #64	; 0x40
 8006b9c:	2b01      	cmp	r3, #1
 8006b9e:	b570      	push	{r4, r5, r6, lr}
 8006ba0:	4606      	mov	r6, r0
 8006ba2:	460d      	mov	r5, r1
 8006ba4:	4614      	mov	r4, r2
 8006ba6:	d006      	beq.n	8006bb6 <pbuf_alloc_reference+0x1e>
 8006ba8:	4b0a      	ldr	r3, [pc, #40]	; (8006bd4 <pbuf_alloc_reference+0x3c>)
 8006baa:	490b      	ldr	r1, [pc, #44]	; (8006bd8 <pbuf_alloc_reference+0x40>)
 8006bac:	480b      	ldr	r0, [pc, #44]	; (8006bdc <pbuf_alloc_reference+0x44>)
 8006bae:	f44f 72a5 	mov.w	r2, #330	; 0x14a
 8006bb2:	f005 fd9d 	bl	800c6f0 <iprintf>
 8006bb6:	200a      	movs	r0, #10
 8006bb8:	f7ff fdca 	bl	8006750 <memp_malloc>
 8006bbc:	b148      	cbz	r0, 8006bd2 <pbuf_alloc_reference+0x3a>
 8006bbe:	2300      	movs	r3, #0
 8006bc0:	e9c0 3600 	strd	r3, r6, [r0]
 8006bc4:	2201      	movs	r2, #1
 8006bc6:	8105      	strh	r5, [r0, #8]
 8006bc8:	8145      	strh	r5, [r0, #10]
 8006bca:	7304      	strb	r4, [r0, #12]
 8006bcc:	7343      	strb	r3, [r0, #13]
 8006bce:	7382      	strb	r2, [r0, #14]
 8006bd0:	73c3      	strb	r3, [r0, #15]
 8006bd2:	bd70      	pop	{r4, r5, r6, pc}
 8006bd4:	0800e137 	.word	0x0800e137
 8006bd8:	0800e182 	.word	0x0800e182
 8006bdc:	0800d51e 	.word	0x0800d51e

08006be0 <pbuf_alloced_custom>:
 8006be0:	b570      	push	{r4, r5, r6, lr}
 8006be2:	3003      	adds	r0, #3
 8006be4:	f020 0003 	bic.w	r0, r0, #3
 8006be8:	f8bd 5014 	ldrh.w	r5, [sp, #20]
 8006bec:	9c04      	ldr	r4, [sp, #16]
 8006bee:	180e      	adds	r6, r1, r0
 8006bf0:	42ae      	cmp	r6, r5
 8006bf2:	d80e      	bhi.n	8006c12 <pbuf_alloced_custom+0x32>
 8006bf4:	b104      	cbz	r4, 8006bf8 <pbuf_alloced_custom+0x18>
 8006bf6:	4404      	add	r4, r0
 8006bf8:	4618      	mov	r0, r3
 8006bfa:	2300      	movs	r3, #0
 8006bfc:	7302      	strb	r2, [r0, #12]
 8006bfe:	e9c0 3400 	strd	r3, r4, [r0]
 8006c02:	2202      	movs	r2, #2
 8006c04:	7342      	strb	r2, [r0, #13]
 8006c06:	2201      	movs	r2, #1
 8006c08:	8101      	strh	r1, [r0, #8]
 8006c0a:	8141      	strh	r1, [r0, #10]
 8006c0c:	7382      	strb	r2, [r0, #14]
 8006c0e:	73c3      	strb	r3, [r0, #15]
 8006c10:	bd70      	pop	{r4, r5, r6, pc}
 8006c12:	2000      	movs	r0, #0
 8006c14:	e7fc      	b.n	8006c10 <pbuf_alloced_custom+0x30>

08006c16 <pbuf_add_header>:
 8006c16:	2200      	movs	r2, #0
 8006c18:	f7ff bf8c 	b.w	8006b34 <pbuf_add_header_impl>

08006c1c <pbuf_remove_header>:
 8006c1c:	b510      	push	{r4, lr}
 8006c1e:	b990      	cbnz	r0, 8006c46 <pbuf_remove_header+0x2a>
 8006c20:	4b10      	ldr	r3, [pc, #64]	; (8006c64 <pbuf_remove_header+0x48>)
 8006c22:	4911      	ldr	r1, [pc, #68]	; (8006c68 <pbuf_remove_header+0x4c>)
 8006c24:	f240 224b 	movw	r2, #587	; 0x24b
 8006c28:	4810      	ldr	r0, [pc, #64]	; (8006c6c <pbuf_remove_header+0x50>)
 8006c2a:	f005 fd61 	bl	800c6f0 <iprintf>
 8006c2e:	2001      	movs	r0, #1
 8006c30:	e008      	b.n	8006c44 <pbuf_remove_header+0x28>
 8006c32:	1a9b      	subs	r3, r3, r2
 8006c34:	6844      	ldr	r4, [r0, #4]
 8006c36:	8143      	strh	r3, [r0, #10]
 8006c38:	8903      	ldrh	r3, [r0, #8]
 8006c3a:	4421      	add	r1, r4
 8006c3c:	1a9b      	subs	r3, r3, r2
 8006c3e:	6041      	str	r1, [r0, #4]
 8006c40:	8103      	strh	r3, [r0, #8]
 8006c42:	2000      	movs	r0, #0
 8006c44:	bd10      	pop	{r4, pc}
 8006c46:	f5b1 3f80 	cmp.w	r1, #65536	; 0x10000
 8006c4a:	d2f0      	bcs.n	8006c2e <pbuf_remove_header+0x12>
 8006c4c:	2900      	cmp	r1, #0
 8006c4e:	d0f8      	beq.n	8006c42 <pbuf_remove_header+0x26>
 8006c50:	8943      	ldrh	r3, [r0, #10]
 8006c52:	b28a      	uxth	r2, r1
 8006c54:	4293      	cmp	r3, r2
 8006c56:	d2ec      	bcs.n	8006c32 <pbuf_remove_header+0x16>
 8006c58:	4b02      	ldr	r3, [pc, #8]	; (8006c64 <pbuf_remove_header+0x48>)
 8006c5a:	4905      	ldr	r1, [pc, #20]	; (8006c70 <pbuf_remove_header+0x54>)
 8006c5c:	f240 2255 	movw	r2, #597	; 0x255
 8006c60:	e7e2      	b.n	8006c28 <pbuf_remove_header+0xc>
 8006c62:	bf00      	nop
 8006c64:	0800e137 	.word	0x0800e137
 8006c68:	0800e349 	.word	0x0800e349
 8006c6c:	0800d51e 	.word	0x0800d51e
 8006c70:	0800e399 	.word	0x0800e399

08006c74 <pbuf_header_force>:
 8006c74:	1e0b      	subs	r3, r1, #0
 8006c76:	da02      	bge.n	8006c7e <pbuf_header_force+0xa>
 8006c78:	4259      	negs	r1, r3
 8006c7a:	f7ff bfcf 	b.w	8006c1c <pbuf_remove_header>
 8006c7e:	2201      	movs	r2, #1
 8006c80:	f7ff bf58 	b.w	8006b34 <pbuf_add_header_impl>

08006c84 <pbuf_free>:
 8006c84:	e92d 47f0 	stmdb	sp!, {r4, r5, r6, r7, r8, r9, sl, lr}
 8006c88:	4604      	mov	r4, r0
 8006c8a:	b950      	cbnz	r0, 8006ca2 <pbuf_free+0x1e>
 8006c8c:	4b2b      	ldr	r3, [pc, #172]	; (8006d3c <pbuf_free+0xb8>)
 8006c8e:	492c      	ldr	r1, [pc, #176]	; (8006d40 <pbuf_free+0xbc>)
 8006c90:	482c      	ldr	r0, [pc, #176]	; (8006d44 <pbuf_free+0xc0>)
 8006c92:	f44f 7237 	mov.w	r2, #732	; 0x2dc
 8006c96:	f005 fd2b 	bl	800c6f0 <iprintf>
 8006c9a:	4625      	mov	r5, r4
 8006c9c:	4628      	mov	r0, r5
 8006c9e:	e8bd 87f0 	ldmia.w	sp!, {r4, r5, r6, r7, r8, r9, sl, pc}
 8006ca2:	4f26      	ldr	r7, [pc, #152]	; (8006d3c <pbuf_free+0xb8>)
 8006ca4:	f8df 90a8 	ldr.w	r9, [pc, #168]	; 8006d50 <pbuf_free+0xcc>
 8006ca8:	f8df 8098 	ldr.w	r8, [pc, #152]	; 8006d44 <pbuf_free+0xc0>
 8006cac:	2500      	movs	r5, #0
 8006cae:	f005 fba3 	bl	800c3f8 <sys_arch_protect>
 8006cb2:	7ba3      	ldrb	r3, [r4, #14]
 8006cb4:	4682      	mov	sl, r0
 8006cb6:	b933      	cbnz	r3, 8006cc6 <pbuf_free+0x42>
 8006cb8:	463b      	mov	r3, r7
 8006cba:	f240 22f1 	movw	r2, #753	; 0x2f1
 8006cbe:	4649      	mov	r1, r9
 8006cc0:	4640      	mov	r0, r8
 8006cc2:	f005 fd15 	bl	800c6f0 <iprintf>
 8006cc6:	7ba6      	ldrb	r6, [r4, #14]
 8006cc8:	3e01      	subs	r6, #1
 8006cca:	b2f6      	uxtb	r6, r6
 8006ccc:	73a6      	strb	r6, [r4, #14]
 8006cce:	4650      	mov	r0, sl
 8006cd0:	f005 fb9e 	bl	800c410 <sys_arch_unprotect>
 8006cd4:	2e00      	cmp	r6, #0
 8006cd6:	d1e1      	bne.n	8006c9c <pbuf_free+0x18>
 8006cd8:	7b63      	ldrb	r3, [r4, #13]
 8006cda:	6826      	ldr	r6, [r4, #0]
 8006cdc:	079b      	lsls	r3, r3, #30
 8006cde:	d511      	bpl.n	8006d04 <pbuf_free+0x80>
 8006ce0:	6923      	ldr	r3, [r4, #16]
 8006ce2:	b933      	cbnz	r3, 8006cf2 <pbuf_free+0x6e>
 8006ce4:	463b      	mov	r3, r7
 8006ce6:	f240 22ff 	movw	r2, #767	; 0x2ff
 8006cea:	4917      	ldr	r1, [pc, #92]	; (8006d48 <pbuf_free+0xc4>)
 8006cec:	4640      	mov	r0, r8
 8006cee:	f005 fcff 	bl	800c6f0 <iprintf>
 8006cf2:	6923      	ldr	r3, [r4, #16]
 8006cf4:	4620      	mov	r0, r4
 8006cf6:	4798      	blx	r3
 8006cf8:	3501      	adds	r5, #1
 8006cfa:	b2ed      	uxtb	r5, r5
 8006cfc:	4634      	mov	r4, r6
 8006cfe:	2e00      	cmp	r6, #0
 8006d00:	d1d5      	bne.n	8006cae <pbuf_free+0x2a>
 8006d02:	e7cb      	b.n	8006c9c <pbuf_free+0x18>
 8006d04:	7b23      	ldrb	r3, [r4, #12]
 8006d06:	f003 030f 	and.w	r3, r3, #15
 8006d0a:	2b02      	cmp	r3, #2
 8006d0c:	d104      	bne.n	8006d18 <pbuf_free+0x94>
 8006d0e:	4621      	mov	r1, r4
 8006d10:	200b      	movs	r0, #11
 8006d12:	f7ff fd39 	bl	8006788 <memp_free>
 8006d16:	e7ef      	b.n	8006cf8 <pbuf_free+0x74>
 8006d18:	2b01      	cmp	r3, #1
 8006d1a:	d102      	bne.n	8006d22 <pbuf_free+0x9e>
 8006d1c:	4621      	mov	r1, r4
 8006d1e:	200a      	movs	r0, #10
 8006d20:	e7f7      	b.n	8006d12 <pbuf_free+0x8e>
 8006d22:	b91b      	cbnz	r3, 8006d2c <pbuf_free+0xa8>
 8006d24:	4620      	mov	r0, r4
 8006d26:	f7ff fa7f 	bl	8006228 <mem_free>
 8006d2a:	e7e5      	b.n	8006cf8 <pbuf_free+0x74>
 8006d2c:	463b      	mov	r3, r7
 8006d2e:	f240 320f 	movw	r2, #783	; 0x30f
 8006d32:	4906      	ldr	r1, [pc, #24]	; (8006d4c <pbuf_free+0xc8>)
 8006d34:	4640      	mov	r0, r8
 8006d36:	f005 fcdb 	bl	800c6f0 <iprintf>
 8006d3a:	e7dd      	b.n	8006cf8 <pbuf_free+0x74>
 8006d3c:	0800e137 	.word	0x0800e137
 8006d40:	0800e349 	.word	0x0800e349
 8006d44:	0800d51e 	.word	0x0800d51e
 8006d48:	0800e308 	.word	0x0800e308
 8006d4c:	0800e329 	.word	0x0800e329
 8006d50:	0800e2f2 	.word	0x0800e2f2

08006d54 <pbuf_alloc>:
 8006d54:	2a41      	cmp	r2, #65	; 0x41
 8006d56:	e92d 43f8 	stmdb	sp!, {r3, r4, r5, r6, r7, r8, r9, lr}
 8006d5a:	4607      	mov	r7, r0
 8006d5c:	460e      	mov	r6, r1
 8006d5e:	b284      	uxth	r4, r0
 8006d60:	d030      	beq.n	8006dc4 <pbuf_alloc+0x70>
 8006d62:	d809      	bhi.n	8006d78 <pbuf_alloc+0x24>
 8006d64:	2a01      	cmp	r2, #1
 8006d66:	d02d      	beq.n	8006dc4 <pbuf_alloc+0x70>
 8006d68:	4b3d      	ldr	r3, [pc, #244]	; (8006e60 <pbuf_alloc+0x10c>)
 8006d6a:	493e      	ldr	r1, [pc, #248]	; (8006e64 <pbuf_alloc+0x110>)
 8006d6c:	483e      	ldr	r0, [pc, #248]	; (8006e68 <pbuf_alloc+0x114>)
 8006d6e:	f240 1227 	movw	r2, #295	; 0x127
 8006d72:	f005 fcbd 	bl	800c6f0 <iprintf>
 8006d76:	e04a      	b.n	8006e0e <pbuf_alloc+0xba>
 8006d78:	f5b2 7fc1 	cmp.w	r2, #386	; 0x182
 8006d7c:	d028      	beq.n	8006dd0 <pbuf_alloc+0x7c>
 8006d7e:	f5b2 7f20 	cmp.w	r2, #640	; 0x280
 8006d82:	d1f1      	bne.n	8006d68 <pbuf_alloc+0x14>
 8006d84:	3403      	adds	r4, #3
 8006d86:	1ccb      	adds	r3, r1, #3
 8006d88:	f023 0303 	bic.w	r3, r3, #3
 8006d8c:	f024 0403 	bic.w	r4, r4, #3
 8006d90:	441c      	add	r4, r3
 8006d92:	b2a4      	uxth	r4, r4
 8006d94:	f104 0010 	add.w	r0, r4, #16
 8006d98:	429c      	cmp	r4, r3
 8006d9a:	b280      	uxth	r0, r0
 8006d9c:	d337      	bcc.n	8006e0e <pbuf_alloc+0xba>
 8006d9e:	4283      	cmp	r3, r0
 8006da0:	d835      	bhi.n	8006e0e <pbuf_alloc+0xba>
 8006da2:	f7ff fbc9 	bl	8006538 <mem_malloc>
 8006da6:	4605      	mov	r5, r0
 8006da8:	2800      	cmp	r0, #0
 8006daa:	d053      	beq.n	8006e54 <pbuf_alloc+0x100>
 8006dac:	4407      	add	r7, r0
 8006dae:	2300      	movs	r3, #0
 8006db0:	3713      	adds	r7, #19
 8006db2:	6003      	str	r3, [r0, #0]
 8006db4:	f027 0703 	bic.w	r7, r7, #3
 8006db8:	4b2c      	ldr	r3, [pc, #176]	; (8006e6c <pbuf_alloc+0x118>)
 8006dba:	6047      	str	r7, [r0, #4]
 8006dbc:	8106      	strh	r6, [r0, #8]
 8006dbe:	8146      	strh	r6, [r0, #10]
 8006dc0:	60c3      	str	r3, [r0, #12]
 8006dc2:	e047      	b.n	8006e54 <pbuf_alloc+0x100>
 8006dc4:	4631      	mov	r1, r6
 8006dc6:	2000      	movs	r0, #0
 8006dc8:	e8bd 43f8 	ldmia.w	sp!, {r3, r4, r5, r6, r7, r8, r9, lr}
 8006dcc:	f7ff bee4 	b.w	8006b98 <pbuf_alloc_reference>
 8006dd0:	f04f 0900 	mov.w	r9, #0
 8006dd4:	f8df 80a0 	ldr.w	r8, [pc, #160]	; 8006e78 <pbuf_alloc+0x124>
 8006dd8:	464d      	mov	r5, r9
 8006dda:	464f      	mov	r7, r9
 8006ddc:	200b      	movs	r0, #11
 8006dde:	f7ff fcb7 	bl	8006750 <memp_malloc>
 8006de2:	b9d0      	cbnz	r0, 8006e1a <pbuf_alloc+0xc6>
 8006de4:	4e22      	ldr	r6, [pc, #136]	; (8006e70 <pbuf_alloc+0x11c>)
 8006de6:	f005 fb07 	bl	800c3f8 <sys_arch_protect>
 8006dea:	7834      	ldrb	r4, [r6, #0]
 8006dec:	2301      	movs	r3, #1
 8006dee:	b2e4      	uxtb	r4, r4
 8006df0:	7033      	strb	r3, [r6, #0]
 8006df2:	f005 fb0d 	bl	800c410 <sys_arch_unprotect>
 8006df6:	b94c      	cbnz	r4, 8006e0c <pbuf_alloc+0xb8>
 8006df8:	4621      	mov	r1, r4
 8006dfa:	481e      	ldr	r0, [pc, #120]	; (8006e74 <pbuf_alloc+0x120>)
 8006dfc:	f7ff f94c 	bl	8006098 <tcpip_try_callback>
 8006e00:	b120      	cbz	r0, 8006e0c <pbuf_alloc+0xb8>
 8006e02:	f005 faf9 	bl	800c3f8 <sys_arch_protect>
 8006e06:	7034      	strb	r4, [r6, #0]
 8006e08:	f005 fb02 	bl	800c410 <sys_arch_unprotect>
 8006e0c:	b90d      	cbnz	r5, 8006e12 <pbuf_alloc+0xbe>
 8006e0e:	2500      	movs	r5, #0
 8006e10:	e020      	b.n	8006e54 <pbuf_alloc+0x100>
 8006e12:	4628      	mov	r0, r5
 8006e14:	f7ff ff36 	bl	8006c84 <pbuf_free>
 8006e18:	e7f9      	b.n	8006e0e <pbuf_alloc+0xba>
 8006e1a:	1ce3      	adds	r3, r4, #3
 8006e1c:	f023 0303 	bic.w	r3, r3, #3
 8006e20:	f5c3 7314 	rsb	r3, r3, #592	; 0x250
 8006e24:	b29b      	uxth	r3, r3
 8006e26:	4404      	add	r4, r0
 8006e28:	42b3      	cmp	r3, r6
 8006e2a:	f104 0413 	add.w	r4, r4, #19
 8006e2e:	bf28      	it	cs
 8006e30:	4633      	movcs	r3, r6
 8006e32:	f024 0403 	bic.w	r4, r4, #3
 8006e36:	6007      	str	r7, [r0, #0]
 8006e38:	6044      	str	r4, [r0, #4]
 8006e3a:	8106      	strh	r6, [r0, #8]
 8006e3c:	8143      	strh	r3, [r0, #10]
 8006e3e:	f8c0 800c 	str.w	r8, [r0, #12]
 8006e42:	b155      	cbz	r5, 8006e5a <pbuf_alloc+0x106>
 8006e44:	f8c9 0000 	str.w	r0, [r9]
 8006e48:	1af3      	subs	r3, r6, r3
 8006e4a:	b29e      	uxth	r6, r3
 8006e4c:	2400      	movs	r4, #0
 8006e4e:	4681      	mov	r9, r0
 8006e50:	2e00      	cmp	r6, #0
 8006e52:	d1c3      	bne.n	8006ddc <pbuf_alloc+0x88>
 8006e54:	4628      	mov	r0, r5
 8006e56:	e8bd 83f8 	ldmia.w	sp!, {r3, r4, r5, r6, r7, r8, r9, pc}
 8006e5a:	4605      	mov	r5, r0
 8006e5c:	e7f4      	b.n	8006e48 <pbuf_alloc+0xf4>
 8006e5e:	bf00      	nop
 8006e60:	0800e137 	.word	0x0800e137
 8006e64:	0800e167 	.word	0x0800e167
 8006e68:	0800d51e 	.word	0x0800d51e
 8006e6c:	00010080 	.word	0x00010080
 8006e70:	2000b53c 	.word	0x2000b53c
 8006e74:	08006b05 	.word	0x08006b05
 8006e78:	00010082 	.word	0x00010082

08006e7c <pbuf_realloc>:
 8006e7c:	e92d 43f8 	stmdb	sp!, {r3, r4, r5, r6, r7, r8, r9, lr}
 8006e80:	460d      	mov	r5, r1
 8006e82:	4604      	mov	r4, r0
 8006e84:	b930      	cbnz	r0, 8006e94 <pbuf_realloc+0x18>
 8006e86:	4b24      	ldr	r3, [pc, #144]	; (8006f18 <pbuf_realloc+0x9c>)
 8006e88:	4924      	ldr	r1, [pc, #144]	; (8006f1c <pbuf_realloc+0xa0>)
 8006e8a:	4825      	ldr	r0, [pc, #148]	; (8006f20 <pbuf_realloc+0xa4>)
 8006e8c:	f44f 72cc 	mov.w	r2, #408	; 0x198
 8006e90:	f005 fc2e 	bl	800c6f0 <iprintf>
 8006e94:	8923      	ldrh	r3, [r4, #8]
 8006e96:	42ab      	cmp	r3, r5
 8006e98:	d93b      	bls.n	8006f12 <pbuf_realloc+0x96>
 8006e9a:	1b5b      	subs	r3, r3, r5
 8006e9c:	4f1e      	ldr	r7, [pc, #120]	; (8006f18 <pbuf_realloc+0x9c>)
 8006e9e:	f8df 8088 	ldr.w	r8, [pc, #136]	; 8006f28 <pbuf_realloc+0xac>
 8006ea2:	f8df 907c 	ldr.w	r9, [pc, #124]	; 8006f20 <pbuf_realloc+0xa4>
 8006ea6:	b29e      	uxth	r6, r3
 8006ea8:	8963      	ldrh	r3, [r4, #10]
 8006eaa:	42ab      	cmp	r3, r5
 8006eac:	d319      	bcc.n	8006ee2 <pbuf_realloc+0x66>
 8006eae:	7b22      	ldrb	r2, [r4, #12]
 8006eb0:	0712      	lsls	r2, r2, #28
 8006eb2:	d126      	bne.n	8006f02 <pbuf_realloc+0x86>
 8006eb4:	42ab      	cmp	r3, r5
 8006eb6:	d024      	beq.n	8006f02 <pbuf_realloc+0x86>
 8006eb8:	7b63      	ldrb	r3, [r4, #13]
 8006eba:	079b      	lsls	r3, r3, #30
 8006ebc:	d421      	bmi.n	8006f02 <pbuf_realloc+0x86>
 8006ebe:	6861      	ldr	r1, [r4, #4]
 8006ec0:	1b09      	subs	r1, r1, r4
 8006ec2:	4429      	add	r1, r5
 8006ec4:	4620      	mov	r0, r4
 8006ec6:	b289      	uxth	r1, r1
 8006ec8:	f7ff fa8a 	bl	80063e0 <mem_trim>
 8006ecc:	4604      	mov	r4, r0
 8006ece:	b9c0      	cbnz	r0, 8006f02 <pbuf_realloc+0x86>
 8006ed0:	4b11      	ldr	r3, [pc, #68]	; (8006f18 <pbuf_realloc+0x9c>)
 8006ed2:	4914      	ldr	r1, [pc, #80]	; (8006f24 <pbuf_realloc+0xa8>)
 8006ed4:	4812      	ldr	r0, [pc, #72]	; (8006f20 <pbuf_realloc+0xa4>)
 8006ed6:	f240 12bd 	movw	r2, #445	; 0x1bd
 8006eda:	f005 fc09 	bl	800c6f0 <iprintf>
 8006ede:	8164      	strh	r4, [r4, #10]
 8006ee0:	deff      	udf	#255	; 0xff
 8006ee2:	1aed      	subs	r5, r5, r3
 8006ee4:	8923      	ldrh	r3, [r4, #8]
 8006ee6:	1b9b      	subs	r3, r3, r6
 8006ee8:	8123      	strh	r3, [r4, #8]
 8006eea:	6824      	ldr	r4, [r4, #0]
 8006eec:	b2ad      	uxth	r5, r5
 8006eee:	2c00      	cmp	r4, #0
 8006ef0:	d1da      	bne.n	8006ea8 <pbuf_realloc+0x2c>
 8006ef2:	463b      	mov	r3, r7
 8006ef4:	f240 12af 	movw	r2, #431	; 0x1af
 8006ef8:	4641      	mov	r1, r8
 8006efa:	4648      	mov	r0, r9
 8006efc:	f005 fbf8 	bl	800c6f0 <iprintf>
 8006f00:	e7d2      	b.n	8006ea8 <pbuf_realloc+0x2c>
 8006f02:	6820      	ldr	r0, [r4, #0]
 8006f04:	8165      	strh	r5, [r4, #10]
 8006f06:	8125      	strh	r5, [r4, #8]
 8006f08:	b108      	cbz	r0, 8006f0e <pbuf_realloc+0x92>
 8006f0a:	f7ff febb 	bl	8006c84 <pbuf_free>
 8006f0e:	2300      	movs	r3, #0
 8006f10:	6023      	str	r3, [r4, #0]
 8006f12:	e8bd 83f8 	ldmia.w	sp!, {r3, r4, r5, r6, r7, r8, r9, pc}
 8006f16:	bf00      	nop
 8006f18:	0800e137 	.word	0x0800e137
 8006f1c:	0800e33b 	.word	0x0800e33b
 8006f20:	0800d51e 	.word	0x0800d51e
 8006f24:	0800e36b 	.word	0x0800e36b
 8006f28:	0800e353 	.word	0x0800e353

08006f2c <pbuf_clen>:
 8006f2c:	4603      	mov	r3, r0
 8006f2e:	2200      	movs	r2, #0
 8006f30:	b290      	uxth	r0, r2
 8006f32:	3201      	adds	r2, #1
 8006f34:	b903      	cbnz	r3, 8006f38 <pbuf_clen+0xc>
 8006f36:	4770      	bx	lr
 8006f38:	681b      	ldr	r3, [r3, #0]
 8006f3a:	e7f9      	b.n	8006f30 <pbuf_clen+0x4>

08006f3c <pbuf_ref>:
 8006f3c:	b510      	push	{r4, lr}
 8006f3e:	4604      	mov	r4, r0
 8006f40:	b188      	cbz	r0, 8006f66 <pbuf_ref+0x2a>
 8006f42:	f005 fa59 	bl	800c3f8 <sys_arch_protect>
 8006f46:	7ba3      	ldrb	r3, [r4, #14]
 8006f48:	3301      	adds	r3, #1
 8006f4a:	73a3      	strb	r3, [r4, #14]
 8006f4c:	f005 fa60 	bl	800c410 <sys_arch_unprotect>
 8006f50:	7ba3      	ldrb	r3, [r4, #14]
 8006f52:	b943      	cbnz	r3, 8006f66 <pbuf_ref+0x2a>
 8006f54:	4b04      	ldr	r3, [pc, #16]	; (8006f68 <pbuf_ref+0x2c>)
 8006f56:	4905      	ldr	r1, [pc, #20]	; (8006f6c <pbuf_ref+0x30>)
 8006f58:	4805      	ldr	r0, [pc, #20]	; (8006f70 <pbuf_ref+0x34>)
 8006f5a:	f240 3242 	movw	r2, #834	; 0x342
 8006f5e:	e8bd 4010 	ldmia.w	sp!, {r4, lr}
 8006f62:	f005 bbc5 	b.w	800c6f0 <iprintf>
 8006f66:	bd10      	pop	{r4, pc}
 8006f68:	0800e137 	.word	0x0800e137
 8006f6c:	0800e387 	.word	0x0800e387
 8006f70:	0800d51e 	.word	0x0800d51e

08006f74 <pbuf_cat>:
 8006f74:	b570      	push	{r4, r5, r6, lr}
 8006f76:	460d      	mov	r5, r1
 8006f78:	4604      	mov	r4, r0
 8006f7a:	b100      	cbz	r0, 8006f7e <pbuf_cat+0xa>
 8006f7c:	b961      	cbnz	r1, 8006f98 <pbuf_cat+0x24>
 8006f7e:	4b15      	ldr	r3, [pc, #84]	; (8006fd4 <pbuf_cat+0x60>)
 8006f80:	4915      	ldr	r1, [pc, #84]	; (8006fd8 <pbuf_cat+0x64>)
 8006f82:	4816      	ldr	r0, [pc, #88]	; (8006fdc <pbuf_cat+0x68>)
 8006f84:	f240 325a 	movw	r2, #858	; 0x35a
 8006f88:	e8bd 4070 	ldmia.w	sp!, {r4, r5, r6, lr}
 8006f8c:	f005 bbb0 	b.w	800c6f0 <iprintf>
 8006f90:	8929      	ldrh	r1, [r5, #8]
 8006f92:	440b      	add	r3, r1
 8006f94:	8123      	strh	r3, [r4, #8]
 8006f96:	4614      	mov	r4, r2
 8006f98:	6822      	ldr	r2, [r4, #0]
 8006f9a:	8923      	ldrh	r3, [r4, #8]
 8006f9c:	2a00      	cmp	r2, #0
 8006f9e:	d1f7      	bne.n	8006f90 <pbuf_cat+0x1c>
 8006fa0:	8962      	ldrh	r2, [r4, #10]
 8006fa2:	429a      	cmp	r2, r3
 8006fa4:	d006      	beq.n	8006fb4 <pbuf_cat+0x40>
 8006fa6:	4b0b      	ldr	r3, [pc, #44]	; (8006fd4 <pbuf_cat+0x60>)
 8006fa8:	490d      	ldr	r1, [pc, #52]	; (8006fe0 <pbuf_cat+0x6c>)
 8006faa:	480c      	ldr	r0, [pc, #48]	; (8006fdc <pbuf_cat+0x68>)
 8006fac:	f240 3262 	movw	r2, #866	; 0x362
 8006fb0:	f005 fb9e 	bl	800c6f0 <iprintf>
 8006fb4:	6823      	ldr	r3, [r4, #0]
 8006fb6:	b133      	cbz	r3, 8006fc6 <pbuf_cat+0x52>
 8006fb8:	4b06      	ldr	r3, [pc, #24]	; (8006fd4 <pbuf_cat+0x60>)
 8006fba:	490a      	ldr	r1, [pc, #40]	; (8006fe4 <pbuf_cat+0x70>)
 8006fbc:	4807      	ldr	r0, [pc, #28]	; (8006fdc <pbuf_cat+0x68>)
 8006fbe:	f240 3263 	movw	r2, #867	; 0x363
 8006fc2:	f005 fb95 	bl	800c6f0 <iprintf>
 8006fc6:	892a      	ldrh	r2, [r5, #8]
 8006fc8:	8923      	ldrh	r3, [r4, #8]
 8006fca:	6025      	str	r5, [r4, #0]
 8006fcc:	4413      	add	r3, r2
 8006fce:	8123      	strh	r3, [r4, #8]
 8006fd0:	bd70      	pop	{r4, r5, r6, pc}
 8006fd2:	bf00      	nop
 8006fd4:	0800e137 	.word	0x0800e137
 8006fd8:	0800e194 	.word	0x0800e194
 8006fdc:	0800d51e 	.word	0x0800d51e
 8006fe0:	0800e1c9 	.word	0x0800e1c9
 8006fe4:	0800e1f6 	.word	0x0800e1f6

08006fe8 <pbuf_copy>:
 8006fe8:	e92d 4ff8 	stmdb	sp!, {r3, r4, r5, r6, r7, r8, r9, sl, fp, lr}
 8006fec:	460c      	mov	r4, r1
 8006fee:	4605      	mov	r5, r0
 8006ff0:	b120      	cbz	r0, 8006ffc <pbuf_copy+0x14>
 8006ff2:	b119      	cbz	r1, 8006ffc <pbuf_copy+0x14>
 8006ff4:	8902      	ldrh	r2, [r0, #8]
 8006ff6:	890b      	ldrh	r3, [r1, #8]
 8006ff8:	429a      	cmp	r2, r3
 8006ffa:	d20a      	bcs.n	8007012 <pbuf_copy+0x2a>
 8006ffc:	4b34      	ldr	r3, [pc, #208]	; (80070d0 <pbuf_copy+0xe8>)
 8006ffe:	4935      	ldr	r1, [pc, #212]	; (80070d4 <pbuf_copy+0xec>)
 8007000:	f240 32ca 	movw	r2, #970	; 0x3ca
 8007004:	4834      	ldr	r0, [pc, #208]	; (80070d8 <pbuf_copy+0xf0>)
 8007006:	f005 fb73 	bl	800c6f0 <iprintf>
 800700a:	f06f 000f 	mvn.w	r0, #15
 800700e:	e8bd 8ff8 	ldmia.w	sp!, {r3, r4, r5, r6, r7, r8, r9, sl, fp, pc}
 8007012:	2600      	movs	r6, #0
 8007014:	f8df 90b8 	ldr.w	r9, [pc, #184]	; 80070d0 <pbuf_copy+0xe8>
 8007018:	f8df b0cc 	ldr.w	fp, [pc, #204]	; 80070e8 <pbuf_copy+0x100>
 800701c:	f8df a0b8 	ldr.w	sl, [pc, #184]	; 80070d8 <pbuf_copy+0xf0>
 8007020:	4637      	mov	r7, r6
 8007022:	f8b5 800a 	ldrh.w	r8, [r5, #10]
 8007026:	8963      	ldrh	r3, [r4, #10]
 8007028:	6868      	ldr	r0, [r5, #4]
 800702a:	6861      	ldr	r1, [r4, #4]
 800702c:	eba8 0807 	sub.w	r8, r8, r7
 8007030:	1b9b      	subs	r3, r3, r6
 8007032:	4598      	cmp	r8, r3
 8007034:	bf28      	it	cs
 8007036:	4698      	movcs	r8, r3
 8007038:	4431      	add	r1, r6
 800703a:	4438      	add	r0, r7
 800703c:	4642      	mov	r2, r8
 800703e:	f005 faea 	bl	800c616 <memcpy>
 8007042:	896b      	ldrh	r3, [r5, #10]
 8007044:	4447      	add	r7, r8
 8007046:	429f      	cmp	r7, r3
 8007048:	4446      	add	r6, r8
 800704a:	d906      	bls.n	800705a <pbuf_copy+0x72>
 800704c:	464b      	mov	r3, r9
 800704e:	f240 32d9 	movw	r2, #985	; 0x3d9
 8007052:	4659      	mov	r1, fp
 8007054:	4650      	mov	r0, sl
 8007056:	f005 fb4b 	bl	800c6f0 <iprintf>
 800705a:	8963      	ldrh	r3, [r4, #10]
 800705c:	429e      	cmp	r6, r3
 800705e:	d906      	bls.n	800706e <pbuf_copy+0x86>
 8007060:	464b      	mov	r3, r9
 8007062:	f240 32da 	movw	r2, #986	; 0x3da
 8007066:	491d      	ldr	r1, [pc, #116]	; (80070dc <pbuf_copy+0xf4>)
 8007068:	4650      	mov	r0, sl
 800706a:	f005 fb41 	bl	800c6f0 <iprintf>
 800706e:	8963      	ldrh	r3, [r4, #10]
 8007070:	429e      	cmp	r6, r3
 8007072:	896b      	ldrh	r3, [r5, #10]
 8007074:	bf24      	itt	cs
 8007076:	6824      	ldrcs	r4, [r4, #0]
 8007078:	2600      	movcs	r6, #0
 800707a:	429f      	cmp	r7, r3
 800707c:	d108      	bne.n	8007090 <pbuf_copy+0xa8>
 800707e:	682d      	ldr	r5, [r5, #0]
 8007080:	b92d      	cbnz	r5, 800708e <pbuf_copy+0xa6>
 8007082:	b314      	cbz	r4, 80070ca <pbuf_copy+0xe2>
 8007084:	4b12      	ldr	r3, [pc, #72]	; (80070d0 <pbuf_copy+0xe8>)
 8007086:	4916      	ldr	r1, [pc, #88]	; (80070e0 <pbuf_copy+0xf8>)
 8007088:	f44f 7279 	mov.w	r2, #996	; 0x3e4
 800708c:	e7ba      	b.n	8007004 <pbuf_copy+0x1c>
 800708e:	2700      	movs	r7, #0
 8007090:	b17c      	cbz	r4, 80070b2 <pbuf_copy+0xca>
 8007092:	8962      	ldrh	r2, [r4, #10]
 8007094:	8923      	ldrh	r3, [r4, #8]
 8007096:	429a      	cmp	r2, r3
 8007098:	d10b      	bne.n	80070b2 <pbuf_copy+0xca>
 800709a:	6823      	ldr	r3, [r4, #0]
 800709c:	b14b      	cbz	r3, 80070b2 <pbuf_copy+0xca>
 800709e:	4b0c      	ldr	r3, [pc, #48]	; (80070d0 <pbuf_copy+0xe8>)
 80070a0:	f240 32ea 	movw	r2, #1002	; 0x3ea
 80070a4:	490f      	ldr	r1, [pc, #60]	; (80070e4 <pbuf_copy+0xfc>)
 80070a6:	480c      	ldr	r0, [pc, #48]	; (80070d8 <pbuf_copy+0xf0>)
 80070a8:	f005 fb22 	bl	800c6f0 <iprintf>
 80070ac:	f06f 0005 	mvn.w	r0, #5
 80070b0:	e7ad      	b.n	800700e <pbuf_copy+0x26>
 80070b2:	896a      	ldrh	r2, [r5, #10]
 80070b4:	892b      	ldrh	r3, [r5, #8]
 80070b6:	429a      	cmp	r2, r3
 80070b8:	d105      	bne.n	80070c6 <pbuf_copy+0xde>
 80070ba:	682b      	ldr	r3, [r5, #0]
 80070bc:	b11b      	cbz	r3, 80070c6 <pbuf_copy+0xde>
 80070be:	4b04      	ldr	r3, [pc, #16]	; (80070d0 <pbuf_copy+0xe8>)
 80070c0:	f240 32ef 	movw	r2, #1007	; 0x3ef
 80070c4:	e7ee      	b.n	80070a4 <pbuf_copy+0xbc>
 80070c6:	2c00      	cmp	r4, #0
 80070c8:	d1ab      	bne.n	8007022 <pbuf_copy+0x3a>
 80070ca:	4620      	mov	r0, r4
 80070cc:	e79f      	b.n	800700e <pbuf_copy+0x26>
 80070ce:	bf00      	nop
 80070d0:	0800e137 	.word	0x0800e137
 80070d4:	0800e217 	.word	0x0800e217
 80070d8:	0800d51e 	.word	0x0800d51e
 80070dc:	0800e25e 	.word	0x0800e25e
 80070e0:	0800e279 	.word	0x0800e279
 80070e4:	0800e286 	.word	0x0800e286
 80070e8:	0800e247 	.word	0x0800e247

080070ec <pbuf_copy_partial>:
 80070ec:	e92d 41f0 	stmdb	sp!, {r4, r5, r6, r7, r8, lr}
 80070f0:	460f      	mov	r7, r1
 80070f2:	4690      	mov	r8, r2
 80070f4:	4606      	mov	r6, r0
 80070f6:	b950      	cbnz	r0, 800710e <pbuf_copy_partial+0x22>
 80070f8:	4b1b      	ldr	r3, [pc, #108]	; (8007168 <pbuf_copy_partial+0x7c>)
 80070fa:	491c      	ldr	r1, [pc, #112]	; (800716c <pbuf_copy_partial+0x80>)
 80070fc:	481c      	ldr	r0, [pc, #112]	; (8007170 <pbuf_copy_partial+0x84>)
 80070fe:	f240 420a 	movw	r2, #1034	; 0x40a
 8007102:	f005 faf5 	bl	800c6f0 <iprintf>
 8007106:	4635      	mov	r5, r6
 8007108:	4628      	mov	r0, r5
 800710a:	e8bd 81f0 	ldmia.w	sp!, {r4, r5, r6, r7, r8, pc}
 800710e:	bb41      	cbnz	r1, 8007162 <pbuf_copy_partial+0x76>
 8007110:	4b15      	ldr	r3, [pc, #84]	; (8007168 <pbuf_copy_partial+0x7c>)
 8007112:	4918      	ldr	r1, [pc, #96]	; (8007174 <pbuf_copy_partial+0x88>)
 8007114:	4816      	ldr	r0, [pc, #88]	; (8007170 <pbuf_copy_partial+0x84>)
 8007116:	f240 420b 	movw	r2, #1035	; 0x40b
 800711a:	f005 fae9 	bl	800c6f0 <iprintf>
 800711e:	463d      	mov	r5, r7
 8007120:	e7f2      	b.n	8007108 <pbuf_copy_partial+0x1c>
 8007122:	8972      	ldrh	r2, [r6, #10]
 8007124:	b153      	cbz	r3, 800713c <pbuf_copy_partial+0x50>
 8007126:	4293      	cmp	r3, r2
 8007128:	d308      	bcc.n	800713c <pbuf_copy_partial+0x50>
 800712a:	1a9b      	subs	r3, r3, r2
 800712c:	b29b      	uxth	r3, r3
 800712e:	6836      	ldr	r6, [r6, #0]
 8007130:	f1b8 0f00 	cmp.w	r8, #0
 8007134:	d0e8      	beq.n	8007108 <pbuf_copy_partial+0x1c>
 8007136:	2e00      	cmp	r6, #0
 8007138:	d1f3      	bne.n	8007122 <pbuf_copy_partial+0x36>
 800713a:	e7e5      	b.n	8007108 <pbuf_copy_partial+0x1c>
 800713c:	1ad2      	subs	r2, r2, r3
 800713e:	b294      	uxth	r4, r2
 8007140:	4544      	cmp	r4, r8
 8007142:	6871      	ldr	r1, [r6, #4]
 8007144:	bf28      	it	cs
 8007146:	4644      	movcs	r4, r8
 8007148:	4622      	mov	r2, r4
 800714a:	4419      	add	r1, r3
 800714c:	1978      	adds	r0, r7, r5
 800714e:	4425      	add	r5, r4
 8007150:	eba8 0404 	sub.w	r4, r8, r4
 8007154:	f005 fa5f 	bl	800c616 <memcpy>
 8007158:	b2ad      	uxth	r5, r5
 800715a:	fa1f f884 	uxth.w	r8, r4
 800715e:	2300      	movs	r3, #0
 8007160:	e7e5      	b.n	800712e <pbuf_copy_partial+0x42>
 8007162:	2500      	movs	r5, #0
 8007164:	e7e4      	b.n	8007130 <pbuf_copy_partial+0x44>
 8007166:	bf00      	nop
 8007168:	0800e137 	.word	0x0800e137
 800716c:	0800e2b0 	.word	0x0800e2b0
 8007170:	0800d51e 	.word	0x0800d51e
 8007174:	0800e2cf 	.word	0x0800e2cf

08007178 <pbuf_clone>:
 8007178:	b538      	push	{r3, r4, r5, lr}
 800717a:	4614      	mov	r4, r2
 800717c:	460a      	mov	r2, r1
 800717e:	8921      	ldrh	r1, [r4, #8]
 8007180:	f7ff fde8 	bl	8006d54 <pbuf_alloc>
 8007184:	4605      	mov	r5, r0
 8007186:	b150      	cbz	r0, 800719e <pbuf_clone+0x26>
 8007188:	4621      	mov	r1, r4
 800718a:	f7ff ff2d 	bl	8006fe8 <pbuf_copy>
 800718e:	b130      	cbz	r0, 800719e <pbuf_clone+0x26>
 8007190:	4b04      	ldr	r3, [pc, #16]	; (80071a4 <pbuf_clone+0x2c>)
 8007192:	4905      	ldr	r1, [pc, #20]	; (80071a8 <pbuf_clone+0x30>)
 8007194:	4805      	ldr	r0, [pc, #20]	; (80071ac <pbuf_clone+0x34>)
 8007196:	f240 5224 	movw	r2, #1316	; 0x524
 800719a:	f005 faa9 	bl	800c6f0 <iprintf>
 800719e:	4628      	mov	r0, r5
 80071a0:	bd38      	pop	{r3, r4, r5, pc}
 80071a2:	bf00      	nop
 80071a4:	0800e137 	.word	0x0800e137
 80071a8:	0800e206 	.word	0x0800e206
 80071ac:	0800d51e 	.word	0x0800d51e

080071b0 <tcp_new_port>:
 80071b0:	4a11      	ldr	r2, [pc, #68]	; (80071f8 <tcp_new_port+0x48>)
 80071b2:	b5f0      	push	{r4, r5, r6, r7, lr}
 80071b4:	8811      	ldrh	r1, [r2, #0]
 80071b6:	4f11      	ldr	r7, [pc, #68]	; (80071fc <tcp_new_port+0x4c>)
 80071b8:	f44f 4380 	mov.w	r3, #16384	; 0x4000
 80071bc:	f64f 76ff 	movw	r6, #65535	; 0xffff
 80071c0:	1c48      	adds	r0, r1, #1
 80071c2:	b280      	uxth	r0, r0
 80071c4:	42b0      	cmp	r0, r6
 80071c6:	bf08      	it	eq
 80071c8:	f44f 4040 	moveq.w	r0, #49152	; 0xc000
 80071cc:	2400      	movs	r4, #0
 80071ce:	f857 1024 	ldr.w	r1, [r7, r4, lsl #2]
 80071d2:	680d      	ldr	r5, [r1, #0]
 80071d4:	b925      	cbnz	r5, 80071e0 <tcp_new_port+0x30>
 80071d6:	3401      	adds	r4, #1
 80071d8:	2c04      	cmp	r4, #4
 80071da:	d1f8      	bne.n	80071ce <tcp_new_port+0x1e>
 80071dc:	8010      	strh	r0, [r2, #0]
 80071de:	e008      	b.n	80071f2 <tcp_new_port+0x42>
 80071e0:	8ae9      	ldrh	r1, [r5, #22]
 80071e2:	4281      	cmp	r1, r0
 80071e4:	d106      	bne.n	80071f4 <tcp_new_port+0x44>
 80071e6:	3b01      	subs	r3, #1
 80071e8:	b29b      	uxth	r3, r3
 80071ea:	2b00      	cmp	r3, #0
 80071ec:	d1e8      	bne.n	80071c0 <tcp_new_port+0x10>
 80071ee:	8010      	strh	r0, [r2, #0]
 80071f0:	4618      	mov	r0, r3
 80071f2:	bdf0      	pop	{r4, r5, r6, r7, pc}
 80071f4:	68ed      	ldr	r5, [r5, #12]
 80071f6:	e7ed      	b.n	80071d4 <tcp_new_port+0x24>
 80071f8:	20000018 	.word	0x20000018
 80071fc:	0800e604 	.word	0x0800e604

08007200 <tcp_close_shutdown_fin>:
 8007200:	b510      	push	{r4, lr}
 8007202:	4604      	mov	r4, r0
 8007204:	b930      	cbnz	r0, 8007214 <tcp_close_shutdown_fin+0x14>
 8007206:	4b13      	ldr	r3, [pc, #76]	; (8007254 <tcp_close_shutdown_fin+0x54>)
 8007208:	4913      	ldr	r1, [pc, #76]	; (8007258 <tcp_close_shutdown_fin+0x58>)
 800720a:	4814      	ldr	r0, [pc, #80]	; (800725c <tcp_close_shutdown_fin+0x5c>)
 800720c:	f44f 72ce 	mov.w	r2, #412	; 0x19c
 8007210:	f005 fa6e 	bl	800c6f0 <iprintf>
 8007214:	7d23      	ldrb	r3, [r4, #20]
 8007216:	2b04      	cmp	r3, #4
 8007218:	d003      	beq.n	8007222 <tcp_close_shutdown_fin+0x22>
 800721a:	2b07      	cmp	r3, #7
 800721c:	d00c      	beq.n	8007238 <tcp_close_shutdown_fin+0x38>
 800721e:	2b03      	cmp	r3, #3
 8007220:	d108      	bne.n	8007234 <tcp_close_shutdown_fin+0x34>
 8007222:	4620      	mov	r0, r4
 8007224:	f003 f8e2 	bl	800a3ec <tcp_send_fin>
 8007228:	b960      	cbnz	r0, 8007244 <tcp_close_shutdown_fin+0x44>
 800722a:	2305      	movs	r3, #5
 800722c:	7523      	strb	r3, [r4, #20]
 800722e:	4620      	mov	r0, r4
 8007230:	f003 fa42 	bl	800a6b8 <tcp_output>
 8007234:	2000      	movs	r0, #0
 8007236:	bd10      	pop	{r4, pc}
 8007238:	4620      	mov	r0, r4
 800723a:	f003 f8d7 	bl	800a3ec <tcp_send_fin>
 800723e:	b908      	cbnz	r0, 8007244 <tcp_close_shutdown_fin+0x44>
 8007240:	2309      	movs	r3, #9
 8007242:	e7f3      	b.n	800722c <tcp_close_shutdown_fin+0x2c>
 8007244:	1c43      	adds	r3, r0, #1
 8007246:	d1f6      	bne.n	8007236 <tcp_close_shutdown_fin+0x36>
 8007248:	8b63      	ldrh	r3, [r4, #26]
 800724a:	f043 0308 	orr.w	r3, r3, #8
 800724e:	8363      	strh	r3, [r4, #26]
 8007250:	e7f0      	b.n	8007234 <tcp_close_shutdown_fin+0x34>
 8007252:	bf00      	nop
 8007254:	0800e4b5 	.word	0x0800e4b5
 8007258:	0800e4e4 	.word	0x0800e4e4
 800725c:	0800d51e 	.word	0x0800d51e

08007260 <tcp_init>:
 8007260:	b508      	push	{r3, lr}
 8007262:	f005 fa5d 	bl	800c720 <rand>
 8007266:	4b03      	ldr	r3, [pc, #12]	; (8007274 <tcp_init+0x14>)
 8007268:	ea6f 4080 	mvn.w	r0, r0, lsl #18
 800726c:	ea6f 4090 	mvn.w	r0, r0, lsr #18
 8007270:	8018      	strh	r0, [r3, #0]
 8007272:	bd08      	pop	{r3, pc}
 8007274:	20000018 	.word	0x20000018

08007278 <tcp_free>:
 8007278:	7d03      	ldrb	r3, [r0, #20]
 800727a:	2b01      	cmp	r3, #1
 800727c:	b510      	push	{r4, lr}
 800727e:	4604      	mov	r4, r0
 8007280:	d105      	bne.n	800728e <tcp_free+0x16>
 8007282:	4b06      	ldr	r3, [pc, #24]	; (800729c <tcp_free+0x24>)
 8007284:	4906      	ldr	r1, [pc, #24]	; (80072a0 <tcp_free+0x28>)
 8007286:	4807      	ldr	r0, [pc, #28]	; (80072a4 <tcp_free+0x2c>)
 8007288:	22d4      	movs	r2, #212	; 0xd4
 800728a:	f005 fa31 	bl	800c6f0 <iprintf>
 800728e:	4621      	mov	r1, r4
 8007290:	2000      	movs	r0, #0
 8007292:	e8bd 4010 	ldmia.w	sp!, {r4, lr}
 8007296:	f7ff ba77 	b.w	8006788 <memp_free>
 800729a:	bf00      	nop
 800729c:	0800e4b5 	.word	0x0800e4b5
 80072a0:	0800e5a2 	.word	0x0800e5a2
 80072a4:	0800d51e 	.word	0x0800d51e

080072a8 <tcp_bind>:
 80072a8:	b5f8      	push	{r3, r4, r5, r6, r7, lr}
 80072aa:	4d23      	ldr	r5, [pc, #140]	; (8007338 <tcp_bind+0x90>)
 80072ac:	4604      	mov	r4, r0
 80072ae:	2900      	cmp	r1, #0
 80072b0:	bf18      	it	ne
 80072b2:	460d      	movne	r5, r1
 80072b4:	b948      	cbnz	r0, 80072ca <tcp_bind+0x22>
 80072b6:	4b21      	ldr	r3, [pc, #132]	; (800733c <tcp_bind+0x94>)
 80072b8:	4921      	ldr	r1, [pc, #132]	; (8007340 <tcp_bind+0x98>)
 80072ba:	4822      	ldr	r0, [pc, #136]	; (8007344 <tcp_bind+0x9c>)
 80072bc:	f240 22a9 	movw	r2, #681	; 0x2a9
 80072c0:	f005 fa16 	bl	800c6f0 <iprintf>
 80072c4:	f06f 000f 	mvn.w	r0, #15
 80072c8:	bdf8      	pop	{r3, r4, r5, r6, r7, pc}
 80072ca:	7d03      	ldrb	r3, [r0, #20]
 80072cc:	b14b      	cbz	r3, 80072e2 <tcp_bind+0x3a>
 80072ce:	4b1b      	ldr	r3, [pc, #108]	; (800733c <tcp_bind+0x94>)
 80072d0:	491d      	ldr	r1, [pc, #116]	; (8007348 <tcp_bind+0xa0>)
 80072d2:	481c      	ldr	r0, [pc, #112]	; (8007344 <tcp_bind+0x9c>)
 80072d4:	f240 22ab 	movw	r2, #683	; 0x2ab
 80072d8:	f005 fa0a 	bl	800c6f0 <iprintf>
 80072dc:	f06f 0005 	mvn.w	r0, #5
 80072e0:	e7f2      	b.n	80072c8 <tcp_bind+0x20>
 80072e2:	b932      	cbnz	r2, 80072f2 <tcp_bind+0x4a>
 80072e4:	f7ff ff64 	bl	80071b0 <tcp_new_port>
 80072e8:	4602      	mov	r2, r0
 80072ea:	b950      	cbnz	r0, 8007302 <tcp_bind+0x5a>
 80072ec:	f06f 0001 	mvn.w	r0, #1
 80072f0:	e7ea      	b.n	80072c8 <tcp_bind+0x20>
 80072f2:	4f16      	ldr	r7, [pc, #88]	; (800734c <tcp_bind+0xa4>)
 80072f4:	f857 1023 	ldr.w	r1, [r7, r3, lsl #2]
 80072f8:	6808      	ldr	r0, [r1, #0]
 80072fa:	b970      	cbnz	r0, 800731a <tcp_bind+0x72>
 80072fc:	3301      	adds	r3, #1
 80072fe:	2b04      	cmp	r3, #4
 8007300:	d1f8      	bne.n	80072f4 <tcp_bind+0x4c>
 8007302:	682b      	ldr	r3, [r5, #0]
 8007304:	b103      	cbz	r3, 8007308 <tcp_bind+0x60>
 8007306:	6023      	str	r3, [r4, #0]
 8007308:	4b11      	ldr	r3, [pc, #68]	; (8007350 <tcp_bind+0xa8>)
 800730a:	82e2      	strh	r2, [r4, #22]
 800730c:	681a      	ldr	r2, [r3, #0]
 800730e:	60e2      	str	r2, [r4, #12]
 8007310:	601c      	str	r4, [r3, #0]
 8007312:	f003 fca7 	bl	800ac64 <tcp_timer_needed>
 8007316:	2000      	movs	r0, #0
 8007318:	e7d6      	b.n	80072c8 <tcp_bind+0x20>
 800731a:	8ac1      	ldrh	r1, [r0, #22]
 800731c:	4291      	cmp	r1, r2
 800731e:	d105      	bne.n	800732c <tcp_bind+0x84>
 8007320:	6806      	ldr	r6, [r0, #0]
 8007322:	b12e      	cbz	r6, 8007330 <tcp_bind+0x88>
 8007324:	6829      	ldr	r1, [r5, #0]
 8007326:	b119      	cbz	r1, 8007330 <tcp_bind+0x88>
 8007328:	428e      	cmp	r6, r1
 800732a:	d001      	beq.n	8007330 <tcp_bind+0x88>
 800732c:	68c0      	ldr	r0, [r0, #12]
 800732e:	e7e4      	b.n	80072fa <tcp_bind+0x52>
 8007330:	f06f 0007 	mvn.w	r0, #7
 8007334:	e7c8      	b.n	80072c8 <tcp_bind+0x20>
 8007336:	bf00      	nop
 8007338:	0800f838 	.word	0x0800f838
 800733c:	0800e4b5 	.word	0x0800e4b5
 8007340:	0800e40e 	.word	0x0800e40e
 8007344:	0800d51e 	.word	0x0800d51e
 8007348:	0800e424 	.word	0x0800e424
 800734c:	0800e604 	.word	0x0800e604
 8007350:	2000b550 	.word	0x2000b550

08007354 <tcp_update_rcv_ann_wnd>:
 8007354:	b538      	push	{r3, r4, r5, lr}
 8007356:	4604      	mov	r4, r0
 8007358:	b930      	cbnz	r0, 8007368 <tcp_update_rcv_ann_wnd+0x14>
 800735a:	4b15      	ldr	r3, [pc, #84]	; (80073b0 <tcp_update_rcv_ann_wnd+0x5c>)
 800735c:	4915      	ldr	r1, [pc, #84]	; (80073b4 <tcp_update_rcv_ann_wnd+0x60>)
 800735e:	4816      	ldr	r0, [pc, #88]	; (80073b8 <tcp_update_rcv_ann_wnd+0x64>)
 8007360:	f240 32a6 	movw	r2, #934	; 0x3a6
 8007364:	f005 f9c4 	bl	800c6f0 <iprintf>
 8007368:	8d21      	ldrh	r1, [r4, #40]	; 0x28
 800736a:	6ae3      	ldr	r3, [r4, #44]	; 0x2c
 800736c:	8e62      	ldrh	r2, [r4, #50]	; 0x32
 800736e:	6a65      	ldr	r5, [r4, #36]	; 0x24
 8007370:	1ac8      	subs	r0, r1, r3
 8007372:	f5b2 6f86 	cmp.w	r2, #1072	; 0x430
 8007376:	4428      	add	r0, r5
 8007378:	bf94      	ite	ls
 800737a:	1a82      	subls	r2, r0, r2
 800737c:	f5a0 6286 	subhi.w	r2, r0, #1072	; 0x430
 8007380:	2a00      	cmp	r2, #0
 8007382:	db01      	blt.n	8007388 <tcp_update_rcv_ann_wnd+0x34>
 8007384:	8561      	strh	r1, [r4, #42]	; 0x2a
 8007386:	bd38      	pop	{r3, r4, r5, pc}
 8007388:	1aea      	subs	r2, r5, r3
 800738a:	2a00      	cmp	r2, #0
 800738c:	dd02      	ble.n	8007394 <tcp_update_rcv_ann_wnd+0x40>
 800738e:	2000      	movs	r0, #0
 8007390:	8560      	strh	r0, [r4, #42]	; 0x2a
 8007392:	e7f8      	b.n	8007386 <tcp_update_rcv_ann_wnd+0x32>
 8007394:	1b5d      	subs	r5, r3, r5
 8007396:	f5b5 3f80 	cmp.w	r5, #65536	; 0x10000
 800739a:	d306      	bcc.n	80073aa <tcp_update_rcv_ann_wnd+0x56>
 800739c:	4b04      	ldr	r3, [pc, #16]	; (80073b0 <tcp_update_rcv_ann_wnd+0x5c>)
 800739e:	4907      	ldr	r1, [pc, #28]	; (80073bc <tcp_update_rcv_ann_wnd+0x68>)
 80073a0:	4805      	ldr	r0, [pc, #20]	; (80073b8 <tcp_update_rcv_ann_wnd+0x64>)
 80073a2:	f240 32b6 	movw	r2, #950	; 0x3b6
 80073a6:	f005 f9a3 	bl	800c6f0 <iprintf>
 80073aa:	8565      	strh	r5, [r4, #42]	; 0x2a
 80073ac:	2000      	movs	r0, #0
 80073ae:	e7ea      	b.n	8007386 <tcp_update_rcv_ann_wnd+0x32>
 80073b0:	0800e4b5 	.word	0x0800e4b5
 80073b4:	0800e9a8 	.word	0x0800e9a8
 80073b8:	0800d51e 	.word	0x0800d51e
 80073bc:	0800e9cc 	.word	0x0800e9cc

080073c0 <tcp_recved>:
 80073c0:	b570      	push	{r4, r5, r6, lr}
 80073c2:	460d      	mov	r5, r1
 80073c4:	4604      	mov	r4, r0
 80073c6:	b940      	cbnz	r0, 80073da <tcp_recved+0x1a>
 80073c8:	4b17      	ldr	r3, [pc, #92]	; (8007428 <tcp_recved+0x68>)
 80073ca:	4918      	ldr	r1, [pc, #96]	; (800742c <tcp_recved+0x6c>)
 80073cc:	4818      	ldr	r0, [pc, #96]	; (8007430 <tcp_recved+0x70>)
 80073ce:	f240 32cf 	movw	r2, #975	; 0x3cf
 80073d2:	e8bd 4070 	ldmia.w	sp!, {r4, r5, r6, lr}
 80073d6:	f005 b98b 	b.w	800c6f0 <iprintf>
 80073da:	7d03      	ldrb	r3, [r0, #20]
 80073dc:	2b01      	cmp	r3, #1
 80073de:	d106      	bne.n	80073ee <tcp_recved+0x2e>
 80073e0:	4b11      	ldr	r3, [pc, #68]	; (8007428 <tcp_recved+0x68>)
 80073e2:	4914      	ldr	r1, [pc, #80]	; (8007434 <tcp_recved+0x74>)
 80073e4:	4812      	ldr	r0, [pc, #72]	; (8007430 <tcp_recved+0x70>)
 80073e6:	f240 32d3 	movw	r2, #979	; 0x3d3
 80073ea:	f005 f981 	bl	800c6f0 <iprintf>
 80073ee:	8d23      	ldrh	r3, [r4, #40]	; 0x28
 80073f0:	1959      	adds	r1, r3, r5
 80073f2:	b289      	uxth	r1, r1
 80073f4:	f5b1 6f06 	cmp.w	r1, #2144	; 0x860
 80073f8:	d801      	bhi.n	80073fe <tcp_recved+0x3e>
 80073fa:	428b      	cmp	r3, r1
 80073fc:	d911      	bls.n	8007422 <tcp_recved+0x62>
 80073fe:	f44f 6306 	mov.w	r3, #2144	; 0x860
 8007402:	8523      	strh	r3, [r4, #40]	; 0x28
 8007404:	4620      	mov	r0, r4
 8007406:	f7ff ffa5 	bl	8007354 <tcp_update_rcv_ann_wnd>
 800740a:	f5b0 7f06 	cmp.w	r0, #536	; 0x218
 800740e:	d30a      	bcc.n	8007426 <tcp_recved+0x66>
 8007410:	8b63      	ldrh	r3, [r4, #26]
 8007412:	f043 0302 	orr.w	r3, r3, #2
 8007416:	8363      	strh	r3, [r4, #26]
 8007418:	4620      	mov	r0, r4
 800741a:	e8bd 4070 	ldmia.w	sp!, {r4, r5, r6, lr}
 800741e:	f003 b94b 	b.w	800a6b8 <tcp_output>
 8007422:	8521      	strh	r1, [r4, #40]	; 0x28
 8007424:	e7ee      	b.n	8007404 <tcp_recved+0x44>
 8007426:	bd70      	pop	{r4, r5, r6, pc}
 8007428:	0800e4b5 	.word	0x0800e4b5
 800742c:	0800e756 	.word	0x0800e756
 8007430:	0800d51e 	.word	0x0800d51e
 8007434:	0800e76e 	.word	0x0800e76e

08007438 <tcp_seg_free>:
 8007438:	b510      	push	{r4, lr}
 800743a:	4604      	mov	r4, r0
 800743c:	b148      	cbz	r0, 8007452 <tcp_seg_free+0x1a>
 800743e:	6840      	ldr	r0, [r0, #4]
 8007440:	b108      	cbz	r0, 8007446 <tcp_seg_free+0xe>
 8007442:	f7ff fc1f 	bl	8006c84 <pbuf_free>
 8007446:	4621      	mov	r1, r4
 8007448:	2002      	movs	r0, #2
 800744a:	e8bd 4010 	ldmia.w	sp!, {r4, lr}
 800744e:	f7ff b99b 	b.w	8006788 <memp_free>
 8007452:	bd10      	pop	{r4, pc}

08007454 <tcp_segs_free>:
 8007454:	b510      	push	{r4, lr}
 8007456:	b900      	cbnz	r0, 800745a <tcp_segs_free+0x6>
 8007458:	bd10      	pop	{r4, pc}
 800745a:	6804      	ldr	r4, [r0, #0]
 800745c:	f7ff ffec 	bl	8007438 <tcp_seg_free>
 8007460:	4620      	mov	r0, r4
 8007462:	e7f8      	b.n	8007456 <tcp_segs_free+0x2>

08007464 <tcp_seg_copy>:
 8007464:	b538      	push	{r3, r4, r5, lr}
 8007466:	4604      	mov	r4, r0
 8007468:	b930      	cbnz	r0, 8007478 <tcp_seg_copy+0x14>
 800746a:	4b0d      	ldr	r3, [pc, #52]	; (80074a0 <tcp_seg_copy+0x3c>)
 800746c:	490d      	ldr	r1, [pc, #52]	; (80074a4 <tcp_seg_copy+0x40>)
 800746e:	480e      	ldr	r0, [pc, #56]	; (80074a8 <tcp_seg_copy+0x44>)
 8007470:	f240 6282 	movw	r2, #1666	; 0x682
 8007474:	f005 f93c 	bl	800c6f0 <iprintf>
 8007478:	2002      	movs	r0, #2
 800747a:	f7ff f969 	bl	8006750 <memp_malloc>
 800747e:	4605      	mov	r5, r0
 8007480:	b160      	cbz	r0, 800749c <tcp_seg_copy+0x38>
 8007482:	4620      	mov	r0, r4
 8007484:	462b      	mov	r3, r5
 8007486:	f104 0210 	add.w	r2, r4, #16
 800748a:	f850 1b04 	ldr.w	r1, [r0], #4
 800748e:	f843 1b04 	str.w	r1, [r3], #4
 8007492:	4290      	cmp	r0, r2
 8007494:	d1f9      	bne.n	800748a <tcp_seg_copy+0x26>
 8007496:	6868      	ldr	r0, [r5, #4]
 8007498:	f7ff fd50 	bl	8006f3c <pbuf_ref>
 800749c:	4628      	mov	r0, r5
 800749e:	bd38      	pop	{r3, r4, r5, pc}
 80074a0:	0800e4b5 	.word	0x0800e4b5
 80074a4:	0800e794 	.word	0x0800e794
 80074a8:	0800d51e 	.word	0x0800d51e

080074ac <tcp_arg>:
 80074ac:	b100      	cbz	r0, 80074b0 <tcp_arg+0x4>
 80074ae:	6101      	str	r1, [r0, #16]
 80074b0:	4770      	bx	lr
	...

080074b4 <tcp_recv>:
 80074b4:	b538      	push	{r3, r4, r5, lr}
 80074b6:	460d      	mov	r5, r1
 80074b8:	4604      	mov	r4, r0
 80074ba:	b158      	cbz	r0, 80074d4 <tcp_recv+0x20>
 80074bc:	7d03      	ldrb	r3, [r0, #20]
 80074be:	2b01      	cmp	r3, #1
 80074c0:	d106      	bne.n	80074d0 <tcp_recv+0x1c>
 80074c2:	4b05      	ldr	r3, [pc, #20]	; (80074d8 <tcp_recv+0x24>)
 80074c4:	4905      	ldr	r1, [pc, #20]	; (80074dc <tcp_recv+0x28>)
 80074c6:	4806      	ldr	r0, [pc, #24]	; (80074e0 <tcp_recv+0x2c>)
 80074c8:	f240 72df 	movw	r2, #2015	; 0x7df
 80074cc:	f005 f910 	bl	800c6f0 <iprintf>
 80074d0:	f8c4 5084 	str.w	r5, [r4, #132]	; 0x84
 80074d4:	bd38      	pop	{r3, r4, r5, pc}
 80074d6:	bf00      	nop
 80074d8:	0800e4b5 	.word	0x0800e4b5
 80074dc:	0800e714 	.word	0x0800e714
 80074e0:	0800d51e 	.word	0x0800d51e

080074e4 <tcp_sent>:
 80074e4:	b538      	push	{r3, r4, r5, lr}
 80074e6:	460d      	mov	r5, r1
 80074e8:	4604      	mov	r4, r0
 80074ea:	b158      	cbz	r0, 8007504 <tcp_sent+0x20>
 80074ec:	7d03      	ldrb	r3, [r0, #20]
 80074ee:	2b01      	cmp	r3, #1
 80074f0:	d106      	bne.n	8007500 <tcp_sent+0x1c>
 80074f2:	4b05      	ldr	r3, [pc, #20]	; (8007508 <tcp_sent+0x24>)
 80074f4:	4905      	ldr	r1, [pc, #20]	; (800750c <tcp_sent+0x28>)
 80074f6:	4806      	ldr	r0, [pc, #24]	; (8007510 <tcp_sent+0x2c>)
 80074f8:	f240 72f3 	movw	r2, #2035	; 0x7f3
 80074fc:	f005 f8f8 	bl	800c6f0 <iprintf>
 8007500:	f8c4 5080 	str.w	r5, [r4, #128]	; 0x80
 8007504:	bd38      	pop	{r3, r4, r5, pc}
 8007506:	bf00      	nop
 8007508:	0800e4b5 	.word	0x0800e4b5
 800750c:	0800e7ae 	.word	0x0800e7ae
 8007510:	0800d51e 	.word	0x0800d51e

08007514 <tcp_err>:
 8007514:	b538      	push	{r3, r4, r5, lr}
 8007516:	460d      	mov	r5, r1
 8007518:	4604      	mov	r4, r0
 800751a:	b158      	cbz	r0, 8007534 <tcp_err+0x20>
 800751c:	7d03      	ldrb	r3, [r0, #20]
 800751e:	2b01      	cmp	r3, #1
 8007520:	d106      	bne.n	8007530 <tcp_err+0x1c>
 8007522:	4b05      	ldr	r3, [pc, #20]	; (8007538 <tcp_err+0x24>)
 8007524:	4905      	ldr	r1, [pc, #20]	; (800753c <tcp_err+0x28>)
 8007526:	4806      	ldr	r0, [pc, #24]	; (8007540 <tcp_err+0x2c>)
 8007528:	f640 020d 	movw	r2, #2061	; 0x80d
 800752c:	f005 f8e0 	bl	800c6f0 <iprintf>
 8007530:	f8c4 5090 	str.w	r5, [r4, #144]	; 0x90
 8007534:	bd38      	pop	{r3, r4, r5, pc}
 8007536:	bf00      	nop
 8007538:	0800e4b5 	.word	0x0800e4b5
 800753c:	0800e57c 	.word	0x0800e57c
 8007540:	0800d51e 	.word	0x0800d51e

08007544 <tcp_accept>:
 8007544:	b118      	cbz	r0, 800754e <tcp_accept+0xa>
 8007546:	7d03      	ldrb	r3, [r0, #20]
 8007548:	2b01      	cmp	r3, #1
 800754a:	bf08      	it	eq
 800754c:	6181      	streq	r1, [r0, #24]
 800754e:	4770      	bx	lr

08007550 <tcp_poll>:
 8007550:	b570      	push	{r4, r5, r6, lr}
 8007552:	460e      	mov	r6, r1
 8007554:	4615      	mov	r5, r2
 8007556:	4604      	mov	r4, r0
 8007558:	b940      	cbnz	r0, 800756c <tcp_poll+0x1c>
 800755a:	4b0b      	ldr	r3, [pc, #44]	; (8007588 <tcp_poll+0x38>)
 800755c:	490b      	ldr	r1, [pc, #44]	; (800758c <tcp_poll+0x3c>)
 800755e:	480c      	ldr	r0, [pc, #48]	; (8007590 <tcp_poll+0x40>)
 8007560:	f640 023d 	movw	r2, #2109	; 0x83d
 8007564:	e8bd 4070 	ldmia.w	sp!, {r4, r5, r6, lr}
 8007568:	f005 b8c2 	b.w	800c6f0 <iprintf>
 800756c:	7d03      	ldrb	r3, [r0, #20]
 800756e:	2b01      	cmp	r3, #1
 8007570:	d106      	bne.n	8007580 <tcp_poll+0x30>
 8007572:	4b05      	ldr	r3, [pc, #20]	; (8007588 <tcp_poll+0x38>)
 8007574:	4907      	ldr	r1, [pc, #28]	; (8007594 <tcp_poll+0x44>)
 8007576:	4806      	ldr	r0, [pc, #24]	; (8007590 <tcp_poll+0x40>)
 8007578:	f640 023e 	movw	r2, #2110	; 0x83e
 800757c:	f005 f8b8 	bl	800c6f0 <iprintf>
 8007580:	7765      	strb	r5, [r4, #29]
 8007582:	f8c4 608c 	str.w	r6, [r4, #140]	; 0x8c
 8007586:	bd70      	pop	{r4, r5, r6, pc}
 8007588:	0800e4b5 	.word	0x0800e4b5
 800758c:	0800e6ba 	.word	0x0800e6ba
 8007590:	0800d51e 	.word	0x0800d51e
 8007594:	0800e6d0 	.word	0x0800e6d0

08007598 <tcp_next_iss>:
 8007598:	b508      	push	{r3, lr}
 800759a:	b930      	cbnz	r0, 80075aa <tcp_next_iss+0x12>
 800759c:	4b06      	ldr	r3, [pc, #24]	; (80075b8 <tcp_next_iss+0x20>)
 800759e:	4907      	ldr	r1, [pc, #28]	; (80075bc <tcp_next_iss+0x24>)
 80075a0:	4807      	ldr	r0, [pc, #28]	; (80075c0 <tcp_next_iss+0x28>)
 80075a2:	f640 02af 	movw	r2, #2223	; 0x8af
 80075a6:	f005 f8a3 	bl	800c6f0 <iprintf>
 80075aa:	4b06      	ldr	r3, [pc, #24]	; (80075c4 <tcp_next_iss+0x2c>)
 80075ac:	4a06      	ldr	r2, [pc, #24]	; (80075c8 <tcp_next_iss+0x30>)
 80075ae:	6818      	ldr	r0, [r3, #0]
 80075b0:	6812      	ldr	r2, [r2, #0]
 80075b2:	4410      	add	r0, r2
 80075b4:	6018      	str	r0, [r3, #0]
 80075b6:	bd08      	pop	{r3, pc}
 80075b8:	0800e4b5 	.word	0x0800e4b5
 80075bc:	0800e5e7 	.word	0x0800e5e7
 80075c0:	0800d51e 	.word	0x0800d51e
 80075c4:	20000014 	.word	0x20000014
 80075c8:	2000b548 	.word	0x2000b548

080075cc <tcp_eff_send_mss_netif>:
 80075cc:	b538      	push	{r3, r4, r5, lr}
 80075ce:	4604      	mov	r4, r0
 80075d0:	460d      	mov	r5, r1
 80075d2:	b932      	cbnz	r2, 80075e2 <tcp_eff_send_mss_netif+0x16>
 80075d4:	4b09      	ldr	r3, [pc, #36]	; (80075fc <tcp_eff_send_mss_netif+0x30>)
 80075d6:	490a      	ldr	r1, [pc, #40]	; (8007600 <tcp_eff_send_mss_netif+0x34>)
 80075d8:	480a      	ldr	r0, [pc, #40]	; (8007604 <tcp_eff_send_mss_netif+0x38>)
 80075da:	f640 02c5 	movw	r2, #2245	; 0x8c5
 80075de:	f005 f887 	bl	800c6f0 <iprintf>
 80075e2:	b14d      	cbz	r5, 80075f8 <tcp_eff_send_mss_netif+0x2c>
 80075e4:	8cab      	ldrh	r3, [r5, #36]	; 0x24
 80075e6:	b13b      	cbz	r3, 80075f8 <tcp_eff_send_mss_netif+0x2c>
 80075e8:	2b28      	cmp	r3, #40	; 0x28
 80075ea:	bf86      	itte	hi
 80075ec:	3b28      	subhi	r3, #40	; 0x28
 80075ee:	b29b      	uxthhi	r3, r3
 80075f0:	2300      	movls	r3, #0
 80075f2:	429c      	cmp	r4, r3
 80075f4:	bf28      	it	cs
 80075f6:	461c      	movcs	r4, r3
 80075f8:	4620      	mov	r0, r4
 80075fa:	bd38      	pop	{r3, r4, r5, pc}
 80075fc:	0800e4b5 	.word	0x0800e4b5
 8007600:	0800e555 	.word	0x0800e555
 8007604:	0800d51e 	.word	0x0800d51e

08007608 <tcp_connect>:
 8007608:	b5f8      	push	{r3, r4, r5, r6, r7, lr}
 800760a:	461f      	mov	r7, r3
 800760c:	4604      	mov	r4, r0
 800760e:	b950      	cbnz	r0, 8007626 <tcp_connect+0x1e>
 8007610:	4b40      	ldr	r3, [pc, #256]	; (8007714 <tcp_connect+0x10c>)
 8007612:	4941      	ldr	r1, [pc, #260]	; (8007718 <tcp_connect+0x110>)
 8007614:	f240 4235 	movw	r2, #1077	; 0x435
 8007618:	4840      	ldr	r0, [pc, #256]	; (800771c <tcp_connect+0x114>)
 800761a:	f005 f869 	bl	800c6f0 <iprintf>
 800761e:	f06f 050f 	mvn.w	r5, #15
 8007622:	4628      	mov	r0, r5
 8007624:	bdf8      	pop	{r3, r4, r5, r6, r7, pc}
 8007626:	b921      	cbnz	r1, 8007632 <tcp_connect+0x2a>
 8007628:	4b3a      	ldr	r3, [pc, #232]	; (8007714 <tcp_connect+0x10c>)
 800762a:	493d      	ldr	r1, [pc, #244]	; (8007720 <tcp_connect+0x118>)
 800762c:	f240 4236 	movw	r2, #1078	; 0x436
 8007630:	e7f2      	b.n	8007618 <tcp_connect+0x10>
 8007632:	7d03      	ldrb	r3, [r0, #20]
 8007634:	b14b      	cbz	r3, 800764a <tcp_connect+0x42>
 8007636:	4b37      	ldr	r3, [pc, #220]	; (8007714 <tcp_connect+0x10c>)
 8007638:	493a      	ldr	r1, [pc, #232]	; (8007724 <tcp_connect+0x11c>)
 800763a:	4838      	ldr	r0, [pc, #224]	; (800771c <tcp_connect+0x114>)
 800763c:	f44f 6287 	mov.w	r2, #1080	; 0x438
 8007640:	f005 f856 	bl	800c6f0 <iprintf>
 8007644:	f06f 0509 	mvn.w	r5, #9
 8007648:	e7eb      	b.n	8007622 <tcp_connect+0x1a>
 800764a:	680b      	ldr	r3, [r1, #0]
 800764c:	6043      	str	r3, [r0, #4]
 800764e:	8302      	strh	r2, [r0, #24]
 8007650:	7a00      	ldrb	r0, [r0, #8]
 8007652:	2800      	cmp	r0, #0
 8007654:	d046      	beq.n	80076e4 <tcp_connect+0xdc>
 8007656:	f7ff fa45 	bl	8006ae4 <netif_get_by_index>
 800765a:	4605      	mov	r5, r0
 800765c:	2800      	cmp	r0, #0
 800765e:	d056      	beq.n	800770e <tcp_connect+0x106>
 8007660:	6823      	ldr	r3, [r4, #0]
 8007662:	b90b      	cbnz	r3, 8007668 <tcp_connect+0x60>
 8007664:	6843      	ldr	r3, [r0, #4]
 8007666:	6023      	str	r3, [r4, #0]
 8007668:	8ae6      	ldrh	r6, [r4, #22]
 800766a:	2e00      	cmp	r6, #0
 800766c:	d03e      	beq.n	80076ec <tcp_connect+0xe4>
 800766e:	4620      	mov	r0, r4
 8007670:	f7ff ff92 	bl	8007598 <tcp_next_iss>
 8007674:	4a2c      	ldr	r2, [pc, #176]	; (8007728 <tcp_connect+0x120>)
 8007676:	6520      	str	r0, [r4, #80]	; 0x50
 8007678:	2300      	movs	r3, #0
 800767a:	3801      	subs	r0, #1
 800767c:	e9c4 3209 	strd	r3, r2, [r4, #36]	; 0x24
 8007680:	6460      	str	r0, [r4, #68]	; 0x44
 8007682:	e9c4 0016 	strd	r0, r0, [r4, #88]	; 0x58
 8007686:	62e3      	str	r3, [r4, #44]	; 0x2c
 8007688:	f44f 7006 	mov.w	r0, #536	; 0x218
 800768c:	f44f 6306 	mov.w	r3, #2144	; 0x860
 8007690:	4629      	mov	r1, r5
 8007692:	f8a4 3060 	strh.w	r3, [r4, #96]	; 0x60
 8007696:	1d22      	adds	r2, r4, #4
 8007698:	8660      	strh	r0, [r4, #50]	; 0x32
 800769a:	f7ff ff97 	bl	80075cc <tcp_eff_send_mss_netif>
 800769e:	2301      	movs	r3, #1
 80076a0:	8660      	strh	r0, [r4, #50]	; 0x32
 80076a2:	f8a4 3048 	strh.w	r3, [r4, #72]	; 0x48
 80076a6:	f8c4 7088 	str.w	r7, [r4, #136]	; 0x88
 80076aa:	2102      	movs	r1, #2
 80076ac:	4620      	mov	r0, r4
 80076ae:	f002 fe09 	bl	800a2c4 <tcp_enqueue_flags>
 80076b2:	4605      	mov	r5, r0
 80076b4:	2800      	cmp	r0, #0
 80076b6:	d1b4      	bne.n	8007622 <tcp_connect+0x1a>
 80076b8:	2302      	movs	r3, #2
 80076ba:	7523      	strb	r3, [r4, #20]
 80076bc:	b12e      	cbz	r6, 80076ca <tcp_connect+0xc2>
 80076be:	4a1b      	ldr	r2, [pc, #108]	; (800772c <tcp_connect+0x124>)
 80076c0:	6813      	ldr	r3, [r2, #0]
 80076c2:	42a3      	cmp	r3, r4
 80076c4:	d11b      	bne.n	80076fe <tcp_connect+0xf6>
 80076c6:	68e3      	ldr	r3, [r4, #12]
 80076c8:	6013      	str	r3, [r2, #0]
 80076ca:	4b19      	ldr	r3, [pc, #100]	; (8007730 <tcp_connect+0x128>)
 80076cc:	681a      	ldr	r2, [r3, #0]
 80076ce:	60e2      	str	r2, [r4, #12]
 80076d0:	601c      	str	r4, [r3, #0]
 80076d2:	f003 fac7 	bl	800ac64 <tcp_timer_needed>
 80076d6:	4b17      	ldr	r3, [pc, #92]	; (8007734 <tcp_connect+0x12c>)
 80076d8:	2201      	movs	r2, #1
 80076da:	4620      	mov	r0, r4
 80076dc:	701a      	strb	r2, [r3, #0]
 80076de:	f002 ffeb 	bl	800a6b8 <tcp_output>
 80076e2:	e79e      	b.n	8007622 <tcp_connect+0x1a>
 80076e4:	1d20      	adds	r0, r4, #4
 80076e6:	f003 fff1 	bl	800b6cc <ip4_route>
 80076ea:	e7b6      	b.n	800765a <tcp_connect+0x52>
 80076ec:	f7ff fd60 	bl	80071b0 <tcp_new_port>
 80076f0:	82e0      	strh	r0, [r4, #22]
 80076f2:	2800      	cmp	r0, #0
 80076f4:	d1bb      	bne.n	800766e <tcp_connect+0x66>
 80076f6:	f06f 0501 	mvn.w	r5, #1
 80076fa:	e792      	b.n	8007622 <tcp_connect+0x1a>
 80076fc:	4613      	mov	r3, r2
 80076fe:	2b00      	cmp	r3, #0
 8007700:	d0e3      	beq.n	80076ca <tcp_connect+0xc2>
 8007702:	68da      	ldr	r2, [r3, #12]
 8007704:	42a2      	cmp	r2, r4
 8007706:	d1f9      	bne.n	80076fc <tcp_connect+0xf4>
 8007708:	68e2      	ldr	r2, [r4, #12]
 800770a:	60da      	str	r2, [r3, #12]
 800770c:	e7dd      	b.n	80076ca <tcp_connect+0xc2>
 800770e:	f06f 0503 	mvn.w	r5, #3
 8007712:	e786      	b.n	8007622 <tcp_connect+0x1a>
 8007714:	0800e4b5 	.word	0x0800e4b5
 8007718:	0800e4f0 	.word	0x0800e4f0
 800771c:	0800d51e 	.word	0x0800d51e
 8007720:	0800e509 	.word	0x0800e509
 8007724:	0800e525 	.word	0x0800e525
 8007728:	08600860 	.word	0x08600860
 800772c:	2000b550 	.word	0x2000b550
 8007730:	2000b544 	.word	0x2000b544
 8007734:	2000b540 	.word	0x2000b540

08007738 <tcp_free_ooseq>:
 8007738:	b510      	push	{r4, lr}
 800773a:	4604      	mov	r4, r0
 800773c:	6f40      	ldr	r0, [r0, #116]	; 0x74
 800773e:	b118      	cbz	r0, 8007748 <tcp_free_ooseq+0x10>
 8007740:	f7ff fe88 	bl	8007454 <tcp_segs_free>
 8007744:	2300      	movs	r3, #0
 8007746:	6763      	str	r3, [r4, #116]	; 0x74
 8007748:	bd10      	pop	{r4, pc}
	...

0800774c <tcp_pcb_purge>:
 800774c:	b510      	push	{r4, lr}
 800774e:	4604      	mov	r4, r0
 8007750:	b940      	cbnz	r0, 8007764 <tcp_pcb_purge+0x18>
 8007752:	4b14      	ldr	r3, [pc, #80]	; (80077a4 <tcp_pcb_purge+0x58>)
 8007754:	4914      	ldr	r1, [pc, #80]	; (80077a8 <tcp_pcb_purge+0x5c>)
 8007756:	4815      	ldr	r0, [pc, #84]	; (80077ac <tcp_pcb_purge+0x60>)
 8007758:	f640 0251 	movw	r2, #2129	; 0x851
 800775c:	e8bd 4010 	ldmia.w	sp!, {r4, lr}
 8007760:	f004 bfc6 	b.w	800c6f0 <iprintf>
 8007764:	7d03      	ldrb	r3, [r0, #20]
 8007766:	2b01      	cmp	r3, #1
 8007768:	d91a      	bls.n	80077a0 <tcp_pcb_purge+0x54>
 800776a:	2b0a      	cmp	r3, #10
 800776c:	d018      	beq.n	80077a0 <tcp_pcb_purge+0x54>
 800776e:	6f80      	ldr	r0, [r0, #120]	; 0x78
 8007770:	b118      	cbz	r0, 800777a <tcp_pcb_purge+0x2e>
 8007772:	f7ff fa87 	bl	8006c84 <pbuf_free>
 8007776:	2300      	movs	r3, #0
 8007778:	67a3      	str	r3, [r4, #120]	; 0x78
 800777a:	6f63      	ldr	r3, [r4, #116]	; 0x74
 800777c:	b113      	cbz	r3, 8007784 <tcp_pcb_purge+0x38>
 800777e:	4620      	mov	r0, r4
 8007780:	f7ff ffda 	bl	8007738 <tcp_free_ooseq>
 8007784:	f64f 73ff 	movw	r3, #65535	; 0xffff
 8007788:	8623      	strh	r3, [r4, #48]	; 0x30
 800778a:	6ee0      	ldr	r0, [r4, #108]	; 0x6c
 800778c:	f7ff fe62 	bl	8007454 <tcp_segs_free>
 8007790:	6f20      	ldr	r0, [r4, #112]	; 0x70
 8007792:	f7ff fe5f 	bl	8007454 <tcp_segs_free>
 8007796:	2300      	movs	r3, #0
 8007798:	e9c4 331b 	strd	r3, r3, [r4, #108]	; 0x6c
 800779c:	f8a4 3068 	strh.w	r3, [r4, #104]	; 0x68
 80077a0:	bd10      	pop	{r4, pc}
 80077a2:	bf00      	nop
 80077a4:	0800e4b5 	.word	0x0800e4b5
 80077a8:	0800e614 	.word	0x0800e614
 80077ac:	0800d51e 	.word	0x0800d51e

080077b0 <tcp_pcb_remove>:
 80077b0:	b538      	push	{r3, r4, r5, lr}
 80077b2:	4605      	mov	r5, r0
 80077b4:	460c      	mov	r4, r1
 80077b6:	b931      	cbnz	r1, 80077c6 <tcp_pcb_remove+0x16>
 80077b8:	4b28      	ldr	r3, [pc, #160]	; (800785c <tcp_pcb_remove+0xac>)
 80077ba:	4929      	ldr	r1, [pc, #164]	; (8007860 <tcp_pcb_remove+0xb0>)
 80077bc:	4829      	ldr	r0, [pc, #164]	; (8007864 <tcp_pcb_remove+0xb4>)
 80077be:	f640 0283 	movw	r2, #2179	; 0x883
 80077c2:	f004 ff95 	bl	800c6f0 <iprintf>
 80077c6:	b935      	cbnz	r5, 80077d6 <tcp_pcb_remove+0x26>
 80077c8:	4b24      	ldr	r3, [pc, #144]	; (800785c <tcp_pcb_remove+0xac>)
 80077ca:	4927      	ldr	r1, [pc, #156]	; (8007868 <tcp_pcb_remove+0xb8>)
 80077cc:	4825      	ldr	r0, [pc, #148]	; (8007864 <tcp_pcb_remove+0xb4>)
 80077ce:	f640 0284 	movw	r2, #2180	; 0x884
 80077d2:	f004 ff8d 	bl	800c6f0 <iprintf>
 80077d6:	682b      	ldr	r3, [r5, #0]
 80077d8:	42a3      	cmp	r3, r4
 80077da:	d137      	bne.n	800784c <tcp_pcb_remove+0x9c>
 80077dc:	68e3      	ldr	r3, [r4, #12]
 80077de:	602b      	str	r3, [r5, #0]
 80077e0:	2300      	movs	r3, #0
 80077e2:	60e3      	str	r3, [r4, #12]
 80077e4:	4620      	mov	r0, r4
 80077e6:	f7ff ffb1 	bl	800774c <tcp_pcb_purge>
 80077ea:	7d23      	ldrb	r3, [r4, #20]
 80077ec:	2b0a      	cmp	r3, #10
 80077ee:	d00a      	beq.n	8007806 <tcp_pcb_remove+0x56>
 80077f0:	2b01      	cmp	r3, #1
 80077f2:	d008      	beq.n	8007806 <tcp_pcb_remove+0x56>
 80077f4:	8b63      	ldrh	r3, [r4, #26]
 80077f6:	07da      	lsls	r2, r3, #31
 80077f8:	d505      	bpl.n	8007806 <tcp_pcb_remove+0x56>
 80077fa:	f043 0302 	orr.w	r3, r3, #2
 80077fe:	8363      	strh	r3, [r4, #26]
 8007800:	4620      	mov	r0, r4
 8007802:	f002 ff59 	bl	800a6b8 <tcp_output>
 8007806:	7d23      	ldrb	r3, [r4, #20]
 8007808:	2b01      	cmp	r3, #1
 800780a:	d01a      	beq.n	8007842 <tcp_pcb_remove+0x92>
 800780c:	6ee3      	ldr	r3, [r4, #108]	; 0x6c
 800780e:	b133      	cbz	r3, 800781e <tcp_pcb_remove+0x6e>
 8007810:	4b12      	ldr	r3, [pc, #72]	; (800785c <tcp_pcb_remove+0xac>)
 8007812:	4916      	ldr	r1, [pc, #88]	; (800786c <tcp_pcb_remove+0xbc>)
 8007814:	4813      	ldr	r0, [pc, #76]	; (8007864 <tcp_pcb_remove+0xb4>)
 8007816:	f640 0293 	movw	r2, #2195	; 0x893
 800781a:	f004 ff69 	bl	800c6f0 <iprintf>
 800781e:	6f23      	ldr	r3, [r4, #112]	; 0x70
 8007820:	b133      	cbz	r3, 8007830 <tcp_pcb_remove+0x80>
 8007822:	4b0e      	ldr	r3, [pc, #56]	; (800785c <tcp_pcb_remove+0xac>)
 8007824:	4912      	ldr	r1, [pc, #72]	; (8007870 <tcp_pcb_remove+0xc0>)
 8007826:	480f      	ldr	r0, [pc, #60]	; (8007864 <tcp_pcb_remove+0xb4>)
 8007828:	f640 0294 	movw	r2, #2196	; 0x894
 800782c:	f004 ff60 	bl	800c6f0 <iprintf>
 8007830:	6f63      	ldr	r3, [r4, #116]	; 0x74
 8007832:	b133      	cbz	r3, 8007842 <tcp_pcb_remove+0x92>
 8007834:	4b09      	ldr	r3, [pc, #36]	; (800785c <tcp_pcb_remove+0xac>)
 8007836:	490f      	ldr	r1, [pc, #60]	; (8007874 <tcp_pcb_remove+0xc4>)
 8007838:	480a      	ldr	r0, [pc, #40]	; (8007864 <tcp_pcb_remove+0xb4>)
 800783a:	f640 0296 	movw	r2, #2198	; 0x896
 800783e:	f004 ff57 	bl	800c6f0 <iprintf>
 8007842:	2300      	movs	r3, #0
 8007844:	7523      	strb	r3, [r4, #20]
 8007846:	82e3      	strh	r3, [r4, #22]
 8007848:	bd38      	pop	{r3, r4, r5, pc}
 800784a:	4613      	mov	r3, r2
 800784c:	2b00      	cmp	r3, #0
 800784e:	d0c7      	beq.n	80077e0 <tcp_pcb_remove+0x30>
 8007850:	68da      	ldr	r2, [r3, #12]
 8007852:	42a2      	cmp	r2, r4
 8007854:	d1f9      	bne.n	800784a <tcp_pcb_remove+0x9a>
 8007856:	68e2      	ldr	r2, [r4, #12]
 8007858:	60da      	str	r2, [r3, #12]
 800785a:	e7c1      	b.n	80077e0 <tcp_pcb_remove+0x30>
 800785c:	0800e4b5 	.word	0x0800e4b5
 8007860:	0800e62f 	.word	0x0800e62f
 8007864:	0800d51e 	.word	0x0800d51e
 8007868:	0800e64b 	.word	0x0800e64b
 800786c:	0800e66b 	.word	0x0800e66b
 8007870:	0800e683 	.word	0x0800e683
 8007874:	0800e69c 	.word	0x0800e69c

08007878 <tcp_abandon>:
 8007878:	e92d 47ff 	stmdb	sp!, {r0, r1, r2, r3, r4, r5, r6, r7, r8, r9, sl, lr}
 800787c:	460e      	mov	r6, r1
 800787e:	4604      	mov	r4, r0
 8007880:	b948      	cbnz	r0, 8007896 <tcp_abandon+0x1e>
 8007882:	4b36      	ldr	r3, [pc, #216]	; (800795c <tcp_abandon+0xe4>)
 8007884:	4936      	ldr	r1, [pc, #216]	; (8007960 <tcp_abandon+0xe8>)
 8007886:	4837      	ldr	r0, [pc, #220]	; (8007964 <tcp_abandon+0xec>)
 8007888:	f240 223d 	movw	r2, #573	; 0x23d
 800788c:	b004      	add	sp, #16
 800788e:	e8bd 47f0 	ldmia.w	sp!, {r4, r5, r6, r7, r8, r9, sl, lr}
 8007892:	f004 bf2d 	b.w	800c6f0 <iprintf>
 8007896:	7d03      	ldrb	r3, [r0, #20]
 8007898:	2b01      	cmp	r3, #1
 800789a:	d106      	bne.n	80078aa <tcp_abandon+0x32>
 800789c:	4b2f      	ldr	r3, [pc, #188]	; (800795c <tcp_abandon+0xe4>)
 800789e:	4932      	ldr	r1, [pc, #200]	; (8007968 <tcp_abandon+0xf0>)
 80078a0:	4830      	ldr	r0, [pc, #192]	; (8007964 <tcp_abandon+0xec>)
 80078a2:	f240 2241 	movw	r2, #577	; 0x241
 80078a6:	f004 ff23 	bl	800c6f0 <iprintf>
 80078aa:	7d23      	ldrb	r3, [r4, #20]
 80078ac:	2b0a      	cmp	r3, #10
 80078ae:	d109      	bne.n	80078c4 <tcp_abandon+0x4c>
 80078b0:	4621      	mov	r1, r4
 80078b2:	482e      	ldr	r0, [pc, #184]	; (800796c <tcp_abandon+0xf4>)
 80078b4:	f7ff ff7c 	bl	80077b0 <tcp_pcb_remove>
 80078b8:	4620      	mov	r0, r4
 80078ba:	b004      	add	sp, #16
 80078bc:	e8bd 47f0 	ldmia.w	sp!, {r4, r5, r6, r7, r8, r9, sl, lr}
 80078c0:	f7ff bcda 	b.w	8007278 <tcp_free>
 80078c4:	f8d4 9050 	ldr.w	r9, [r4, #80]	; 0x50
 80078c8:	f8d4 a024 	ldr.w	sl, [r4, #36]	; 0x24
 80078cc:	f8d4 7090 	ldr.w	r7, [r4, #144]	; 0x90
 80078d0:	f8d4 8010 	ldr.w	r8, [r4, #16]
 80078d4:	8ae5      	ldrh	r5, [r4, #22]
 80078d6:	b99b      	cbnz	r3, 8007900 <tcp_abandon+0x88>
 80078d8:	b13d      	cbz	r5, 80078ea <tcp_abandon+0x72>
 80078da:	4a25      	ldr	r2, [pc, #148]	; (8007970 <tcp_abandon+0xf8>)
 80078dc:	6813      	ldr	r3, [r2, #0]
 80078de:	42a3      	cmp	r3, r4
 80078e0:	d106      	bne.n	80078f0 <tcp_abandon+0x78>
 80078e2:	68e3      	ldr	r3, [r4, #12]
 80078e4:	6013      	str	r3, [r2, #0]
 80078e6:	2500      	movs	r5, #0
 80078e8:	60e5      	str	r5, [r4, #12]
 80078ea:	462e      	mov	r6, r5
 80078ec:	e00f      	b.n	800790e <tcp_abandon+0x96>
 80078ee:	4613      	mov	r3, r2
 80078f0:	2b00      	cmp	r3, #0
 80078f2:	d0f8      	beq.n	80078e6 <tcp_abandon+0x6e>
 80078f4:	68da      	ldr	r2, [r3, #12]
 80078f6:	42a2      	cmp	r2, r4
 80078f8:	d1f9      	bne.n	80078ee <tcp_abandon+0x76>
 80078fa:	68e2      	ldr	r2, [r4, #12]
 80078fc:	60da      	str	r2, [r3, #12]
 80078fe:	e7f2      	b.n	80078e6 <tcp_abandon+0x6e>
 8007900:	4621      	mov	r1, r4
 8007902:	481c      	ldr	r0, [pc, #112]	; (8007974 <tcp_abandon+0xfc>)
 8007904:	f7ff ff54 	bl	80077b0 <tcp_pcb_remove>
 8007908:	4b1b      	ldr	r3, [pc, #108]	; (8007978 <tcp_abandon+0x100>)
 800790a:	2201      	movs	r2, #1
 800790c:	701a      	strb	r2, [r3, #0]
 800790e:	6f20      	ldr	r0, [r4, #112]	; 0x70
 8007910:	b108      	cbz	r0, 8007916 <tcp_abandon+0x9e>
 8007912:	f7ff fd9f 	bl	8007454 <tcp_segs_free>
 8007916:	6ee0      	ldr	r0, [r4, #108]	; 0x6c
 8007918:	b108      	cbz	r0, 800791e <tcp_abandon+0xa6>
 800791a:	f7ff fd9b 	bl	8007454 <tcp_segs_free>
 800791e:	6f60      	ldr	r0, [r4, #116]	; 0x74
 8007920:	b108      	cbz	r0, 8007926 <tcp_abandon+0xae>
 8007922:	f7ff fd97 	bl	8007454 <tcp_segs_free>
 8007926:	b156      	cbz	r6, 800793e <tcp_abandon+0xc6>
 8007928:	8b23      	ldrh	r3, [r4, #24]
 800792a:	e9cd 5301 	strd	r5, r3, [sp, #4]
 800792e:	1d23      	adds	r3, r4, #4
 8007930:	9300      	str	r3, [sp, #0]
 8007932:	4652      	mov	r2, sl
 8007934:	4623      	mov	r3, r4
 8007936:	4649      	mov	r1, r9
 8007938:	4620      	mov	r0, r4
 800793a:	f002 fe47 	bl	800a5cc <tcp_rst>
 800793e:	4620      	mov	r0, r4
 8007940:	f7ff fc9a 	bl	8007278 <tcp_free>
 8007944:	b13f      	cbz	r7, 8007956 <tcp_abandon+0xde>
 8007946:	f06f 010c 	mvn.w	r1, #12
 800794a:	4640      	mov	r0, r8
 800794c:	463b      	mov	r3, r7
 800794e:	b004      	add	sp, #16
 8007950:	e8bd 47f0 	ldmia.w	sp!, {r4, r5, r6, r7, r8, r9, sl, lr}
 8007954:	4718      	bx	r3
 8007956:	b004      	add	sp, #16
 8007958:	e8bd 87f0 	ldmia.w	sp!, {r4, r5, r6, r7, r8, r9, sl, pc}
 800795c:	0800e4b5 	.word	0x0800e4b5
 8007960:	0800e3b7 	.word	0x0800e3b7
 8007964:	0800d51e 	.word	0x0800d51e
 8007968:	0800e3d0 	.word	0x0800e3d0
 800796c:	2000b554 	.word	0x2000b554
 8007970:	2000b550 	.word	0x2000b550
 8007974:	2000b544 	.word	0x2000b544
 8007978:	2000b540 	.word	0x2000b540

0800797c <tcp_abort>:
 800797c:	2101      	movs	r1, #1
 800797e:	f7ff bf7b 	b.w	8007878 <tcp_abandon>
	...

08007984 <tcp_netif_ip_addr_changed_pcblist>:
 8007984:	b570      	push	{r4, r5, r6, lr}
 8007986:	460c      	mov	r4, r1
 8007988:	4605      	mov	r5, r0
 800798a:	b930      	cbnz	r0, 800799a <tcp_netif_ip_addr_changed_pcblist+0x16>
 800798c:	4b09      	ldr	r3, [pc, #36]	; (80079b4 <tcp_netif_ip_addr_changed_pcblist+0x30>)
 800798e:	490a      	ldr	r1, [pc, #40]	; (80079b8 <tcp_netif_ip_addr_changed_pcblist+0x34>)
 8007990:	480a      	ldr	r0, [pc, #40]	; (80079bc <tcp_netif_ip_addr_changed_pcblist+0x38>)
 8007992:	f44f 6210 	mov.w	r2, #2304	; 0x900
 8007996:	f004 feab 	bl	800c6f0 <iprintf>
 800799a:	b904      	cbnz	r4, 800799e <tcp_netif_ip_addr_changed_pcblist+0x1a>
 800799c:	bd70      	pop	{r4, r5, r6, pc}
 800799e:	6822      	ldr	r2, [r4, #0]
 80079a0:	682b      	ldr	r3, [r5, #0]
 80079a2:	68e6      	ldr	r6, [r4, #12]
 80079a4:	429a      	cmp	r2, r3
 80079a6:	d102      	bne.n	80079ae <tcp_netif_ip_addr_changed_pcblist+0x2a>
 80079a8:	4620      	mov	r0, r4
 80079aa:	f7ff ffe7 	bl	800797c <tcp_abort>
 80079ae:	4634      	mov	r4, r6
 80079b0:	e7f3      	b.n	800799a <tcp_netif_ip_addr_changed_pcblist+0x16>
 80079b2:	bf00      	nop
 80079b4:	0800e4b5 	.word	0x0800e4b5
 80079b8:	0800e5b3 	.word	0x0800e5b3
 80079bc:	0800d51e 	.word	0x0800d51e

080079c0 <tcp_netif_ip_addr_changed>:
 80079c0:	b538      	push	{r3, r4, r5, lr}
 80079c2:	460d      	mov	r5, r1
 80079c4:	4604      	mov	r4, r0
 80079c6:	b180      	cbz	r0, 80079ea <tcp_netif_ip_addr_changed+0x2a>
 80079c8:	6803      	ldr	r3, [r0, #0]
 80079ca:	b173      	cbz	r3, 80079ea <tcp_netif_ip_addr_changed+0x2a>
 80079cc:	4b0b      	ldr	r3, [pc, #44]	; (80079fc <tcp_netif_ip_addr_changed+0x3c>)
 80079ce:	6819      	ldr	r1, [r3, #0]
 80079d0:	f7ff ffd8 	bl	8007984 <tcp_netif_ip_addr_changed_pcblist>
 80079d4:	4b0a      	ldr	r3, [pc, #40]	; (8007a00 <tcp_netif_ip_addr_changed+0x40>)
 80079d6:	4620      	mov	r0, r4
 80079d8:	6819      	ldr	r1, [r3, #0]
 80079da:	f7ff ffd3 	bl	8007984 <tcp_netif_ip_addr_changed_pcblist>
 80079de:	b125      	cbz	r5, 80079ea <tcp_netif_ip_addr_changed+0x2a>
 80079e0:	682b      	ldr	r3, [r5, #0]
 80079e2:	b113      	cbz	r3, 80079ea <tcp_netif_ip_addr_changed+0x2a>
 80079e4:	4b07      	ldr	r3, [pc, #28]	; (8007a04 <tcp_netif_ip_addr_changed+0x44>)
 80079e6:	681b      	ldr	r3, [r3, #0]
 80079e8:	b903      	cbnz	r3, 80079ec <tcp_netif_ip_addr_changed+0x2c>
 80079ea:	bd38      	pop	{r3, r4, r5, pc}
 80079ec:	6819      	ldr	r1, [r3, #0]
 80079ee:	6822      	ldr	r2, [r4, #0]
 80079f0:	4291      	cmp	r1, r2
 80079f2:	bf04      	itt	eq
 80079f4:	682a      	ldreq	r2, [r5, #0]
 80079f6:	601a      	streq	r2, [r3, #0]
 80079f8:	68db      	ldr	r3, [r3, #12]
 80079fa:	e7f5      	b.n	80079e8 <tcp_netif_ip_addr_changed+0x28>
 80079fc:	2000b544 	.word	0x2000b544
 8007a00:	2000b550 	.word	0x2000b550
 8007a04:	2000b54c 	.word	0x2000b54c

08007a08 <tcp_kill_state>:
 8007a08:	4b0c      	ldr	r3, [pc, #48]	; (8007a3c <tcp_kill_state+0x34>)
 8007a0a:	6819      	ldr	r1, [r3, #0]
 8007a0c:	4b0c      	ldr	r3, [pc, #48]	; (8007a40 <tcp_kill_state+0x38>)
 8007a0e:	b430      	push	{r4, r5}
 8007a10:	2400      	movs	r4, #0
 8007a12:	681d      	ldr	r5, [r3, #0]
 8007a14:	4622      	mov	r2, r4
 8007a16:	b921      	cbnz	r1, 8007a22 <tcp_kill_state+0x1a>
 8007a18:	b172      	cbz	r2, 8007a38 <tcp_kill_state+0x30>
 8007a1a:	4610      	mov	r0, r2
 8007a1c:	bc30      	pop	{r4, r5}
 8007a1e:	f7ff bf2b 	b.w	8007878 <tcp_abandon>
 8007a22:	7d0b      	ldrb	r3, [r1, #20]
 8007a24:	4283      	cmp	r3, r0
 8007a26:	d105      	bne.n	8007a34 <tcp_kill_state+0x2c>
 8007a28:	6a0b      	ldr	r3, [r1, #32]
 8007a2a:	1aeb      	subs	r3, r5, r3
 8007a2c:	42a3      	cmp	r3, r4
 8007a2e:	bf24      	itt	cs
 8007a30:	461c      	movcs	r4, r3
 8007a32:	460a      	movcs	r2, r1
 8007a34:	68c9      	ldr	r1, [r1, #12]
 8007a36:	e7ee      	b.n	8007a16 <tcp_kill_state+0xe>
 8007a38:	bc30      	pop	{r4, r5}
 8007a3a:	4770      	bx	lr
 8007a3c:	2000b544 	.word	0x2000b544
 8007a40:	2000b548 	.word	0x2000b548

08007a44 <tcp_alloc>:
 8007a44:	b5f8      	push	{r3, r4, r5, r6, r7, lr}
 8007a46:	4605      	mov	r5, r0
 8007a48:	2000      	movs	r0, #0
 8007a4a:	f7fe fe81 	bl	8006750 <memp_malloc>
 8007a4e:	4604      	mov	r4, r0
 8007a50:	2800      	cmp	r0, #0
 8007a52:	d136      	bne.n	8007ac2 <tcp_alloc+0x7e>
 8007a54:	4f40      	ldr	r7, [pc, #256]	; (8007b58 <tcp_alloc+0x114>)
 8007a56:	6838      	ldr	r0, [r7, #0]
 8007a58:	2800      	cmp	r0, #0
 8007a5a:	d159      	bne.n	8007b10 <tcp_alloc+0xcc>
 8007a5c:	4b3f      	ldr	r3, [pc, #252]	; (8007b5c <tcp_alloc+0x118>)
 8007a5e:	4e40      	ldr	r6, [pc, #256]	; (8007b60 <tcp_alloc+0x11c>)
 8007a60:	681b      	ldr	r3, [r3, #0]
 8007a62:	6834      	ldr	r4, [r6, #0]
 8007a64:	4601      	mov	r1, r0
 8007a66:	2b00      	cmp	r3, #0
 8007a68:	d15d      	bne.n	8007b26 <tcp_alloc+0xe2>
 8007a6a:	b108      	cbz	r0, 8007a70 <tcp_alloc+0x2c>
 8007a6c:	f7ff ff86 	bl	800797c <tcp_abort>
 8007a70:	2000      	movs	r0, #0
 8007a72:	f7fe fe6d 	bl	8006750 <memp_malloc>
 8007a76:	4604      	mov	r4, r0
 8007a78:	bb18      	cbnz	r0, 8007ac2 <tcp_alloc+0x7e>
 8007a7a:	2009      	movs	r0, #9
 8007a7c:	f7ff ffc4 	bl	8007a08 <tcp_kill_state>
 8007a80:	4620      	mov	r0, r4
 8007a82:	f7fe fe65 	bl	8006750 <memp_malloc>
 8007a86:	4604      	mov	r4, r0
 8007a88:	b9d8      	cbnz	r0, 8007ac2 <tcp_alloc+0x7e>
 8007a8a:	2008      	movs	r0, #8
 8007a8c:	f7ff ffbc 	bl	8007a08 <tcp_kill_state>
 8007a90:	4620      	mov	r0, r4
 8007a92:	f7fe fe5d 	bl	8006750 <memp_malloc>
 8007a96:	4604      	mov	r4, r0
 8007a98:	b998      	cbnz	r0, 8007ac2 <tcp_alloc+0x7e>
 8007a9a:	062b      	lsls	r3, r5, #24
 8007a9c:	d44c      	bmi.n	8007b38 <tcp_alloc+0xf4>
 8007a9e:	b15d      	cbz	r5, 8007ab8 <tcp_alloc+0x74>
 8007aa0:	462a      	mov	r2, r5
 8007aa2:	3a01      	subs	r2, #1
 8007aa4:	683b      	ldr	r3, [r7, #0]
 8007aa6:	6836      	ldr	r6, [r6, #0]
 8007aa8:	b2d2      	uxtb	r2, r2
 8007aaa:	2100      	movs	r1, #0
 8007aac:	2b00      	cmp	r3, #0
 8007aae:	d145      	bne.n	8007b3c <tcp_alloc+0xf8>
 8007ab0:	b114      	cbz	r4, 8007ab8 <tcp_alloc+0x74>
 8007ab2:	4620      	mov	r0, r4
 8007ab4:	f7ff ff62 	bl	800797c <tcp_abort>
 8007ab8:	2000      	movs	r0, #0
 8007aba:	f7fe fe49 	bl	8006750 <memp_malloc>
 8007abe:	4604      	mov	r4, r0
 8007ac0:	b320      	cbz	r0, 8007b0c <tcp_alloc+0xc8>
 8007ac2:	229c      	movs	r2, #156	; 0x9c
 8007ac4:	2100      	movs	r1, #0
 8007ac6:	4620      	mov	r0, r4
 8007ac8:	f004 fdb0 	bl	800c62c <memset>
 8007acc:	4a25      	ldr	r2, [pc, #148]	; (8007b64 <tcp_alloc+0x120>)
 8007ace:	62a2      	str	r2, [r4, #40]	; 0x28
 8007ad0:	22ff      	movs	r2, #255	; 0xff
 8007ad2:	72e2      	strb	r2, [r4, #11]
 8007ad4:	2206      	movs	r2, #6
 8007ad6:	f8a4 2040 	strh.w	r2, [r4, #64]	; 0x40
 8007ada:	87e2      	strh	r2, [r4, #62]	; 0x3e
 8007adc:	4a22      	ldr	r2, [pc, #136]	; (8007b68 <tcp_alloc+0x124>)
 8007ade:	6322      	str	r2, [r4, #48]	; 0x30
 8007ae0:	2201      	movs	r2, #1
 8007ae2:	f8a4 2048 	strh.w	r2, [r4, #72]	; 0x48
 8007ae6:	4a1e      	ldr	r2, [pc, #120]	; (8007b60 <tcp_alloc+0x11c>)
 8007ae8:	7565      	strb	r5, [r4, #21]
 8007aea:	6812      	ldr	r2, [r2, #0]
 8007aec:	6222      	str	r2, [r4, #32]
 8007aee:	f44f 6386 	mov.w	r3, #1072	; 0x430
 8007af2:	4a1e      	ldr	r2, [pc, #120]	; (8007b6c <tcp_alloc+0x128>)
 8007af4:	f8a4 3064 	strh.w	r3, [r4, #100]	; 0x64
 8007af8:	f8a4 304a 	strh.w	r3, [r4, #74]	; 0x4a
 8007afc:	4b1c      	ldr	r3, [pc, #112]	; (8007b70 <tcp_alloc+0x12c>)
 8007afe:	7812      	ldrb	r2, [r2, #0]
 8007b00:	f8c4 3084 	str.w	r3, [r4, #132]	; 0x84
 8007b04:	4b1b      	ldr	r3, [pc, #108]	; (8007b74 <tcp_alloc+0x130>)
 8007b06:	77a2      	strb	r2, [r4, #30]
 8007b08:	f8c4 3094 	str.w	r3, [r4, #148]	; 0x94
 8007b0c:	4620      	mov	r0, r4
 8007b0e:	bdf8      	pop	{r3, r4, r5, r6, r7, pc}
 8007b10:	8b43      	ldrh	r3, [r0, #26]
 8007b12:	68c4      	ldr	r4, [r0, #12]
 8007b14:	071a      	lsls	r2, r3, #28
 8007b16:	d504      	bpl.n	8007b22 <tcp_alloc+0xde>
 8007b18:	f023 0308 	bic.w	r3, r3, #8
 8007b1c:	8343      	strh	r3, [r0, #26]
 8007b1e:	f7ff fb6f 	bl	8007200 <tcp_close_shutdown_fin>
 8007b22:	4620      	mov	r0, r4
 8007b24:	e798      	b.n	8007a58 <tcp_alloc+0x14>
 8007b26:	6a1a      	ldr	r2, [r3, #32]
 8007b28:	1aa2      	subs	r2, r4, r2
 8007b2a:	428a      	cmp	r2, r1
 8007b2c:	bf34      	ite	cc
 8007b2e:	460a      	movcc	r2, r1
 8007b30:	4618      	movcs	r0, r3
 8007b32:	4611      	mov	r1, r2
 8007b34:	68db      	ldr	r3, [r3, #12]
 8007b36:	e796      	b.n	8007a66 <tcp_alloc+0x22>
 8007b38:	227f      	movs	r2, #127	; 0x7f
 8007b3a:	e7b2      	b.n	8007aa2 <tcp_alloc+0x5e>
 8007b3c:	7d5f      	ldrb	r7, [r3, #21]
 8007b3e:	4297      	cmp	r7, r2
 8007b40:	d304      	bcc.n	8007b4c <tcp_alloc+0x108>
 8007b42:	d107      	bne.n	8007b54 <tcp_alloc+0x110>
 8007b44:	6a18      	ldr	r0, [r3, #32]
 8007b46:	1a30      	subs	r0, r6, r0
 8007b48:	4288      	cmp	r0, r1
 8007b4a:	d303      	bcc.n	8007b54 <tcp_alloc+0x110>
 8007b4c:	6a19      	ldr	r1, [r3, #32]
 8007b4e:	463a      	mov	r2, r7
 8007b50:	1a71      	subs	r1, r6, r1
 8007b52:	461c      	mov	r4, r3
 8007b54:	68db      	ldr	r3, [r3, #12]
 8007b56:	e7a9      	b.n	8007aac <tcp_alloc+0x68>
 8007b58:	2000b544 	.word	0x2000b544
 8007b5c:	2000b554 	.word	0x2000b554
 8007b60:	2000b548 	.word	0x2000b548
 8007b64:	08600860 	.word	0x08600860
 8007b68:	0218ffff 	.word	0x0218ffff
 8007b6c:	20004abe 	.word	0x20004abe
 8007b70:	08007d1d 	.word	0x08007d1d
 8007b74:	006ddd00 	.word	0x006ddd00

08007b78 <tcp_new_ip_type>:
 8007b78:	2040      	movs	r0, #64	; 0x40
 8007b7a:	f7ff bf63 	b.w	8007a44 <tcp_alloc>
	...

08007b80 <tcp_close_shutdown>:
 8007b80:	b530      	push	{r4, r5, lr}
 8007b82:	460d      	mov	r5, r1
 8007b84:	b085      	sub	sp, #20
 8007b86:	4604      	mov	r4, r0
 8007b88:	b930      	cbnz	r0, 8007b98 <tcp_close_shutdown+0x18>
 8007b8a:	4b4a      	ldr	r3, [pc, #296]	; (8007cb4 <tcp_close_shutdown+0x134>)
 8007b8c:	494a      	ldr	r1, [pc, #296]	; (8007cb8 <tcp_close_shutdown+0x138>)
 8007b8e:	484b      	ldr	r0, [pc, #300]	; (8007cbc <tcp_close_shutdown+0x13c>)
 8007b90:	f44f 72af 	mov.w	r2, #350	; 0x15e
 8007b94:	f004 fdac 	bl	800c6f0 <iprintf>
 8007b98:	7d23      	ldrb	r3, [r4, #20]
 8007b9a:	2d00      	cmp	r5, #0
 8007b9c:	d03f      	beq.n	8007c1e <tcp_close_shutdown+0x9e>
 8007b9e:	2b04      	cmp	r3, #4
 8007ba0:	d001      	beq.n	8007ba6 <tcp_close_shutdown+0x26>
 8007ba2:	2b07      	cmp	r3, #7
 8007ba4:	d13b      	bne.n	8007c1e <tcp_close_shutdown+0x9e>
 8007ba6:	6fa2      	ldr	r2, [r4, #120]	; 0x78
 8007ba8:	b91a      	cbnz	r2, 8007bb2 <tcp_close_shutdown+0x32>
 8007baa:	8d22      	ldrh	r2, [r4, #40]	; 0x28
 8007bac:	f5b2 6f06 	cmp.w	r2, #2144	; 0x860
 8007bb0:	d035      	beq.n	8007c1e <tcp_close_shutdown+0x9e>
 8007bb2:	8b63      	ldrh	r3, [r4, #26]
 8007bb4:	06db      	lsls	r3, r3, #27
 8007bb6:	d406      	bmi.n	8007bc6 <tcp_close_shutdown+0x46>
 8007bb8:	4b3e      	ldr	r3, [pc, #248]	; (8007cb4 <tcp_close_shutdown+0x134>)
 8007bba:	4941      	ldr	r1, [pc, #260]	; (8007cc0 <tcp_close_shutdown+0x140>)
 8007bbc:	483f      	ldr	r0, [pc, #252]	; (8007cbc <tcp_close_shutdown+0x13c>)
 8007bbe:	f44f 72b2 	mov.w	r2, #356	; 0x164
 8007bc2:	f004 fd95 	bl	800c6f0 <iprintf>
 8007bc6:	8b23      	ldrh	r3, [r4, #24]
 8007bc8:	9302      	str	r3, [sp, #8]
 8007bca:	8ae3      	ldrh	r3, [r4, #22]
 8007bcc:	9301      	str	r3, [sp, #4]
 8007bce:	1d23      	adds	r3, r4, #4
 8007bd0:	9300      	str	r3, [sp, #0]
 8007bd2:	6a62      	ldr	r2, [r4, #36]	; 0x24
 8007bd4:	6d21      	ldr	r1, [r4, #80]	; 0x50
 8007bd6:	4623      	mov	r3, r4
 8007bd8:	4620      	mov	r0, r4
 8007bda:	f002 fcf7 	bl	800a5cc <tcp_rst>
 8007bde:	4620      	mov	r0, r4
 8007be0:	f7ff fdb4 	bl	800774c <tcp_pcb_purge>
 8007be4:	4a37      	ldr	r2, [pc, #220]	; (8007cc4 <tcp_close_shutdown+0x144>)
 8007be6:	6813      	ldr	r3, [r2, #0]
 8007be8:	42a3      	cmp	r3, r4
 8007bea:	d110      	bne.n	8007c0e <tcp_close_shutdown+0x8e>
 8007bec:	68e3      	ldr	r3, [r4, #12]
 8007bee:	6013      	str	r3, [r2, #0]
 8007bf0:	2300      	movs	r3, #0
 8007bf2:	60e3      	str	r3, [r4, #12]
 8007bf4:	4b34      	ldr	r3, [pc, #208]	; (8007cc8 <tcp_close_shutdown+0x148>)
 8007bf6:	2201      	movs	r2, #1
 8007bf8:	701a      	strb	r2, [r3, #0]
 8007bfa:	4b34      	ldr	r3, [pc, #208]	; (8007ccc <tcp_close_shutdown+0x14c>)
 8007bfc:	681b      	ldr	r3, [r3, #0]
 8007bfe:	42a3      	cmp	r3, r4
 8007c00:	d122      	bne.n	8007c48 <tcp_close_shutdown+0xc8>
 8007c02:	f001 fe75 	bl	80098f0 <tcp_trigger_input_pcb_close>
 8007c06:	2000      	movs	r0, #0
 8007c08:	b005      	add	sp, #20
 8007c0a:	bd30      	pop	{r4, r5, pc}
 8007c0c:	4613      	mov	r3, r2
 8007c0e:	2b00      	cmp	r3, #0
 8007c10:	d0ee      	beq.n	8007bf0 <tcp_close_shutdown+0x70>
 8007c12:	68da      	ldr	r2, [r3, #12]
 8007c14:	42a2      	cmp	r2, r4
 8007c16:	d1f9      	bne.n	8007c0c <tcp_close_shutdown+0x8c>
 8007c18:	68e2      	ldr	r2, [r4, #12]
 8007c1a:	60da      	str	r2, [r3, #12]
 8007c1c:	e7e8      	b.n	8007bf0 <tcp_close_shutdown+0x70>
 8007c1e:	2b01      	cmp	r3, #1
 8007c20:	d01f      	beq.n	8007c62 <tcp_close_shutdown+0xe2>
 8007c22:	d307      	bcc.n	8007c34 <tcp_close_shutdown+0xb4>
 8007c24:	2b02      	cmp	r3, #2
 8007c26:	d03d      	beq.n	8007ca4 <tcp_close_shutdown+0x124>
 8007c28:	4620      	mov	r0, r4
 8007c2a:	b005      	add	sp, #20
 8007c2c:	e8bd 4030 	ldmia.w	sp!, {r4, r5, lr}
 8007c30:	f7ff bae6 	b.w	8007200 <tcp_close_shutdown_fin>
 8007c34:	8ae3      	ldrh	r3, [r4, #22]
 8007c36:	b13b      	cbz	r3, 8007c48 <tcp_close_shutdown+0xc8>
 8007c38:	4a25      	ldr	r2, [pc, #148]	; (8007cd0 <tcp_close_shutdown+0x150>)
 8007c3a:	6813      	ldr	r3, [r2, #0]
 8007c3c:	42a3      	cmp	r3, r4
 8007c3e:	d108      	bne.n	8007c52 <tcp_close_shutdown+0xd2>
 8007c40:	68e3      	ldr	r3, [r4, #12]
 8007c42:	6013      	str	r3, [r2, #0]
 8007c44:	2300      	movs	r3, #0
 8007c46:	60e3      	str	r3, [r4, #12]
 8007c48:	4620      	mov	r0, r4
 8007c4a:	f7ff fb15 	bl	8007278 <tcp_free>
 8007c4e:	e7da      	b.n	8007c06 <tcp_close_shutdown+0x86>
 8007c50:	4613      	mov	r3, r2
 8007c52:	2b00      	cmp	r3, #0
 8007c54:	d0f6      	beq.n	8007c44 <tcp_close_shutdown+0xc4>
 8007c56:	68da      	ldr	r2, [r3, #12]
 8007c58:	42a2      	cmp	r2, r4
 8007c5a:	d1f9      	bne.n	8007c50 <tcp_close_shutdown+0xd0>
 8007c5c:	68e2      	ldr	r2, [r4, #12]
 8007c5e:	60da      	str	r2, [r3, #12]
 8007c60:	e7f0      	b.n	8007c44 <tcp_close_shutdown+0xc4>
 8007c62:	491c      	ldr	r1, [pc, #112]	; (8007cd4 <tcp_close_shutdown+0x154>)
 8007c64:	2000      	movs	r0, #0
 8007c66:	f851 2023 	ldr.w	r2, [r1, r3, lsl #2]
 8007c6a:	6812      	ldr	r2, [r2, #0]
 8007c6c:	b9a2      	cbnz	r2, 8007c98 <tcp_close_shutdown+0x118>
 8007c6e:	3301      	adds	r3, #1
 8007c70:	2b04      	cmp	r3, #4
 8007c72:	d1f8      	bne.n	8007c66 <tcp_close_shutdown+0xe6>
 8007c74:	4621      	mov	r1, r4
 8007c76:	4818      	ldr	r0, [pc, #96]	; (8007cd8 <tcp_close_shutdown+0x158>)
 8007c78:	f7ff fd9a 	bl	80077b0 <tcp_pcb_remove>
 8007c7c:	7d23      	ldrb	r3, [r4, #20]
 8007c7e:	2b01      	cmp	r3, #1
 8007c80:	d105      	bne.n	8007c8e <tcp_close_shutdown+0x10e>
 8007c82:	4b0c      	ldr	r3, [pc, #48]	; (8007cb4 <tcp_close_shutdown+0x134>)
 8007c84:	4915      	ldr	r1, [pc, #84]	; (8007cdc <tcp_close_shutdown+0x15c>)
 8007c86:	480d      	ldr	r0, [pc, #52]	; (8007cbc <tcp_close_shutdown+0x13c>)
 8007c88:	22df      	movs	r2, #223	; 0xdf
 8007c8a:	f004 fd31 	bl	800c6f0 <iprintf>
 8007c8e:	4621      	mov	r1, r4
 8007c90:	2001      	movs	r0, #1
 8007c92:	f7fe fd79 	bl	8006788 <memp_free>
 8007c96:	e7b6      	b.n	8007c06 <tcp_close_shutdown+0x86>
 8007c98:	6fd5      	ldr	r5, [r2, #124]	; 0x7c
 8007c9a:	42ac      	cmp	r4, r5
 8007c9c:	bf08      	it	eq
 8007c9e:	67d0      	streq	r0, [r2, #124]	; 0x7c
 8007ca0:	68d2      	ldr	r2, [r2, #12]
 8007ca2:	e7e3      	b.n	8007c6c <tcp_close_shutdown+0xec>
 8007ca4:	4621      	mov	r1, r4
 8007ca6:	4807      	ldr	r0, [pc, #28]	; (8007cc4 <tcp_close_shutdown+0x144>)
 8007ca8:	f7ff fd82 	bl	80077b0 <tcp_pcb_remove>
 8007cac:	4b06      	ldr	r3, [pc, #24]	; (8007cc8 <tcp_close_shutdown+0x148>)
 8007cae:	2201      	movs	r2, #1
 8007cb0:	701a      	strb	r2, [r3, #0]
 8007cb2:	e7c9      	b.n	8007c48 <tcp_close_shutdown+0xc8>
 8007cb4:	0800e4b5 	.word	0x0800e4b5
 8007cb8:	0800e463 	.word	0x0800e463
 8007cbc:	0800d51e 	.word	0x0800d51e
 8007cc0:	0800e483 	.word	0x0800e483
 8007cc4:	2000b544 	.word	0x2000b544
 8007cc8:	2000b540 	.word	0x2000b540
 8007ccc:	2000b558 	.word	0x2000b558
 8007cd0:	2000b550 	.word	0x2000b550
 8007cd4:	0800e604 	.word	0x0800e604
 8007cd8:	2000b54c 	.word	0x2000b54c
 8007cdc:	0800e49c 	.word	0x0800e49c

08007ce0 <tcp_close>:
 8007ce0:	b508      	push	{r3, lr}
 8007ce2:	b158      	cbz	r0, 8007cfc <tcp_close+0x1c>
 8007ce4:	7d03      	ldrb	r3, [r0, #20]
 8007ce6:	2b01      	cmp	r3, #1
 8007ce8:	bf1e      	ittt	ne
 8007cea:	8b43      	ldrhne	r3, [r0, #26]
 8007cec:	f043 0310 	orrne.w	r3, r3, #16
 8007cf0:	8343      	strhne	r3, [r0, #26]
 8007cf2:	2101      	movs	r1, #1
 8007cf4:	e8bd 4008 	ldmia.w	sp!, {r3, lr}
 8007cf8:	f7ff bf42 	b.w	8007b80 <tcp_close_shutdown>
 8007cfc:	4b04      	ldr	r3, [pc, #16]	; (8007d10 <tcp_close+0x30>)
 8007cfe:	4905      	ldr	r1, [pc, #20]	; (8007d14 <tcp_close+0x34>)
 8007d00:	4805      	ldr	r0, [pc, #20]	; (8007d18 <tcp_close+0x38>)
 8007d02:	f44f 72f4 	mov.w	r2, #488	; 0x1e8
 8007d06:	f004 fcf3 	bl	800c6f0 <iprintf>
 8007d0a:	f06f 000f 	mvn.w	r0, #15
 8007d0e:	bd08      	pop	{r3, pc}
 8007d10:	0800e4b5 	.word	0x0800e4b5
 8007d14:	0800e44c 	.word	0x0800e44c
 8007d18:	0800d51e 	.word	0x0800d51e

08007d1c <tcp_recv_null>:
 8007d1c:	b510      	push	{r4, lr}
 8007d1e:	4608      	mov	r0, r1
 8007d20:	4614      	mov	r4, r2
 8007d22:	b949      	cbnz	r1, 8007d38 <tcp_recv_null+0x1c>
 8007d24:	4b0c      	ldr	r3, [pc, #48]	; (8007d58 <tcp_recv_null+0x3c>)
 8007d26:	490d      	ldr	r1, [pc, #52]	; (8007d5c <tcp_recv_null+0x40>)
 8007d28:	480d      	ldr	r0, [pc, #52]	; (8007d60 <tcp_recv_null+0x44>)
 8007d2a:	f44f 62d3 	mov.w	r2, #1688	; 0x698
 8007d2e:	f004 fcdf 	bl	800c6f0 <iprintf>
 8007d32:	f06f 000f 	mvn.w	r0, #15
 8007d36:	bd10      	pop	{r4, pc}
 8007d38:	b13a      	cbz	r2, 8007d4a <tcp_recv_null+0x2e>
 8007d3a:	8911      	ldrh	r1, [r2, #8]
 8007d3c:	f7ff fb40 	bl	80073c0 <tcp_recved>
 8007d40:	4620      	mov	r0, r4
 8007d42:	f7fe ff9f 	bl	8006c84 <pbuf_free>
 8007d46:	2000      	movs	r0, #0
 8007d48:	e7f5      	b.n	8007d36 <tcp_recv_null+0x1a>
 8007d4a:	b91b      	cbnz	r3, 8007d54 <tcp_recv_null+0x38>
 8007d4c:	e8bd 4010 	ldmia.w	sp!, {r4, lr}
 8007d50:	f7ff bfc6 	b.w	8007ce0 <tcp_close>
 8007d54:	4610      	mov	r0, r2
 8007d56:	e7ee      	b.n	8007d36 <tcp_recv_null+0x1a>
 8007d58:	0800e4b5 	.word	0x0800e4b5
 8007d5c:	0800e73b 	.word	0x0800e73b
 8007d60:	0800d51e 	.word	0x0800d51e

08007d64 <tcp_process_refused_data>:
 8007d64:	b5f8      	push	{r3, r4, r5, r6, r7, lr}
 8007d66:	4604      	mov	r4, r0
 8007d68:	b950      	cbnz	r0, 8007d80 <tcp_process_refused_data+0x1c>
 8007d6a:	4b1e      	ldr	r3, [pc, #120]	; (8007de4 <tcp_process_refused_data+0x80>)
 8007d6c:	491e      	ldr	r1, [pc, #120]	; (8007de8 <tcp_process_refused_data+0x84>)
 8007d6e:	481f      	ldr	r0, [pc, #124]	; (8007dec <tcp_process_refused_data+0x88>)
 8007d70:	f240 6209 	movw	r2, #1545	; 0x609
 8007d74:	f004 fcbc 	bl	800c6f0 <iprintf>
 8007d78:	f06f 050f 	mvn.w	r5, #15
 8007d7c:	4628      	mov	r0, r5
 8007d7e:	bdf8      	pop	{r3, r4, r5, r6, r7, pc}
 8007d80:	6f86      	ldr	r6, [r0, #120]	; 0x78
 8007d82:	f8d0 5084 	ldr.w	r5, [r0, #132]	; 0x84
 8007d86:	7b77      	ldrb	r7, [r6, #13]
 8007d88:	2300      	movs	r3, #0
 8007d8a:	6783      	str	r3, [r0, #120]	; 0x78
 8007d8c:	b1dd      	cbz	r5, 8007dc6 <tcp_process_refused_data+0x62>
 8007d8e:	4601      	mov	r1, r0
 8007d90:	4632      	mov	r2, r6
 8007d92:	6900      	ldr	r0, [r0, #16]
 8007d94:	47a8      	blx	r5
 8007d96:	4605      	mov	r5, r0
 8007d98:	b9e0      	cbnz	r0, 8007dd4 <tcp_process_refused_data+0x70>
 8007d9a:	06bb      	lsls	r3, r7, #26
 8007d9c:	d5ee      	bpl.n	8007d7c <tcp_process_refused_data+0x18>
 8007d9e:	8d23      	ldrh	r3, [r4, #40]	; 0x28
 8007da0:	f8d4 6084 	ldr.w	r6, [r4, #132]	; 0x84
 8007da4:	f5b3 6f06 	cmp.w	r3, #2144	; 0x860
 8007da8:	bf1c      	itt	ne
 8007daa:	3301      	addne	r3, #1
 8007dac:	8523      	strhne	r3, [r4, #40]	; 0x28
 8007dae:	2e00      	cmp	r6, #0
 8007db0:	d0e4      	beq.n	8007d7c <tcp_process_refused_data+0x18>
 8007db2:	2300      	movs	r3, #0
 8007db4:	461a      	mov	r2, r3
 8007db6:	4621      	mov	r1, r4
 8007db8:	6920      	ldr	r0, [r4, #16]
 8007dba:	47b0      	blx	r6
 8007dbc:	300d      	adds	r0, #13
 8007dbe:	d1dd      	bne.n	8007d7c <tcp_process_refused_data+0x18>
 8007dc0:	f06f 050c 	mvn.w	r5, #12
 8007dc4:	e7da      	b.n	8007d7c <tcp_process_refused_data+0x18>
 8007dc6:	4601      	mov	r1, r0
 8007dc8:	462b      	mov	r3, r5
 8007dca:	4632      	mov	r2, r6
 8007dcc:	4628      	mov	r0, r5
 8007dce:	f7ff ffa5 	bl	8007d1c <tcp_recv_null>
 8007dd2:	e7e0      	b.n	8007d96 <tcp_process_refused_data+0x32>
 8007dd4:	f110 050d 	adds.w	r5, r0, #13
 8007dd8:	d0f2      	beq.n	8007dc0 <tcp_process_refused_data+0x5c>
 8007dda:	67a6      	str	r6, [r4, #120]	; 0x78
 8007ddc:	f06f 0504 	mvn.w	r5, #4
 8007de0:	e7cc      	b.n	8007d7c <tcp_process_refused_data+0x18>
 8007de2:	bf00      	nop
 8007de4:	0800e4b5 	.word	0x0800e4b5
 8007de8:	0800e6ee 	.word	0x0800e6ee
 8007dec:	0800d51e 	.word	0x0800d51e

08007df0 <tcp_fasttmr>:
 8007df0:	e92d 43f8 	stmdb	sp!, {r3, r4, r5, r6, r7, r8, r9, lr}
 8007df4:	4d1b      	ldr	r5, [pc, #108]	; (8007e64 <tcp_fasttmr+0x74>)
 8007df6:	4f1c      	ldr	r7, [pc, #112]	; (8007e68 <tcp_fasttmr+0x78>)
 8007df8:	782b      	ldrb	r3, [r5, #0]
 8007dfa:	4e1c      	ldr	r6, [pc, #112]	; (8007e6c <tcp_fasttmr+0x7c>)
 8007dfc:	3301      	adds	r3, #1
 8007dfe:	702b      	strb	r3, [r5, #0]
 8007e00:	683c      	ldr	r4, [r7, #0]
 8007e02:	f04f 0800 	mov.w	r8, #0
 8007e06:	b90c      	cbnz	r4, 8007e0c <tcp_fasttmr+0x1c>
 8007e08:	e8bd 83f8 	ldmia.w	sp!, {r3, r4, r5, r6, r7, r8, r9, pc}
 8007e0c:	782b      	ldrb	r3, [r5, #0]
 8007e0e:	7fa2      	ldrb	r2, [r4, #30]
 8007e10:	429a      	cmp	r2, r3
 8007e12:	d024      	beq.n	8007e5e <tcp_fasttmr+0x6e>
 8007e14:	77a3      	strb	r3, [r4, #30]
 8007e16:	8b63      	ldrh	r3, [r4, #26]
 8007e18:	07d9      	lsls	r1, r3, #31
 8007e1a:	d509      	bpl.n	8007e30 <tcp_fasttmr+0x40>
 8007e1c:	f043 0302 	orr.w	r3, r3, #2
 8007e20:	8363      	strh	r3, [r4, #26]
 8007e22:	4620      	mov	r0, r4
 8007e24:	f002 fc48 	bl	800a6b8 <tcp_output>
 8007e28:	8b63      	ldrh	r3, [r4, #26]
 8007e2a:	f023 0303 	bic.w	r3, r3, #3
 8007e2e:	8363      	strh	r3, [r4, #26]
 8007e30:	8b63      	ldrh	r3, [r4, #26]
 8007e32:	071a      	lsls	r2, r3, #28
 8007e34:	d505      	bpl.n	8007e42 <tcp_fasttmr+0x52>
 8007e36:	f023 0308 	bic.w	r3, r3, #8
 8007e3a:	8363      	strh	r3, [r4, #26]
 8007e3c:	4620      	mov	r0, r4
 8007e3e:	f7ff f9df 	bl	8007200 <tcp_close_shutdown_fin>
 8007e42:	6fa3      	ldr	r3, [r4, #120]	; 0x78
 8007e44:	f8d4 900c 	ldr.w	r9, [r4, #12]
 8007e48:	b13b      	cbz	r3, 8007e5a <tcp_fasttmr+0x6a>
 8007e4a:	4620      	mov	r0, r4
 8007e4c:	f886 8000 	strb.w	r8, [r6]
 8007e50:	f7ff ff88 	bl	8007d64 <tcp_process_refused_data>
 8007e54:	7833      	ldrb	r3, [r6, #0]
 8007e56:	2b00      	cmp	r3, #0
 8007e58:	d1d2      	bne.n	8007e00 <tcp_fasttmr+0x10>
 8007e5a:	464c      	mov	r4, r9
 8007e5c:	e7d3      	b.n	8007e06 <tcp_fasttmr+0x16>
 8007e5e:	f8d4 900c 	ldr.w	r9, [r4, #12]
 8007e62:	e7fa      	b.n	8007e5a <tcp_fasttmr+0x6a>
 8007e64:	20004abe 	.word	0x20004abe
 8007e68:	2000b544 	.word	0x2000b544
 8007e6c:	2000b540 	.word	0x2000b540

08007e70 <tcp_shutdown>:
 8007e70:	b538      	push	{r3, r4, r5, lr}
 8007e72:	4614      	mov	r4, r2
 8007e74:	4605      	mov	r5, r0
 8007e76:	b948      	cbnz	r0, 8007e8c <tcp_shutdown+0x1c>
 8007e78:	4b15      	ldr	r3, [pc, #84]	; (8007ed0 <tcp_shutdown+0x60>)
 8007e7a:	4916      	ldr	r1, [pc, #88]	; (8007ed4 <tcp_shutdown+0x64>)
 8007e7c:	4816      	ldr	r0, [pc, #88]	; (8007ed8 <tcp_shutdown+0x68>)
 8007e7e:	f240 2207 	movw	r2, #519	; 0x207
 8007e82:	f004 fc35 	bl	800c6f0 <iprintf>
 8007e86:	f06f 000f 	mvn.w	r0, #15
 8007e8a:	bd38      	pop	{r3, r4, r5, pc}
 8007e8c:	7d02      	ldrb	r2, [r0, #20]
 8007e8e:	2a01      	cmp	r2, #1
 8007e90:	d01b      	beq.n	8007eca <tcp_shutdown+0x5a>
 8007e92:	b189      	cbz	r1, 8007eb8 <tcp_shutdown+0x48>
 8007e94:	8b43      	ldrh	r3, [r0, #26]
 8007e96:	f043 0310 	orr.w	r3, r3, #16
 8007e9a:	8343      	strh	r3, [r0, #26]
 8007e9c:	b124      	cbz	r4, 8007ea8 <tcp_shutdown+0x38>
 8007e9e:	2101      	movs	r1, #1
 8007ea0:	e8bd 4038 	ldmia.w	sp!, {r3, r4, r5, lr}
 8007ea4:	f7ff be6c 	b.w	8007b80 <tcp_close_shutdown>
 8007ea8:	6f80      	ldr	r0, [r0, #120]	; 0x78
 8007eaa:	b908      	cbnz	r0, 8007eb0 <tcp_shutdown+0x40>
 8007eac:	2000      	movs	r0, #0
 8007eae:	e7ec      	b.n	8007e8a <tcp_shutdown+0x1a>
 8007eb0:	f7fe fee8 	bl	8006c84 <pbuf_free>
 8007eb4:	67ac      	str	r4, [r5, #120]	; 0x78
 8007eb6:	e7f9      	b.n	8007eac <tcp_shutdown+0x3c>
 8007eb8:	2c00      	cmp	r4, #0
 8007eba:	d0f7      	beq.n	8007eac <tcp_shutdown+0x3c>
 8007ebc:	2a07      	cmp	r2, #7
 8007ebe:	d804      	bhi.n	8007eca <tcp_shutdown+0x5a>
 8007ec0:	2301      	movs	r3, #1
 8007ec2:	4093      	lsls	r3, r2
 8007ec4:	f013 0f98 	tst.w	r3, #152	; 0x98
 8007ec8:	d1ea      	bne.n	8007ea0 <tcp_shutdown+0x30>
 8007eca:	f06f 000a 	mvn.w	r0, #10
 8007ece:	e7dc      	b.n	8007e8a <tcp_shutdown+0x1a>
 8007ed0:	0800e4b5 	.word	0x0800e4b5
 8007ed4:	0800e7d5 	.word	0x0800e7d5
 8007ed8:	0800d51e 	.word	0x0800d51e

08007edc <tcp_slowtmr>:
 8007edc:	e92d 4ff0 	stmdb	sp!, {r4, r5, r6, r7, r8, r9, sl, fp, lr}
 8007ee0:	4e95      	ldr	r6, [pc, #596]	; (8008138 <tcp_slowtmr+0x25c>)
 8007ee2:	f8df a288 	ldr.w	sl, [pc, #648]	; 800816c <tcp_slowtmr+0x290>
 8007ee6:	6833      	ldr	r3, [r6, #0]
 8007ee8:	3301      	adds	r3, #1
 8007eea:	6033      	str	r3, [r6, #0]
 8007eec:	4b93      	ldr	r3, [pc, #588]	; (800813c <tcp_slowtmr+0x260>)
 8007eee:	781a      	ldrb	r2, [r3, #0]
 8007ef0:	b087      	sub	sp, #28
 8007ef2:	3201      	adds	r2, #1
 8007ef4:	701a      	strb	r2, [r3, #0]
 8007ef6:	9304      	str	r3, [sp, #16]
 8007ef8:	4b91      	ldr	r3, [pc, #580]	; (8008140 <tcp_slowtmr+0x264>)
 8007efa:	4f92      	ldr	r7, [pc, #584]	; (8008144 <tcp_slowtmr+0x268>)
 8007efc:	681c      	ldr	r4, [r3, #0]
 8007efe:	f04f 0900 	mov.w	r9, #0
 8007f02:	4698      	mov	r8, r3
 8007f04:	b96c      	cbnz	r4, 8007f22 <tcp_slowtmr+0x46>
 8007f06:	4f90      	ldr	r7, [pc, #576]	; (8008148 <tcp_slowtmr+0x26c>)
 8007f08:	f8df 8238 	ldr.w	r8, [pc, #568]	; 8008144 <tcp_slowtmr+0x268>
 8007f0c:	683d      	ldr	r5, [r7, #0]
 8007f0e:	f8df a260 	ldr.w	sl, [pc, #608]	; 8008170 <tcp_slowtmr+0x294>
 8007f12:	f8df 923c 	ldr.w	r9, [pc, #572]	; 8008150 <tcp_slowtmr+0x274>
 8007f16:	2d00      	cmp	r5, #0
 8007f18:	f040 81c6 	bne.w	80082a8 <tcp_slowtmr+0x3cc>
 8007f1c:	b007      	add	sp, #28
 8007f1e:	e8bd 8ff0 	ldmia.w	sp!, {r4, r5, r6, r7, r8, r9, sl, fp, pc}
 8007f22:	7d23      	ldrb	r3, [r4, #20]
 8007f24:	b933      	cbnz	r3, 8007f34 <tcp_slowtmr+0x58>
 8007f26:	463b      	mov	r3, r7
 8007f28:	f240 42be 	movw	r2, #1214	; 0x4be
 8007f2c:	4987      	ldr	r1, [pc, #540]	; (800814c <tcp_slowtmr+0x270>)
 8007f2e:	4888      	ldr	r0, [pc, #544]	; (8008150 <tcp_slowtmr+0x274>)
 8007f30:	f004 fbde 	bl	800c6f0 <iprintf>
 8007f34:	7d23      	ldrb	r3, [r4, #20]
 8007f36:	2b01      	cmp	r3, #1
 8007f38:	d106      	bne.n	8007f48 <tcp_slowtmr+0x6c>
 8007f3a:	463b      	mov	r3, r7
 8007f3c:	f240 42bf 	movw	r2, #1215	; 0x4bf
 8007f40:	4984      	ldr	r1, [pc, #528]	; (8008154 <tcp_slowtmr+0x278>)
 8007f42:	4883      	ldr	r0, [pc, #524]	; (8008150 <tcp_slowtmr+0x274>)
 8007f44:	f004 fbd4 	bl	800c6f0 <iprintf>
 8007f48:	7d23      	ldrb	r3, [r4, #20]
 8007f4a:	2b0a      	cmp	r3, #10
 8007f4c:	d106      	bne.n	8007f5c <tcp_slowtmr+0x80>
 8007f4e:	463b      	mov	r3, r7
 8007f50:	f44f 6298 	mov.w	r2, #1216	; 0x4c0
 8007f54:	4980      	ldr	r1, [pc, #512]	; (8008158 <tcp_slowtmr+0x27c>)
 8007f56:	487e      	ldr	r0, [pc, #504]	; (8008150 <tcp_slowtmr+0x274>)
 8007f58:	f004 fbca 	bl	800c6f0 <iprintf>
 8007f5c:	9b04      	ldr	r3, [sp, #16]
 8007f5e:	7fa2      	ldrb	r2, [r4, #30]
 8007f60:	781b      	ldrb	r3, [r3, #0]
 8007f62:	429a      	cmp	r2, r3
 8007f64:	d103      	bne.n	8007f6e <tcp_slowtmr+0x92>
 8007f66:	68e5      	ldr	r5, [r4, #12]
 8007f68:	46a1      	mov	r9, r4
 8007f6a:	462c      	mov	r4, r5
 8007f6c:	e7ca      	b.n	8007f04 <tcp_slowtmr+0x28>
 8007f6e:	77a3      	strb	r3, [r4, #30]
 8007f70:	7d23      	ldrb	r3, [r4, #20]
 8007f72:	f894 2042 	ldrb.w	r2, [r4, #66]	; 0x42
 8007f76:	2b02      	cmp	r3, #2
 8007f78:	d133      	bne.n	8007fe2 <tcp_slowtmr+0x106>
 8007f7a:	2a05      	cmp	r2, #5
 8007f7c:	f200 81ca 	bhi.w	8008314 <tcp_slowtmr+0x438>
 8007f80:	f894 b099 	ldrb.w	fp, [r4, #153]	; 0x99
 8007f84:	f1bb 0f00 	cmp.w	fp, #0
 8007f88:	f000 80f4 	beq.w	8008174 <tcp_slowtmr+0x298>
 8007f8c:	6f23      	ldr	r3, [r4, #112]	; 0x70
 8007f8e:	b133      	cbz	r3, 8007f9e <tcp_slowtmr+0xc2>
 8007f90:	463b      	mov	r3, r7
 8007f92:	f240 42d4 	movw	r2, #1236	; 0x4d4
 8007f96:	4971      	ldr	r1, [pc, #452]	; (800815c <tcp_slowtmr+0x280>)
 8007f98:	486d      	ldr	r0, [pc, #436]	; (8008150 <tcp_slowtmr+0x274>)
 8007f9a:	f004 fba9 	bl	800c6f0 <iprintf>
 8007f9e:	6ee3      	ldr	r3, [r4, #108]	; 0x6c
 8007fa0:	b933      	cbnz	r3, 8007fb0 <tcp_slowtmr+0xd4>
 8007fa2:	463b      	mov	r3, r7
 8007fa4:	f240 42d5 	movw	r2, #1237	; 0x4d5
 8007fa8:	496d      	ldr	r1, [pc, #436]	; (8008160 <tcp_slowtmr+0x284>)
 8007faa:	4869      	ldr	r0, [pc, #420]	; (8008150 <tcp_slowtmr+0x274>)
 8007fac:	f004 fba0 	bl	800c6f0 <iprintf>
 8007fb0:	f894 309a 	ldrb.w	r3, [r4, #154]	; 0x9a
 8007fb4:	2b0b      	cmp	r3, #11
 8007fb6:	d816      	bhi.n	8007fe6 <tcp_slowtmr+0x10a>
 8007fb8:	f894 2099 	ldrb.w	r2, [r4, #153]	; 0x99
 8007fbc:	4b69      	ldr	r3, [pc, #420]	; (8008164 <tcp_slowtmr+0x288>)
 8007fbe:	4413      	add	r3, r2
 8007fc0:	f813 2c01 	ldrb.w	r2, [r3, #-1]
 8007fc4:	f894 3098 	ldrb.w	r3, [r4, #152]	; 0x98
 8007fc8:	4293      	cmp	r3, r2
 8007fca:	bf3c      	itt	cc
 8007fcc:	3301      	addcc	r3, #1
 8007fce:	f884 3098 	strbcc.w	r3, [r4, #152]	; 0x98
 8007fd2:	f894 3098 	ldrb.w	r3, [r4, #152]	; 0x98
 8007fd6:	4293      	cmp	r3, r2
 8007fd8:	f080 808c 	bcs.w	80080f4 <tcp_slowtmr+0x218>
 8007fdc:	f04f 0b00 	mov.w	fp, #0
 8007fe0:	e003      	b.n	8007fea <tcp_slowtmr+0x10e>
 8007fe2:	2a0b      	cmp	r2, #11
 8007fe4:	d9cc      	bls.n	8007f80 <tcp_slowtmr+0xa4>
 8007fe6:	f04f 0b01 	mov.w	fp, #1
 8007fea:	7d23      	ldrb	r3, [r4, #20]
 8007fec:	2b06      	cmp	r3, #6
 8007fee:	d10b      	bne.n	8008008 <tcp_slowtmr+0x12c>
 8007ff0:	8b62      	ldrh	r2, [r4, #26]
 8007ff2:	06d2      	lsls	r2, r2, #27
 8007ff4:	d508      	bpl.n	8008008 <tcp_slowtmr+0x12c>
 8007ff6:	6832      	ldr	r2, [r6, #0]
 8007ff8:	6a21      	ldr	r1, [r4, #32]
 8007ffa:	1a52      	subs	r2, r2, r1
 8007ffc:	2a28      	cmp	r2, #40	; 0x28
 8007ffe:	bf84      	itt	hi
 8008000:	f10b 0b01 	addhi.w	fp, fp, #1
 8008004:	fa5f fb8b 	uxtbhi.w	fp, fp
 8008008:	7a65      	ldrb	r5, [r4, #9]
 800800a:	f015 0508 	ands.w	r5, r5, #8
 800800e:	d019      	beq.n	8008044 <tcp_slowtmr+0x168>
 8008010:	2b04      	cmp	r3, #4
 8008012:	d002      	beq.n	800801a <tcp_slowtmr+0x13e>
 8008014:	2b07      	cmp	r3, #7
 8008016:	f040 810f 	bne.w	8008238 <tcp_slowtmr+0x35c>
 800801a:	6831      	ldr	r1, [r6, #0]
 800801c:	6a23      	ldr	r3, [r4, #32]
 800801e:	f8d4 5094 	ldr.w	r5, [r4, #148]	; 0x94
 8008022:	1ac9      	subs	r1, r1, r3
 8008024:	f505 2224 	add.w	r2, r5, #671744	; 0xa4000
 8008028:	f602 42b8 	addw	r2, r2, #3256	; 0xcb8
 800802c:	f44f 70fa 	mov.w	r0, #500	; 0x1f4
 8008030:	fbb2 f2f0 	udiv	r2, r2, r0
 8008034:	4291      	cmp	r1, r2
 8008036:	f240 80ed 	bls.w	8008214 <tcp_slowtmr+0x338>
 800803a:	f10b 0b01 	add.w	fp, fp, #1
 800803e:	fa5f fb8b 	uxtb.w	fp, fp
 8008042:	2501      	movs	r5, #1
 8008044:	6f63      	ldr	r3, [r4, #116]	; 0x74
 8008046:	b163      	cbz	r3, 8008062 <tcp_slowtmr+0x186>
 8008048:	6833      	ldr	r3, [r6, #0]
 800804a:	6a22      	ldr	r2, [r4, #32]
 800804c:	1a9a      	subs	r2, r3, r2
 800804e:	f9b4 3040 	ldrsh.w	r3, [r4, #64]	; 0x40
 8008052:	eb03 0343 	add.w	r3, r3, r3, lsl #1
 8008056:	ebb2 0f43 	cmp.w	r2, r3, lsl #1
 800805a:	d302      	bcc.n	8008062 <tcp_slowtmr+0x186>
 800805c:	4620      	mov	r0, r4
 800805e:	f7ff fb6b 	bl	8007738 <tcp_free_ooseq>
 8008062:	7d23      	ldrb	r3, [r4, #20]
 8008064:	2b03      	cmp	r3, #3
 8008066:	f040 80e9 	bne.w	800823c <tcp_slowtmr+0x360>
 800806a:	6833      	ldr	r3, [r6, #0]
 800806c:	6a22      	ldr	r2, [r4, #32]
 800806e:	1a9b      	subs	r3, r3, r2
 8008070:	2b28      	cmp	r3, #40	; 0x28
 8008072:	d803      	bhi.n	800807c <tcp_slowtmr+0x1a0>
 8008074:	f1bb 0f00 	cmp.w	fp, #0
 8008078:	f000 80f5 	beq.w	8008266 <tcp_slowtmr+0x38a>
 800807c:	4620      	mov	r0, r4
 800807e:	f8d4 b090 	ldr.w	fp, [r4, #144]	; 0x90
 8008082:	f7ff fb63 	bl	800774c <tcp_pcb_purge>
 8008086:	f8d8 3000 	ldr.w	r3, [r8]
 800808a:	f1b9 0f00 	cmp.w	r9, #0
 800808e:	f000 80dd 	beq.w	800824c <tcp_slowtmr+0x370>
 8008092:	42a3      	cmp	r3, r4
 8008094:	d106      	bne.n	80080a4 <tcp_slowtmr+0x1c8>
 8008096:	463b      	mov	r3, r7
 8008098:	f240 526d 	movw	r2, #1389	; 0x56d
 800809c:	4932      	ldr	r1, [pc, #200]	; (8008168 <tcp_slowtmr+0x28c>)
 800809e:	482c      	ldr	r0, [pc, #176]	; (8008150 <tcp_slowtmr+0x274>)
 80080a0:	f004 fb26 	bl	800c6f0 <iprintf>
 80080a4:	68e3      	ldr	r3, [r4, #12]
 80080a6:	f8c9 300c 	str.w	r3, [r9, #12]
 80080aa:	b15d      	cbz	r5, 80080c4 <tcp_slowtmr+0x1e8>
 80080ac:	8b23      	ldrh	r3, [r4, #24]
 80080ae:	9302      	str	r3, [sp, #8]
 80080b0:	8ae3      	ldrh	r3, [r4, #22]
 80080b2:	9301      	str	r3, [sp, #4]
 80080b4:	1d23      	adds	r3, r4, #4
 80080b6:	9300      	str	r3, [sp, #0]
 80080b8:	6a62      	ldr	r2, [r4, #36]	; 0x24
 80080ba:	6d21      	ldr	r1, [r4, #80]	; 0x50
 80080bc:	4623      	mov	r3, r4
 80080be:	4620      	mov	r0, r4
 80080c0:	f002 fa84 	bl	800a5cc <tcp_rst>
 80080c4:	6923      	ldr	r3, [r4, #16]
 80080c6:	9305      	str	r3, [sp, #20]
 80080c8:	4620      	mov	r0, r4
 80080ca:	68e5      	ldr	r5, [r4, #12]
 80080cc:	f7ff f8d4 	bl	8007278 <tcp_free>
 80080d0:	2200      	movs	r2, #0
 80080d2:	f88a 2000 	strb.w	r2, [sl]
 80080d6:	f1bb 0f00 	cmp.w	fp, #0
 80080da:	d004      	beq.n	80080e6 <tcp_slowtmr+0x20a>
 80080dc:	9b05      	ldr	r3, [sp, #20]
 80080de:	f06f 010c 	mvn.w	r1, #12
 80080e2:	4618      	mov	r0, r3
 80080e4:	47d8      	blx	fp
 80080e6:	f89a 3000 	ldrb.w	r3, [sl]
 80080ea:	2b00      	cmp	r3, #0
 80080ec:	f47f af04 	bne.w	8007ef8 <tcp_slowtmr+0x1c>
 80080f0:	464c      	mov	r4, r9
 80080f2:	e739      	b.n	8007f68 <tcp_slowtmr+0x8c>
 80080f4:	f8b4 1060 	ldrh.w	r1, [r4, #96]	; 0x60
 80080f8:	4620      	mov	r0, r4
 80080fa:	b989      	cbnz	r1, 8008120 <tcp_slowtmr+0x244>
 80080fc:	f002 fce4 	bl	800aac8 <tcp_zero_window_probe>
 8008100:	2800      	cmp	r0, #0
 8008102:	f47f af6b 	bne.w	8007fdc <tcp_slowtmr+0x100>
 8008106:	f894 3099 	ldrb.w	r3, [r4, #153]	; 0x99
 800810a:	f04f 0b00 	mov.w	fp, #0
 800810e:	2b06      	cmp	r3, #6
 8008110:	f884 b098 	strb.w	fp, [r4, #152]	; 0x98
 8008114:	f63f af62 	bhi.w	8007fdc <tcp_slowtmr+0x100>
 8008118:	3301      	adds	r3, #1
 800811a:	f884 3099 	strb.w	r3, [r4, #153]	; 0x99
 800811e:	e764      	b.n	8007fea <tcp_slowtmr+0x10e>
 8008120:	f002 f80a 	bl	800a138 <tcp_split_unsent_seg>
 8008124:	2800      	cmp	r0, #0
 8008126:	d1ee      	bne.n	8008106 <tcp_slowtmr+0x22a>
 8008128:	4620      	mov	r0, r4
 800812a:	f002 fac5 	bl	800a6b8 <tcp_output>
 800812e:	2800      	cmp	r0, #0
 8008130:	f43f af54 	beq.w	8007fdc <tcp_slowtmr+0x100>
 8008134:	e7e7      	b.n	8008106 <tcp_slowtmr+0x22a>
 8008136:	bf00      	nop
 8008138:	2000b548 	.word	0x2000b548
 800813c:	20004abe 	.word	0x20004abe
 8008140:	2000b544 	.word	0x2000b544
 8008144:	0800e4b5 	.word	0x0800e4b5
 8008148:	2000b554 	.word	0x2000b554
 800814c:	0800e7ef 	.word	0x0800e7ef
 8008150:	0800d51e 	.word	0x0800d51e
 8008154:	0800e819 	.word	0x0800e819
 8008158:	0800e843 	.word	0x0800e843
 800815c:	0800e870 	.word	0x0800e870
 8008160:	0800e8a2 	.word	0x0800e8a2
 8008164:	0800e6b3 	.word	0x0800e6b3
 8008168:	0800e8d7 	.word	0x0800e8d7
 800816c:	2000b540 	.word	0x2000b540
 8008170:	0800e92c 	.word	0x0800e92c
 8008174:	f9b4 3030 	ldrsh.w	r3, [r4, #48]	; 0x30
 8008178:	2b00      	cmp	r3, #0
 800817a:	db05      	blt.n	8008188 <tcp_slowtmr+0x2ac>
 800817c:	f647 72ff 	movw	r2, #32767	; 0x7fff
 8008180:	4293      	cmp	r3, r2
 8008182:	bf1c      	itt	ne
 8008184:	3301      	addne	r3, #1
 8008186:	8623      	strhne	r3, [r4, #48]	; 0x30
 8008188:	f9b4 2030 	ldrsh.w	r2, [r4, #48]	; 0x30
 800818c:	f9b4 3040 	ldrsh.w	r3, [r4, #64]	; 0x40
 8008190:	429a      	cmp	r2, r3
 8008192:	f6ff af23 	blt.w	8007fdc <tcp_slowtmr+0x100>
 8008196:	4620      	mov	r0, r4
 8008198:	f002 f95a 	bl	800a450 <tcp_rexmit_rto_prepare>
 800819c:	b138      	cbz	r0, 80081ae <tcp_slowtmr+0x2d2>
 800819e:	6f23      	ldr	r3, [r4, #112]	; 0x70
 80081a0:	2b00      	cmp	r3, #0
 80081a2:	f47f af1b 	bne.w	8007fdc <tcp_slowtmr+0x100>
 80081a6:	6ee3      	ldr	r3, [r4, #108]	; 0x6c
 80081a8:	2b00      	cmp	r3, #0
 80081aa:	f43f af17 	beq.w	8007fdc <tcp_slowtmr+0x100>
 80081ae:	7d23      	ldrb	r3, [r4, #20]
 80081b0:	2b02      	cmp	r3, #2
 80081b2:	d014      	beq.n	80081de <tcp_slowtmr+0x302>
 80081b4:	f9b4 203c 	ldrsh.w	r2, [r4, #60]	; 0x3c
 80081b8:	f9b4 303e 	ldrsh.w	r3, [r4, #62]	; 0x3e
 80081bc:	4957      	ldr	r1, [pc, #348]	; (800831c <tcp_slowtmr+0x440>)
 80081be:	eb03 03e2 	add.w	r3, r3, r2, asr #3
 80081c2:	f894 2042 	ldrb.w	r2, [r4, #66]	; 0x42
 80081c6:	2a0c      	cmp	r2, #12
 80081c8:	bf28      	it	cs
 80081ca:	220c      	movcs	r2, #12
 80081cc:	5c8a      	ldrb	r2, [r1, r2]
 80081ce:	4093      	lsls	r3, r2
 80081d0:	f647 72ff 	movw	r2, #32767	; 0x7fff
 80081d4:	4293      	cmp	r3, r2
 80081d6:	bfa8      	it	ge
 80081d8:	4613      	movge	r3, r2
 80081da:	f8a4 3040 	strh.w	r3, [r4, #64]	; 0x40
 80081de:	f8b4 2048 	ldrh.w	r2, [r4, #72]	; 0x48
 80081e2:	f8b4 3060 	ldrh.w	r3, [r4, #96]	; 0x60
 80081e6:	8e60      	ldrh	r0, [r4, #50]	; 0x32
 80081e8:	f8a4 0048 	strh.w	r0, [r4, #72]	; 0x48
 80081ec:	4293      	cmp	r3, r2
 80081ee:	bf28      	it	cs
 80081f0:	4613      	movcs	r3, r2
 80081f2:	0042      	lsls	r2, r0, #1
 80081f4:	085b      	lsrs	r3, r3, #1
 80081f6:	b292      	uxth	r2, r2
 80081f8:	2100      	movs	r1, #0
 80081fa:	4293      	cmp	r3, r2
 80081fc:	f8a4 304a 	strh.w	r3, [r4, #74]	; 0x4a
 8008200:	8621      	strh	r1, [r4, #48]	; 0x30
 8008202:	bf38      	it	cc
 8008204:	f8a4 204a 	strhcc.w	r2, [r4, #74]	; 0x4a
 8008208:	f8a4 106a 	strh.w	r1, [r4, #106]	; 0x6a
 800820c:	4620      	mov	r0, r4
 800820e:	f002 fbfd 	bl	800aa0c <tcp_rexmit_rto_commit>
 8008212:	e6ea      	b.n	8007fea <tcp_slowtmr+0x10e>
 8008214:	f894 309b 	ldrb.w	r3, [r4, #155]	; 0x9b
 8008218:	4a41      	ldr	r2, [pc, #260]	; (8008320 <tcp_slowtmr+0x444>)
 800821a:	fb02 5303 	mla	r3, r2, r3, r5
 800821e:	fbb3 f3f0 	udiv	r3, r3, r0
 8008222:	4299      	cmp	r1, r3
 8008224:	d908      	bls.n	8008238 <tcp_slowtmr+0x35c>
 8008226:	4620      	mov	r0, r4
 8008228:	f002 fc26 	bl	800aa78 <tcp_keepalive>
 800822c:	b920      	cbnz	r0, 8008238 <tcp_slowtmr+0x35c>
 800822e:	f894 309b 	ldrb.w	r3, [r4, #155]	; 0x9b
 8008232:	3301      	adds	r3, #1
 8008234:	f884 309b 	strb.w	r3, [r4, #155]	; 0x9b
 8008238:	2500      	movs	r5, #0
 800823a:	e703      	b.n	8008044 <tcp_slowtmr+0x168>
 800823c:	2b09      	cmp	r3, #9
 800823e:	f47f af19 	bne.w	8008074 <tcp_slowtmr+0x198>
 8008242:	6833      	ldr	r3, [r6, #0]
 8008244:	6a22      	ldr	r2, [r4, #32]
 8008246:	1a9b      	subs	r3, r3, r2
 8008248:	2bf0      	cmp	r3, #240	; 0xf0
 800824a:	e712      	b.n	8008072 <tcp_slowtmr+0x196>
 800824c:	42a3      	cmp	r3, r4
 800824e:	d006      	beq.n	800825e <tcp_slowtmr+0x382>
 8008250:	463b      	mov	r3, r7
 8008252:	f240 5271 	movw	r2, #1393	; 0x571
 8008256:	4933      	ldr	r1, [pc, #204]	; (8008324 <tcp_slowtmr+0x448>)
 8008258:	4833      	ldr	r0, [pc, #204]	; (8008328 <tcp_slowtmr+0x44c>)
 800825a:	f004 fa49 	bl	800c6f0 <iprintf>
 800825e:	68e3      	ldr	r3, [r4, #12]
 8008260:	f8c8 3000 	str.w	r3, [r8]
 8008264:	e721      	b.n	80080aa <tcp_slowtmr+0x1ce>
 8008266:	7f23      	ldrb	r3, [r4, #28]
 8008268:	7f62      	ldrb	r2, [r4, #29]
 800826a:	68e5      	ldr	r5, [r4, #12]
 800826c:	3301      	adds	r3, #1
 800826e:	b2db      	uxtb	r3, r3
 8008270:	429a      	cmp	r2, r3
 8008272:	7723      	strb	r3, [r4, #28]
 8008274:	f63f ae78 	bhi.w	8007f68 <tcp_slowtmr+0x8c>
 8008278:	f8d4 308c 	ldr.w	r3, [r4, #140]	; 0x8c
 800827c:	f884 b01c 	strb.w	fp, [r4, #28]
 8008280:	f88a b000 	strb.w	fp, [sl]
 8008284:	b173      	cbz	r3, 80082a4 <tcp_slowtmr+0x3c8>
 8008286:	4621      	mov	r1, r4
 8008288:	6920      	ldr	r0, [r4, #16]
 800828a:	4798      	blx	r3
 800828c:	f89a 3000 	ldrb.w	r3, [sl]
 8008290:	2b00      	cmp	r3, #0
 8008292:	f47f ae31 	bne.w	8007ef8 <tcp_slowtmr+0x1c>
 8008296:	2800      	cmp	r0, #0
 8008298:	f47f ae66 	bne.w	8007f68 <tcp_slowtmr+0x8c>
 800829c:	4620      	mov	r0, r4
 800829e:	f002 fa0b 	bl	800a6b8 <tcp_output>
 80082a2:	e661      	b.n	8007f68 <tcp_slowtmr+0x8c>
 80082a4:	4658      	mov	r0, fp
 80082a6:	e7f1      	b.n	800828c <tcp_slowtmr+0x3b0>
 80082a8:	7d2b      	ldrb	r3, [r5, #20]
 80082aa:	2b0a      	cmp	r3, #10
 80082ac:	d006      	beq.n	80082bc <tcp_slowtmr+0x3e0>
 80082ae:	4643      	mov	r3, r8
 80082b0:	f240 52a1 	movw	r2, #1441	; 0x5a1
 80082b4:	4651      	mov	r1, sl
 80082b6:	4648      	mov	r0, r9
 80082b8:	f004 fa1a 	bl	800c6f0 <iprintf>
 80082bc:	6833      	ldr	r3, [r6, #0]
 80082be:	6a2a      	ldr	r2, [r5, #32]
 80082c0:	1a9b      	subs	r3, r3, r2
 80082c2:	2bf0      	cmp	r3, #240	; 0xf0
 80082c4:	d910      	bls.n	80082e8 <tcp_slowtmr+0x40c>
 80082c6:	4628      	mov	r0, r5
 80082c8:	f7ff fa40 	bl	800774c <tcp_pcb_purge>
 80082cc:	b97c      	cbnz	r4, 80082ee <tcp_slowtmr+0x412>
 80082ce:	683b      	ldr	r3, [r7, #0]
 80082d0:	42ab      	cmp	r3, r5
 80082d2:	d006      	beq.n	80082e2 <tcp_slowtmr+0x406>
 80082d4:	4643      	mov	r3, r8
 80082d6:	f240 52b3 	movw	r2, #1459	; 0x5b3
 80082da:	4914      	ldr	r1, [pc, #80]	; (800832c <tcp_slowtmr+0x450>)
 80082dc:	4648      	mov	r0, r9
 80082de:	f004 fa07 	bl	800c6f0 <iprintf>
 80082e2:	68eb      	ldr	r3, [r5, #12]
 80082e4:	603b      	str	r3, [r7, #0]
 80082e6:	e00e      	b.n	8008306 <tcp_slowtmr+0x42a>
 80082e8:	462c      	mov	r4, r5
 80082ea:	68ed      	ldr	r5, [r5, #12]
 80082ec:	e613      	b.n	8007f16 <tcp_slowtmr+0x3a>
 80082ee:	683b      	ldr	r3, [r7, #0]
 80082f0:	42ab      	cmp	r3, r5
 80082f2:	d106      	bne.n	8008302 <tcp_slowtmr+0x426>
 80082f4:	4643      	mov	r3, r8
 80082f6:	f240 52af 	movw	r2, #1455	; 0x5af
 80082fa:	490d      	ldr	r1, [pc, #52]	; (8008330 <tcp_slowtmr+0x454>)
 80082fc:	4648      	mov	r0, r9
 80082fe:	f004 f9f7 	bl	800c6f0 <iprintf>
 8008302:	68eb      	ldr	r3, [r5, #12]
 8008304:	60e3      	str	r3, [r4, #12]
 8008306:	f8d5 b00c 	ldr.w	fp, [r5, #12]
 800830a:	4628      	mov	r0, r5
 800830c:	f7fe ffb4 	bl	8007278 <tcp_free>
 8008310:	465d      	mov	r5, fp
 8008312:	e600      	b.n	8007f16 <tcp_slowtmr+0x3a>
 8008314:	f04f 0b01 	mov.w	fp, #1
 8008318:	e676      	b.n	8008008 <tcp_slowtmr+0x12c>
 800831a:	bf00      	nop
 800831c:	0800e401 	.word	0x0800e401
 8008320:	000124f8 	.word	0x000124f8
 8008324:	0800e902 	.word	0x0800e902
 8008328:	0800d51e 	.word	0x0800d51e
 800832c:	0800e982 	.word	0x0800e982
 8008330:	0800e95b 	.word	0x0800e95b

08008334 <tcp_tmr>:
 8008334:	b508      	push	{r3, lr}
 8008336:	f7ff fd5b 	bl	8007df0 <tcp_fasttmr>
 800833a:	4a06      	ldr	r2, [pc, #24]	; (8008354 <tcp_tmr+0x20>)
 800833c:	7813      	ldrb	r3, [r2, #0]
 800833e:	3301      	adds	r3, #1
 8008340:	b2db      	uxtb	r3, r3
 8008342:	7013      	strb	r3, [r2, #0]
 8008344:	07db      	lsls	r3, r3, #31
 8008346:	d503      	bpl.n	8008350 <tcp_tmr+0x1c>
 8008348:	e8bd 4008 	ldmia.w	sp!, {r3, lr}
 800834c:	f7ff bdc6 	b.w	8007edc <tcp_slowtmr>
 8008350:	bd08      	pop	{r3, pc}
 8008352:	bf00      	nop
 8008354:	20004abd 	.word	0x20004abd

08008358 <tcp_get_next_optbyte>:
 8008358:	4a09      	ldr	r2, [pc, #36]	; (8008380 <tcp_get_next_optbyte+0x28>)
 800835a:	8813      	ldrh	r3, [r2, #0]
 800835c:	1c59      	adds	r1, r3, #1
 800835e:	8011      	strh	r1, [r2, #0]
 8008360:	4a08      	ldr	r2, [pc, #32]	; (8008384 <tcp_get_next_optbyte+0x2c>)
 8008362:	6812      	ldr	r2, [r2, #0]
 8008364:	b11a      	cbz	r2, 800836e <tcp_get_next_optbyte+0x16>
 8008366:	4908      	ldr	r1, [pc, #32]	; (8008388 <tcp_get_next_optbyte+0x30>)
 8008368:	8809      	ldrh	r1, [r1, #0]
 800836a:	428b      	cmp	r3, r1
 800836c:	d204      	bcs.n	8008378 <tcp_get_next_optbyte+0x20>
 800836e:	4a07      	ldr	r2, [pc, #28]	; (800838c <tcp_get_next_optbyte+0x34>)
 8008370:	6812      	ldr	r2, [r2, #0]
 8008372:	4413      	add	r3, r2
 8008374:	7d18      	ldrb	r0, [r3, #20]
 8008376:	4770      	bx	lr
 8008378:	1a5b      	subs	r3, r3, r1
 800837a:	b2db      	uxtb	r3, r3
 800837c:	5cd0      	ldrb	r0, [r2, r3]
 800837e:	4770      	bx	lr
 8008380:	20004ae8 	.word	0x20004ae8
 8008384:	20004af4 	.word	0x20004af4
 8008388:	20004af0 	.word	0x20004af0
 800838c:	20004aec 	.word	0x20004aec

08008390 <tcp_oos_insert_segment>:
 8008390:	b5f8      	push	{r3, r4, r5, r6, r7, lr}
 8008392:	460c      	mov	r4, r1
 8008394:	4605      	mov	r5, r0
 8008396:	b930      	cbnz	r0, 80083a6 <tcp_oos_insert_segment+0x16>
 8008398:	4b1e      	ldr	r3, [pc, #120]	; (8008414 <tcp_oos_insert_segment+0x84>)
 800839a:	491f      	ldr	r1, [pc, #124]	; (8008418 <tcp_oos_insert_segment+0x88>)
 800839c:	481f      	ldr	r0, [pc, #124]	; (800841c <tcp_oos_insert_segment+0x8c>)
 800839e:	f240 421f 	movw	r2, #1055	; 0x41f
 80083a2:	f004 f9a5 	bl	800c6f0 <iprintf>
 80083a6:	68eb      	ldr	r3, [r5, #12]
 80083a8:	8998      	ldrh	r0, [r3, #12]
 80083aa:	f7fd fef1 	bl	8006190 <lwip_htons>
 80083ae:	07c2      	lsls	r2, r0, #31
 80083b0:	d414      	bmi.n	80083dc <tcp_oos_insert_segment+0x4c>
 80083b2:	4e1b      	ldr	r6, [pc, #108]	; (8008420 <tcp_oos_insert_segment+0x90>)
 80083b4:	68e7      	ldr	r7, [r4, #12]
 80083b6:	6830      	ldr	r0, [r6, #0]
 80083b8:	892b      	ldrh	r3, [r5, #8]
 80083ba:	6879      	ldr	r1, [r7, #4]
 80083bc:	8922      	ldrh	r2, [r4, #8]
 80083be:	4403      	add	r3, r0
 80083c0:	440a      	add	r2, r1
 80083c2:	1a9a      	subs	r2, r3, r2
 80083c4:	2a00      	cmp	r2, #0
 80083c6:	da0f      	bge.n	80083e8 <tcp_oos_insert_segment+0x58>
 80083c8:	1a5b      	subs	r3, r3, r1
 80083ca:	2b00      	cmp	r3, #0
 80083cc:	dd0a      	ble.n	80083e4 <tcp_oos_insert_segment+0x54>
 80083ce:	1a09      	subs	r1, r1, r0
 80083d0:	b289      	uxth	r1, r1
 80083d2:	8129      	strh	r1, [r5, #8]
 80083d4:	6868      	ldr	r0, [r5, #4]
 80083d6:	f7fe fd51 	bl	8006e7c <pbuf_realloc>
 80083da:	e003      	b.n	80083e4 <tcp_oos_insert_segment+0x54>
 80083dc:	4620      	mov	r0, r4
 80083de:	f7ff f839 	bl	8007454 <tcp_segs_free>
 80083e2:	2400      	movs	r4, #0
 80083e4:	602c      	str	r4, [r5, #0]
 80083e6:	bdf8      	pop	{r3, r4, r5, r6, r7, pc}
 80083e8:	89b8      	ldrh	r0, [r7, #12]
 80083ea:	f7fd fed1 	bl	8006190 <lwip_htons>
 80083ee:	07c3      	lsls	r3, r0, #31
 80083f0:	d507      	bpl.n	8008402 <tcp_oos_insert_segment+0x72>
 80083f2:	68eb      	ldr	r3, [r5, #12]
 80083f4:	2001      	movs	r0, #1
 80083f6:	899f      	ldrh	r7, [r3, #12]
 80083f8:	f7fd feca 	bl	8006190 <lwip_htons>
 80083fc:	68eb      	ldr	r3, [r5, #12]
 80083fe:	4338      	orrs	r0, r7
 8008400:	8198      	strh	r0, [r3, #12]
 8008402:	6827      	ldr	r7, [r4, #0]
 8008404:	4620      	mov	r0, r4
 8008406:	f7ff f817 	bl	8007438 <tcp_seg_free>
 800840a:	463c      	mov	r4, r7
 800840c:	2f00      	cmp	r7, #0
 800840e:	d1d1      	bne.n	80083b4 <tcp_oos_insert_segment+0x24>
 8008410:	e7e8      	b.n	80083e4 <tcp_oos_insert_segment+0x54>
 8008412:	bf00      	nop
 8008414:	0800ec21 	.word	0x0800ec21
 8008418:	0800ec53 	.word	0x0800ec53
 800841c:	0800d51e 	.word	0x0800d51e
 8008420:	20004ae4 	.word	0x20004ae4

08008424 <tcp_parseopt>:
 8008424:	b5f8      	push	{r3, r4, r5, r6, r7, lr}
 8008426:	4607      	mov	r7, r0
 8008428:	b930      	cbnz	r0, 8008438 <tcp_parseopt+0x14>
 800842a:	4b1d      	ldr	r3, [pc, #116]	; (80084a0 <tcp_parseopt+0x7c>)
 800842c:	491d      	ldr	r1, [pc, #116]	; (80084a4 <tcp_parseopt+0x80>)
 800842e:	481e      	ldr	r0, [pc, #120]	; (80084a8 <tcp_parseopt+0x84>)
 8008430:	f240 727d 	movw	r2, #1917	; 0x77d
 8008434:	f004 f95c 	bl	800c6f0 <iprintf>
 8008438:	4e1c      	ldr	r6, [pc, #112]	; (80084ac <tcp_parseopt+0x88>)
 800843a:	8833      	ldrh	r3, [r6, #0]
 800843c:	b133      	cbz	r3, 800844c <tcp_parseopt+0x28>
 800843e:	4d1c      	ldr	r5, [pc, #112]	; (80084b0 <tcp_parseopt+0x8c>)
 8008440:	2300      	movs	r3, #0
 8008442:	802b      	strh	r3, [r5, #0]
 8008444:	8834      	ldrh	r4, [r6, #0]
 8008446:	882b      	ldrh	r3, [r5, #0]
 8008448:	42a3      	cmp	r3, r4
 800844a:	d300      	bcc.n	800844e <tcp_parseopt+0x2a>
 800844c:	bdf8      	pop	{r3, r4, r5, r6, r7, pc}
 800844e:	f7ff ff83 	bl	8008358 <tcp_get_next_optbyte>
 8008452:	2801      	cmp	r0, #1
 8008454:	d0f6      	beq.n	8008444 <tcp_parseopt+0x20>
 8008456:	d3f9      	bcc.n	800844c <tcp_parseopt+0x28>
 8008458:	2802      	cmp	r0, #2
 800845a:	d117      	bne.n	800848c <tcp_parseopt+0x68>
 800845c:	f7ff ff7c 	bl	8008358 <tcp_get_next_optbyte>
 8008460:	2804      	cmp	r0, #4
 8008462:	d1f3      	bne.n	800844c <tcp_parseopt+0x28>
 8008464:	882b      	ldrh	r3, [r5, #0]
 8008466:	3301      	adds	r3, #1
 8008468:	42a3      	cmp	r3, r4
 800846a:	daef      	bge.n	800844c <tcp_parseopt+0x28>
 800846c:	f7ff ff74 	bl	8008358 <tcp_get_next_optbyte>
 8008470:	0200      	lsls	r0, r0, #8
 8008472:	b284      	uxth	r4, r0
 8008474:	f7ff ff70 	bl	8008358 <tcp_get_next_optbyte>
 8008478:	4320      	orrs	r0, r4
 800847a:	b280      	uxth	r0, r0
 800847c:	1e43      	subs	r3, r0, #1
 800847e:	f5b3 7f06 	cmp.w	r3, #536	; 0x218
 8008482:	bf28      	it	cs
 8008484:	f44f 7006 	movcs.w	r0, #536	; 0x218
 8008488:	8678      	strh	r0, [r7, #50]	; 0x32
 800848a:	e7db      	b.n	8008444 <tcp_parseopt+0x20>
 800848c:	f7ff ff64 	bl	8008358 <tcp_get_next_optbyte>
 8008490:	2801      	cmp	r0, #1
 8008492:	d9db      	bls.n	800844c <tcp_parseopt+0x28>
 8008494:	882b      	ldrh	r3, [r5, #0]
 8008496:	3b02      	subs	r3, #2
 8008498:	4418      	add	r0, r3
 800849a:	8028      	strh	r0, [r5, #0]
 800849c:	e7d2      	b.n	8008444 <tcp_parseopt+0x20>
 800849e:	bf00      	nop
 80084a0:	0800ec21 	.word	0x0800ec21
 80084a4:	0800ec78 	.word	0x0800ec78
 80084a8:	0800d51e 	.word	0x0800d51e
 80084ac:	20004af8 	.word	0x20004af8
 80084b0:	20004ae8 	.word	0x20004ae8

080084b4 <tcp_input_delayed_close>:
 80084b4:	b510      	push	{r4, lr}
 80084b6:	4604      	mov	r4, r0
 80084b8:	b930      	cbnz	r0, 80084c8 <tcp_input_delayed_close+0x14>
 80084ba:	4b0f      	ldr	r3, [pc, #60]	; (80084f8 <tcp_input_delayed_close+0x44>)
 80084bc:	490f      	ldr	r1, [pc, #60]	; (80084fc <tcp_input_delayed_close+0x48>)
 80084be:	4810      	ldr	r0, [pc, #64]	; (8008500 <tcp_input_delayed_close+0x4c>)
 80084c0:	f240 225a 	movw	r2, #602	; 0x25a
 80084c4:	f004 f914 	bl	800c6f0 <iprintf>
 80084c8:	4b0e      	ldr	r3, [pc, #56]	; (8008504 <tcp_input_delayed_close+0x50>)
 80084ca:	7818      	ldrb	r0, [r3, #0]
 80084cc:	f010 0010 	ands.w	r0, r0, #16
 80084d0:	d011      	beq.n	80084f6 <tcp_input_delayed_close+0x42>
 80084d2:	8b63      	ldrh	r3, [r4, #26]
 80084d4:	06db      	lsls	r3, r3, #27
 80084d6:	d406      	bmi.n	80084e6 <tcp_input_delayed_close+0x32>
 80084d8:	f8d4 3090 	ldr.w	r3, [r4, #144]	; 0x90
 80084dc:	b11b      	cbz	r3, 80084e6 <tcp_input_delayed_close+0x32>
 80084de:	f06f 010e 	mvn.w	r1, #14
 80084e2:	6920      	ldr	r0, [r4, #16]
 80084e4:	4798      	blx	r3
 80084e6:	4621      	mov	r1, r4
 80084e8:	4807      	ldr	r0, [pc, #28]	; (8008508 <tcp_input_delayed_close+0x54>)
 80084ea:	f7ff f961 	bl	80077b0 <tcp_pcb_remove>
 80084ee:	4620      	mov	r0, r4
 80084f0:	f7fe fec2 	bl	8007278 <tcp_free>
 80084f4:	2001      	movs	r0, #1
 80084f6:	bd10      	pop	{r4, pc}
 80084f8:	0800ec21 	.word	0x0800ec21
 80084fc:	0800ebfc 	.word	0x0800ebfc
 8008500:	0800d51e 	.word	0x0800d51e
 8008504:	20004ae0 	.word	0x20004ae0
 8008508:	2000b544 	.word	0x2000b544

0800850c <tcp_free_acked_segments.isra.2>:
 800850c:	e92d 4ff8 	stmdb	sp!, {r3, r4, r5, r6, r7, r8, r9, sl, fp, lr}
 8008510:	f8df 80a8 	ldr.w	r8, [pc, #168]	; 80085bc <tcp_free_acked_segments.isra.2+0xb0>
 8008514:	f8df 909c 	ldr.w	r9, [pc, #156]	; 80085b4 <tcp_free_acked_segments.isra.2+0xa8>
 8008518:	f8df a0a4 	ldr.w	sl, [pc, #164]	; 80085c0 <tcp_free_acked_segments.isra.2+0xb4>
 800851c:	4606      	mov	r6, r0
 800851e:	4617      	mov	r7, r2
 8008520:	460c      	mov	r4, r1
 8008522:	2c00      	cmp	r4, #0
 8008524:	d034      	beq.n	8008590 <tcp_free_acked_segments.isra.2+0x84>
 8008526:	68e3      	ldr	r3, [r4, #12]
 8008528:	6858      	ldr	r0, [r3, #4]
 800852a:	f7fd fe34 	bl	8006196 <lwip_htonl>
 800852e:	68e3      	ldr	r3, [r4, #12]
 8008530:	8925      	ldrh	r5, [r4, #8]
 8008532:	4683      	mov	fp, r0
 8008534:	8998      	ldrh	r0, [r3, #12]
 8008536:	f7fd fe2b 	bl	8006190 <lwip_htons>
 800853a:	f8d8 3000 	ldr.w	r3, [r8]
 800853e:	f010 0003 	ands.w	r0, r0, #3
 8008542:	eba5 0503 	sub.w	r5, r5, r3
 8008546:	bf18      	it	ne
 8008548:	2001      	movne	r0, #1
 800854a:	445d      	add	r5, fp
 800854c:	4405      	add	r5, r0
 800854e:	2d00      	cmp	r5, #0
 8008550:	dc1f      	bgt.n	8008592 <tcp_free_acked_segments.isra.2+0x86>
 8008552:	e9d4 5000 	ldrd	r5, r0, [r4]
 8008556:	f7fe fce9 	bl	8006f2c <pbuf_clen>
 800855a:	8833      	ldrh	r3, [r6, #0]
 800855c:	4283      	cmp	r3, r0
 800855e:	4683      	mov	fp, r0
 8008560:	d206      	bcs.n	8008570 <tcp_free_acked_segments.isra.2+0x64>
 8008562:	464b      	mov	r3, r9
 8008564:	f240 4257 	movw	r2, #1111	; 0x457
 8008568:	4651      	mov	r1, sl
 800856a:	4810      	ldr	r0, [pc, #64]	; (80085ac <tcp_free_acked_segments.isra.2+0xa0>)
 800856c:	f004 f8c0 	bl	800c6f0 <iprintf>
 8008570:	8830      	ldrh	r0, [r6, #0]
 8008572:	4a0f      	ldr	r2, [pc, #60]	; (80085b0 <tcp_free_acked_segments.isra.2+0xa4>)
 8008574:	eba0 000b 	sub.w	r0, r0, fp
 8008578:	8030      	strh	r0, [r6, #0]
 800857a:	8811      	ldrh	r1, [r2, #0]
 800857c:	8923      	ldrh	r3, [r4, #8]
 800857e:	4620      	mov	r0, r4
 8008580:	440b      	add	r3, r1
 8008582:	8013      	strh	r3, [r2, #0]
 8008584:	f7fe ff58 	bl	8007438 <tcp_seg_free>
 8008588:	8833      	ldrh	r3, [r6, #0]
 800858a:	b16b      	cbz	r3, 80085a8 <tcp_free_acked_segments.isra.2+0x9c>
 800858c:	b965      	cbnz	r5, 80085a8 <tcp_free_acked_segments.isra.2+0x9c>
 800858e:	b11f      	cbz	r7, 8008598 <tcp_free_acked_segments.isra.2+0x8c>
 8008590:	2400      	movs	r4, #0
 8008592:	4620      	mov	r0, r4
 8008594:	e8bd 8ff8 	ldmia.w	sp!, {r3, r4, r5, r6, r7, r8, r9, sl, fp, pc}
 8008598:	4b06      	ldr	r3, [pc, #24]	; (80085b4 <tcp_free_acked_segments.isra.2+0xa8>)
 800859a:	4907      	ldr	r1, [pc, #28]	; (80085b8 <tcp_free_acked_segments.isra.2+0xac>)
 800859c:	4803      	ldr	r0, [pc, #12]	; (80085ac <tcp_free_acked_segments.isra.2+0xa0>)
 800859e:	f240 4262 	movw	r2, #1122	; 0x462
 80085a2:	f004 f8a5 	bl	800c6f0 <iprintf>
 80085a6:	e7f3      	b.n	8008590 <tcp_free_acked_segments.isra.2+0x84>
 80085a8:	462c      	mov	r4, r5
 80085aa:	e7ba      	b.n	8008522 <tcp_free_acked_segments.isra.2+0x16>
 80085ac:	0800d51e 	.word	0x0800d51e
 80085b0:	20004ad8 	.word	0x20004ad8
 80085b4:	0800ec21 	.word	0x0800ec21
 80085b8:	0800ea0e 	.word	0x0800ea0e
 80085bc:	20004ac0 	.word	0x20004ac0
 80085c0:	0800e9e6 	.word	0x0800e9e6

080085c4 <tcp_receive>:
 80085c4:	e92d 4ff8 	stmdb	sp!, {r3, r4, r5, r6, r7, r8, r9, sl, fp, lr}
 80085c8:	4604      	mov	r4, r0
 80085ca:	b930      	cbnz	r0, 80085da <tcp_receive+0x16>
 80085cc:	4b39      	ldr	r3, [pc, #228]	; (80086b4 <tcp_receive+0xf0>)
 80085ce:	493a      	ldr	r1, [pc, #232]	; (80086b8 <tcp_receive+0xf4>)
 80085d0:	483a      	ldr	r0, [pc, #232]	; (80086bc <tcp_receive+0xf8>)
 80085d2:	f240 427b 	movw	r2, #1147	; 0x47b
 80085d6:	f004 f88b 	bl	800c6f0 <iprintf>
 80085da:	7d23      	ldrb	r3, [r4, #20]
 80085dc:	2b03      	cmp	r3, #3
 80085de:	d806      	bhi.n	80085ee <tcp_receive+0x2a>
 80085e0:	4b34      	ldr	r3, [pc, #208]	; (80086b4 <tcp_receive+0xf0>)
 80085e2:	4937      	ldr	r1, [pc, #220]	; (80086c0 <tcp_receive+0xfc>)
 80085e4:	4835      	ldr	r0, [pc, #212]	; (80086bc <tcp_receive+0xf8>)
 80085e6:	f240 427c 	movw	r2, #1148	; 0x47c
 80085ea:	f004 f881 	bl	800c6f0 <iprintf>
 80085ee:	4b35      	ldr	r3, [pc, #212]	; (80086c4 <tcp_receive+0x100>)
 80085f0:	4e35      	ldr	r6, [pc, #212]	; (80086c8 <tcp_receive+0x104>)
 80085f2:	781b      	ldrb	r3, [r3, #0]
 80085f4:	4f35      	ldr	r7, [pc, #212]	; (80086cc <tcp_receive+0x108>)
 80085f6:	f013 0f10 	tst.w	r3, #16
 80085fa:	f000 8093 	beq.w	8008724 <tcp_receive+0x160>
 80085fe:	e9d4 0c15 	ldrd	r0, ip, [r4, #84]	; 0x54
 8008602:	6833      	ldr	r3, [r6, #0]
 8008604:	4d32      	ldr	r5, [pc, #200]	; (80086d0 <tcp_receive+0x10c>)
 8008606:	f8b4 1060 	ldrh.w	r1, [r4, #96]	; 0x60
 800860a:	682a      	ldr	r2, [r5, #0]
 800860c:	eba0 0e03 	sub.w	lr, r0, r3
 8008610:	f1be 0f00 	cmp.w	lr, #0
 8008614:	46a9      	mov	r9, r5
 8008616:	db0c      	blt.n	8008632 <tcp_receive+0x6e>
 8008618:	4298      	cmp	r0, r3
 800861a:	d103      	bne.n	8008624 <tcp_receive+0x60>
 800861c:	ebac 0002 	sub.w	r0, ip, r2
 8008620:	2800      	cmp	r0, #0
 8008622:	db06      	blt.n	8008632 <tcp_receive+0x6e>
 8008624:	4594      	cmp	ip, r2
 8008626:	d111      	bne.n	800864c <tcp_receive+0x88>
 8008628:	482a      	ldr	r0, [pc, #168]	; (80086d4 <tcp_receive+0x110>)
 800862a:	6800      	ldr	r0, [r0, #0]
 800862c:	89c0      	ldrh	r0, [r0, #14]
 800862e:	4288      	cmp	r0, r1
 8008630:	d90c      	bls.n	800864c <tcp_receive+0x88>
 8008632:	4828      	ldr	r0, [pc, #160]	; (80086d4 <tcp_receive+0x110>)
 8008634:	f8b4 e062 	ldrh.w	lr, [r4, #98]	; 0x62
 8008638:	6800      	ldr	r0, [r0, #0]
 800863a:	89c0      	ldrh	r0, [r0, #14]
 800863c:	f8a4 0060 	strh.w	r0, [r4, #96]	; 0x60
 8008640:	e9c4 3215 	strd	r3, r2, [r4, #84]	; 0x54
 8008644:	4586      	cmp	lr, r0
 8008646:	bf38      	it	cc
 8008648:	f8a4 0062 	strhcc.w	r0, [r4, #98]	; 0x62
 800864c:	6c60      	ldr	r0, [r4, #68]	; 0x44
 800864e:	1a13      	subs	r3, r2, r0
 8008650:	2b00      	cmp	r3, #0
 8008652:	f300 8185 	bgt.w	8008960 <tcp_receive+0x39c>
 8008656:	883b      	ldrh	r3, [r7, #0]
 8008658:	2b00      	cmp	r3, #0
 800865a:	f040 816b 	bne.w	8008934 <tcp_receive+0x370>
 800865e:	f8b4 3060 	ldrh.w	r3, [r4, #96]	; 0x60
 8008662:	6da5      	ldr	r5, [r4, #88]	; 0x58
 8008664:	4461      	add	r1, ip
 8008666:	442b      	add	r3, r5
 8008668:	428b      	cmp	r3, r1
 800866a:	f040 8163 	bne.w	8008934 <tcp_receive+0x370>
 800866e:	f9b4 3030 	ldrsh.w	r3, [r4, #48]	; 0x30
 8008672:	2b00      	cmp	r3, #0
 8008674:	f2c0 815e 	blt.w	8008934 <tcp_receive+0x370>
 8008678:	4290      	cmp	r0, r2
 800867a:	f040 815b 	bne.w	8008934 <tcp_receive+0x370>
 800867e:	f894 3043 	ldrb.w	r3, [r4, #67]	; 0x43
 8008682:	2bff      	cmp	r3, #255	; 0xff
 8008684:	bf1c      	itt	ne
 8008686:	3301      	addne	r3, #1
 8008688:	f884 3043 	strbne.w	r3, [r4, #67]	; 0x43
 800868c:	f894 3043 	ldrb.w	r3, [r4, #67]	; 0x43
 8008690:	2b03      	cmp	r3, #3
 8008692:	d921      	bls.n	80086d8 <tcp_receive+0x114>
 8008694:	f8b4 2048 	ldrh.w	r2, [r4, #72]	; 0x48
 8008698:	8e63      	ldrh	r3, [r4, #50]	; 0x32
 800869a:	4413      	add	r3, r2
 800869c:	b29b      	uxth	r3, r3
 800869e:	429a      	cmp	r2, r3
 80086a0:	bf88      	it	hi
 80086a2:	f64f 73ff 	movwhi	r3, #65535	; 0xffff
 80086a6:	f8a4 3048 	strh.w	r3, [r4, #72]	; 0x48
 80086aa:	4620      	mov	r0, r4
 80086ac:	f001 ff56 	bl	800a55c <tcp_rexmit_fast>
 80086b0:	e013      	b.n	80086da <tcp_receive+0x116>
 80086b2:	bf00      	nop
 80086b4:	0800ec21 	.word	0x0800ec21
 80086b8:	0800ec92 	.word	0x0800ec92
 80086bc:	0800d51e 	.word	0x0800d51e
 80086c0:	0800ecab 	.word	0x0800ecab
 80086c4:	20004ac4 	.word	0x20004ac4
 80086c8:	20004ae4 	.word	0x20004ae4
 80086cc:	20004afa 	.word	0x20004afa
 80086d0:	20004ac0 	.word	0x20004ac0
 80086d4:	20004aec 	.word	0x20004aec
 80086d8:	d0e7      	beq.n	80086aa <tcp_receive+0xe6>
 80086da:	6b62      	ldr	r2, [r4, #52]	; 0x34
 80086dc:	b312      	cbz	r2, 8008724 <tcp_receive+0x160>
 80086de:	6ba3      	ldr	r3, [r4, #56]	; 0x38
 80086e0:	f8d9 1000 	ldr.w	r1, [r9]
 80086e4:	1a5b      	subs	r3, r3, r1
 80086e6:	2b00      	cmp	r3, #0
 80086e8:	da1c      	bge.n	8008724 <tcp_receive+0x160>
 80086ea:	4b94      	ldr	r3, [pc, #592]	; (800893c <tcp_receive+0x378>)
 80086ec:	f9b4 003c 	ldrsh.w	r0, [r4, #60]	; 0x3c
 80086f0:	6819      	ldr	r1, [r3, #0]
 80086f2:	1a89      	subs	r1, r1, r2
 80086f4:	eba1 01e0 	sub.w	r1, r1, r0, asr #3
 80086f8:	b289      	uxth	r1, r1
 80086fa:	b20b      	sxth	r3, r1
 80086fc:	2b00      	cmp	r3, #0
 80086fe:	f9b4 203e 	ldrsh.w	r2, [r4, #62]	; 0x3e
 8008702:	4408      	add	r0, r1
 8008704:	bfbc      	itt	lt
 8008706:	4249      	neglt	r1, r1
 8008708:	b20b      	sxthlt	r3, r1
 800870a:	eba2 02a2 	sub.w	r2, r2, r2, asr #2
 800870e:	4413      	add	r3, r2
 8008710:	b200      	sxth	r0, r0
 8008712:	b29b      	uxth	r3, r3
 8008714:	87e3      	strh	r3, [r4, #62]	; 0x3e
 8008716:	eb03 03e0 	add.w	r3, r3, r0, asr #3
 800871a:	f8a4 3040 	strh.w	r3, [r4, #64]	; 0x40
 800871e:	2300      	movs	r3, #0
 8008720:	87a0      	strh	r0, [r4, #60]	; 0x3c
 8008722:	6363      	str	r3, [r4, #52]	; 0x34
 8008724:	8838      	ldrh	r0, [r7, #0]
 8008726:	6a62      	ldr	r2, [r4, #36]	; 0x24
 8008728:	6833      	ldr	r3, [r6, #0]
 800872a:	2800      	cmp	r0, #0
 800872c:	f000 835e 	beq.w	8008dec <tcp_receive+0x828>
 8008730:	7d21      	ldrb	r1, [r4, #20]
 8008732:	2906      	cmp	r1, #6
 8008734:	f200 835a 	bhi.w	8008dec <tcp_receive+0x828>
 8008738:	1ad5      	subs	r5, r2, r3
 800873a:	2d01      	cmp	r5, #1
 800873c:	f100 81ab 	bmi.w	8008a96 <tcp_receive+0x4d2>
 8008740:	f1c3 0101 	rsb	r1, r3, #1
 8008744:	1a09      	subs	r1, r1, r0
 8008746:	4411      	add	r1, r2
 8008748:	2900      	cmp	r1, #0
 800874a:	f300 81a4 	bgt.w	8008a96 <tcp_receive+0x4d2>
 800874e:	4b7c      	ldr	r3, [pc, #496]	; (8008940 <tcp_receive+0x37c>)
 8008750:	f8d3 9004 	ldr.w	r9, [r3, #4]
 8008754:	4698      	mov	r8, r3
 8008756:	f1b9 0f00 	cmp.w	r9, #0
 800875a:	d106      	bne.n	800876a <tcp_receive+0x1a6>
 800875c:	4b79      	ldr	r3, [pc, #484]	; (8008944 <tcp_receive+0x380>)
 800875e:	497a      	ldr	r1, [pc, #488]	; (8008948 <tcp_receive+0x384>)
 8008760:	487a      	ldr	r0, [pc, #488]	; (800894c <tcp_receive+0x388>)
 8008762:	f240 5294 	movw	r2, #1428	; 0x594
 8008766:	f003 ffc3 	bl	800c6f0 <iprintf>
 800876a:	f64f 73fe 	movw	r3, #65534	; 0xfffe
 800876e:	429d      	cmp	r5, r3
 8008770:	d906      	bls.n	8008780 <tcp_receive+0x1bc>
 8008772:	4b74      	ldr	r3, [pc, #464]	; (8008944 <tcp_receive+0x380>)
 8008774:	4976      	ldr	r1, [pc, #472]	; (8008950 <tcp_receive+0x38c>)
 8008776:	4875      	ldr	r0, [pc, #468]	; (800894c <tcp_receive+0x388>)
 8008778:	f240 5295 	movw	r2, #1429	; 0x595
 800877c:	f003 ffb8 	bl	800c6f0 <iprintf>
 8008780:	f8d8 3004 	ldr.w	r3, [r8, #4]
 8008784:	891b      	ldrh	r3, [r3, #8]
 8008786:	b2ad      	uxth	r5, r5
 8008788:	42ab      	cmp	r3, r5
 800878a:	d206      	bcs.n	800879a <tcp_receive+0x1d6>
 800878c:	4b6d      	ldr	r3, [pc, #436]	; (8008944 <tcp_receive+0x380>)
 800878e:	4971      	ldr	r1, [pc, #452]	; (8008954 <tcp_receive+0x390>)
 8008790:	486e      	ldr	r0, [pc, #440]	; (800894c <tcp_receive+0x388>)
 8008792:	f240 5297 	movw	r2, #1431	; 0x597
 8008796:	f003 ffab 	bl	800c6f0 <iprintf>
 800879a:	f8b8 3008 	ldrh.w	r3, [r8, #8]
 800879e:	1b5b      	subs	r3, r3, r5
 80087a0:	f8a8 3008 	strh.w	r3, [r8, #8]
 80087a4:	f8d8 3004 	ldr.w	r3, [r8, #4]
 80087a8:	891b      	ldrh	r3, [r3, #8]
 80087aa:	1b5b      	subs	r3, r3, r5
 80087ac:	b29b      	uxth	r3, r3
 80087ae:	2100      	movs	r1, #0
 80087b0:	f8b9 200a 	ldrh.w	r2, [r9, #10]
 80087b4:	42aa      	cmp	r2, r5
 80087b6:	f0c0 8165 	bcc.w	8008a84 <tcp_receive+0x4c0>
 80087ba:	4629      	mov	r1, r5
 80087bc:	4648      	mov	r0, r9
 80087be:	f7fe fa2d 	bl	8006c1c <pbuf_remove_header>
 80087c2:	f8d8 200c 	ldr.w	r2, [r8, #12]
 80087c6:	6a63      	ldr	r3, [r4, #36]	; 0x24
 80087c8:	6033      	str	r3, [r6, #0]
 80087ca:	6053      	str	r3, [r2, #4]
 80087cc:	6833      	ldr	r3, [r6, #0]
 80087ce:	6a62      	ldr	r2, [r4, #36]	; 0x24
 80087d0:	1a99      	subs	r1, r3, r2
 80087d2:	2900      	cmp	r1, #0
 80087d4:	f2c0 8234 	blt.w	8008c40 <tcp_receive+0x67c>
 80087d8:	1c58      	adds	r0, r3, #1
 80087da:	8d25      	ldrh	r5, [r4, #40]	; 0x28
 80087dc:	1a81      	subs	r1, r0, r2
 80087de:	1b49      	subs	r1, r1, r5
 80087e0:	2900      	cmp	r1, #0
 80087e2:	f300 822d 	bgt.w	8008c40 <tcp_receive+0x67c>
 80087e6:	4293      	cmp	r3, r2
 80087e8:	f040 8224 	bne.w	8008c34 <tcp_receive+0x670>
 80087ec:	4d54      	ldr	r5, [pc, #336]	; (8008940 <tcp_receive+0x37c>)
 80087ee:	68eb      	ldr	r3, [r5, #12]
 80087f0:	f8b5 8008 	ldrh.w	r8, [r5, #8]
 80087f4:	8998      	ldrh	r0, [r3, #12]
 80087f6:	f7fd fccb 	bl	8006190 <lwip_htons>
 80087fa:	f010 0003 	ands.w	r0, r0, #3
 80087fe:	bf18      	it	ne
 8008800:	2001      	movne	r0, #1
 8008802:	4440      	add	r0, r8
 8008804:	8d23      	ldrh	r3, [r4, #40]	; 0x28
 8008806:	b280      	uxth	r0, r0
 8008808:	4283      	cmp	r3, r0
 800880a:	8038      	strh	r0, [r7, #0]
 800880c:	d242      	bcs.n	8008894 <tcp_receive+0x2d0>
 800880e:	68eb      	ldr	r3, [r5, #12]
 8008810:	8998      	ldrh	r0, [r3, #12]
 8008812:	f7fd fcbd 	bl	8006190 <lwip_htons>
 8008816:	07c2      	lsls	r2, r0, #31
 8008818:	d510      	bpl.n	800883c <tcp_receive+0x278>
 800881a:	68eb      	ldr	r3, [r5, #12]
 800881c:	f8b3 800c 	ldrh.w	r8, [r3, #12]
 8008820:	4640      	mov	r0, r8
 8008822:	f7fd fcb5 	bl	8006190 <lwip_htons>
 8008826:	f000 003e 	and.w	r0, r0, #62	; 0x3e
 800882a:	f7fd fcb1 	bl	8006190 <lwip_htons>
 800882e:	f428 587c 	bic.w	r8, r8, #16128	; 0x3f00
 8008832:	68eb      	ldr	r3, [r5, #12]
 8008834:	ea48 0800 	orr.w	r8, r8, r0
 8008838:	f8a3 800c 	strh.w	r8, [r3, #12]
 800883c:	8d23      	ldrh	r3, [r4, #40]	; 0x28
 800883e:	812b      	strh	r3, [r5, #8]
 8008840:	68eb      	ldr	r3, [r5, #12]
 8008842:	8998      	ldrh	r0, [r3, #12]
 8008844:	f7fd fca4 	bl	8006190 <lwip_htons>
 8008848:	0783      	lsls	r3, r0, #30
 800884a:	bf48      	it	mi
 800884c:	892b      	ldrhmi	r3, [r5, #8]
 800884e:	6868      	ldr	r0, [r5, #4]
 8008850:	bf44      	itt	mi
 8008852:	f103 33ff 	addmi.w	r3, r3, #4294967295
 8008856:	812b      	strhmi	r3, [r5, #8]
 8008858:	8929      	ldrh	r1, [r5, #8]
 800885a:	f7fe fb0f 	bl	8006e7c <pbuf_realloc>
 800885e:	68eb      	ldr	r3, [r5, #12]
 8008860:	f8b5 8008 	ldrh.w	r8, [r5, #8]
 8008864:	8998      	ldrh	r0, [r3, #12]
 8008866:	f7fd fc93 	bl	8006190 <lwip_htons>
 800886a:	f010 0003 	ands.w	r0, r0, #3
 800886e:	bf18      	it	ne
 8008870:	2001      	movne	r0, #1
 8008872:	6833      	ldr	r3, [r6, #0]
 8008874:	6a62      	ldr	r2, [r4, #36]	; 0x24
 8008876:	4440      	add	r0, r8
 8008878:	b280      	uxth	r0, r0
 800887a:	8038      	strh	r0, [r7, #0]
 800887c:	4418      	add	r0, r3
 800887e:	8d23      	ldrh	r3, [r4, #40]	; 0x28
 8008880:	4413      	add	r3, r2
 8008882:	4298      	cmp	r0, r3
 8008884:	d006      	beq.n	8008894 <tcp_receive+0x2d0>
 8008886:	4b2f      	ldr	r3, [pc, #188]	; (8008944 <tcp_receive+0x380>)
 8008888:	4933      	ldr	r1, [pc, #204]	; (8008958 <tcp_receive+0x394>)
 800888a:	4830      	ldr	r0, [pc, #192]	; (800894c <tcp_receive+0x388>)
 800888c:	f240 52cc 	movw	r2, #1484	; 0x5cc
 8008890:	f003 ff2e 	bl	800c6f0 <iprintf>
 8008894:	6f63      	ldr	r3, [r4, #116]	; 0x74
 8008896:	2b00      	cmp	r3, #0
 8008898:	f000 810c 	beq.w	8008ab4 <tcp_receive+0x4f0>
 800889c:	68eb      	ldr	r3, [r5, #12]
 800889e:	8998      	ldrh	r0, [r3, #12]
 80088a0:	f7fd fc76 	bl	8006190 <lwip_htons>
 80088a4:	07c0      	lsls	r0, r0, #31
 80088a6:	f100 8102 	bmi.w	8008aae <tcp_receive+0x4ea>
 80088aa:	f8d4 8074 	ldr.w	r8, [r4, #116]	; 0x74
 80088ae:	6830      	ldr	r0, [r6, #0]
 80088b0:	883b      	ldrh	r3, [r7, #0]
 80088b2:	4403      	add	r3, r0
 80088b4:	f1b8 0f00 	cmp.w	r8, #0
 80088b8:	d039      	beq.n	800892e <tcp_receive+0x36a>
 80088ba:	f8d8 c00c 	ldr.w	ip, [r8, #12]
 80088be:	f8b8 1008 	ldrh.w	r1, [r8, #8]
 80088c2:	f8dc 2004 	ldr.w	r2, [ip, #4]
 80088c6:	4411      	add	r1, r2
 80088c8:	1a59      	subs	r1, r3, r1
 80088ca:	2900      	cmp	r1, #0
 80088cc:	f280 811f 	bge.w	8008b0e <tcp_receive+0x54a>
 80088d0:	1a9b      	subs	r3, r3, r2
 80088d2:	2b00      	cmp	r3, #0
 80088d4:	dd2b      	ble.n	800892e <tcp_receive+0x36a>
 80088d6:	68eb      	ldr	r3, [r5, #12]
 80088d8:	1a12      	subs	r2, r2, r0
 80088da:	812a      	strh	r2, [r5, #8]
 80088dc:	8998      	ldrh	r0, [r3, #12]
 80088de:	f7fd fc57 	bl	8006190 <lwip_htons>
 80088e2:	0783      	lsls	r3, r0, #30
 80088e4:	bf48      	it	mi
 80088e6:	892b      	ldrhmi	r3, [r5, #8]
 80088e8:	6868      	ldr	r0, [r5, #4]
 80088ea:	bf44      	itt	mi
 80088ec:	f103 33ff 	addmi.w	r3, r3, #4294967295
 80088f0:	812b      	strhmi	r3, [r5, #8]
 80088f2:	8929      	ldrh	r1, [r5, #8]
 80088f4:	f7fe fac2 	bl	8006e7c <pbuf_realloc>
 80088f8:	68eb      	ldr	r3, [r5, #12]
 80088fa:	f8b5 9008 	ldrh.w	r9, [r5, #8]
 80088fe:	8998      	ldrh	r0, [r3, #12]
 8008900:	f7fd fc46 	bl	8006190 <lwip_htons>
 8008904:	f010 0003 	ands.w	r0, r0, #3
 8008908:	bf18      	it	ne
 800890a:	2001      	movne	r0, #1
 800890c:	6833      	ldr	r3, [r6, #0]
 800890e:	4448      	add	r0, r9
 8008910:	b280      	uxth	r0, r0
 8008912:	8038      	strh	r0, [r7, #0]
 8008914:	4418      	add	r0, r3
 8008916:	f8d8 300c 	ldr.w	r3, [r8, #12]
 800891a:	685b      	ldr	r3, [r3, #4]
 800891c:	4298      	cmp	r0, r3
 800891e:	d006      	beq.n	800892e <tcp_receive+0x36a>
 8008920:	4b08      	ldr	r3, [pc, #32]	; (8008944 <tcp_receive+0x380>)
 8008922:	490e      	ldr	r1, [pc, #56]	; (800895c <tcp_receive+0x398>)
 8008924:	4809      	ldr	r0, [pc, #36]	; (800894c <tcp_receive+0x388>)
 8008926:	f240 52fd 	movw	r2, #1533	; 0x5fd
 800892a:	f003 fee1 	bl	800c6f0 <iprintf>
 800892e:	f8c4 8074 	str.w	r8, [r4, #116]	; 0x74
 8008932:	e0bf      	b.n	8008ab4 <tcp_receive+0x4f0>
 8008934:	2300      	movs	r3, #0
 8008936:	f884 3043 	strb.w	r3, [r4, #67]	; 0x43
 800893a:	e6ce      	b.n	80086da <tcp_receive+0x116>
 800893c:	2000b548 	.word	0x2000b548
 8008940:	20004ac8 	.word	0x20004ac8
 8008944:	0800ec21 	.word	0x0800ec21
 8008948:	0800ecc4 	.word	0x0800ecc4
 800894c:	0800d51e 	.word	0x0800d51e
 8008950:	0800ecd4 	.word	0x0800ecd4
 8008954:	0800ece3 	.word	0x0800ece3
 8008958:	0800ecf3 	.word	0x0800ecf3
 800895c:	0800ed2a 	.word	0x0800ed2a
 8008960:	6d21      	ldr	r1, [r4, #80]	; 0x50
 8008962:	1a51      	subs	r1, r2, r1
 8008964:	2900      	cmp	r1, #0
 8008966:	f300 8089 	bgt.w	8008a7c <tcp_receive+0x4b8>
 800896a:	8b61      	ldrh	r1, [r4, #26]
 800896c:	0748      	lsls	r0, r1, #29
 800896e:	d509      	bpl.n	8008984 <tcp_receive+0x3c0>
 8008970:	f021 0104 	bic.w	r1, r1, #4
 8008974:	8361      	strh	r1, [r4, #26]
 8008976:	f8b4 104a 	ldrh.w	r1, [r4, #74]	; 0x4a
 800897a:	f8a4 1048 	strh.w	r1, [r4, #72]	; 0x48
 800897e:	2100      	movs	r1, #0
 8008980:	f8a4 106a 	strh.w	r1, [r4, #106]	; 0x6a
 8008984:	f9b4 c03c 	ldrsh.w	ip, [r4, #60]	; 0x3c
 8008988:	8fe1      	ldrh	r1, [r4, #62]	; 0x3e
 800898a:	6462      	str	r2, [r4, #68]	; 0x44
 800898c:	7d22      	ldrb	r2, [r4, #20]
 800898e:	2000      	movs	r0, #0
 8008990:	eb01 01ec 	add.w	r1, r1, ip, asr #3
 8008994:	2a03      	cmp	r2, #3
 8008996:	f884 0042 	strb.w	r0, [r4, #66]	; 0x42
 800899a:	f8a4 1040 	strh.w	r1, [r4, #64]	; 0x40
 800899e:	f884 0043 	strb.w	r0, [r4, #67]	; 0x43
 80089a2:	d91b      	bls.n	80089dc <tcp_receive+0x418>
 80089a4:	f8b4 1048 	ldrh.w	r1, [r4, #72]	; 0x48
 80089a8:	f8b4 204a 	ldrh.w	r2, [r4, #74]	; 0x4a
 80089ac:	428a      	cmp	r2, r1
 80089ae:	b29b      	uxth	r3, r3
 80089b0:	d93e      	bls.n	8008a30 <tcp_receive+0x46c>
 80089b2:	8b62      	ldrh	r2, [r4, #26]
 80089b4:	f412 6f00 	tst.w	r2, #2048	; 0x800
 80089b8:	8e62      	ldrh	r2, [r4, #50]	; 0x32
 80089ba:	bf0c      	ite	eq
 80089bc:	2002      	moveq	r0, #2
 80089be:	2001      	movne	r0, #1
 80089c0:	fb12 f200 	smulbb	r2, r2, r0
 80089c4:	b292      	uxth	r2, r2
 80089c6:	429a      	cmp	r2, r3
 80089c8:	bf94      	ite	ls
 80089ca:	188b      	addls	r3, r1, r2
 80089cc:	18cb      	addhi	r3, r1, r3
 80089ce:	b29b      	uxth	r3, r3
 80089d0:	4299      	cmp	r1, r3
 80089d2:	d901      	bls.n	80089d8 <tcp_receive+0x414>
 80089d4:	f64f 73ff 	movw	r3, #65535	; 0xffff
 80089d8:	f8a4 3048 	strh.w	r3, [r4, #72]	; 0x48
 80089dc:	f104 0866 	add.w	r8, r4, #102	; 0x66
 80089e0:	e9d4 211b 	ldrd	r2, r1, [r4, #108]	; 0x6c
 80089e4:	4640      	mov	r0, r8
 80089e6:	f7ff fd91 	bl	800850c <tcp_free_acked_segments.isra.2>
 80089ea:	6ee1      	ldr	r1, [r4, #108]	; 0x6c
 80089ec:	6720      	str	r0, [r4, #112]	; 0x70
 80089ee:	4602      	mov	r2, r0
 80089f0:	4640      	mov	r0, r8
 80089f2:	f7ff fd8b 	bl	800850c <tcp_free_acked_segments.isra.2>
 80089f6:	6f23      	ldr	r3, [r4, #112]	; 0x70
 80089f8:	66e0      	str	r0, [r4, #108]	; 0x6c
 80089fa:	2200      	movs	r2, #0
 80089fc:	bb63      	cbnz	r3, 8008a58 <tcp_receive+0x494>
 80089fe:	f64f 71ff 	movw	r1, #65535	; 0xffff
 8008a02:	8621      	strh	r1, [r4, #48]	; 0x30
 8008a04:	7722      	strb	r2, [r4, #28]
 8008a06:	b908      	cbnz	r0, 8008a0c <tcp_receive+0x448>
 8008a08:	f8a4 0068 	strh.w	r0, [r4, #104]	; 0x68
 8008a0c:	49a5      	ldr	r1, [pc, #660]	; (8008ca4 <tcp_receive+0x6e0>)
 8008a0e:	f8b4 2064 	ldrh.w	r2, [r4, #100]	; 0x64
 8008a12:	8809      	ldrh	r1, [r1, #0]
 8008a14:	440a      	add	r2, r1
 8008a16:	f8a4 2064 	strh.w	r2, [r4, #100]	; 0x64
 8008a1a:	8b62      	ldrh	r2, [r4, #26]
 8008a1c:	0511      	lsls	r1, r2, #20
 8008a1e:	f57f ae5c 	bpl.w	80086da <tcp_receive+0x116>
 8008a22:	bb3b      	cbnz	r3, 8008a74 <tcp_receive+0x4b0>
 8008a24:	b9d0      	cbnz	r0, 8008a5c <tcp_receive+0x498>
 8008a26:	8b63      	ldrh	r3, [r4, #26]
 8008a28:	f423 6300 	bic.w	r3, r3, #2048	; 0x800
 8008a2c:	8363      	strh	r3, [r4, #26]
 8008a2e:	e654      	b.n	80086da <tcp_receive+0x116>
 8008a30:	f8b4 206a 	ldrh.w	r2, [r4, #106]	; 0x6a
 8008a34:	4413      	add	r3, r2
 8008a36:	b29b      	uxth	r3, r3
 8008a38:	429a      	cmp	r2, r3
 8008a3a:	bf88      	it	hi
 8008a3c:	f64f 73ff 	movwhi	r3, #65535	; 0xffff
 8008a40:	f8a4 306a 	strh.w	r3, [r4, #106]	; 0x6a
 8008a44:	f8b4 306a 	ldrh.w	r3, [r4, #106]	; 0x6a
 8008a48:	4299      	cmp	r1, r3
 8008a4a:	d8c7      	bhi.n	80089dc <tcp_receive+0x418>
 8008a4c:	1a5b      	subs	r3, r3, r1
 8008a4e:	f8a4 306a 	strh.w	r3, [r4, #106]	; 0x6a
 8008a52:	8e63      	ldrh	r3, [r4, #50]	; 0x32
 8008a54:	440b      	add	r3, r1
 8008a56:	e7ba      	b.n	80089ce <tcp_receive+0x40a>
 8008a58:	8622      	strh	r2, [r4, #48]	; 0x30
 8008a5a:	e7d3      	b.n	8008a04 <tcp_receive+0x440>
 8008a5c:	f8d4 804c 	ldr.w	r8, [r4, #76]	; 0x4c
 8008a60:	68c3      	ldr	r3, [r0, #12]
 8008a62:	6858      	ldr	r0, [r3, #4]
 8008a64:	f7fd fb97 	bl	8006196 <lwip_htonl>
 8008a68:	eba8 0000 	sub.w	r0, r8, r0
 8008a6c:	2800      	cmp	r0, #0
 8008a6e:	f73f ae34 	bgt.w	80086da <tcp_receive+0x116>
 8008a72:	e7d8      	b.n	8008a26 <tcp_receive+0x462>
 8008a74:	f8d4 804c 	ldr.w	r8, [r4, #76]	; 0x4c
 8008a78:	68db      	ldr	r3, [r3, #12]
 8008a7a:	e7f2      	b.n	8008a62 <tcp_receive+0x49e>
 8008a7c:	4620      	mov	r0, r4
 8008a7e:	f001 fde9 	bl	800a654 <tcp_send_empty_ack>
 8008a82:	e62a      	b.n	80086da <tcp_receive+0x116>
 8008a84:	1aad      	subs	r5, r5, r2
 8008a86:	f8a9 3008 	strh.w	r3, [r9, #8]
 8008a8a:	f8a9 100a 	strh.w	r1, [r9, #10]
 8008a8e:	b2ad      	uxth	r5, r5
 8008a90:	f8d9 9000 	ldr.w	r9, [r9]
 8008a94:	e68c      	b.n	80087b0 <tcp_receive+0x1ec>
 8008a96:	1a9b      	subs	r3, r3, r2
 8008a98:	2b00      	cmp	r3, #0
 8008a9a:	bfbe      	ittt	lt
 8008a9c:	8b63      	ldrhlt	r3, [r4, #26]
 8008a9e:	f043 0302 	orrlt.w	r3, r3, #2
 8008aa2:	8363      	strhlt	r3, [r4, #26]
 8008aa4:	e692      	b.n	80087cc <tcp_receive+0x208>
 8008aa6:	6803      	ldr	r3, [r0, #0]
 8008aa8:	6763      	str	r3, [r4, #116]	; 0x74
 8008aaa:	f7fe fcc5 	bl	8007438 <tcp_seg_free>
 8008aae:	6f60      	ldr	r0, [r4, #116]	; 0x74
 8008ab0:	2800      	cmp	r0, #0
 8008ab2:	d1f8      	bne.n	8008aa6 <tcp_receive+0x4e2>
 8008ab4:	883a      	ldrh	r2, [r7, #0]
 8008ab6:	6833      	ldr	r3, [r6, #0]
 8008ab8:	4413      	add	r3, r2
 8008aba:	6263      	str	r3, [r4, #36]	; 0x24
 8008abc:	8d23      	ldrh	r3, [r4, #40]	; 0x28
 8008abe:	4293      	cmp	r3, r2
 8008ac0:	d206      	bcs.n	8008ad0 <tcp_receive+0x50c>
 8008ac2:	4b79      	ldr	r3, [pc, #484]	; (8008ca8 <tcp_receive+0x6e4>)
 8008ac4:	4979      	ldr	r1, [pc, #484]	; (8008cac <tcp_receive+0x6e8>)
 8008ac6:	487a      	ldr	r0, [pc, #488]	; (8008cb0 <tcp_receive+0x6ec>)
 8008ac8:	f240 6207 	movw	r2, #1543	; 0x607
 8008acc:	f003 fe10 	bl	800c6f0 <iprintf>
 8008ad0:	8d23      	ldrh	r3, [r4, #40]	; 0x28
 8008ad2:	883a      	ldrh	r2, [r7, #0]
 8008ad4:	1a9b      	subs	r3, r3, r2
 8008ad6:	8523      	strh	r3, [r4, #40]	; 0x28
 8008ad8:	4620      	mov	r0, r4
 8008ada:	f7fe fc3b 	bl	8007354 <tcp_update_rcv_ann_wnd>
 8008ade:	686b      	ldr	r3, [r5, #4]
 8008ae0:	891a      	ldrh	r2, [r3, #8]
 8008ae2:	b11a      	cbz	r2, 8008aec <tcp_receive+0x528>
 8008ae4:	4a73      	ldr	r2, [pc, #460]	; (8008cb4 <tcp_receive+0x6f0>)
 8008ae6:	6013      	str	r3, [r2, #0]
 8008ae8:	2300      	movs	r3, #0
 8008aea:	606b      	str	r3, [r5, #4]
 8008aec:	68eb      	ldr	r3, [r5, #12]
 8008aee:	8998      	ldrh	r0, [r3, #12]
 8008af0:	f7fd fb4e 	bl	8006190 <lwip_htons>
 8008af4:	07c5      	lsls	r5, r0, #31
 8008af6:	d504      	bpl.n	8008b02 <tcp_receive+0x53e>
 8008af8:	4a6f      	ldr	r2, [pc, #444]	; (8008cb8 <tcp_receive+0x6f4>)
 8008afa:	7813      	ldrb	r3, [r2, #0]
 8008afc:	f043 0320 	orr.w	r3, r3, #32
 8008b00:	7013      	strb	r3, [r2, #0]
 8008b02:	4f69      	ldr	r7, [pc, #420]	; (8008ca8 <tcp_receive+0x6e4>)
 8008b04:	f8df 81b8 	ldr.w	r8, [pc, #440]	; 8008cc0 <tcp_receive+0x6fc>
 8008b08:	f8df 91a4 	ldr.w	r9, [pc, #420]	; 8008cb0 <tcp_receive+0x6ec>
 8008b0c:	e07c      	b.n	8008c08 <tcp_receive+0x644>
 8008b0e:	f8bc 000c 	ldrh.w	r0, [ip, #12]
 8008b12:	f7fd fb3d 	bl	8006190 <lwip_htons>
 8008b16:	07c1      	lsls	r1, r0, #31
 8008b18:	d51b      	bpl.n	8008b52 <tcp_receive+0x58e>
 8008b1a:	68eb      	ldr	r3, [r5, #12]
 8008b1c:	8998      	ldrh	r0, [r3, #12]
 8008b1e:	f7fd fb37 	bl	8006190 <lwip_htons>
 8008b22:	0782      	lsls	r2, r0, #30
 8008b24:	d415      	bmi.n	8008b52 <tcp_receive+0x58e>
 8008b26:	68eb      	ldr	r3, [r5, #12]
 8008b28:	2001      	movs	r0, #1
 8008b2a:	f8b3 900c 	ldrh.w	r9, [r3, #12]
 8008b2e:	f7fd fb2f 	bl	8006190 <lwip_htons>
 8008b32:	68eb      	ldr	r3, [r5, #12]
 8008b34:	ea49 0000 	orr.w	r0, r9, r0
 8008b38:	b280      	uxth	r0, r0
 8008b3a:	8198      	strh	r0, [r3, #12]
 8008b3c:	f8b5 9008 	ldrh.w	r9, [r5, #8]
 8008b40:	f7fd fb26 	bl	8006190 <lwip_htons>
 8008b44:	f010 0003 	ands.w	r0, r0, #3
 8008b48:	bf18      	it	ne
 8008b4a:	2001      	movne	r0, #1
 8008b4c:	4481      	add	r9, r0
 8008b4e:	f8a7 9000 	strh.w	r9, [r7]
 8008b52:	f8d8 9000 	ldr.w	r9, [r8]
 8008b56:	4640      	mov	r0, r8
 8008b58:	f7fe fc6e 	bl	8007438 <tcp_seg_free>
 8008b5c:	46c8      	mov	r8, r9
 8008b5e:	e6a6      	b.n	80088ae <tcp_receive+0x2ea>
 8008b60:	6033      	str	r3, [r6, #0]
 8008b62:	8990      	ldrh	r0, [r2, #12]
 8008b64:	f8b5 a008 	ldrh.w	sl, [r5, #8]
 8008b68:	f7fd fb12 	bl	8006190 <lwip_htons>
 8008b6c:	6a63      	ldr	r3, [r4, #36]	; 0x24
 8008b6e:	f8b5 b008 	ldrh.w	fp, [r5, #8]
 8008b72:	f010 0003 	ands.w	r0, r0, #3
 8008b76:	bf18      	it	ne
 8008b78:	2001      	movne	r0, #1
 8008b7a:	449a      	add	sl, r3
 8008b7c:	4450      	add	r0, sl
 8008b7e:	68eb      	ldr	r3, [r5, #12]
 8008b80:	6260      	str	r0, [r4, #36]	; 0x24
 8008b82:	8998      	ldrh	r0, [r3, #12]
 8008b84:	f8b4 a028 	ldrh.w	sl, [r4, #40]	; 0x28
 8008b88:	f7fd fb02 	bl	8006190 <lwip_htons>
 8008b8c:	f010 0003 	ands.w	r0, r0, #3
 8008b90:	bf18      	it	ne
 8008b92:	2001      	movne	r0, #1
 8008b94:	4458      	add	r0, fp
 8008b96:	4582      	cmp	sl, r0
 8008b98:	d206      	bcs.n	8008ba8 <tcp_receive+0x5e4>
 8008b9a:	463b      	mov	r3, r7
 8008b9c:	f240 622c 	movw	r2, #1580	; 0x62c
 8008ba0:	4641      	mov	r1, r8
 8008ba2:	4648      	mov	r0, r9
 8008ba4:	f003 fda4 	bl	800c6f0 <iprintf>
 8008ba8:	68eb      	ldr	r3, [r5, #12]
 8008baa:	f8b5 a008 	ldrh.w	sl, [r5, #8]
 8008bae:	8998      	ldrh	r0, [r3, #12]
 8008bb0:	f7fd faee 	bl	8006190 <lwip_htons>
 8008bb4:	f010 0003 	ands.w	r0, r0, #3
 8008bb8:	8d23      	ldrh	r3, [r4, #40]	; 0x28
 8008bba:	bf18      	it	ne
 8008bbc:	2001      	movne	r0, #1
 8008bbe:	4450      	add	r0, sl
 8008bc0:	1a18      	subs	r0, r3, r0
 8008bc2:	8520      	strh	r0, [r4, #40]	; 0x28
 8008bc4:	4620      	mov	r0, r4
 8008bc6:	f7fe fbc5 	bl	8007354 <tcp_update_rcv_ann_wnd>
 8008bca:	6869      	ldr	r1, [r5, #4]
 8008bcc:	890b      	ldrh	r3, [r1, #8]
 8008bce:	b133      	cbz	r3, 8008bde <tcp_receive+0x61a>
 8008bd0:	4b38      	ldr	r3, [pc, #224]	; (8008cb4 <tcp_receive+0x6f0>)
 8008bd2:	6818      	ldr	r0, [r3, #0]
 8008bd4:	b338      	cbz	r0, 8008c26 <tcp_receive+0x662>
 8008bd6:	f7fe f9cd 	bl	8006f74 <pbuf_cat>
 8008bda:	2300      	movs	r3, #0
 8008bdc:	606b      	str	r3, [r5, #4]
 8008bde:	68eb      	ldr	r3, [r5, #12]
 8008be0:	8998      	ldrh	r0, [r3, #12]
 8008be2:	f7fd fad5 	bl	8006190 <lwip_htons>
 8008be6:	07c0      	lsls	r0, r0, #31
 8008be8:	d509      	bpl.n	8008bfe <tcp_receive+0x63a>
 8008bea:	4a33      	ldr	r2, [pc, #204]	; (8008cb8 <tcp_receive+0x6f4>)
 8008bec:	7813      	ldrb	r3, [r2, #0]
 8008bee:	f043 0320 	orr.w	r3, r3, #32
 8008bf2:	7013      	strb	r3, [r2, #0]
 8008bf4:	7d23      	ldrb	r3, [r4, #20]
 8008bf6:	2b04      	cmp	r3, #4
 8008bf8:	bf04      	itt	eq
 8008bfa:	2307      	moveq	r3, #7
 8008bfc:	7523      	strbeq	r3, [r4, #20]
 8008bfe:	682b      	ldr	r3, [r5, #0]
 8008c00:	6763      	str	r3, [r4, #116]	; 0x74
 8008c02:	4628      	mov	r0, r5
 8008c04:	f7fe fc18 	bl	8007438 <tcp_seg_free>
 8008c08:	6f65      	ldr	r5, [r4, #116]	; 0x74
 8008c0a:	b125      	cbz	r5, 8008c16 <tcp_receive+0x652>
 8008c0c:	68ea      	ldr	r2, [r5, #12]
 8008c0e:	6a61      	ldr	r1, [r4, #36]	; 0x24
 8008c10:	6853      	ldr	r3, [r2, #4]
 8008c12:	428b      	cmp	r3, r1
 8008c14:	d0a4      	beq.n	8008b60 <tcp_receive+0x59c>
 8008c16:	8b63      	ldrh	r3, [r4, #26]
 8008c18:	07d9      	lsls	r1, r3, #31
 8008c1a:	d506      	bpl.n	8008c2a <tcp_receive+0x666>
 8008c1c:	f023 0301 	bic.w	r3, r3, #1
 8008c20:	f043 0302 	orr.w	r3, r3, #2
 8008c24:	e003      	b.n	8008c2e <tcp_receive+0x66a>
 8008c26:	6019      	str	r1, [r3, #0]
 8008c28:	e7d7      	b.n	8008bda <tcp_receive+0x616>
 8008c2a:	f043 0301 	orr.w	r3, r3, #1
 8008c2e:	8363      	strh	r3, [r4, #26]
 8008c30:	e8bd 8ff8 	ldmia.w	sp!, {r3, r4, r5, r6, r7, r8, r9, sl, fp, pc}
 8008c34:	6f65      	ldr	r5, [r4, #116]	; 0x74
 8008c36:	b945      	cbnz	r5, 8008c4a <tcp_receive+0x686>
 8008c38:	4820      	ldr	r0, [pc, #128]	; (8008cbc <tcp_receive+0x6f8>)
 8008c3a:	f7fe fc13 	bl	8007464 <tcp_seg_copy>
 8008c3e:	6760      	str	r0, [r4, #116]	; 0x74
 8008c40:	4620      	mov	r0, r4
 8008c42:	e8bd 4ff8 	ldmia.w	sp!, {r3, r4, r5, r6, r7, r8, r9, sl, fp, lr}
 8008c46:	f001 bd05 	b.w	800a654 <tcp_send_empty_ack>
 8008c4a:	f04f 0800 	mov.w	r8, #0
 8008c4e:	f103 3eff 	add.w	lr, r3, #4294967295
 8008c52:	f8d5 c00c 	ldr.w	ip, [r5, #12]
 8008c56:	f8dc 2004 	ldr.w	r2, [ip, #4]
 8008c5a:	4293      	cmp	r3, r2
 8008c5c:	d115      	bne.n	8008c8a <tcp_receive+0x6c6>
 8008c5e:	4817      	ldr	r0, [pc, #92]	; (8008cbc <tcp_receive+0x6f8>)
 8008c60:	892b      	ldrh	r3, [r5, #8]
 8008c62:	8902      	ldrh	r2, [r0, #8]
 8008c64:	429a      	cmp	r2, r3
 8008c66:	d9eb      	bls.n	8008c40 <tcp_receive+0x67c>
 8008c68:	f7fe fbfc 	bl	8007464 <tcp_seg_copy>
 8008c6c:	2800      	cmp	r0, #0
 8008c6e:	d0e7      	beq.n	8008c40 <tcp_receive+0x67c>
 8008c70:	f1b8 0f00 	cmp.w	r8, #0
 8008c74:	d007      	beq.n	8008c86 <tcp_receive+0x6c2>
 8008c76:	f8c8 0000 	str.w	r0, [r8]
 8008c7a:	4629      	mov	r1, r5
 8008c7c:	f7ff fb88 	bl	8008390 <tcp_oos_insert_segment>
 8008c80:	e7de      	b.n	8008c40 <tcp_receive+0x67c>
 8008c82:	460d      	mov	r5, r1
 8008c84:	e7e5      	b.n	8008c52 <tcp_receive+0x68e>
 8008c86:	6760      	str	r0, [r4, #116]	; 0x74
 8008c88:	e7f7      	b.n	8008c7a <tcp_receive+0x6b6>
 8008c8a:	f1b8 0f00 	cmp.w	r8, #0
 8008c8e:	d119      	bne.n	8008cc4 <tcp_receive+0x700>
 8008c90:	1a99      	subs	r1, r3, r2
 8008c92:	2900      	cmp	r1, #0
 8008c94:	da3d      	bge.n	8008d12 <tcp_receive+0x74e>
 8008c96:	4809      	ldr	r0, [pc, #36]	; (8008cbc <tcp_receive+0x6f8>)
 8008c98:	f7fe fbe4 	bl	8007464 <tcp_seg_copy>
 8008c9c:	2800      	cmp	r0, #0
 8008c9e:	d0cf      	beq.n	8008c40 <tcp_receive+0x67c>
 8008ca0:	6760      	str	r0, [r4, #116]	; 0x74
 8008ca2:	e7ea      	b.n	8008c7a <tcp_receive+0x6b6>
 8008ca4:	20004ad8 	.word	0x20004ad8
 8008ca8:	0800ec21 	.word	0x0800ec21
 8008cac:	0800ed65 	.word	0x0800ed65
 8008cb0:	0800d51e 	.word	0x0800d51e
 8008cb4:	20004adc 	.word	0x20004adc
 8008cb8:	20004ae0 	.word	0x20004ae0
 8008cbc:	20004ac8 	.word	0x20004ac8
 8008cc0:	0800ed84 	.word	0x0800ed84
 8008cc4:	f8d8 100c 	ldr.w	r1, [r8, #12]
 8008cc8:	6849      	ldr	r1, [r1, #4]
 8008cca:	ebae 0101 	sub.w	r1, lr, r1
 8008cce:	2900      	cmp	r1, #0
 8008cd0:	db1f      	blt.n	8008d12 <tcp_receive+0x74e>
 8008cd2:	1a81      	subs	r1, r0, r2
 8008cd4:	2900      	cmp	r1, #0
 8008cd6:	dc1c      	bgt.n	8008d12 <tcp_receive+0x74e>
 8008cd8:	484a      	ldr	r0, [pc, #296]	; (8008e04 <tcp_receive+0x840>)
 8008cda:	f7fe fbc3 	bl	8007464 <tcp_seg_copy>
 8008cde:	4607      	mov	r7, r0
 8008ce0:	2800      	cmp	r0, #0
 8008ce2:	d0ad      	beq.n	8008c40 <tcp_receive+0x67c>
 8008ce4:	f8d8 300c 	ldr.w	r3, [r8, #12]
 8008ce8:	6831      	ldr	r1, [r6, #0]
 8008cea:	685a      	ldr	r2, [r3, #4]
 8008cec:	f8b8 3008 	ldrh.w	r3, [r8, #8]
 8008cf0:	4413      	add	r3, r2
 8008cf2:	1a5b      	subs	r3, r3, r1
 8008cf4:	2b00      	cmp	r3, #0
 8008cf6:	dd07      	ble.n	8008d08 <tcp_receive+0x744>
 8008cf8:	1a89      	subs	r1, r1, r2
 8008cfa:	b289      	uxth	r1, r1
 8008cfc:	f8a8 1008 	strh.w	r1, [r8, #8]
 8008d00:	f8d8 0004 	ldr.w	r0, [r8, #4]
 8008d04:	f7fe f8ba 	bl	8006e7c <pbuf_realloc>
 8008d08:	f8c8 7000 	str.w	r7, [r8]
 8008d0c:	4629      	mov	r1, r5
 8008d0e:	4638      	mov	r0, r7
 8008d10:	e7b4      	b.n	8008c7c <tcp_receive+0x6b8>
 8008d12:	6829      	ldr	r1, [r5, #0]
 8008d14:	46a8      	mov	r8, r5
 8008d16:	2900      	cmp	r1, #0
 8008d18:	d1b3      	bne.n	8008c82 <tcp_receive+0x6be>
 8008d1a:	1a9b      	subs	r3, r3, r2
 8008d1c:	2b00      	cmp	r3, #0
 8008d1e:	dd8f      	ble.n	8008c40 <tcp_receive+0x67c>
 8008d20:	f8bc 000c 	ldrh.w	r0, [ip, #12]
 8008d24:	f7fd fa34 	bl	8006190 <lwip_htons>
 8008d28:	07c2      	lsls	r2, r0, #31
 8008d2a:	d489      	bmi.n	8008c40 <tcp_receive+0x67c>
 8008d2c:	4835      	ldr	r0, [pc, #212]	; (8008e04 <tcp_receive+0x840>)
 8008d2e:	f7fe fb99 	bl	8007464 <tcp_seg_copy>
 8008d32:	6028      	str	r0, [r5, #0]
 8008d34:	2800      	cmp	r0, #0
 8008d36:	d083      	beq.n	8008c40 <tcp_receive+0x67c>
 8008d38:	68eb      	ldr	r3, [r5, #12]
 8008d3a:	6831      	ldr	r1, [r6, #0]
 8008d3c:	685a      	ldr	r2, [r3, #4]
 8008d3e:	892b      	ldrh	r3, [r5, #8]
 8008d40:	4413      	add	r3, r2
 8008d42:	1a5b      	subs	r3, r3, r1
 8008d44:	2b00      	cmp	r3, #0
 8008d46:	dd05      	ble.n	8008d54 <tcp_receive+0x790>
 8008d48:	1a89      	subs	r1, r1, r2
 8008d4a:	b289      	uxth	r1, r1
 8008d4c:	8129      	strh	r1, [r5, #8]
 8008d4e:	6868      	ldr	r0, [r5, #4]
 8008d50:	f7fe f894 	bl	8006e7c <pbuf_realloc>
 8008d54:	6832      	ldr	r2, [r6, #0]
 8008d56:	883b      	ldrh	r3, [r7, #0]
 8008d58:	4413      	add	r3, r2
 8008d5a:	6a62      	ldr	r2, [r4, #36]	; 0x24
 8008d5c:	1a9b      	subs	r3, r3, r2
 8008d5e:	8d22      	ldrh	r2, [r4, #40]	; 0x28
 8008d60:	1a9b      	subs	r3, r3, r2
 8008d62:	2b00      	cmp	r3, #0
 8008d64:	f77f af6c 	ble.w	8008c40 <tcp_receive+0x67c>
 8008d68:	682b      	ldr	r3, [r5, #0]
 8008d6a:	68db      	ldr	r3, [r3, #12]
 8008d6c:	8998      	ldrh	r0, [r3, #12]
 8008d6e:	f7fd fa0f 	bl	8006190 <lwip_htons>
 8008d72:	07c3      	lsls	r3, r0, #31
 8008d74:	d512      	bpl.n	8008d9c <tcp_receive+0x7d8>
 8008d76:	682b      	ldr	r3, [r5, #0]
 8008d78:	68db      	ldr	r3, [r3, #12]
 8008d7a:	f8b3 800c 	ldrh.w	r8, [r3, #12]
 8008d7e:	4640      	mov	r0, r8
 8008d80:	f7fd fa06 	bl	8006190 <lwip_htons>
 8008d84:	f000 003e 	and.w	r0, r0, #62	; 0x3e
 8008d88:	f7fd fa02 	bl	8006190 <lwip_htons>
 8008d8c:	682b      	ldr	r3, [r5, #0]
 8008d8e:	f428 587c 	bic.w	r8, r8, #16128	; 0x3f00
 8008d92:	68db      	ldr	r3, [r3, #12]
 8008d94:	ea48 0800 	orr.w	r8, r8, r0
 8008d98:	f8a3 800c 	strh.w	r8, [r3, #12]
 8008d9c:	6832      	ldr	r2, [r6, #0]
 8008d9e:	8d21      	ldrh	r1, [r4, #40]	; 0x28
 8008da0:	682b      	ldr	r3, [r5, #0]
 8008da2:	1a89      	subs	r1, r1, r2
 8008da4:	6a62      	ldr	r2, [r4, #36]	; 0x24
 8008da6:	6858      	ldr	r0, [r3, #4]
 8008da8:	4411      	add	r1, r2
 8008daa:	b289      	uxth	r1, r1
 8008dac:	8119      	strh	r1, [r3, #8]
 8008dae:	f7fe f865 	bl	8006e7c <pbuf_realloc>
 8008db2:	682b      	ldr	r3, [r5, #0]
 8008db4:	891d      	ldrh	r5, [r3, #8]
 8008db6:	68db      	ldr	r3, [r3, #12]
 8008db8:	8998      	ldrh	r0, [r3, #12]
 8008dba:	f7fd f9e9 	bl	8006190 <lwip_htons>
 8008dbe:	f010 0003 	ands.w	r0, r0, #3
 8008dc2:	bf18      	it	ne
 8008dc4:	2001      	movne	r0, #1
 8008dc6:	6833      	ldr	r3, [r6, #0]
 8008dc8:	6a62      	ldr	r2, [r4, #36]	; 0x24
 8008dca:	4428      	add	r0, r5
 8008dcc:	b280      	uxth	r0, r0
 8008dce:	8038      	strh	r0, [r7, #0]
 8008dd0:	4418      	add	r0, r3
 8008dd2:	8d23      	ldrh	r3, [r4, #40]	; 0x28
 8008dd4:	4413      	add	r3, r2
 8008dd6:	4298      	cmp	r0, r3
 8008dd8:	f43f af32 	beq.w	8008c40 <tcp_receive+0x67c>
 8008ddc:	4b0a      	ldr	r3, [pc, #40]	; (8008e08 <tcp_receive+0x844>)
 8008dde:	490b      	ldr	r1, [pc, #44]	; (8008e0c <tcp_receive+0x848>)
 8008de0:	480b      	ldr	r0, [pc, #44]	; (8008e10 <tcp_receive+0x84c>)
 8008de2:	f240 62f9 	movw	r2, #1785	; 0x6f9
 8008de6:	f003 fc83 	bl	800c6f0 <iprintf>
 8008dea:	e729      	b.n	8008c40 <tcp_receive+0x67c>
 8008dec:	1a99      	subs	r1, r3, r2
 8008dee:	2900      	cmp	r1, #0
 8008df0:	db06      	blt.n	8008e00 <tcp_receive+0x83c>
 8008df2:	3301      	adds	r3, #1
 8008df4:	1a9b      	subs	r3, r3, r2
 8008df6:	8d22      	ldrh	r2, [r4, #40]	; 0x28
 8008df8:	1a9b      	subs	r3, r3, r2
 8008dfa:	2b00      	cmp	r3, #0
 8008dfc:	f77f af18 	ble.w	8008c30 <tcp_receive+0x66c>
 8008e00:	8b63      	ldrh	r3, [r4, #26]
 8008e02:	e70d      	b.n	8008c20 <tcp_receive+0x65c>
 8008e04:	20004ac8 	.word	0x20004ac8
 8008e08:	0800ec21 	.word	0x0800ec21
 8008e0c:	0800ecf3 	.word	0x0800ecf3
 8008e10:	0800d51e 	.word	0x0800d51e

08008e14 <tcp_input>:
 8008e14:	e92d 4ff0 	stmdb	sp!, {r4, r5, r6, r7, r8, r9, sl, fp, lr}
 8008e18:	4605      	mov	r5, r0
 8008e1a:	b089      	sub	sp, #36	; 0x24
 8008e1c:	b928      	cbnz	r0, 8008e2a <tcp_input+0x16>
 8008e1e:	4bae      	ldr	r3, [pc, #696]	; (80090d8 <tcp_input+0x2c4>)
 8008e20:	49ae      	ldr	r1, [pc, #696]	; (80090dc <tcp_input+0x2c8>)
 8008e22:	48af      	ldr	r0, [pc, #700]	; (80090e0 <tcp_input+0x2cc>)
 8008e24:	2283      	movs	r2, #131	; 0x83
 8008e26:	f003 fc63 	bl	800c6f0 <iprintf>
 8008e2a:	4eae      	ldr	r6, [pc, #696]	; (80090e4 <tcp_input+0x2d0>)
 8008e2c:	686b      	ldr	r3, [r5, #4]
 8008e2e:	6033      	str	r3, [r6, #0]
 8008e30:	896b      	ldrh	r3, [r5, #10]
 8008e32:	2b13      	cmp	r3, #19
 8008e34:	f240 80ad 	bls.w	8008f92 <tcp_input+0x17e>
 8008e38:	4cab      	ldr	r4, [pc, #684]	; (80090e8 <tcp_input+0x2d4>)
 8008e3a:	6821      	ldr	r1, [r4, #0]
 8008e3c:	6960      	ldr	r0, [r4, #20]
 8008e3e:	f002 fdae 	bl	800b99e <ip4_addr_isbroadcast_u32>
 8008e42:	46a0      	mov	r8, r4
 8008e44:	4607      	mov	r7, r0
 8008e46:	2800      	cmp	r0, #0
 8008e48:	f040 80a3 	bne.w	8008f92 <tcp_input+0x17e>
 8008e4c:	6963      	ldr	r3, [r4, #20]
 8008e4e:	f003 03f0 	and.w	r3, r3, #240	; 0xf0
 8008e52:	2be0      	cmp	r3, #224	; 0xe0
 8008e54:	f000 809d 	beq.w	8008f92 <tcp_input+0x17e>
 8008e58:	6833      	ldr	r3, [r6, #0]
 8008e5a:	8998      	ldrh	r0, [r3, #12]
 8008e5c:	f7fd f998 	bl	8006190 <lwip_htons>
 8008e60:	0a81      	lsrs	r1, r0, #10
 8008e62:	f001 01fc 	and.w	r1, r1, #252	; 0xfc
 8008e66:	2913      	cmp	r1, #19
 8008e68:	f240 8093 	bls.w	8008f92 <tcp_input+0x17e>
 8008e6c:	892b      	ldrh	r3, [r5, #8]
 8008e6e:	b28a      	uxth	r2, r1
 8008e70:	4293      	cmp	r3, r2
 8008e72:	f0c0 808e 	bcc.w	8008f92 <tcp_input+0x17e>
 8008e76:	489d      	ldr	r0, [pc, #628]	; (80090ec <tcp_input+0x2d8>)
 8008e78:	4c9d      	ldr	r4, [pc, #628]	; (80090f0 <tcp_input+0x2dc>)
 8008e7a:	6007      	str	r7, [r0, #0]
 8008e7c:	896f      	ldrh	r7, [r5, #10]
 8008e7e:	f8df 92bc 	ldr.w	r9, [pc, #700]	; 800913c <tcp_input+0x328>
 8008e82:	f1a2 0314 	sub.w	r3, r2, #20
 8008e86:	b29b      	uxth	r3, r3
 8008e88:	4297      	cmp	r7, r2
 8008e8a:	8023      	strh	r3, [r4, #0]
 8008e8c:	4607      	mov	r7, r0
 8008e8e:	d345      	bcc.n	8008f1c <tcp_input+0x108>
 8008e90:	4628      	mov	r0, r5
 8008e92:	f8a9 3000 	strh.w	r3, [r9]
 8008e96:	f7fd fec1 	bl	8006c1c <pbuf_remove_header>
 8008e9a:	6834      	ldr	r4, [r6, #0]
 8008e9c:	4f95      	ldr	r7, [pc, #596]	; (80090f4 <tcp_input+0x2e0>)
 8008e9e:	8820      	ldrh	r0, [r4, #0]
 8008ea0:	f7fd f976 	bl	8006190 <lwip_htons>
 8008ea4:	8020      	strh	r0, [r4, #0]
 8008ea6:	6834      	ldr	r4, [r6, #0]
 8008ea8:	8860      	ldrh	r0, [r4, #2]
 8008eaa:	f7fd f971 	bl	8006190 <lwip_htons>
 8008eae:	8060      	strh	r0, [r4, #2]
 8008eb0:	6834      	ldr	r4, [r6, #0]
 8008eb2:	6860      	ldr	r0, [r4, #4]
 8008eb4:	f7fd f96f 	bl	8006196 <lwip_htonl>
 8008eb8:	6060      	str	r0, [r4, #4]
 8008eba:	6834      	ldr	r4, [r6, #0]
 8008ebc:	6038      	str	r0, [r7, #0]
 8008ebe:	68a0      	ldr	r0, [r4, #8]
 8008ec0:	f7fd f969 	bl	8006196 <lwip_htonl>
 8008ec4:	60a0      	str	r0, [r4, #8]
 8008ec6:	4c8c      	ldr	r4, [pc, #560]	; (80090f8 <tcp_input+0x2e4>)
 8008ec8:	f8d6 9000 	ldr.w	r9, [r6]
 8008ecc:	6020      	str	r0, [r4, #0]
 8008ece:	f8b9 000e 	ldrh.w	r0, [r9, #14]
 8008ed2:	f7fd f95d 	bl	8006190 <lwip_htons>
 8008ed6:	6833      	ldr	r3, [r6, #0]
 8008ed8:	f8a9 000e 	strh.w	r0, [r9, #14]
 8008edc:	8998      	ldrh	r0, [r3, #12]
 8008ede:	f7fd f957 	bl	8006190 <lwip_htons>
 8008ee2:	4b86      	ldr	r3, [pc, #536]	; (80090fc <tcp_input+0x2e8>)
 8008ee4:	9705      	str	r7, [sp, #20]
 8008ee6:	b2c0      	uxtb	r0, r0
 8008ee8:	f000 023f 	and.w	r2, r0, #63	; 0x3f
 8008eec:	f010 0f03 	tst.w	r0, #3
 8008ef0:	701a      	strb	r2, [r3, #0]
 8008ef2:	46a2      	mov	sl, r4
 8008ef4:	892a      	ldrh	r2, [r5, #8]
 8008ef6:	9306      	str	r3, [sp, #24]
 8008ef8:	d145      	bne.n	8008f86 <tcp_input+0x172>
 8008efa:	4b81      	ldr	r3, [pc, #516]	; (8009100 <tcp_input+0x2ec>)
 8008efc:	801a      	strh	r2, [r3, #0]
 8008efe:	4f81      	ldr	r7, [pc, #516]	; (8009104 <tcp_input+0x2f0>)
 8008f00:	f8df b1d4 	ldr.w	fp, [pc, #468]	; 80090d8 <tcp_input+0x2c4>
 8008f04:	683c      	ldr	r4, [r7, #0]
 8008f06:	f04f 0900 	mov.w	r9, #0
 8008f0a:	2c00      	cmp	r4, #0
 8008f0c:	d147      	bne.n	8008f9e <tcp_input+0x18a>
 8008f0e:	4b7e      	ldr	r3, [pc, #504]	; (8009108 <tcp_input+0x2f4>)
 8008f10:	4c71      	ldr	r4, [pc, #452]	; (80090d8 <tcp_input+0x2c4>)
 8008f12:	f8d3 9000 	ldr.w	r9, [r3]
 8008f16:	f8df b1c8 	ldr.w	fp, [pc, #456]	; 80090e0 <tcp_input+0x2cc>
 8008f1a:	e178      	b.n	800920e <tcp_input+0x3fa>
 8008f1c:	682b      	ldr	r3, [r5, #0]
 8008f1e:	b92b      	cbnz	r3, 8008f2c <tcp_input+0x118>
 8008f20:	4b6d      	ldr	r3, [pc, #436]	; (80090d8 <tcp_input+0x2c4>)
 8008f22:	497a      	ldr	r1, [pc, #488]	; (800910c <tcp_input+0x2f8>)
 8008f24:	486e      	ldr	r0, [pc, #440]	; (80090e0 <tcp_input+0x2cc>)
 8008f26:	22c2      	movs	r2, #194	; 0xc2
 8008f28:	f003 fbe2 	bl	800c6f0 <iprintf>
 8008f2c:	2114      	movs	r1, #20
 8008f2e:	4628      	mov	r0, r5
 8008f30:	f7fd fe74 	bl	8006c1c <pbuf_remove_header>
 8008f34:	8969      	ldrh	r1, [r5, #10]
 8008f36:	8824      	ldrh	r4, [r4, #0]
 8008f38:	f8a9 1000 	strh.w	r1, [r9]
 8008f3c:	4628      	mov	r0, r5
 8008f3e:	1a64      	subs	r4, r4, r1
 8008f40:	f7fd fe6c 	bl	8006c1c <pbuf_remove_header>
 8008f44:	6828      	ldr	r0, [r5, #0]
 8008f46:	8943      	ldrh	r3, [r0, #10]
 8008f48:	b2a4      	uxth	r4, r4
 8008f4a:	42a3      	cmp	r3, r4
 8008f4c:	d321      	bcc.n	8008f92 <tcp_input+0x17e>
 8008f4e:	6843      	ldr	r3, [r0, #4]
 8008f50:	603b      	str	r3, [r7, #0]
 8008f52:	4621      	mov	r1, r4
 8008f54:	f7fd fe62 	bl	8006c1c <pbuf_remove_header>
 8008f58:	892b      	ldrh	r3, [r5, #8]
 8008f5a:	1b1c      	subs	r4, r3, r4
 8008f5c:	896b      	ldrh	r3, [r5, #10]
 8008f5e:	812c      	strh	r4, [r5, #8]
 8008f60:	b12b      	cbz	r3, 8008f6e <tcp_input+0x15a>
 8008f62:	4b5d      	ldr	r3, [pc, #372]	; (80090d8 <tcp_input+0x2c4>)
 8008f64:	496a      	ldr	r1, [pc, #424]	; (8009110 <tcp_input+0x2fc>)
 8008f66:	485e      	ldr	r0, [pc, #376]	; (80090e0 <tcp_input+0x2cc>)
 8008f68:	22df      	movs	r2, #223	; 0xdf
 8008f6a:	f003 fbc1 	bl	800c6f0 <iprintf>
 8008f6e:	682b      	ldr	r3, [r5, #0]
 8008f70:	892a      	ldrh	r2, [r5, #8]
 8008f72:	891b      	ldrh	r3, [r3, #8]
 8008f74:	429a      	cmp	r2, r3
 8008f76:	d090      	beq.n	8008e9a <tcp_input+0x86>
 8008f78:	4b57      	ldr	r3, [pc, #348]	; (80090d8 <tcp_input+0x2c4>)
 8008f7a:	4966      	ldr	r1, [pc, #408]	; (8009114 <tcp_input+0x300>)
 8008f7c:	4858      	ldr	r0, [pc, #352]	; (80090e0 <tcp_input+0x2cc>)
 8008f7e:	22e0      	movs	r2, #224	; 0xe0
 8008f80:	f003 fbb6 	bl	800c6f0 <iprintf>
 8008f84:	e789      	b.n	8008e9a <tcp_input+0x86>
 8008f86:	1c53      	adds	r3, r2, #1
 8008f88:	b29b      	uxth	r3, r3
 8008f8a:	495d      	ldr	r1, [pc, #372]	; (8009100 <tcp_input+0x2ec>)
 8008f8c:	429a      	cmp	r2, r3
 8008f8e:	800b      	strh	r3, [r1, #0]
 8008f90:	d9b5      	bls.n	8008efe <tcp_input+0xea>
 8008f92:	4628      	mov	r0, r5
 8008f94:	b009      	add	sp, #36	; 0x24
 8008f96:	e8bd 4ff0 	ldmia.w	sp!, {r4, r5, r6, r7, r8, r9, sl, fp, lr}
 8008f9a:	f7fd be73 	b.w	8006c84 <pbuf_free>
 8008f9e:	7d23      	ldrb	r3, [r4, #20]
 8008fa0:	b92b      	cbnz	r3, 8008fae <tcp_input+0x19a>
 8008fa2:	465b      	mov	r3, fp
 8008fa4:	22fb      	movs	r2, #251	; 0xfb
 8008fa6:	495c      	ldr	r1, [pc, #368]	; (8009118 <tcp_input+0x304>)
 8008fa8:	484d      	ldr	r0, [pc, #308]	; (80090e0 <tcp_input+0x2cc>)
 8008faa:	f003 fba1 	bl	800c6f0 <iprintf>
 8008fae:	7d23      	ldrb	r3, [r4, #20]
 8008fb0:	2b0a      	cmp	r3, #10
 8008fb2:	d105      	bne.n	8008fc0 <tcp_input+0x1ac>
 8008fb4:	465b      	mov	r3, fp
 8008fb6:	22fc      	movs	r2, #252	; 0xfc
 8008fb8:	4958      	ldr	r1, [pc, #352]	; (800911c <tcp_input+0x308>)
 8008fba:	4849      	ldr	r0, [pc, #292]	; (80090e0 <tcp_input+0x2cc>)
 8008fbc:	f003 fb98 	bl	800c6f0 <iprintf>
 8008fc0:	7d23      	ldrb	r3, [r4, #20]
 8008fc2:	2b01      	cmp	r3, #1
 8008fc4:	d105      	bne.n	8008fd2 <tcp_input+0x1be>
 8008fc6:	465b      	mov	r3, fp
 8008fc8:	22fd      	movs	r2, #253	; 0xfd
 8008fca:	4955      	ldr	r1, [pc, #340]	; (8009120 <tcp_input+0x30c>)
 8008fcc:	4844      	ldr	r0, [pc, #272]	; (80090e0 <tcp_input+0x2cc>)
 8008fce:	f003 fb8f 	bl	800c6f0 <iprintf>
 8008fd2:	7a21      	ldrb	r1, [r4, #8]
 8008fd4:	68e2      	ldr	r2, [r4, #12]
 8008fd6:	b141      	cbz	r1, 8008fea <tcp_input+0x1d6>
 8008fd8:	f8d8 3004 	ldr.w	r3, [r8, #4]
 8008fdc:	f893 3030 	ldrb.w	r3, [r3, #48]	; 0x30
 8008fe0:	3301      	adds	r3, #1
 8008fe2:	b2db      	uxtb	r3, r3
 8008fe4:	4299      	cmp	r1, r3
 8008fe6:	f040 80ad 	bne.w	8009144 <tcp_input+0x330>
 8008fea:	6833      	ldr	r3, [r6, #0]
 8008fec:	8b20      	ldrh	r0, [r4, #24]
 8008fee:	8819      	ldrh	r1, [r3, #0]
 8008ff0:	4288      	cmp	r0, r1
 8008ff2:	f040 80a7 	bne.w	8009144 <tcp_input+0x330>
 8008ff6:	8ae1      	ldrh	r1, [r4, #22]
 8008ff8:	885b      	ldrh	r3, [r3, #2]
 8008ffa:	4299      	cmp	r1, r3
 8008ffc:	f040 80a2 	bne.w	8009144 <tcp_input+0x330>
 8009000:	6861      	ldr	r1, [r4, #4]
 8009002:	f8d8 3010 	ldr.w	r3, [r8, #16]
 8009006:	4299      	cmp	r1, r3
 8009008:	f040 809c 	bne.w	8009144 <tcp_input+0x330>
 800900c:	6821      	ldr	r1, [r4, #0]
 800900e:	f8d8 3014 	ldr.w	r3, [r8, #20]
 8009012:	4299      	cmp	r1, r3
 8009014:	f040 8096 	bne.w	8009144 <tcp_input+0x330>
 8009018:	42a2      	cmp	r2, r4
 800901a:	f040 8453 	bne.w	80098c4 <tcp_input+0xab0>
 800901e:	4b2e      	ldr	r3, [pc, #184]	; (80090d8 <tcp_input+0x2c4>)
 8009020:	4940      	ldr	r1, [pc, #256]	; (8009124 <tcp_input+0x310>)
 8009022:	482f      	ldr	r0, [pc, #188]	; (80090e0 <tcp_input+0x2cc>)
 8009024:	f240 120d 	movw	r2, #269	; 0x10d
 8009028:	f003 fb62 	bl	800c6f0 <iprintf>
 800902c:	f1b9 0f00 	cmp.w	r9, #0
 8009030:	d005      	beq.n	800903e <tcp_input+0x22a>
 8009032:	68e3      	ldr	r3, [r4, #12]
 8009034:	f8c9 300c 	str.w	r3, [r9, #12]
 8009038:	683b      	ldr	r3, [r7, #0]
 800903a:	60e3      	str	r3, [r4, #12]
 800903c:	603c      	str	r4, [r7, #0]
 800903e:	68e3      	ldr	r3, [r4, #12]
 8009040:	42a3      	cmp	r3, r4
 8009042:	d106      	bne.n	8009052 <tcp_input+0x23e>
 8009044:	4b24      	ldr	r3, [pc, #144]	; (80090d8 <tcp_input+0x2c4>)
 8009046:	4938      	ldr	r1, [pc, #224]	; (8009128 <tcp_input+0x314>)
 8009048:	4825      	ldr	r0, [pc, #148]	; (80090e0 <tcp_input+0x2cc>)
 800904a:	f240 1215 	movw	r2, #277	; 0x115
 800904e:	f003 fb4f 	bl	800c6f0 <iprintf>
 8009052:	4b36      	ldr	r3, [pc, #216]	; (800912c <tcp_input+0x318>)
 8009054:	8929      	ldrh	r1, [r5, #8]
 8009056:	8119      	strh	r1, [r3, #8]
 8009058:	6831      	ldr	r1, [r6, #0]
 800905a:	4835      	ldr	r0, [pc, #212]	; (8009130 <tcp_input+0x31c>)
 800905c:	60d9      	str	r1, [r3, #12]
 800905e:	f8df 80e0 	ldr.w	r8, [pc, #224]	; 8009140 <tcp_input+0x32c>
 8009062:	4934      	ldr	r1, [pc, #208]	; (8009134 <tcp_input+0x320>)
 8009064:	605d      	str	r5, [r3, #4]
 8009066:	2200      	movs	r2, #0
 8009068:	601a      	str	r2, [r3, #0]
 800906a:	600a      	str	r2, [r1, #0]
 800906c:	f888 2000 	strb.w	r2, [r8]
 8009070:	8002      	strh	r2, [r0, #0]
 8009072:	9a06      	ldr	r2, [sp, #24]
 8009074:	9307      	str	r3, [sp, #28]
 8009076:	7812      	ldrb	r2, [r2, #0]
 8009078:	f012 0f08 	tst.w	r2, #8
 800907c:	4681      	mov	r9, r0
 800907e:	468b      	mov	fp, r1
 8009080:	d003      	beq.n	800908a <tcp_input+0x276>
 8009082:	7b6b      	ldrb	r3, [r5, #13]
 8009084:	f043 0301 	orr.w	r3, r3, #1
 8009088:	736b      	strb	r3, [r5, #13]
 800908a:	6fa3      	ldr	r3, [r4, #120]	; 0x78
 800908c:	4d2a      	ldr	r5, [pc, #168]	; (8009138 <tcp_input+0x324>)
 800908e:	2b00      	cmp	r3, #0
 8009090:	f000 8163 	beq.w	800935a <tcp_input+0x546>
 8009094:	4620      	mov	r0, r4
 8009096:	f7fe fe65 	bl	8007d64 <tcp_process_refused_data>
 800909a:	300d      	adds	r0, #13
 800909c:	d008      	beq.n	80090b0 <tcp_input+0x29c>
 800909e:	6fa3      	ldr	r3, [r4, #120]	; 0x78
 80090a0:	2b00      	cmp	r3, #0
 80090a2:	f000 815a 	beq.w	800935a <tcp_input+0x546>
 80090a6:	4b16      	ldr	r3, [pc, #88]	; (8009100 <tcp_input+0x2ec>)
 80090a8:	881b      	ldrh	r3, [r3, #0]
 80090aa:	2b00      	cmp	r3, #0
 80090ac:	f000 8155 	beq.w	800935a <tcp_input+0x546>
 80090b0:	8d63      	ldrh	r3, [r4, #42]	; 0x2a
 80090b2:	b913      	cbnz	r3, 80090ba <tcp_input+0x2a6>
 80090b4:	4620      	mov	r0, r4
 80090b6:	f001 facd 	bl	800a654 <tcp_send_empty_ack>
 80090ba:	9b07      	ldr	r3, [sp, #28]
 80090bc:	6858      	ldr	r0, [r3, #4]
 80090be:	2400      	movs	r4, #0
 80090c0:	602c      	str	r4, [r5, #0]
 80090c2:	f8cb 4000 	str.w	r4, [fp]
 80090c6:	b118      	cbz	r0, 80090d0 <tcp_input+0x2bc>
 80090c8:	f7fd fddc 	bl	8006c84 <pbuf_free>
 80090cc:	9b07      	ldr	r3, [sp, #28]
 80090ce:	605c      	str	r4, [r3, #4]
 80090d0:	b009      	add	sp, #36	; 0x24
 80090d2:	e8bd 8ff0 	ldmia.w	sp!, {r4, r5, r6, r7, r8, r9, sl, fp, pc}
 80090d6:	bf00      	nop
 80090d8:	0800ec21 	.word	0x0800ec21
 80090dc:	0800ea2e 	.word	0x0800ea2e
 80090e0:	0800d51e 	.word	0x0800d51e
 80090e4:	20004aec 	.word	0x20004aec
 80090e8:	20007ec0 	.word	0x20007ec0
 80090ec:	20004af4 	.word	0x20004af4
 80090f0:	20004af8 	.word	0x20004af8
 80090f4:	20004ae4 	.word	0x20004ae4
 80090f8:	20004ac0 	.word	0x20004ac0
 80090fc:	20004ac4 	.word	0x20004ac4
 8009100:	20004afa 	.word	0x20004afa
 8009104:	2000b544 	.word	0x2000b544
 8009108:	2000b554 	.word	0x2000b554
 800910c:	0800ea46 	.word	0x0800ea46
 8009110:	0800ea56 	.word	0x0800ea56
 8009114:	0800ea62 	.word	0x0800ea62
 8009118:	0800ea81 	.word	0x0800ea81
 800911c:	0800eaa8 	.word	0x0800eaa8
 8009120:	0800ead2 	.word	0x0800ead2
 8009124:	0800eaf9 	.word	0x0800eaf9
 8009128:	0800eb24 	.word	0x0800eb24
 800912c:	20004ac8 	.word	0x20004ac8
 8009130:	20004ad8 	.word	0x20004ad8
 8009134:	20004adc 	.word	0x20004adc
 8009138:	2000b558 	.word	0x2000b558
 800913c:	20004af0 	.word	0x20004af0
 8009140:	20004ae0 	.word	0x20004ae0
 8009144:	46a1      	mov	r9, r4
 8009146:	4614      	mov	r4, r2
 8009148:	e6df      	b.n	8008f0a <tcp_input+0xf6>
 800914a:	f899 3014 	ldrb.w	r3, [r9, #20]
 800914e:	2b0a      	cmp	r3, #10
 8009150:	d006      	beq.n	8009160 <tcp_input+0x34c>
 8009152:	4623      	mov	r3, r4
 8009154:	f240 121f 	movw	r2, #287	; 0x11f
 8009158:	49a6      	ldr	r1, [pc, #664]	; (80093f4 <tcp_input+0x5e0>)
 800915a:	4658      	mov	r0, fp
 800915c:	f003 fac8 	bl	800c6f0 <iprintf>
 8009160:	f899 2008 	ldrb.w	r2, [r9, #8]
 8009164:	b13a      	cbz	r2, 8009176 <tcp_input+0x362>
 8009166:	f8d8 3004 	ldr.w	r3, [r8, #4]
 800916a:	f893 3030 	ldrb.w	r3, [r3, #48]	; 0x30
 800916e:	3301      	adds	r3, #1
 8009170:	b2db      	uxtb	r3, r3
 8009172:	429a      	cmp	r2, r3
 8009174:	d149      	bne.n	800920a <tcp_input+0x3f6>
 8009176:	6833      	ldr	r3, [r6, #0]
 8009178:	f8b9 2018 	ldrh.w	r2, [r9, #24]
 800917c:	8818      	ldrh	r0, [r3, #0]
 800917e:	4290      	cmp	r0, r2
 8009180:	d143      	bne.n	800920a <tcp_input+0x3f6>
 8009182:	f8b9 2016 	ldrh.w	r2, [r9, #22]
 8009186:	8859      	ldrh	r1, [r3, #2]
 8009188:	4291      	cmp	r1, r2
 800918a:	d13e      	bne.n	800920a <tcp_input+0x3f6>
 800918c:	f8d9 2004 	ldr.w	r2, [r9, #4]
 8009190:	f8d8 3010 	ldr.w	r3, [r8, #16]
 8009194:	429a      	cmp	r2, r3
 8009196:	d138      	bne.n	800920a <tcp_input+0x3f6>
 8009198:	f8d9 2000 	ldr.w	r2, [r9]
 800919c:	f8d8 3014 	ldr.w	r3, [r8, #20]
 80091a0:	429a      	cmp	r2, r3
 80091a2:	d132      	bne.n	800920a <tcp_input+0x3f6>
 80091a4:	9b06      	ldr	r3, [sp, #24]
 80091a6:	781b      	ldrb	r3, [r3, #0]
 80091a8:	075f      	lsls	r7, r3, #29
 80091aa:	f53f aef2 	bmi.w	8008f92 <tcp_input+0x17e>
 80091ae:	4a92      	ldr	r2, [pc, #584]	; (80093f8 <tcp_input+0x5e4>)
 80091b0:	079e      	lsls	r6, r3, #30
 80091b2:	8814      	ldrh	r4, [r2, #0]
 80091b4:	d516      	bpl.n	80091e4 <tcp_input+0x3d0>
 80091b6:	9b05      	ldr	r3, [sp, #20]
 80091b8:	681a      	ldr	r2, [r3, #0]
 80091ba:	f8d9 3024 	ldr.w	r3, [r9, #36]	; 0x24
 80091be:	1ad3      	subs	r3, r2, r3
 80091c0:	d416      	bmi.n	80091f0 <tcp_input+0x3dc>
 80091c2:	f8b9 6028 	ldrh.w	r6, [r9, #40]	; 0x28
 80091c6:	1b9b      	subs	r3, r3, r6
 80091c8:	2b00      	cmp	r3, #0
 80091ca:	dc11      	bgt.n	80091f0 <tcp_input+0x3dc>
 80091cc:	e9cd 1001 	strd	r1, r0, [sp, #4]
 80091d0:	4b8a      	ldr	r3, [pc, #552]	; (80093fc <tcp_input+0x5e8>)
 80091d2:	9300      	str	r3, [sp, #0]
 80091d4:	f8da 1000 	ldr.w	r1, [sl]
 80091d8:	3304      	adds	r3, #4
 80091da:	4422      	add	r2, r4
 80091dc:	4648      	mov	r0, r9
 80091de:	f001 f9f5 	bl	800a5cc <tcp_rst>
 80091e2:	e6d6      	b.n	8008f92 <tcp_input+0x17e>
 80091e4:	07d9      	lsls	r1, r3, #31
 80091e6:	bf42      	ittt	mi
 80091e8:	4b85      	ldrmi	r3, [pc, #532]	; (8009400 <tcp_input+0x5ec>)
 80091ea:	681b      	ldrmi	r3, [r3, #0]
 80091ec:	f8c9 3020 	strmi.w	r3, [r9, #32]
 80091f0:	2c00      	cmp	r4, #0
 80091f2:	f43f aece 	beq.w	8008f92 <tcp_input+0x17e>
 80091f6:	f8b9 301a 	ldrh.w	r3, [r9, #26]
 80091fa:	f043 0302 	orr.w	r3, r3, #2
 80091fe:	f8a9 301a 	strh.w	r3, [r9, #26]
 8009202:	4648      	mov	r0, r9
 8009204:	f001 fa58 	bl	800a6b8 <tcp_output>
 8009208:	e6c3      	b.n	8008f92 <tcp_input+0x17e>
 800920a:	f8d9 900c 	ldr.w	r9, [r9, #12]
 800920e:	f1b9 0f00 	cmp.w	r9, #0
 8009212:	d19a      	bne.n	800914a <tcp_input+0x336>
 8009214:	4b7b      	ldr	r3, [pc, #492]	; (8009404 <tcp_input+0x5f0>)
 8009216:	f8d8 c004 	ldr.w	ip, [r8, #4]
 800921a:	681a      	ldr	r2, [r3, #0]
 800921c:	6831      	ldr	r1, [r6, #0]
 800921e:	f8d8 e014 	ldr.w	lr, [r8, #20]
 8009222:	4614      	mov	r4, r2
 8009224:	b99c      	cbnz	r4, 800924e <tcp_input+0x43a>
 8009226:	8988      	ldrh	r0, [r1, #12]
 8009228:	f7fc ffb2 	bl	8006190 <lwip_htons>
 800922c:	0743      	lsls	r3, r0, #29
 800922e:	f53f aeb0 	bmi.w	8008f92 <tcp_input+0x17e>
 8009232:	4a71      	ldr	r2, [pc, #452]	; (80093f8 <tcp_input+0x5e4>)
 8009234:	6833      	ldr	r3, [r6, #0]
 8009236:	8811      	ldrh	r1, [r2, #0]
 8009238:	9a05      	ldr	r2, [sp, #20]
 800923a:	8818      	ldrh	r0, [r3, #0]
 800923c:	6812      	ldr	r2, [r2, #0]
 800923e:	9002      	str	r0, [sp, #8]
 8009240:	885b      	ldrh	r3, [r3, #2]
 8009242:	9301      	str	r3, [sp, #4]
 8009244:	4b6d      	ldr	r3, [pc, #436]	; (80093fc <tcp_input+0x5e8>)
 8009246:	9300      	str	r3, [sp, #0]
 8009248:	440a      	add	r2, r1
 800924a:	3304      	adds	r3, #4
 800924c:	e336      	b.n	80098bc <tcp_input+0xaa8>
 800924e:	7a20      	ldrb	r0, [r4, #8]
 8009250:	b128      	cbz	r0, 800925e <tcp_input+0x44a>
 8009252:	f89c 3030 	ldrb.w	r3, [ip, #48]	; 0x30
 8009256:	3301      	adds	r3, #1
 8009258:	b2db      	uxtb	r3, r3
 800925a:	4298      	cmp	r0, r3
 800925c:	d10a      	bne.n	8009274 <tcp_input+0x460>
 800925e:	8ae0      	ldrh	r0, [r4, #22]
 8009260:	884b      	ldrh	r3, [r1, #2]
 8009262:	4283      	cmp	r3, r0
 8009264:	d106      	bne.n	8009274 <tcp_input+0x460>
 8009266:	6823      	ldr	r3, [r4, #0]
 8009268:	4573      	cmp	r3, lr
 800926a:	f000 830a 	beq.w	8009882 <tcp_input+0xa6e>
 800926e:	2b00      	cmp	r3, #0
 8009270:	f000 8307 	beq.w	8009882 <tcp_input+0xa6e>
 8009274:	46a1      	mov	r9, r4
 8009276:	68e4      	ldr	r4, [r4, #12]
 8009278:	e7d4      	b.n	8009224 <tcp_input+0x410>
 800927a:	079b      	lsls	r3, r3, #30
 800927c:	f57f ae89 	bpl.w	8008f92 <tcp_input+0x17e>
 8009280:	7d60      	ldrb	r0, [r4, #21]
 8009282:	f7fe fbdf 	bl	8007a44 <tcp_alloc>
 8009286:	4682      	mov	sl, r0
 8009288:	b948      	cbnz	r0, 800929e <tcp_input+0x48a>
 800928a:	69a3      	ldr	r3, [r4, #24]
 800928c:	2b00      	cmp	r3, #0
 800928e:	f43f ae80 	beq.w	8008f92 <tcp_input+0x17e>
 8009292:	4601      	mov	r1, r0
 8009294:	f04f 32ff 	mov.w	r2, #4294967295
 8009298:	6920      	ldr	r0, [r4, #16]
 800929a:	4798      	blx	r3
 800929c:	e679      	b.n	8008f92 <tcp_input+0x17e>
 800929e:	f8d8 3014 	ldr.w	r3, [r8, #20]
 80092a2:	6832      	ldr	r2, [r6, #0]
 80092a4:	6003      	str	r3, [r0, #0]
 80092a6:	f8d8 3010 	ldr.w	r3, [r8, #16]
 80092aa:	6043      	str	r3, [r0, #4]
 80092ac:	8ae3      	ldrh	r3, [r4, #22]
 80092ae:	82c3      	strh	r3, [r0, #22]
 80092b0:	7813      	ldrb	r3, [r2, #0]
 80092b2:	7852      	ldrb	r2, [r2, #1]
 80092b4:	ea43 2302 	orr.w	r3, r3, r2, lsl #8
 80092b8:	8303      	strh	r3, [r0, #24]
 80092ba:	2303      	movs	r3, #3
 80092bc:	7503      	strb	r3, [r0, #20]
 80092be:	9b05      	ldr	r3, [sp, #20]
 80092c0:	681b      	ldr	r3, [r3, #0]
 80092c2:	3301      	adds	r3, #1
 80092c4:	6243      	str	r3, [r0, #36]	; 0x24
 80092c6:	62c3      	str	r3, [r0, #44]	; 0x2c
 80092c8:	f7fe f966 	bl	8007598 <tcp_next_iss>
 80092cc:	9b05      	ldr	r3, [sp, #20]
 80092ce:	f8ca 0058 	str.w	r0, [sl, #88]	; 0x58
 80092d2:	681b      	ldr	r3, [r3, #0]
 80092d4:	f8ca 0050 	str.w	r0, [sl, #80]	; 0x50
 80092d8:	3b01      	subs	r3, #1
 80092da:	f8ca 3054 	str.w	r3, [sl, #84]	; 0x54
 80092de:	6923      	ldr	r3, [r4, #16]
 80092e0:	f8ca 0044 	str.w	r0, [sl, #68]	; 0x44
 80092e4:	f8ca 005c 	str.w	r0, [sl, #92]	; 0x5c
 80092e8:	f8ca 407c 	str.w	r4, [sl, #124]	; 0x7c
 80092ec:	f8ca 3010 	str.w	r3, [sl, #16]
 80092f0:	7a63      	ldrb	r3, [r4, #9]
 80092f2:	f003 030c 	and.w	r3, r3, #12
 80092f6:	f88a 3009 	strb.w	r3, [sl, #9]
 80092fa:	7a23      	ldrb	r3, [r4, #8]
 80092fc:	f88a 3008 	strb.w	r3, [sl, #8]
 8009300:	683b      	ldr	r3, [r7, #0]
 8009302:	f8ca 300c 	str.w	r3, [sl, #12]
 8009306:	f8c7 a000 	str.w	sl, [r7]
 800930a:	f001 fcab 	bl	800ac64 <tcp_timer_needed>
 800930e:	4b3e      	ldr	r3, [pc, #248]	; (8009408 <tcp_input+0x5f4>)
 8009310:	2201      	movs	r2, #1
 8009312:	4650      	mov	r0, sl
 8009314:	701a      	strb	r2, [r3, #0]
 8009316:	f7ff f885 	bl	8008424 <tcp_parseopt>
 800931a:	6833      	ldr	r3, [r6, #0]
 800931c:	f8ba 6032 	ldrh.w	r6, [sl, #50]	; 0x32
 8009320:	89db      	ldrh	r3, [r3, #14]
 8009322:	f8aa 3060 	strh.w	r3, [sl, #96]	; 0x60
 8009326:	f10a 0404 	add.w	r4, sl, #4
 800932a:	f8aa 3062 	strh.w	r3, [sl, #98]	; 0x62
 800932e:	4620      	mov	r0, r4
 8009330:	f002 f9cc 	bl	800b6cc <ip4_route>
 8009334:	4622      	mov	r2, r4
 8009336:	4601      	mov	r1, r0
 8009338:	4630      	mov	r0, r6
 800933a:	f7fe f947 	bl	80075cc <tcp_eff_send_mss_netif>
 800933e:	2112      	movs	r1, #18
 8009340:	f8aa 0032 	strh.w	r0, [sl, #50]	; 0x32
 8009344:	4650      	mov	r0, sl
 8009346:	f000 ffbd 	bl	800a2c4 <tcp_enqueue_flags>
 800934a:	b120      	cbz	r0, 8009356 <tcp_input+0x542>
 800934c:	4649      	mov	r1, r9
 800934e:	4650      	mov	r0, sl
 8009350:	f7fe fa92 	bl	8007878 <tcp_abandon>
 8009354:	e61d      	b.n	8008f92 <tcp_input+0x17e>
 8009356:	4650      	mov	r0, sl
 8009358:	e754      	b.n	8009204 <tcp_input+0x3f0>
 800935a:	9b06      	ldr	r3, [sp, #24]
 800935c:	602c      	str	r4, [r5, #0]
 800935e:	781a      	ldrb	r2, [r3, #0]
 8009360:	0750      	lsls	r0, r2, #29
 8009362:	d53c      	bpl.n	80093de <tcp_input+0x5ca>
 8009364:	7d21      	ldrb	r1, [r4, #20]
 8009366:	2902      	cmp	r1, #2
 8009368:	d122      	bne.n	80093b0 <tcp_input+0x59c>
 800936a:	6d22      	ldr	r2, [r4, #80]	; 0x50
 800936c:	f8da 3000 	ldr.w	r3, [sl]
 8009370:	429a      	cmp	r2, r3
 8009372:	d109      	bne.n	8009388 <tcp_input+0x574>
 8009374:	f898 3000 	ldrb.w	r3, [r8]
 8009378:	f043 0308 	orr.w	r3, r3, #8
 800937c:	f888 3000 	strb.w	r3, [r8]
 8009380:	8b63      	ldrh	r3, [r4, #26]
 8009382:	f023 0301 	bic.w	r3, r3, #1
 8009386:	8363      	strh	r3, [r4, #26]
 8009388:	f898 3000 	ldrb.w	r3, [r8]
 800938c:	0719      	lsls	r1, r3, #28
 800938e:	f140 8211 	bpl.w	80097b4 <tcp_input+0x9a0>
 8009392:	f8d4 3090 	ldr.w	r3, [r4, #144]	; 0x90
 8009396:	b11b      	cbz	r3, 80093a0 <tcp_input+0x58c>
 8009398:	f06f 010d 	mvn.w	r1, #13
 800939c:	6920      	ldr	r0, [r4, #16]
 800939e:	4798      	blx	r3
 80093a0:	4621      	mov	r1, r4
 80093a2:	481a      	ldr	r0, [pc, #104]	; (800940c <tcp_input+0x5f8>)
 80093a4:	f7fe fa04 	bl	80077b0 <tcp_pcb_remove>
 80093a8:	4620      	mov	r0, r4
 80093aa:	f7fd ff65 	bl	8007278 <tcp_free>
 80093ae:	e684      	b.n	80090ba <tcp_input+0x2a6>
 80093b0:	9b05      	ldr	r3, [sp, #20]
 80093b2:	6a62      	ldr	r2, [r4, #36]	; 0x24
 80093b4:	681b      	ldr	r3, [r3, #0]
 80093b6:	429a      	cmp	r2, r3
 80093b8:	d007      	beq.n	80093ca <tcp_input+0x5b6>
 80093ba:	1a9b      	subs	r3, r3, r2
 80093bc:	d4e4      	bmi.n	8009388 <tcp_input+0x574>
 80093be:	8d22      	ldrh	r2, [r4, #40]	; 0x28
 80093c0:	1a9b      	subs	r3, r3, r2
 80093c2:	2b00      	cmp	r3, #0
 80093c4:	dce0      	bgt.n	8009388 <tcp_input+0x574>
 80093c6:	8b63      	ldrh	r3, [r4, #26]
 80093c8:	e010      	b.n	80093ec <tcp_input+0x5d8>
 80093ca:	2900      	cmp	r1, #0
 80093cc:	d1d2      	bne.n	8009374 <tcp_input+0x560>
 80093ce:	4b10      	ldr	r3, [pc, #64]	; (8009410 <tcp_input+0x5fc>)
 80093d0:	4910      	ldr	r1, [pc, #64]	; (8009414 <tcp_input+0x600>)
 80093d2:	4811      	ldr	r0, [pc, #68]	; (8009418 <tcp_input+0x604>)
 80093d4:	f44f 724e 	mov.w	r2, #824	; 0x338
 80093d8:	f003 f98a 	bl	800c6f0 <iprintf>
 80093dc:	e7ca      	b.n	8009374 <tcp_input+0x560>
 80093de:	0791      	lsls	r1, r2, #30
 80093e0:	8b63      	ldrh	r3, [r4, #26]
 80093e2:	d51b      	bpl.n	800941c <tcp_input+0x608>
 80093e4:	7d22      	ldrb	r2, [r4, #20]
 80093e6:	3a02      	subs	r2, #2
 80093e8:	2a01      	cmp	r2, #1
 80093ea:	d917      	bls.n	800941c <tcp_input+0x608>
 80093ec:	f043 0302 	orr.w	r3, r3, #2
 80093f0:	e7c9      	b.n	8009386 <tcp_input+0x572>
 80093f2:	bf00      	nop
 80093f4:	0800eb4e 	.word	0x0800eb4e
 80093f8:	20004afa 	.word	0x20004afa
 80093fc:	20007ed0 	.word	0x20007ed0
 8009400:	2000b548 	.word	0x2000b548
 8009404:	2000b54c 	.word	0x2000b54c
 8009408:	2000b540 	.word	0x2000b540
 800940c:	2000b544 	.word	0x2000b544
 8009410:	0800ec21 	.word	0x0800ec21
 8009414:	0800eb7b 	.word	0x0800eb7b
 8009418:	0800d51e 	.word	0x0800d51e
 800941c:	06da      	lsls	r2, r3, #27
 800941e:	bf5e      	ittt	pl
 8009420:	4ba2      	ldrpl	r3, [pc, #648]	; (80096ac <tcp_input+0x898>)
 8009422:	681b      	ldrpl	r3, [r3, #0]
 8009424:	6223      	strpl	r3, [r4, #32]
 8009426:	2300      	movs	r3, #0
 8009428:	f8a4 309a 	strh.w	r3, [r4, #154]	; 0x9a
 800942c:	4620      	mov	r0, r4
 800942e:	f7fe fff9 	bl	8008424 <tcp_parseopt>
 8009432:	7d23      	ldrb	r3, [r4, #20]
 8009434:	3b02      	subs	r3, #2
 8009436:	2b07      	cmp	r3, #7
 8009438:	d8a6      	bhi.n	8009388 <tcp_input+0x574>
 800943a:	e8df f013 	tbh	[pc, r3, lsl #1]
 800943e:	0008      	.short	0x0008
 8009440:	010b0099 	.word	0x010b0099
 8009444:	016a010f 	.word	0x016a010f
 8009448:	0183010b 	.word	0x0183010b
 800944c:	01a2      	.short	0x01a2
 800944e:	9b06      	ldr	r3, [sp, #24]
 8009450:	781b      	ldrb	r3, [r3, #0]
 8009452:	f003 0212 	and.w	r2, r3, #18
 8009456:	2a12      	cmp	r2, #18
 8009458:	d16a      	bne.n	8009530 <tcp_input+0x71c>
 800945a:	6c62      	ldr	r2, [r4, #68]	; 0x44
 800945c:	f8da 1000 	ldr.w	r1, [sl]
 8009460:	3201      	adds	r2, #1
 8009462:	428a      	cmp	r2, r1
 8009464:	d164      	bne.n	8009530 <tcp_input+0x71c>
 8009466:	9b05      	ldr	r3, [sp, #20]
 8009468:	6462      	str	r2, [r4, #68]	; 0x44
 800946a:	681b      	ldr	r3, [r3, #0]
 800946c:	6832      	ldr	r2, [r6, #0]
 800946e:	8e67      	ldrh	r7, [r4, #50]	; 0x32
 8009470:	1c59      	adds	r1, r3, #1
 8009472:	6261      	str	r1, [r4, #36]	; 0x24
 8009474:	62e1      	str	r1, [r4, #44]	; 0x2c
 8009476:	3b01      	subs	r3, #1
 8009478:	89d2      	ldrh	r2, [r2, #14]
 800947a:	6563      	str	r3, [r4, #84]	; 0x54
 800947c:	2304      	movs	r3, #4
 800947e:	18e6      	adds	r6, r4, r3
 8009480:	7523      	strb	r3, [r4, #20]
 8009482:	f8a4 2060 	strh.w	r2, [r4, #96]	; 0x60
 8009486:	f8a4 2062 	strh.w	r2, [r4, #98]	; 0x62
 800948a:	4630      	mov	r0, r6
 800948c:	f002 f91e 	bl	800b6cc <ip4_route>
 8009490:	4632      	mov	r2, r6
 8009492:	4601      	mov	r1, r0
 8009494:	4638      	mov	r0, r7
 8009496:	f7fe f899 	bl	80075cc <tcp_eff_send_mss_netif>
 800949a:	0042      	lsls	r2, r0, #1
 800949c:	0083      	lsls	r3, r0, #2
 800949e:	8660      	strh	r0, [r4, #50]	; 0x32
 80094a0:	f241 101c 	movw	r0, #4380	; 0x111c
 80094a4:	4282      	cmp	r2, r0
 80094a6:	4611      	mov	r1, r2
 80094a8:	bf38      	it	cc
 80094aa:	4601      	movcc	r1, r0
 80094ac:	428b      	cmp	r3, r1
 80094ae:	d233      	bcs.n	8009518 <tcp_input+0x704>
 80094b0:	b298      	uxth	r0, r3
 80094b2:	f8b4 3066 	ldrh.w	r3, [r4, #102]	; 0x66
 80094b6:	f8a4 0048 	strh.w	r0, [r4, #72]	; 0x48
 80094ba:	b933      	cbnz	r3, 80094ca <tcp_input+0x6b6>
 80094bc:	4b7c      	ldr	r3, [pc, #496]	; (80096b0 <tcp_input+0x89c>)
 80094be:	497d      	ldr	r1, [pc, #500]	; (80096b4 <tcp_input+0x8a0>)
 80094c0:	487d      	ldr	r0, [pc, #500]	; (80096b8 <tcp_input+0x8a4>)
 80094c2:	f44f 725b 	mov.w	r2, #876	; 0x36c
 80094c6:	f003 f913 	bl	800c6f0 <iprintf>
 80094ca:	f8b4 3066 	ldrh.w	r3, [r4, #102]	; 0x66
 80094ce:	6f26      	ldr	r6, [r4, #112]	; 0x70
 80094d0:	3b01      	subs	r3, #1
 80094d2:	f8a4 3066 	strh.w	r3, [r4, #102]	; 0x66
 80094d6:	bb1e      	cbnz	r6, 8009520 <tcp_input+0x70c>
 80094d8:	6ee6      	ldr	r6, [r4, #108]	; 0x6c
 80094da:	b936      	cbnz	r6, 80094ea <tcp_input+0x6d6>
 80094dc:	4b74      	ldr	r3, [pc, #464]	; (80096b0 <tcp_input+0x89c>)
 80094de:	4977      	ldr	r1, [pc, #476]	; (80096bc <tcp_input+0x8a8>)
 80094e0:	4875      	ldr	r0, [pc, #468]	; (80096b8 <tcp_input+0x8a4>)
 80094e2:	f44f 725d 	mov.w	r2, #884	; 0x374
 80094e6:	f003 f903 	bl	800c6f0 <iprintf>
 80094ea:	6833      	ldr	r3, [r6, #0]
 80094ec:	66e3      	str	r3, [r4, #108]	; 0x6c
 80094ee:	4630      	mov	r0, r6
 80094f0:	f7fd ffa2 	bl	8007438 <tcp_seg_free>
 80094f4:	6f23      	ldr	r3, [r4, #112]	; 0x70
 80094f6:	b9b3      	cbnz	r3, 8009526 <tcp_input+0x712>
 80094f8:	f64f 73ff 	movw	r3, #65535	; 0xffff
 80094fc:	8623      	strh	r3, [r4, #48]	; 0x30
 80094fe:	f8d4 3088 	ldr.w	r3, [r4, #136]	; 0x88
 8009502:	2b00      	cmp	r3, #0
 8009504:	f43f af5f 	beq.w	80093c6 <tcp_input+0x5b2>
 8009508:	2200      	movs	r2, #0
 800950a:	4621      	mov	r1, r4
 800950c:	6920      	ldr	r0, [r4, #16]
 800950e:	4798      	blx	r3
 8009510:	300d      	adds	r0, #13
 8009512:	f47f af58 	bne.w	80093c6 <tcp_input+0x5b2>
 8009516:	e5d0      	b.n	80090ba <tcp_input+0x2a6>
 8009518:	4282      	cmp	r2, r0
 800951a:	bf88      	it	hi
 800951c:	b290      	uxthhi	r0, r2
 800951e:	e7c8      	b.n	80094b2 <tcp_input+0x69e>
 8009520:	6833      	ldr	r3, [r6, #0]
 8009522:	6723      	str	r3, [r4, #112]	; 0x70
 8009524:	e7e3      	b.n	80094ee <tcp_input+0x6da>
 8009526:	2300      	movs	r3, #0
 8009528:	8623      	strh	r3, [r4, #48]	; 0x30
 800952a:	f884 3042 	strb.w	r3, [r4, #66]	; 0x42
 800952e:	e7e6      	b.n	80094fe <tcp_input+0x6ea>
 8009530:	06db      	lsls	r3, r3, #27
 8009532:	f57f af29 	bpl.w	8009388 <tcp_input+0x574>
 8009536:	4a62      	ldr	r2, [pc, #392]	; (80096c0 <tcp_input+0x8ac>)
 8009538:	6833      	ldr	r3, [r6, #0]
 800953a:	8811      	ldrh	r1, [r2, #0]
 800953c:	9a05      	ldr	r2, [sp, #20]
 800953e:	8818      	ldrh	r0, [r3, #0]
 8009540:	6812      	ldr	r2, [r2, #0]
 8009542:	9002      	str	r0, [sp, #8]
 8009544:	885b      	ldrh	r3, [r3, #2]
 8009546:	9301      	str	r3, [sp, #4]
 8009548:	4b5e      	ldr	r3, [pc, #376]	; (80096c4 <tcp_input+0x8b0>)
 800954a:	9300      	str	r3, [sp, #0]
 800954c:	440a      	add	r2, r1
 800954e:	3304      	adds	r3, #4
 8009550:	f8da 1000 	ldr.w	r1, [sl]
 8009554:	4620      	mov	r0, r4
 8009556:	f001 f839 	bl	800a5cc <tcp_rst>
 800955a:	f894 3042 	ldrb.w	r3, [r4, #66]	; 0x42
 800955e:	2b05      	cmp	r3, #5
 8009560:	f63f af12 	bhi.w	8009388 <tcp_input+0x574>
 8009564:	2300      	movs	r3, #0
 8009566:	8623      	strh	r3, [r4, #48]	; 0x30
 8009568:	4620      	mov	r0, r4
 800956a:	f001 fa6b 	bl	800aa44 <tcp_rexmit_rto>
 800956e:	e70b      	b.n	8009388 <tcp_input+0x574>
 8009570:	9b06      	ldr	r3, [sp, #24]
 8009572:	781b      	ldrb	r3, [r3, #0]
 8009574:	06df      	lsls	r7, r3, #27
 8009576:	d55f      	bpl.n	8009638 <tcp_input+0x824>
 8009578:	6c63      	ldr	r3, [r4, #68]	; 0x44
 800957a:	f8da 1000 	ldr.w	r1, [sl]
 800957e:	43db      	mvns	r3, r3
 8009580:	42cb      	cmn	r3, r1
 8009582:	d448      	bmi.n	8009616 <tcp_input+0x802>
 8009584:	6d23      	ldr	r3, [r4, #80]	; 0x50
 8009586:	1acb      	subs	r3, r1, r3
 8009588:	2b00      	cmp	r3, #0
 800958a:	dc44      	bgt.n	8009616 <tcp_input+0x802>
 800958c:	2304      	movs	r3, #4
 800958e:	7523      	strb	r3, [r4, #20]
 8009590:	6fe3      	ldr	r3, [r4, #124]	; 0x7c
 8009592:	b91b      	cbnz	r3, 800959c <tcp_input+0x788>
 8009594:	4620      	mov	r0, r4
 8009596:	f7fe f9f1 	bl	800797c <tcp_abort>
 800959a:	e58e      	b.n	80090ba <tcp_input+0x2a6>
 800959c:	699b      	ldr	r3, [r3, #24]
 800959e:	b933      	cbnz	r3, 80095ae <tcp_input+0x79a>
 80095a0:	4b43      	ldr	r3, [pc, #268]	; (80096b0 <tcp_input+0x89c>)
 80095a2:	4949      	ldr	r1, [pc, #292]	; (80096c8 <tcp_input+0x8b4>)
 80095a4:	4844      	ldr	r0, [pc, #272]	; (80096b8 <tcp_input+0x8a4>)
 80095a6:	f44f 726a 	mov.w	r2, #936	; 0x3a8
 80095aa:	f003 f8a1 	bl	800c6f0 <iprintf>
 80095ae:	6fe3      	ldr	r3, [r4, #124]	; 0x7c
 80095b0:	699b      	ldr	r3, [r3, #24]
 80095b2:	2b00      	cmp	r3, #0
 80095b4:	d0ee      	beq.n	8009594 <tcp_input+0x780>
 80095b6:	2200      	movs	r2, #0
 80095b8:	4621      	mov	r1, r4
 80095ba:	6920      	ldr	r0, [r4, #16]
 80095bc:	4798      	blx	r3
 80095be:	b118      	cbz	r0, 80095c8 <tcp_input+0x7b4>
 80095c0:	300d      	adds	r0, #13
 80095c2:	f43f ad7a 	beq.w	80090ba <tcp_input+0x2a6>
 80095c6:	e7e5      	b.n	8009594 <tcp_input+0x780>
 80095c8:	4620      	mov	r0, r4
 80095ca:	f7fe fffb 	bl	80085c4 <tcp_receive>
 80095ce:	f8b9 3000 	ldrh.w	r3, [r9]
 80095d2:	b113      	cbz	r3, 80095da <tcp_input+0x7c6>
 80095d4:	3b01      	subs	r3, #1
 80095d6:	f8a9 3000 	strh.w	r3, [r9]
 80095da:	8e63      	ldrh	r3, [r4, #50]	; 0x32
 80095dc:	0059      	lsls	r1, r3, #1
 80095de:	009a      	lsls	r2, r3, #2
 80095e0:	f241 131c 	movw	r3, #4380	; 0x111c
 80095e4:	4299      	cmp	r1, r3
 80095e6:	4608      	mov	r0, r1
 80095e8:	bf38      	it	cc
 80095ea:	4618      	movcc	r0, r3
 80095ec:	4282      	cmp	r2, r0
 80095ee:	d20e      	bcs.n	800960e <tcp_input+0x7fa>
 80095f0:	b293      	uxth	r3, r2
 80095f2:	f8a4 3048 	strh.w	r3, [r4, #72]	; 0x48
 80095f6:	f898 3000 	ldrb.w	r3, [r8]
 80095fa:	0699      	lsls	r1, r3, #26
 80095fc:	f57f aec4 	bpl.w	8009388 <tcp_input+0x574>
 8009600:	8b63      	ldrh	r3, [r4, #26]
 8009602:	f043 0302 	orr.w	r3, r3, #2
 8009606:	8363      	strh	r3, [r4, #26]
 8009608:	2307      	movs	r3, #7
 800960a:	7523      	strb	r3, [r4, #20]
 800960c:	e6bc      	b.n	8009388 <tcp_input+0x574>
 800960e:	4299      	cmp	r1, r3
 8009610:	bf88      	it	hi
 8009612:	b28b      	uxthhi	r3, r1
 8009614:	e7ed      	b.n	80095f2 <tcp_input+0x7de>
 8009616:	4a2a      	ldr	r2, [pc, #168]	; (80096c0 <tcp_input+0x8ac>)
 8009618:	6833      	ldr	r3, [r6, #0]
 800961a:	8810      	ldrh	r0, [r2, #0]
 800961c:	9a05      	ldr	r2, [sp, #20]
 800961e:	881e      	ldrh	r6, [r3, #0]
 8009620:	6812      	ldr	r2, [r2, #0]
 8009622:	9602      	str	r6, [sp, #8]
 8009624:	885b      	ldrh	r3, [r3, #2]
 8009626:	9301      	str	r3, [sp, #4]
 8009628:	4b26      	ldr	r3, [pc, #152]	; (80096c4 <tcp_input+0x8b0>)
 800962a:	9300      	str	r3, [sp, #0]
 800962c:	4402      	add	r2, r0
 800962e:	3304      	adds	r3, #4
 8009630:	4620      	mov	r0, r4
 8009632:	f000 ffcb 	bl	800a5cc <tcp_rst>
 8009636:	e6a7      	b.n	8009388 <tcp_input+0x574>
 8009638:	0798      	lsls	r0, r3, #30
 800963a:	f57f aea5 	bpl.w	8009388 <tcp_input+0x574>
 800963e:	9a05      	ldr	r2, [sp, #20]
 8009640:	6a63      	ldr	r3, [r4, #36]	; 0x24
 8009642:	6812      	ldr	r2, [r2, #0]
 8009644:	3b01      	subs	r3, #1
 8009646:	4293      	cmp	r3, r2
 8009648:	f47f ae9e 	bne.w	8009388 <tcp_input+0x574>
 800964c:	4620      	mov	r0, r4
 800964e:	f000 ff43 	bl	800a4d8 <tcp_rexmit>
 8009652:	e699      	b.n	8009388 <tcp_input+0x574>
 8009654:	4620      	mov	r0, r4
 8009656:	f7fe ffb5 	bl	80085c4 <tcp_receive>
 800965a:	e7cc      	b.n	80095f6 <tcp_input+0x7e2>
 800965c:	4620      	mov	r0, r4
 800965e:	f7fe ffb1 	bl	80085c4 <tcp_receive>
 8009662:	f898 3000 	ldrb.w	r3, [r8]
 8009666:	f013 0f20 	tst.w	r3, #32
 800966a:	9b06      	ldr	r3, [sp, #24]
 800966c:	781b      	ldrb	r3, [r3, #0]
 800966e:	d041      	beq.n	80096f4 <tcp_input+0x8e0>
 8009670:	f013 0f10 	tst.w	r3, #16
 8009674:	8b63      	ldrh	r3, [r4, #26]
 8009676:	d038      	beq.n	80096ea <tcp_input+0x8d6>
 8009678:	6d21      	ldr	r1, [r4, #80]	; 0x50
 800967a:	f8da 2000 	ldr.w	r2, [sl]
 800967e:	4291      	cmp	r1, r2
 8009680:	d133      	bne.n	80096ea <tcp_input+0x8d6>
 8009682:	6ee2      	ldr	r2, [r4, #108]	; 0x6c
 8009684:	2a00      	cmp	r2, #0
 8009686:	d130      	bne.n	80096ea <tcp_input+0x8d6>
 8009688:	f043 0302 	orr.w	r3, r3, #2
 800968c:	8363      	strh	r3, [r4, #26]
 800968e:	4620      	mov	r0, r4
 8009690:	f7fe f85c 	bl	800774c <tcp_pcb_purge>
 8009694:	683b      	ldr	r3, [r7, #0]
 8009696:	429c      	cmp	r4, r3
 8009698:	d119      	bne.n	80096ce <tcp_input+0x8ba>
 800969a:	68e3      	ldr	r3, [r4, #12]
 800969c:	603b      	str	r3, [r7, #0]
 800969e:	e018      	b.n	80096d2 <tcp_input+0x8be>
 80096a0:	68da      	ldr	r2, [r3, #12]
 80096a2:	4294      	cmp	r4, r2
 80096a4:	d112      	bne.n	80096cc <tcp_input+0x8b8>
 80096a6:	68e2      	ldr	r2, [r4, #12]
 80096a8:	60da      	str	r2, [r3, #12]
 80096aa:	e012      	b.n	80096d2 <tcp_input+0x8be>
 80096ac:	2000b548 	.word	0x2000b548
 80096b0:	0800ec21 	.word	0x0800ec21
 80096b4:	0800eb9b 	.word	0x0800eb9b
 80096b8:	0800d51e 	.word	0x0800d51e
 80096bc:	0800ebb1 	.word	0x0800ebb1
 80096c0:	20004afa 	.word	0x20004afa
 80096c4:	20007ed0 	.word	0x20007ed0
 80096c8:	0800ebc4 	.word	0x0800ebc4
 80096cc:	4613      	mov	r3, r2
 80096ce:	2b00      	cmp	r3, #0
 80096d0:	d1e6      	bne.n	80096a0 <tcp_input+0x88c>
 80096d2:	4b7f      	ldr	r3, [pc, #508]	; (80098d0 <tcp_input+0xabc>)
 80096d4:	2201      	movs	r2, #1
 80096d6:	701a      	strb	r2, [r3, #0]
 80096d8:	230a      	movs	r3, #10
 80096da:	7523      	strb	r3, [r4, #20]
 80096dc:	4b7d      	ldr	r3, [pc, #500]	; (80098d4 <tcp_input+0xac0>)
 80096de:	681a      	ldr	r2, [r3, #0]
 80096e0:	60e2      	str	r2, [r4, #12]
 80096e2:	601c      	str	r4, [r3, #0]
 80096e4:	f001 fabe 	bl	800ac64 <tcp_timer_needed>
 80096e8:	e64e      	b.n	8009388 <tcp_input+0x574>
 80096ea:	f043 0302 	orr.w	r3, r3, #2
 80096ee:	8363      	strh	r3, [r4, #26]
 80096f0:	2308      	movs	r3, #8
 80096f2:	e78a      	b.n	800960a <tcp_input+0x7f6>
 80096f4:	06da      	lsls	r2, r3, #27
 80096f6:	f57f ae47 	bpl.w	8009388 <tcp_input+0x574>
 80096fa:	6d22      	ldr	r2, [r4, #80]	; 0x50
 80096fc:	f8da 3000 	ldr.w	r3, [sl]
 8009700:	429a      	cmp	r2, r3
 8009702:	f47f ae41 	bne.w	8009388 <tcp_input+0x574>
 8009706:	6ee3      	ldr	r3, [r4, #108]	; 0x6c
 8009708:	2b00      	cmp	r3, #0
 800970a:	f47f ae3d 	bne.w	8009388 <tcp_input+0x574>
 800970e:	2306      	movs	r3, #6
 8009710:	e77b      	b.n	800960a <tcp_input+0x7f6>
 8009712:	4620      	mov	r0, r4
 8009714:	f7fe ff56 	bl	80085c4 <tcp_receive>
 8009718:	f898 3000 	ldrb.w	r3, [r8]
 800971c:	069b      	lsls	r3, r3, #26
 800971e:	f57f ae33 	bpl.w	8009388 <tcp_input+0x574>
 8009722:	8b63      	ldrh	r3, [r4, #26]
 8009724:	f043 0302 	orr.w	r3, r3, #2
 8009728:	8363      	strh	r3, [r4, #26]
 800972a:	4620      	mov	r0, r4
 800972c:	f7fe f80e 	bl	800774c <tcp_pcb_purge>
 8009730:	683b      	ldr	r3, [r7, #0]
 8009732:	429c      	cmp	r4, r3
 8009734:	d0b1      	beq.n	800969a <tcp_input+0x886>
 8009736:	2b00      	cmp	r3, #0
 8009738:	d0cb      	beq.n	80096d2 <tcp_input+0x8be>
 800973a:	68da      	ldr	r2, [r3, #12]
 800973c:	4294      	cmp	r4, r2
 800973e:	d0b2      	beq.n	80096a6 <tcp_input+0x892>
 8009740:	4613      	mov	r3, r2
 8009742:	e7f8      	b.n	8009736 <tcp_input+0x922>
 8009744:	4620      	mov	r0, r4
 8009746:	f7fe ff3d 	bl	80085c4 <tcp_receive>
 800974a:	9b06      	ldr	r3, [sp, #24]
 800974c:	781b      	ldrb	r3, [r3, #0]
 800974e:	06de      	lsls	r6, r3, #27
 8009750:	f57f ae1a 	bpl.w	8009388 <tcp_input+0x574>
 8009754:	6d22      	ldr	r2, [r4, #80]	; 0x50
 8009756:	f8da 3000 	ldr.w	r3, [sl]
 800975a:	429a      	cmp	r2, r3
 800975c:	f47f ae14 	bne.w	8009388 <tcp_input+0x574>
 8009760:	6ee3      	ldr	r3, [r4, #108]	; 0x6c
 8009762:	2b00      	cmp	r3, #0
 8009764:	f47f ae10 	bne.w	8009388 <tcp_input+0x574>
 8009768:	4620      	mov	r0, r4
 800976a:	f7fd ffef 	bl	800774c <tcp_pcb_purge>
 800976e:	683b      	ldr	r3, [r7, #0]
 8009770:	429c      	cmp	r4, r3
 8009772:	d092      	beq.n	800969a <tcp_input+0x886>
 8009774:	2b00      	cmp	r3, #0
 8009776:	d0ac      	beq.n	80096d2 <tcp_input+0x8be>
 8009778:	68da      	ldr	r2, [r3, #12]
 800977a:	4294      	cmp	r4, r2
 800977c:	d093      	beq.n	80096a6 <tcp_input+0x892>
 800977e:	4613      	mov	r3, r2
 8009780:	e7f8      	b.n	8009774 <tcp_input+0x960>
 8009782:	4620      	mov	r0, r4
 8009784:	f7fe ff1e 	bl	80085c4 <tcp_receive>
 8009788:	9b06      	ldr	r3, [sp, #24]
 800978a:	781b      	ldrb	r3, [r3, #0]
 800978c:	06d8      	lsls	r0, r3, #27
 800978e:	f57f adfb 	bpl.w	8009388 <tcp_input+0x574>
 8009792:	6d22      	ldr	r2, [r4, #80]	; 0x50
 8009794:	f8da 3000 	ldr.w	r3, [sl]
 8009798:	429a      	cmp	r2, r3
 800979a:	f47f adf5 	bne.w	8009388 <tcp_input+0x574>
 800979e:	6ee3      	ldr	r3, [r4, #108]	; 0x6c
 80097a0:	2b00      	cmp	r3, #0
 80097a2:	f47f adf1 	bne.w	8009388 <tcp_input+0x574>
 80097a6:	f898 3000 	ldrb.w	r3, [r8]
 80097aa:	f043 0310 	orr.w	r3, r3, #16
 80097ae:	f888 3000 	strb.w	r3, [r8]
 80097b2:	e5e9      	b.n	8009388 <tcp_input+0x574>
 80097b4:	f8b9 2000 	ldrh.w	r2, [r9]
 80097b8:	b12a      	cbz	r2, 80097c6 <tcp_input+0x9b2>
 80097ba:	f8d4 3080 	ldr.w	r3, [r4, #128]	; 0x80
 80097be:	b9f3      	cbnz	r3, 80097fe <tcp_input+0x9ea>
 80097c0:	2300      	movs	r3, #0
 80097c2:	f8a9 3000 	strh.w	r3, [r9]
 80097c6:	4620      	mov	r0, r4
 80097c8:	f7fe fe74 	bl	80084b4 <tcp_input_delayed_close>
 80097cc:	2800      	cmp	r0, #0
 80097ce:	f47f ac74 	bne.w	80090ba <tcp_input+0x2a6>
 80097d2:	f8db 3000 	ldr.w	r3, [fp]
 80097d6:	b333      	cbz	r3, 8009826 <tcp_input+0xa12>
 80097d8:	6fa3      	ldr	r3, [r4, #120]	; 0x78
 80097da:	b133      	cbz	r3, 80097ea <tcp_input+0x9d6>
 80097dc:	4b3e      	ldr	r3, [pc, #248]	; (80098d8 <tcp_input+0xac4>)
 80097de:	493f      	ldr	r1, [pc, #252]	; (80098dc <tcp_input+0xac8>)
 80097e0:	483f      	ldr	r0, [pc, #252]	; (80098e0 <tcp_input+0xacc>)
 80097e2:	f44f 72f3 	mov.w	r2, #486	; 0x1e6
 80097e6:	f002 ff83 	bl	800c6f0 <iprintf>
 80097ea:	8b63      	ldrh	r3, [r4, #26]
 80097ec:	f8db 2000 	ldr.w	r2, [fp]
 80097f0:	f013 0310 	ands.w	r3, r3, #16
 80097f4:	d009      	beq.n	800980a <tcp_input+0x9f6>
 80097f6:	4610      	mov	r0, r2
 80097f8:	f7fd fa44 	bl	8006c84 <pbuf_free>
 80097fc:	e6ca      	b.n	8009594 <tcp_input+0x780>
 80097fe:	4621      	mov	r1, r4
 8009800:	6920      	ldr	r0, [r4, #16]
 8009802:	4798      	blx	r3
 8009804:	300d      	adds	r0, #13
 8009806:	d1db      	bne.n	80097c0 <tcp_input+0x9ac>
 8009808:	e457      	b.n	80090ba <tcp_input+0x2a6>
 800980a:	f8d4 6084 	ldr.w	r6, [r4, #132]	; 0x84
 800980e:	b306      	cbz	r6, 8009852 <tcp_input+0xa3e>
 8009810:	4621      	mov	r1, r4
 8009812:	6920      	ldr	r0, [r4, #16]
 8009814:	47b0      	blx	r6
 8009816:	f110 0f0d 	cmn.w	r0, #13
 800981a:	f43f ac4e 	beq.w	80090ba <tcp_input+0x2a6>
 800981e:	b110      	cbz	r0, 8009826 <tcp_input+0xa12>
 8009820:	f8db 3000 	ldr.w	r3, [fp]
 8009824:	67a3      	str	r3, [r4, #120]	; 0x78
 8009826:	f898 3000 	ldrb.w	r3, [r8]
 800982a:	069a      	lsls	r2, r3, #26
 800982c:	d505      	bpl.n	800983a <tcp_input+0xa26>
 800982e:	6fa3      	ldr	r3, [r4, #120]	; 0x78
 8009830:	b1ab      	cbz	r3, 800985e <tcp_input+0xa4a>
 8009832:	7b5a      	ldrb	r2, [r3, #13]
 8009834:	f042 0220 	orr.w	r2, r2, #32
 8009838:	735a      	strb	r2, [r3, #13]
 800983a:	2300      	movs	r3, #0
 800983c:	4620      	mov	r0, r4
 800983e:	602b      	str	r3, [r5, #0]
 8009840:	f7fe fe38 	bl	80084b4 <tcp_input_delayed_close>
 8009844:	2800      	cmp	r0, #0
 8009846:	f47f ac38 	bne.w	80090ba <tcp_input+0x2a6>
 800984a:	4620      	mov	r0, r4
 800984c:	f000 ff34 	bl	800a6b8 <tcp_output>
 8009850:	e433      	b.n	80090ba <tcp_input+0x2a6>
 8009852:	4633      	mov	r3, r6
 8009854:	4621      	mov	r1, r4
 8009856:	4630      	mov	r0, r6
 8009858:	f7fe fa60 	bl	8007d1c <tcp_recv_null>
 800985c:	e7db      	b.n	8009816 <tcp_input+0xa02>
 800985e:	8d23      	ldrh	r3, [r4, #40]	; 0x28
 8009860:	f8d4 6084 	ldr.w	r6, [r4, #132]	; 0x84
 8009864:	f5b3 6f06 	cmp.w	r3, #2144	; 0x860
 8009868:	bf1c      	itt	ne
 800986a:	3301      	addne	r3, #1
 800986c:	8523      	strhne	r3, [r4, #40]	; 0x28
 800986e:	2e00      	cmp	r6, #0
 8009870:	d0e3      	beq.n	800983a <tcp_input+0xa26>
 8009872:	2300      	movs	r3, #0
 8009874:	461a      	mov	r2, r3
 8009876:	4621      	mov	r1, r4
 8009878:	6920      	ldr	r0, [r4, #16]
 800987a:	47b0      	blx	r6
 800987c:	300d      	adds	r0, #13
 800987e:	d1dc      	bne.n	800983a <tcp_input+0xa26>
 8009880:	e41b      	b.n	80090ba <tcp_input+0x2a6>
 8009882:	f1b9 0f00 	cmp.w	r9, #0
 8009886:	d005      	beq.n	8009894 <tcp_input+0xa80>
 8009888:	68e3      	ldr	r3, [r4, #12]
 800988a:	f8c9 300c 	str.w	r3, [r9, #12]
 800988e:	4b15      	ldr	r3, [pc, #84]	; (80098e4 <tcp_input+0xad0>)
 8009890:	60e2      	str	r2, [r4, #12]
 8009892:	601c      	str	r4, [r3, #0]
 8009894:	9b06      	ldr	r3, [sp, #24]
 8009896:	781b      	ldrb	r3, [r3, #0]
 8009898:	075a      	lsls	r2, r3, #29
 800989a:	f53f ab7a 	bmi.w	8008f92 <tcp_input+0x17e>
 800989e:	f013 0910 	ands.w	r9, r3, #16
 80098a2:	f43f acea 	beq.w	800927a <tcp_input+0x466>
 80098a6:	4b10      	ldr	r3, [pc, #64]	; (80098e8 <tcp_input+0xad4>)
 80098a8:	881e      	ldrh	r6, [r3, #0]
 80098aa:	9b05      	ldr	r3, [sp, #20]
 80098ac:	681a      	ldr	r2, [r3, #0]
 80098ae:	880b      	ldrh	r3, [r1, #0]
 80098b0:	e9cd 0301 	strd	r0, r3, [sp, #4]
 80098b4:	4b0d      	ldr	r3, [pc, #52]	; (80098ec <tcp_input+0xad8>)
 80098b6:	9300      	str	r3, [sp, #0]
 80098b8:	4432      	add	r2, r6
 80098ba:	3304      	adds	r3, #4
 80098bc:	f8da 1000 	ldr.w	r1, [sl]
 80098c0:	4620      	mov	r0, r4
 80098c2:	e48c      	b.n	80091de <tcp_input+0x3ca>
 80098c4:	f1b9 0f00 	cmp.w	r9, #0
 80098c8:	f47f abb3 	bne.w	8009032 <tcp_input+0x21e>
 80098cc:	f7ff bbc1 	b.w	8009052 <tcp_input+0x23e>
 80098d0:	2000b540 	.word	0x2000b540
 80098d4:	2000b554 	.word	0x2000b554
 80098d8:	0800ec21 	.word	0x0800ec21
 80098dc:	0800ebe2 	.word	0x0800ebe2
 80098e0:	0800d51e 	.word	0x0800d51e
 80098e4:	2000b54c 	.word	0x2000b54c
 80098e8:	20004afa 	.word	0x20004afa
 80098ec:	20007ed0 	.word	0x20007ed0

080098f0 <tcp_trigger_input_pcb_close>:
 80098f0:	4a02      	ldr	r2, [pc, #8]	; (80098fc <tcp_trigger_input_pcb_close+0xc>)
 80098f2:	7813      	ldrb	r3, [r2, #0]
 80098f4:	f043 0310 	orr.w	r3, r3, #16
 80098f8:	7013      	strb	r3, [r2, #0]
 80098fa:	4770      	bx	lr
 80098fc:	20004ae0 	.word	0x20004ae0

08009900 <tcp_output_segment_busy>:
 8009900:	b510      	push	{r4, lr}
 8009902:	4604      	mov	r4, r0
 8009904:	b930      	cbnz	r0, 8009914 <tcp_output_segment_busy+0x14>
 8009906:	4b07      	ldr	r3, [pc, #28]	; (8009924 <tcp_output_segment_busy+0x24>)
 8009908:	4907      	ldr	r1, [pc, #28]	; (8009928 <tcp_output_segment_busy+0x28>)
 800990a:	4808      	ldr	r0, [pc, #32]	; (800992c <tcp_output_segment_busy+0x2c>)
 800990c:	f240 529a 	movw	r2, #1434	; 0x59a
 8009910:	f002 feee 	bl	800c6f0 <iprintf>
 8009914:	6863      	ldr	r3, [r4, #4]
 8009916:	7b98      	ldrb	r0, [r3, #14]
 8009918:	f110 30ff 	adds.w	r0, r0, #4294967295
 800991c:	bf18      	it	ne
 800991e:	2001      	movne	r0, #1
 8009920:	bd10      	pop	{r4, pc}
 8009922:	bf00      	nop
 8009924:	0800f03b 	.word	0x0800f03b
 8009928:	0800f06e 	.word	0x0800f06e
 800992c:	0800d51e 	.word	0x0800d51e

08009930 <tcp_pbuf_prealloc>:
 8009930:	e92d 43f8 	stmdb	sp!, {r3, r4, r5, r6, r7, r8, r9, lr}
 8009934:	9d08      	ldr	r5, [sp, #32]
 8009936:	f89d 9028 	ldrb.w	r9, [sp, #40]	; 0x28
 800993a:	4607      	mov	r7, r0
 800993c:	460c      	mov	r4, r1
 800993e:	4690      	mov	r8, r2
 8009940:	461e      	mov	r6, r3
 8009942:	b92d      	cbnz	r5, 8009950 <tcp_pbuf_prealloc+0x20>
 8009944:	4b1b      	ldr	r3, [pc, #108]	; (80099b4 <tcp_pbuf_prealloc+0x84>)
 8009946:	491c      	ldr	r1, [pc, #112]	; (80099b8 <tcp_pbuf_prealloc+0x88>)
 8009948:	481c      	ldr	r0, [pc, #112]	; (80099bc <tcp_pbuf_prealloc+0x8c>)
 800994a:	22e9      	movs	r2, #233	; 0xe9
 800994c:	f002 fed0 	bl	800c6f0 <iprintf>
 8009950:	4544      	cmp	r4, r8
 8009952:	d22d      	bcs.n	80099b0 <tcp_pbuf_prealloc+0x80>
 8009954:	f89d 3024 	ldrb.w	r3, [sp, #36]	; 0x24
 8009958:	079a      	lsls	r2, r3, #30
 800995a:	d409      	bmi.n	8009970 <tcp_pbuf_prealloc+0x40>
 800995c:	8b6b      	ldrh	r3, [r5, #26]
 800995e:	065b      	lsls	r3, r3, #25
 8009960:	d426      	bmi.n	80099b0 <tcp_pbuf_prealloc+0x80>
 8009962:	f1b9 0f00 	cmp.w	r9, #0
 8009966:	d003      	beq.n	8009970 <tcp_pbuf_prealloc+0x40>
 8009968:	6eeb      	ldr	r3, [r5, #108]	; 0x6c
 800996a:	b90b      	cbnz	r3, 8009970 <tcp_pbuf_prealloc+0x40>
 800996c:	6f2b      	ldr	r3, [r5, #112]	; 0x70
 800996e:	b1fb      	cbz	r3, 80099b0 <tcp_pbuf_prealloc+0x80>
 8009970:	f204 211b 	addw	r1, r4, #539	; 0x21b
 8009974:	f021 0103 	bic.w	r1, r1, #3
 8009978:	4541      	cmp	r1, r8
 800997a:	bf28      	it	cs
 800997c:	4641      	movcs	r1, r8
 800997e:	b289      	uxth	r1, r1
 8009980:	f44f 7220 	mov.w	r2, #640	; 0x280
 8009984:	4638      	mov	r0, r7
 8009986:	f7fd f9e5 	bl	8006d54 <pbuf_alloc>
 800998a:	4605      	mov	r5, r0
 800998c:	b168      	cbz	r0, 80099aa <tcp_pbuf_prealloc+0x7a>
 800998e:	6803      	ldr	r3, [r0, #0]
 8009990:	b133      	cbz	r3, 80099a0 <tcp_pbuf_prealloc+0x70>
 8009992:	4b08      	ldr	r3, [pc, #32]	; (80099b4 <tcp_pbuf_prealloc+0x84>)
 8009994:	490a      	ldr	r1, [pc, #40]	; (80099c0 <tcp_pbuf_prealloc+0x90>)
 8009996:	4809      	ldr	r0, [pc, #36]	; (80099bc <tcp_pbuf_prealloc+0x8c>)
 8009998:	f240 120b 	movw	r2, #267	; 0x10b
 800999c:	f002 fea8 	bl	800c6f0 <iprintf>
 80099a0:	896b      	ldrh	r3, [r5, #10]
 80099a2:	1b1b      	subs	r3, r3, r4
 80099a4:	8033      	strh	r3, [r6, #0]
 80099a6:	812c      	strh	r4, [r5, #8]
 80099a8:	816c      	strh	r4, [r5, #10]
 80099aa:	4628      	mov	r0, r5
 80099ac:	e8bd 83f8 	ldmia.w	sp!, {r3, r4, r5, r6, r7, r8, r9, pc}
 80099b0:	4621      	mov	r1, r4
 80099b2:	e7e5      	b.n	8009980 <tcp_pbuf_prealloc+0x50>
 80099b4:	0800f03b 	.word	0x0800f03b
 80099b8:	0800f093 	.word	0x0800f093
 80099bc:	0800d51e 	.word	0x0800d51e
 80099c0:	0800f0b2 	.word	0x0800f0b2

080099c4 <tcp_create_segment>:
 80099c4:	e92d 47f0 	stmdb	sp!, {r4, r5, r6, r7, r8, r9, sl, lr}
 80099c8:	460e      	mov	r6, r1
 80099ca:	4690      	mov	r8, r2
 80099cc:	4699      	mov	r9, r3
 80099ce:	f89d a020 	ldrb.w	sl, [sp, #32]
 80099d2:	4607      	mov	r7, r0
 80099d4:	b928      	cbnz	r0, 80099e2 <tcp_create_segment+0x1e>
 80099d6:	4b2e      	ldr	r3, [pc, #184]	; (8009a90 <tcp_create_segment+0xcc>)
 80099d8:	492e      	ldr	r1, [pc, #184]	; (8009a94 <tcp_create_segment+0xd0>)
 80099da:	482f      	ldr	r0, [pc, #188]	; (8009a98 <tcp_create_segment+0xd4>)
 80099dc:	22a3      	movs	r2, #163	; 0xa3
 80099de:	f002 fe87 	bl	800c6f0 <iprintf>
 80099e2:	b92e      	cbnz	r6, 80099f0 <tcp_create_segment+0x2c>
 80099e4:	4b2a      	ldr	r3, [pc, #168]	; (8009a90 <tcp_create_segment+0xcc>)
 80099e6:	492d      	ldr	r1, [pc, #180]	; (8009a9c <tcp_create_segment+0xd8>)
 80099e8:	482b      	ldr	r0, [pc, #172]	; (8009a98 <tcp_create_segment+0xd4>)
 80099ea:	22a4      	movs	r2, #164	; 0xa4
 80099ec:	f002 fe80 	bl	800c6f0 <iprintf>
 80099f0:	2002      	movs	r0, #2
 80099f2:	f7fc fead 	bl	8006750 <memp_malloc>
 80099f6:	ea4f 058a 	mov.w	r5, sl, lsl #2
 80099fa:	f005 0504 	and.w	r5, r5, #4
 80099fe:	4604      	mov	r4, r0
 8009a00:	b928      	cbnz	r0, 8009a0e <tcp_create_segment+0x4a>
 8009a02:	4630      	mov	r0, r6
 8009a04:	f7fd f93e 	bl	8006c84 <pbuf_free>
 8009a08:	4620      	mov	r0, r4
 8009a0a:	e8bd 87f0 	ldmia.w	sp!, {r4, r5, r6, r7, r8, r9, sl, pc}
 8009a0e:	f880 a00a 	strb.w	sl, [r0, #10]
 8009a12:	2300      	movs	r3, #0
 8009a14:	e9c0 3600 	strd	r3, r6, [r0]
 8009a18:	8933      	ldrh	r3, [r6, #8]
 8009a1a:	fa1f fa85 	uxth.w	sl, r5
 8009a1e:	4553      	cmp	r3, sl
 8009a20:	d205      	bcs.n	8009a2e <tcp_create_segment+0x6a>
 8009a22:	4b1b      	ldr	r3, [pc, #108]	; (8009a90 <tcp_create_segment+0xcc>)
 8009a24:	491e      	ldr	r1, [pc, #120]	; (8009aa0 <tcp_create_segment+0xdc>)
 8009a26:	481c      	ldr	r0, [pc, #112]	; (8009a98 <tcp_create_segment+0xd4>)
 8009a28:	22b0      	movs	r2, #176	; 0xb0
 8009a2a:	f002 fe61 	bl	800c6f0 <iprintf>
 8009a2e:	8933      	ldrh	r3, [r6, #8]
 8009a30:	eba3 030a 	sub.w	r3, r3, sl
 8009a34:	4630      	mov	r0, r6
 8009a36:	8123      	strh	r3, [r4, #8]
 8009a38:	2114      	movs	r1, #20
 8009a3a:	f7fd f8ec 	bl	8006c16 <pbuf_add_header>
 8009a3e:	4606      	mov	r6, r0
 8009a40:	b120      	cbz	r0, 8009a4c <tcp_create_segment+0x88>
 8009a42:	4620      	mov	r0, r4
 8009a44:	f7fd fcf8 	bl	8007438 <tcp_seg_free>
 8009a48:	2400      	movs	r4, #0
 8009a4a:	e7dd      	b.n	8009a08 <tcp_create_segment+0x44>
 8009a4c:	6863      	ldr	r3, [r4, #4]
 8009a4e:	8af8      	ldrh	r0, [r7, #22]
 8009a50:	f8d3 a004 	ldr.w	sl, [r3, #4]
 8009a54:	f8c4 a00c 	str.w	sl, [r4, #12]
 8009a58:	f7fc fb9a 	bl	8006190 <lwip_htons>
 8009a5c:	f8aa 0000 	strh.w	r0, [sl]
 8009a60:	8b38      	ldrh	r0, [r7, #24]
 8009a62:	f8d4 a00c 	ldr.w	sl, [r4, #12]
 8009a66:	f7fc fb93 	bl	8006190 <lwip_htons>
 8009a6a:	f8aa 0002 	strh.w	r0, [sl, #2]
 8009a6e:	4648      	mov	r0, r9
 8009a70:	68e7      	ldr	r7, [r4, #12]
 8009a72:	f7fc fb90 	bl	8006196 <lwip_htonl>
 8009a76:	6078      	str	r0, [r7, #4]
 8009a78:	08a8      	lsrs	r0, r5, #2
 8009a7a:	3005      	adds	r0, #5
 8009a7c:	ea48 3000 	orr.w	r0, r8, r0, lsl #12
 8009a80:	68e7      	ldr	r7, [r4, #12]
 8009a82:	f7fc fb85 	bl	8006190 <lwip_htons>
 8009a86:	68e3      	ldr	r3, [r4, #12]
 8009a88:	81b8      	strh	r0, [r7, #12]
 8009a8a:	749e      	strb	r6, [r3, #18]
 8009a8c:	74de      	strb	r6, [r3, #19]
 8009a8e:	e7bb      	b.n	8009a08 <tcp_create_segment+0x44>
 8009a90:	0800f03b 	.word	0x0800f03b
 8009a94:	0800eda9 	.word	0x0800eda9
 8009a98:	0800d51e 	.word	0x0800d51e
 8009a9c:	0800edc9 	.word	0x0800edc9
 8009aa0:	0800edea 	.word	0x0800edea

08009aa4 <tcp_output_alloc_header_common.constprop.4>:
 8009aa4:	3114      	adds	r1, #20
 8009aa6:	e92d 41f0 	stmdb	sp!, {r4, r5, r6, r7, r8, lr}
 8009aaa:	b289      	uxth	r1, r1
 8009aac:	4606      	mov	r6, r0
 8009aae:	4617      	mov	r7, r2
 8009ab0:	2022      	movs	r0, #34	; 0x22
 8009ab2:	f44f 7220 	mov.w	r2, #640	; 0x280
 8009ab6:	4698      	mov	r8, r3
 8009ab8:	f7fd f94c 	bl	8006d54 <pbuf_alloc>
 8009abc:	4605      	mov	r5, r0
 8009abe:	b348      	cbz	r0, 8009b14 <tcp_output_alloc_header_common.constprop.4+0x70>
 8009ac0:	8943      	ldrh	r3, [r0, #10]
 8009ac2:	2b13      	cmp	r3, #19
 8009ac4:	d806      	bhi.n	8009ad4 <tcp_output_alloc_header_common.constprop.4+0x30>
 8009ac6:	4b15      	ldr	r3, [pc, #84]	; (8009b1c <tcp_output_alloc_header_common.constprop.4+0x78>)
 8009ac8:	4915      	ldr	r1, [pc, #84]	; (8009b20 <tcp_output_alloc_header_common.constprop.4+0x7c>)
 8009aca:	4816      	ldr	r0, [pc, #88]	; (8009b24 <tcp_output_alloc_header_common.constprop.4+0x80>)
 8009acc:	f240 7224 	movw	r2, #1828	; 0x724
 8009ad0:	f002 fe0e 	bl	800c6f0 <iprintf>
 8009ad4:	4640      	mov	r0, r8
 8009ad6:	686c      	ldr	r4, [r5, #4]
 8009ad8:	f7fc fb5a 	bl	8006190 <lwip_htons>
 8009adc:	8020      	strh	r0, [r4, #0]
 8009ade:	f8bd 0018 	ldrh.w	r0, [sp, #24]
 8009ae2:	f7fc fb55 	bl	8006190 <lwip_htons>
 8009ae6:	6067      	str	r7, [r4, #4]
 8009ae8:	8060      	strh	r0, [r4, #2]
 8009aea:	4630      	mov	r0, r6
 8009aec:	f7fc fb53 	bl	8006196 <lwip_htonl>
 8009af0:	60a0      	str	r0, [r4, #8]
 8009af2:	f89d 001c 	ldrb.w	r0, [sp, #28]
 8009af6:	f440 40a0 	orr.w	r0, r0, #20480	; 0x5000
 8009afa:	f7fc fb49 	bl	8006190 <lwip_htons>
 8009afe:	81a0      	strh	r0, [r4, #12]
 8009b00:	f8bd 0020 	ldrh.w	r0, [sp, #32]
 8009b04:	f7fc fb44 	bl	8006190 <lwip_htons>
 8009b08:	2300      	movs	r3, #0
 8009b0a:	81e0      	strh	r0, [r4, #14]
 8009b0c:	7423      	strb	r3, [r4, #16]
 8009b0e:	7463      	strb	r3, [r4, #17]
 8009b10:	74a3      	strb	r3, [r4, #18]
 8009b12:	74e3      	strb	r3, [r4, #19]
 8009b14:	4628      	mov	r0, r5
 8009b16:	e8bd 81f0 	ldmia.w	sp!, {r4, r5, r6, r7, r8, pc}
 8009b1a:	bf00      	nop
 8009b1c:	0800f03b 	.word	0x0800f03b
 8009b20:	0800efbe 	.word	0x0800efbe
 8009b24:	0800d51e 	.word	0x0800d51e

08009b28 <tcp_output_alloc_header.constprop.3>:
 8009b28:	b57f      	push	{r0, r1, r2, r3, r4, r5, r6, lr}
 8009b2a:	460d      	mov	r5, r1
 8009b2c:	4616      	mov	r6, r2
 8009b2e:	4604      	mov	r4, r0
 8009b30:	b930      	cbnz	r0, 8009b40 <tcp_output_alloc_header.constprop.3+0x18>
 8009b32:	4b0d      	ldr	r3, [pc, #52]	; (8009b68 <tcp_output_alloc_header.constprop.3+0x40>)
 8009b34:	490d      	ldr	r1, [pc, #52]	; (8009b6c <tcp_output_alloc_header.constprop.3+0x44>)
 8009b36:	480e      	ldr	r0, [pc, #56]	; (8009b70 <tcp_output_alloc_header.constprop.3+0x48>)
 8009b38:	f240 7242 	movw	r2, #1858	; 0x742
 8009b3c:	f002 fdd8 	bl	800c6f0 <iprintf>
 8009b40:	8d62      	ldrh	r2, [r4, #42]	; 0x2a
 8009b42:	8ae3      	ldrh	r3, [r4, #22]
 8009b44:	9202      	str	r2, [sp, #8]
 8009b46:	2210      	movs	r2, #16
 8009b48:	9201      	str	r2, [sp, #4]
 8009b4a:	8b22      	ldrh	r2, [r4, #24]
 8009b4c:	9200      	str	r2, [sp, #0]
 8009b4e:	4629      	mov	r1, r5
 8009b50:	4632      	mov	r2, r6
 8009b52:	6a60      	ldr	r0, [r4, #36]	; 0x24
 8009b54:	f7ff ffa6 	bl	8009aa4 <tcp_output_alloc_header_common.constprop.4>
 8009b58:	b118      	cbz	r0, 8009b62 <tcp_output_alloc_header.constprop.3+0x3a>
 8009b5a:	8d62      	ldrh	r2, [r4, #42]	; 0x2a
 8009b5c:	6a63      	ldr	r3, [r4, #36]	; 0x24
 8009b5e:	4413      	add	r3, r2
 8009b60:	62e3      	str	r3, [r4, #44]	; 0x2c
 8009b62:	b004      	add	sp, #16
 8009b64:	bd70      	pop	{r4, r5, r6, pc}
 8009b66:	bf00      	nop
 8009b68:	0800f03b 	.word	0x0800f03b
 8009b6c:	0800ef99 	.word	0x0800ef99
 8009b70:	0800d51e 	.word	0x0800d51e

08009b74 <tcp_output_fill_options.isra.0.constprop.5>:
 8009b74:	b930      	cbnz	r0, 8009b84 <tcp_output_fill_options.isra.0.constprop.5+0x10>
 8009b76:	4b04      	ldr	r3, [pc, #16]	; (8009b88 <tcp_output_fill_options.isra.0.constprop.5+0x14>)
 8009b78:	4904      	ldr	r1, [pc, #16]	; (8009b8c <tcp_output_fill_options.isra.0.constprop.5+0x18>)
 8009b7a:	4805      	ldr	r0, [pc, #20]	; (8009b90 <tcp_output_fill_options.isra.0.constprop.5+0x1c>)
 8009b7c:	f240 7256 	movw	r2, #1878	; 0x756
 8009b80:	f002 bdb6 	b.w	800c6f0 <iprintf>
 8009b84:	4770      	bx	lr
 8009b86:	bf00      	nop
 8009b88:	0800f03b 	.word	0x0800f03b
 8009b8c:	0800f015 	.word	0x0800f015
 8009b90:	0800d51e 	.word	0x0800d51e

08009b94 <tcp_output_control_segment>:
 8009b94:	b5f0      	push	{r4, r5, r6, r7, lr}
 8009b96:	4604      	mov	r4, r0
 8009b98:	b085      	sub	sp, #20
 8009b9a:	4617      	mov	r7, r2
 8009b9c:	461e      	mov	r6, r3
 8009b9e:	460d      	mov	r5, r1
 8009ba0:	b931      	cbnz	r1, 8009bb0 <tcp_output_control_segment+0x1c>
 8009ba2:	4b15      	ldr	r3, [pc, #84]	; (8009bf8 <tcp_output_control_segment+0x64>)
 8009ba4:	4915      	ldr	r1, [pc, #84]	; (8009bfc <tcp_output_control_segment+0x68>)
 8009ba6:	4816      	ldr	r0, [pc, #88]	; (8009c00 <tcp_output_control_segment+0x6c>)
 8009ba8:	f240 7287 	movw	r2, #1927	; 0x787
 8009bac:	f002 fda0 	bl	800c6f0 <iprintf>
 8009bb0:	b164      	cbz	r4, 8009bcc <tcp_output_control_segment+0x38>
 8009bb2:	7a20      	ldrb	r0, [r4, #8]
 8009bb4:	b150      	cbz	r0, 8009bcc <tcp_output_control_segment+0x38>
 8009bb6:	f7fc ff95 	bl	8006ae4 <netif_get_by_index>
 8009bba:	b968      	cbnz	r0, 8009bd8 <tcp_output_control_segment+0x44>
 8009bbc:	f06f 0403 	mvn.w	r4, #3
 8009bc0:	4628      	mov	r0, r5
 8009bc2:	f7fd f85f 	bl	8006c84 <pbuf_free>
 8009bc6:	4620      	mov	r0, r4
 8009bc8:	b005      	add	sp, #20
 8009bca:	bdf0      	pop	{r4, r5, r6, r7, pc}
 8009bcc:	4630      	mov	r0, r6
 8009bce:	f001 fd7d 	bl	800b6cc <ip4_route>
 8009bd2:	2800      	cmp	r0, #0
 8009bd4:	d0f2      	beq.n	8009bbc <tcp_output_control_segment+0x28>
 8009bd6:	b164      	cbz	r4, 8009bf2 <tcp_output_control_segment+0x5e>
 8009bd8:	7ae3      	ldrb	r3, [r4, #11]
 8009bda:	7aa4      	ldrb	r4, [r4, #10]
 8009bdc:	9002      	str	r0, [sp, #8]
 8009bde:	2206      	movs	r2, #6
 8009be0:	e9cd 4200 	strd	r4, r2, [sp]
 8009be4:	4639      	mov	r1, r7
 8009be6:	4632      	mov	r2, r6
 8009be8:	4628      	mov	r0, r5
 8009bea:	f001 fec7 	bl	800b97c <ip4_output_if>
 8009bee:	4604      	mov	r4, r0
 8009bf0:	e7e6      	b.n	8009bc0 <tcp_output_control_segment+0x2c>
 8009bf2:	23ff      	movs	r3, #255	; 0xff
 8009bf4:	e7f2      	b.n	8009bdc <tcp_output_control_segment+0x48>
 8009bf6:	bf00      	nop
 8009bf8:	0800f03b 	.word	0x0800f03b
 8009bfc:	0800efec 	.word	0x0800efec
 8009c00:	0800d51e 	.word	0x0800d51e

08009c04 <tcp_write>:
 8009c04:	e92d 4ff0 	stmdb	sp!, {r4, r5, r6, r7, r8, r9, sl, fp, lr}
 8009c08:	b091      	sub	sp, #68	; 0x44
 8009c0a:	4604      	mov	r4, r0
 8009c0c:	930a      	str	r3, [sp, #40]	; 0x28
 8009c0e:	2300      	movs	r3, #0
 8009c10:	9108      	str	r1, [sp, #32]
 8009c12:	9205      	str	r2, [sp, #20]
 8009c14:	f8ad 303e 	strh.w	r3, [sp, #62]	; 0x3e
 8009c18:	b958      	cbnz	r0, 8009c32 <tcp_write+0x2e>
 8009c1a:	4baf      	ldr	r3, [pc, #700]	; (8009ed8 <tcp_write+0x2d4>)
 8009c1c:	49af      	ldr	r1, [pc, #700]	; (8009edc <tcp_write+0x2d8>)
 8009c1e:	f44f 72cf 	mov.w	r2, #414	; 0x19e
 8009c22:	48af      	ldr	r0, [pc, #700]	; (8009ee0 <tcp_write+0x2dc>)
 8009c24:	f002 fd64 	bl	800c6f0 <iprintf>
 8009c28:	f06f 000f 	mvn.w	r0, #15
 8009c2c:	b011      	add	sp, #68	; 0x44
 8009c2e:	e8bd 8ff0 	ldmia.w	sp!, {r4, r5, r6, r7, r8, r9, sl, fp, pc}
 8009c32:	8e43      	ldrh	r3, [r0, #50]	; 0x32
 8009c34:	9307      	str	r3, [sp, #28]
 8009c36:	f8b0 3062 	ldrh.w	r3, [r0, #98]	; 0x62
 8009c3a:	9a07      	ldr	r2, [sp, #28]
 8009c3c:	085b      	lsrs	r3, r3, #1
 8009c3e:	4293      	cmp	r3, r2
 8009c40:	bf28      	it	cs
 8009c42:	4613      	movcs	r3, r2
 8009c44:	2b00      	cmp	r3, #0
 8009c46:	bf18      	it	ne
 8009c48:	461a      	movne	r2, r3
 8009c4a:	9b08      	ldr	r3, [sp, #32]
 8009c4c:	9207      	str	r2, [sp, #28]
 8009c4e:	b923      	cbnz	r3, 8009c5a <tcp_write+0x56>
 8009c50:	4ba1      	ldr	r3, [pc, #644]	; (8009ed8 <tcp_write+0x2d4>)
 8009c52:	49a4      	ldr	r1, [pc, #656]	; (8009ee4 <tcp_write+0x2e0>)
 8009c54:	f44f 72d7 	mov.w	r2, #430	; 0x1ae
 8009c58:	e7e3      	b.n	8009c22 <tcp_write+0x1e>
 8009c5a:	7d03      	ldrb	r3, [r0, #20]
 8009c5c:	2b07      	cmp	r3, #7
 8009c5e:	d003      	beq.n	8009c68 <tcp_write+0x64>
 8009c60:	3b02      	subs	r3, #2
 8009c62:	2b02      	cmp	r3, #2
 8009c64:	f200 8250 	bhi.w	800a108 <tcp_write+0x504>
 8009c68:	9b05      	ldr	r3, [sp, #20]
 8009c6a:	b1eb      	cbz	r3, 8009ca8 <tcp_write+0xa4>
 8009c6c:	f8b4 3064 	ldrh.w	r3, [r4, #100]	; 0x64
 8009c70:	9a05      	ldr	r2, [sp, #20]
 8009c72:	4293      	cmp	r3, r2
 8009c74:	d206      	bcs.n	8009c84 <tcp_write+0x80>
 8009c76:	8b63      	ldrh	r3, [r4, #26]
 8009c78:	f043 0380 	orr.w	r3, r3, #128	; 0x80
 8009c7c:	8363      	strh	r3, [r4, #26]
 8009c7e:	f04f 30ff 	mov.w	r0, #4294967295
 8009c82:	e7d3      	b.n	8009c2c <tcp_write+0x28>
 8009c84:	f8b4 2066 	ldrh.w	r2, [r4, #102]	; 0x66
 8009c88:	2a08      	cmp	r2, #8
 8009c8a:	d8f4      	bhi.n	8009c76 <tcp_write+0x72>
 8009c8c:	6f23      	ldr	r3, [r4, #112]	; 0x70
 8009c8e:	2a00      	cmp	r2, #0
 8009c90:	f000 809f 	beq.w	8009dd2 <tcp_write+0x1ce>
 8009c94:	b943      	cbnz	r3, 8009ca8 <tcp_write+0xa4>
 8009c96:	6ee3      	ldr	r3, [r4, #108]	; 0x6c
 8009c98:	b933      	cbnz	r3, 8009ca8 <tcp_write+0xa4>
 8009c9a:	4b8f      	ldr	r3, [pc, #572]	; (8009ed8 <tcp_write+0x2d4>)
 8009c9c:	4992      	ldr	r1, [pc, #584]	; (8009ee8 <tcp_write+0x2e4>)
 8009c9e:	f44f 72ab 	mov.w	r2, #342	; 0x156
 8009ca2:	488f      	ldr	r0, [pc, #572]	; (8009ee0 <tcp_write+0x2dc>)
 8009ca4:	f002 fd24 	bl	800c6f0 <iprintf>
 8009ca8:	f8d4 806c 	ldr.w	r8, [r4, #108]	; 0x6c
 8009cac:	f8b4 3066 	ldrh.w	r3, [r4, #102]	; 0x66
 8009cb0:	9306      	str	r3, [sp, #24]
 8009cb2:	f1b8 0f00 	cmp.w	r8, #0
 8009cb6:	f000 80c3 	beq.w	8009e40 <tcp_write+0x23c>
 8009cba:	4646      	mov	r6, r8
 8009cbc:	f8d6 b000 	ldr.w	fp, [r6]
 8009cc0:	f1bb 0f00 	cmp.w	fp, #0
 8009cc4:	f040 808f 	bne.w	8009de6 <tcp_write+0x1e2>
 8009cc8:	7ab5      	ldrb	r5, [r6, #10]
 8009cca:	8933      	ldrh	r3, [r6, #8]
 8009ccc:	9a07      	ldr	r2, [sp, #28]
 8009cce:	00ad      	lsls	r5, r5, #2
 8009cd0:	f005 0504 	and.w	r5, r5, #4
 8009cd4:	442b      	add	r3, r5
 8009cd6:	429a      	cmp	r2, r3
 8009cd8:	da06      	bge.n	8009ce8 <tcp_write+0xe4>
 8009cda:	4b7f      	ldr	r3, [pc, #508]	; (8009ed8 <tcp_write+0x2d4>)
 8009cdc:	4983      	ldr	r1, [pc, #524]	; (8009eec <tcp_write+0x2e8>)
 8009cde:	4880      	ldr	r0, [pc, #512]	; (8009ee0 <tcp_write+0x2dc>)
 8009ce0:	f44f 72f3 	mov.w	r2, #486	; 0x1e6
 8009ce4:	f002 fd04 	bl	800c6f0 <iprintf>
 8009ce8:	8937      	ldrh	r7, [r6, #8]
 8009cea:	9b07      	ldr	r3, [sp, #28]
 8009cec:	1bdf      	subs	r7, r3, r7
 8009cee:	1b7f      	subs	r7, r7, r5
 8009cf0:	f8b4 5068 	ldrh.w	r5, [r4, #104]	; 0x68
 8009cf4:	f8ad 503e 	strh.w	r5, [sp, #62]	; 0x3e
 8009cf8:	b2bf      	uxth	r7, r7
 8009cfa:	2d00      	cmp	r5, #0
 8009cfc:	d075      	beq.n	8009dea <tcp_write+0x1e6>
 8009cfe:	42bd      	cmp	r5, r7
 8009d00:	d906      	bls.n	8009d10 <tcp_write+0x10c>
 8009d02:	4b75      	ldr	r3, [pc, #468]	; (8009ed8 <tcp_write+0x2d4>)
 8009d04:	497a      	ldr	r1, [pc, #488]	; (8009ef0 <tcp_write+0x2ec>)
 8009d06:	4876      	ldr	r0, [pc, #472]	; (8009ee0 <tcp_write+0x2dc>)
 8009d08:	f44f 72fc 	mov.w	r2, #504	; 0x1f8
 8009d0c:	f002 fcf0 	bl	800c6f0 <iprintf>
 8009d10:	f8bd 303e 	ldrh.w	r3, [sp, #62]	; 0x3e
 8009d14:	9a05      	ldr	r2, [sp, #20]
 8009d16:	429a      	cmp	r2, r3
 8009d18:	bf28      	it	cs
 8009d1a:	461a      	movcs	r2, r3
 8009d1c:	42ba      	cmp	r2, r7
 8009d1e:	4615      	mov	r5, r2
 8009d20:	bfa8      	it	ge
 8009d22:	463d      	movge	r5, r7
 8009d24:	1b5b      	subs	r3, r3, r5
 8009d26:	1b7f      	subs	r7, r7, r5
 8009d28:	f8ad 303e 	strh.w	r3, [sp, #62]	; 0x3e
 8009d2c:	b2bf      	uxth	r7, r7
 8009d2e:	46b0      	mov	r8, r6
 8009d30:	f8bd 303e 	ldrh.w	r3, [sp, #62]	; 0x3e
 8009d34:	b153      	cbz	r3, 8009d4c <tcp_write+0x148>
 8009d36:	9b05      	ldr	r3, [sp, #20]
 8009d38:	429d      	cmp	r5, r3
 8009d3a:	f000 81e8 	beq.w	800a10e <tcp_write+0x50a>
 8009d3e:	4b66      	ldr	r3, [pc, #408]	; (8009ed8 <tcp_write+0x2d4>)
 8009d40:	496c      	ldr	r1, [pc, #432]	; (8009ef4 <tcp_write+0x2f0>)
 8009d42:	4867      	ldr	r0, [pc, #412]	; (8009ee0 <tcp_write+0x2dc>)
 8009d44:	f44f 7200 	mov.w	r2, #512	; 0x200
 8009d48:	f002 fcd2 	bl	800c6f0 <iprintf>
 8009d4c:	9b05      	ldr	r3, [sp, #20]
 8009d4e:	429d      	cmp	r5, r3
 8009d50:	f080 81dd 	bcs.w	800a10e <tcp_write+0x50a>
 8009d54:	2f00      	cmp	r7, #0
 8009d56:	f000 8166 	beq.w	800a026 <tcp_write+0x422>
 8009d5a:	f8b6 a008 	ldrh.w	sl, [r6, #8]
 8009d5e:	f1ba 0f00 	cmp.w	sl, #0
 8009d62:	f000 8161 	beq.w	800a028 <tcp_write+0x424>
 8009d66:	eba3 0a05 	sub.w	sl, r3, r5
 8009d6a:	9b0a      	ldr	r3, [sp, #40]	; 0x28
 8009d6c:	45ba      	cmp	sl, r7
 8009d6e:	bfa8      	it	ge
 8009d70:	46ba      	movge	sl, r7
 8009d72:	07db      	lsls	r3, r3, #31
 8009d74:	fa1f f88a 	uxth.w	r8, sl
 8009d78:	d539      	bpl.n	8009dee <tcp_write+0x1ea>
 8009d7a:	2301      	movs	r3, #1
 8009d7c:	9302      	str	r3, [sp, #8]
 8009d7e:	9b0a      	ldr	r3, [sp, #40]	; 0x28
 8009d80:	463a      	mov	r2, r7
 8009d82:	e9cd 4300 	strd	r4, r3, [sp]
 8009d86:	4641      	mov	r1, r8
 8009d88:	f10d 033e 	add.w	r3, sp, #62	; 0x3e
 8009d8c:	2000      	movs	r0, #0
 8009d8e:	f7ff fdcf 	bl	8009930 <tcp_pbuf_prealloc>
 8009d92:	4681      	mov	r9, r0
 8009d94:	2800      	cmp	r0, #0
 8009d96:	f000 81b4 	beq.w	800a102 <tcp_write+0x4fe>
 8009d9a:	9b08      	ldr	r3, [sp, #32]
 8009d9c:	6840      	ldr	r0, [r0, #4]
 8009d9e:	4642      	mov	r2, r8
 8009da0:	1959      	adds	r1, r3, r5
 8009da2:	f002 fc38 	bl	800c616 <memcpy>
 8009da6:	4648      	mov	r0, r9
 8009da8:	f7fd f8c0 	bl	8006f2c <pbuf_clen>
 8009dac:	9b06      	ldr	r3, [sp, #24]
 8009dae:	4403      	add	r3, r0
 8009db0:	b29b      	uxth	r3, r3
 8009db2:	9306      	str	r3, [sp, #24]
 8009db4:	f04f 0a00 	mov.w	sl, #0
 8009db8:	eb05 0708 	add.w	r7, r5, r8
 8009dbc:	b2bf      	uxth	r7, r7
 8009dbe:	46b0      	mov	r8, r6
 8009dc0:	9b0a      	ldr	r3, [sp, #40]	; 0x28
 8009dc2:	f04f 0b00 	mov.w	fp, #0
 8009dc6:	f003 0301 	and.w	r3, r3, #1
 8009dca:	f8cd b02c 	str.w	fp, [sp, #44]	; 0x2c
 8009dce:	930c      	str	r3, [sp, #48]	; 0x30
 8009dd0:	e102      	b.n	8009fd8 <tcp_write+0x3d4>
 8009dd2:	b91b      	cbnz	r3, 8009ddc <tcp_write+0x1d8>
 8009dd4:	6ee3      	ldr	r3, [r4, #108]	; 0x6c
 8009dd6:	2b00      	cmp	r3, #0
 8009dd8:	f43f af66 	beq.w	8009ca8 <tcp_write+0xa4>
 8009ddc:	4b3e      	ldr	r3, [pc, #248]	; (8009ed8 <tcp_write+0x2d4>)
 8009dde:	4946      	ldr	r1, [pc, #280]	; (8009ef8 <tcp_write+0x2f4>)
 8009de0:	f240 1259 	movw	r2, #345	; 0x159
 8009de4:	e75d      	b.n	8009ca2 <tcp_write+0x9e>
 8009de6:	465e      	mov	r6, fp
 8009de8:	e768      	b.n	8009cbc <tcp_write+0xb8>
 8009dea:	46a8      	mov	r8, r5
 8009dec:	e7a0      	b.n	8009d30 <tcp_write+0x12c>
 8009dee:	6873      	ldr	r3, [r6, #4]
 8009df0:	f8d3 9000 	ldr.w	r9, [r3]
 8009df4:	f1b9 0f00 	cmp.w	r9, #0
 8009df8:	d113      	bne.n	8009e22 <tcp_write+0x21e>
 8009dfa:	7b1a      	ldrb	r2, [r3, #12]
 8009dfc:	f012 0fc0 	tst.w	r2, #192	; 0xc0
 8009e00:	d111      	bne.n	8009e26 <tcp_write+0x222>
 8009e02:	895a      	ldrh	r2, [r3, #10]
 8009e04:	685b      	ldr	r3, [r3, #4]
 8009e06:	4413      	add	r3, r2
 8009e08:	9a08      	ldr	r2, [sp, #32]
 8009e0a:	429a      	cmp	r2, r3
 8009e0c:	d10b      	bne.n	8009e26 <tcp_write+0x222>
 8009e0e:	b135      	cbz	r5, 8009e1e <tcp_write+0x21a>
 8009e10:	4b31      	ldr	r3, [pc, #196]	; (8009ed8 <tcp_write+0x2d4>)
 8009e12:	493a      	ldr	r1, [pc, #232]	; (8009efc <tcp_write+0x2f8>)
 8009e14:	4832      	ldr	r0, [pc, #200]	; (8009ee0 <tcp_write+0x2dc>)
 8009e16:	f240 2231 	movw	r2, #561	; 0x231
 8009e1a:	f002 fc69 	bl	800c6f0 <iprintf>
 8009e1e:	46c2      	mov	sl, r8
 8009e20:	e7ca      	b.n	8009db8 <tcp_write+0x1b4>
 8009e22:	464b      	mov	r3, r9
 8009e24:	e7e4      	b.n	8009df0 <tcp_write+0x1ec>
 8009e26:	2201      	movs	r2, #1
 8009e28:	4641      	mov	r1, r8
 8009e2a:	2000      	movs	r0, #0
 8009e2c:	f7fc ff92 	bl	8006d54 <pbuf_alloc>
 8009e30:	4681      	mov	r9, r0
 8009e32:	2800      	cmp	r0, #0
 8009e34:	f000 8165 	beq.w	800a102 <tcp_write+0x4fe>
 8009e38:	9b08      	ldr	r3, [sp, #32]
 8009e3a:	442b      	add	r3, r5
 8009e3c:	6043      	str	r3, [r0, #4]
 8009e3e:	e7b3      	b.n	8009da8 <tcp_write+0x1a4>
 8009e40:	f8b4 7068 	ldrh.w	r7, [r4, #104]	; 0x68
 8009e44:	2f00      	cmp	r7, #0
 8009e46:	f000 80f2 	beq.w	800a02e <tcp_write+0x42a>
 8009e4a:	4b23      	ldr	r3, [pc, #140]	; (8009ed8 <tcp_write+0x2d4>)
 8009e4c:	492c      	ldr	r1, [pc, #176]	; (8009f00 <tcp_write+0x2fc>)
 8009e4e:	4824      	ldr	r0, [pc, #144]	; (8009ee0 <tcp_write+0x2dc>)
 8009e50:	f240 224b 	movw	r2, #587	; 0x24b
 8009e54:	f002 fc4c 	bl	800c6f0 <iprintf>
 8009e58:	4646      	mov	r6, r8
 8009e5a:	46c2      	mov	sl, r8
 8009e5c:	4645      	mov	r5, r8
 8009e5e:	4647      	mov	r7, r8
 8009e60:	46c1      	mov	r9, r8
 8009e62:	e7ad      	b.n	8009dc0 <tcp_write+0x1bc>
 8009e64:	9b05      	ldr	r3, [sp, #20]
 8009e66:	9a07      	ldr	r2, [sp, #28]
 8009e68:	1bdb      	subs	r3, r3, r7
 8009e6a:	b29b      	uxth	r3, r3
 8009e6c:	4293      	cmp	r3, r2
 8009e6e:	bf28      	it	cs
 8009e70:	4613      	movcs	r3, r2
 8009e72:	b29b      	uxth	r3, r3
 8009e74:	9309      	str	r3, [sp, #36]	; 0x24
 8009e76:	9b0c      	ldr	r3, [sp, #48]	; 0x30
 8009e78:	2b00      	cmp	r3, #0
 8009e7a:	d045      	beq.n	8009f08 <tcp_write+0x304>
 8009e7c:	fabb f38b 	clz	r3, fp
 8009e80:	095b      	lsrs	r3, r3, #5
 8009e82:	9302      	str	r3, [sp, #8]
 8009e84:	9b0a      	ldr	r3, [sp, #40]	; 0x28
 8009e86:	9909      	ldr	r1, [sp, #36]	; 0x24
 8009e88:	e9cd 4300 	strd	r4, r3, [sp]
 8009e8c:	2036      	movs	r0, #54	; 0x36
 8009e8e:	f10d 033e 	add.w	r3, sp, #62	; 0x3e
 8009e92:	f7ff fd4d 	bl	8009930 <tcp_pbuf_prealloc>
 8009e96:	4680      	mov	r8, r0
 8009e98:	2800      	cmp	r0, #0
 8009e9a:	d055      	beq.n	8009f48 <tcp_write+0x344>
 8009e9c:	8943      	ldrh	r3, [r0, #10]
 8009e9e:	9a09      	ldr	r2, [sp, #36]	; 0x24
 8009ea0:	4293      	cmp	r3, r2
 8009ea2:	d206      	bcs.n	8009eb2 <tcp_write+0x2ae>
 8009ea4:	4b0c      	ldr	r3, [pc, #48]	; (8009ed8 <tcp_write+0x2d4>)
 8009ea6:	4917      	ldr	r1, [pc, #92]	; (8009f04 <tcp_write+0x300>)
 8009ea8:	480d      	ldr	r0, [pc, #52]	; (8009ee0 <tcp_write+0x2dc>)
 8009eaa:	f240 2267 	movw	r2, #615	; 0x267
 8009eae:	f002 fc1f 	bl	800c6f0 <iprintf>
 8009eb2:	e9dd 3208 	ldrd	r3, r2, [sp, #32]
 8009eb6:	f8d8 0004 	ldr.w	r0, [r8, #4]
 8009eba:	19d9      	adds	r1, r3, r7
 8009ebc:	f002 fbab 	bl	800c616 <memcpy>
 8009ec0:	4640      	mov	r0, r8
 8009ec2:	f7fd f833 	bl	8006f2c <pbuf_clen>
 8009ec6:	9b06      	ldr	r3, [sp, #24]
 8009ec8:	4403      	add	r3, r0
 8009eca:	b29b      	uxth	r3, r3
 8009ecc:	2b09      	cmp	r3, #9
 8009ece:	9306      	str	r3, [sp, #24]
 8009ed0:	d963      	bls.n	8009f9a <tcp_write+0x396>
 8009ed2:	4640      	mov	r0, r8
 8009ed4:	e036      	b.n	8009f44 <tcp_write+0x340>
 8009ed6:	bf00      	nop
 8009ed8:	0800f03b 	.word	0x0800f03b
 8009edc:	0800f22c 	.word	0x0800f22c
 8009ee0:	0800d51e 	.word	0x0800d51e
 8009ee4:	0800f243 	.word	0x0800f243
 8009ee8:	0800f274 	.word	0x0800f274
 8009eec:	0800f2e0 	.word	0x0800f2e0
 8009ef0:	0800f2f7 	.word	0x0800f2f7
 8009ef4:	0800f317 	.word	0x0800f317
 8009ef8:	0800f2ae 	.word	0x0800f2ae
 8009efc:	0800f335 	.word	0x0800f335
 8009f00:	0800f35e 	.word	0x0800f35e
 8009f04:	0800f38d 	.word	0x0800f38d
 8009f08:	f8bd 303e 	ldrh.w	r3, [sp, #62]	; 0x3e
 8009f0c:	b133      	cbz	r3, 8009f1c <tcp_write+0x318>
 8009f0e:	4b83      	ldr	r3, [pc, #524]	; (800a11c <tcp_write+0x518>)
 8009f10:	4983      	ldr	r1, [pc, #524]	; (800a120 <tcp_write+0x51c>)
 8009f12:	4884      	ldr	r0, [pc, #528]	; (800a124 <tcp_write+0x520>)
 8009f14:	f240 2271 	movw	r2, #625	; 0x271
 8009f18:	f002 fbea 	bl	800c6f0 <iprintf>
 8009f1c:	2201      	movs	r2, #1
 8009f1e:	9909      	ldr	r1, [sp, #36]	; 0x24
 8009f20:	2036      	movs	r0, #54	; 0x36
 8009f22:	f7fc ff17 	bl	8006d54 <pbuf_alloc>
 8009f26:	b178      	cbz	r0, 8009f48 <tcp_write+0x344>
 8009f28:	9a08      	ldr	r2, [sp, #32]
 8009f2a:	900d      	str	r0, [sp, #52]	; 0x34
 8009f2c:	443a      	add	r2, r7
 8009f2e:	6042      	str	r2, [r0, #4]
 8009f30:	2100      	movs	r1, #0
 8009f32:	f44f 7220 	mov.w	r2, #640	; 0x280
 8009f36:	2036      	movs	r0, #54	; 0x36
 8009f38:	f7fc ff0c 	bl	8006d54 <pbuf_alloc>
 8009f3c:	9b0d      	ldr	r3, [sp, #52]	; 0x34
 8009f3e:	4680      	mov	r8, r0
 8009f40:	bb38      	cbnz	r0, 8009f92 <tcp_write+0x38e>
 8009f42:	4618      	mov	r0, r3
 8009f44:	f7fc fe9e 	bl	8006c84 <pbuf_free>
 8009f48:	8b63      	ldrh	r3, [r4, #26]
 8009f4a:	f043 0380 	orr.w	r3, r3, #128	; 0x80
 8009f4e:	8363      	strh	r3, [r4, #26]
 8009f50:	f1b9 0f00 	cmp.w	r9, #0
 8009f54:	d002      	beq.n	8009f5c <tcp_write+0x358>
 8009f56:	4648      	mov	r0, r9
 8009f58:	f7fc fe94 	bl	8006c84 <pbuf_free>
 8009f5c:	f1bb 0f00 	cmp.w	fp, #0
 8009f60:	d002      	beq.n	8009f68 <tcp_write+0x364>
 8009f62:	4658      	mov	r0, fp
 8009f64:	f7fd fa76 	bl	8007454 <tcp_segs_free>
 8009f68:	f8b4 3066 	ldrh.w	r3, [r4, #102]	; 0x66
 8009f6c:	2b00      	cmp	r3, #0
 8009f6e:	f43f ae86 	beq.w	8009c7e <tcp_write+0x7a>
 8009f72:	6f23      	ldr	r3, [r4, #112]	; 0x70
 8009f74:	2b00      	cmp	r3, #0
 8009f76:	f47f ae82 	bne.w	8009c7e <tcp_write+0x7a>
 8009f7a:	6ee3      	ldr	r3, [r4, #108]	; 0x6c
 8009f7c:	2b00      	cmp	r3, #0
 8009f7e:	f47f ae7e 	bne.w	8009c7e <tcp_write+0x7a>
 8009f82:	4b66      	ldr	r3, [pc, #408]	; (800a11c <tcp_write+0x518>)
 8009f84:	4968      	ldr	r1, [pc, #416]	; (800a128 <tcp_write+0x524>)
 8009f86:	4867      	ldr	r0, [pc, #412]	; (800a124 <tcp_write+0x520>)
 8009f88:	f44f 724a 	mov.w	r2, #808	; 0x328
 8009f8c:	f002 fbb0 	bl	800c6f0 <iprintf>
 8009f90:	e675      	b.n	8009c7e <tcp_write+0x7a>
 8009f92:	4619      	mov	r1, r3
 8009f94:	f7fc ffee 	bl	8006f74 <pbuf_cat>
 8009f98:	e792      	b.n	8009ec0 <tcp_write+0x2bc>
 8009f9a:	6de3      	ldr	r3, [r4, #92]	; 0x5c
 8009f9c:	2200      	movs	r2, #0
 8009f9e:	4641      	mov	r1, r8
 8009fa0:	9200      	str	r2, [sp, #0]
 8009fa2:	443b      	add	r3, r7
 8009fa4:	4620      	mov	r0, r4
 8009fa6:	f7ff fd0d 	bl	80099c4 <tcp_create_segment>
 8009faa:	4680      	mov	r8, r0
 8009fac:	2800      	cmp	r0, #0
 8009fae:	d0cb      	beq.n	8009f48 <tcp_write+0x344>
 8009fb0:	f1bb 0f00 	cmp.w	fp, #0
 8009fb4:	d035      	beq.n	800a022 <tcp_write+0x41e>
 8009fb6:	9b0b      	ldr	r3, [sp, #44]	; 0x2c
 8009fb8:	b933      	cbnz	r3, 8009fc8 <tcp_write+0x3c4>
 8009fba:	4b58      	ldr	r3, [pc, #352]	; (800a11c <tcp_write+0x518>)
 8009fbc:	495b      	ldr	r1, [pc, #364]	; (800a12c <tcp_write+0x528>)
 8009fbe:	4859      	ldr	r0, [pc, #356]	; (800a124 <tcp_write+0x520>)
 8009fc0:	f240 22ab 	movw	r2, #683	; 0x2ab
 8009fc4:	f002 fb94 	bl	800c6f0 <iprintf>
 8009fc8:	9b0b      	ldr	r3, [sp, #44]	; 0x2c
 8009fca:	f8c3 8000 	str.w	r8, [r3]
 8009fce:	9b09      	ldr	r3, [sp, #36]	; 0x24
 8009fd0:	f8cd 802c 	str.w	r8, [sp, #44]	; 0x2c
 8009fd4:	441f      	add	r7, r3
 8009fd6:	b2bf      	uxth	r7, r7
 8009fd8:	9b05      	ldr	r3, [sp, #20]
 8009fda:	429f      	cmp	r7, r3
 8009fdc:	f4ff af42 	bcc.w	8009e64 <tcp_write+0x260>
 8009fe0:	b125      	cbz	r5, 8009fec <tcp_write+0x3e8>
 8009fe2:	6877      	ldr	r7, [r6, #4]
 8009fe4:	bb67      	cbnz	r7, 800a040 <tcp_write+0x43c>
 8009fe6:	8933      	ldrh	r3, [r6, #8]
 8009fe8:	441d      	add	r5, r3
 8009fea:	8135      	strh	r5, [r6, #8]
 8009fec:	f8bd 303e 	ldrh.w	r3, [sp, #62]	; 0x3e
 8009ff0:	f8a4 3068 	strh.w	r3, [r4, #104]	; 0x68
 8009ff4:	f1b9 0f00 	cmp.w	r9, #0
 8009ff8:	d033      	beq.n	800a062 <tcp_write+0x45e>
 8009ffa:	b936      	cbnz	r6, 800a00a <tcp_write+0x406>
 8009ffc:	4b47      	ldr	r3, [pc, #284]	; (800a11c <tcp_write+0x518>)
 8009ffe:	494c      	ldr	r1, [pc, #304]	; (800a130 <tcp_write+0x52c>)
 800a000:	4848      	ldr	r0, [pc, #288]	; (800a124 <tcp_write+0x520>)
 800a002:	f240 22e1 	movw	r2, #737	; 0x2e1
 800a006:	f002 fb73 	bl	800c6f0 <iprintf>
 800a00a:	4649      	mov	r1, r9
 800a00c:	6870      	ldr	r0, [r6, #4]
 800a00e:	f7fc ffb1 	bl	8006f74 <pbuf_cat>
 800a012:	8933      	ldrh	r3, [r6, #8]
 800a014:	f8b9 2008 	ldrh.w	r2, [r9, #8]
 800a018:	4413      	add	r3, r2
 800a01a:	8133      	strh	r3, [r6, #8]
 800a01c:	f8c6 b000 	str.w	fp, [r6]
 800a020:	e041      	b.n	800a0a6 <tcp_write+0x4a2>
 800a022:	4683      	mov	fp, r0
 800a024:	e7d3      	b.n	8009fce <tcp_write+0x3ca>
 800a026:	46ba      	mov	sl, r7
 800a028:	462f      	mov	r7, r5
 800a02a:	46d1      	mov	r9, sl
 800a02c:	e6c8      	b.n	8009dc0 <tcp_write+0x1bc>
 800a02e:	46ba      	mov	sl, r7
 800a030:	463d      	mov	r5, r7
 800a032:	463e      	mov	r6, r7
 800a034:	46b9      	mov	r9, r7
 800a036:	e6c3      	b.n	8009dc0 <tcp_write+0x1bc>
 800a038:	f04f 0a00 	mov.w	sl, #0
 800a03c:	46d1      	mov	r9, sl
 800a03e:	e7d0      	b.n	8009fe2 <tcp_write+0x3de>
 800a040:	893b      	ldrh	r3, [r7, #8]
 800a042:	442b      	add	r3, r5
 800a044:	813b      	strh	r3, [r7, #8]
 800a046:	683b      	ldr	r3, [r7, #0]
 800a048:	b94b      	cbnz	r3, 800a05e <tcp_write+0x45a>
 800a04a:	687b      	ldr	r3, [r7, #4]
 800a04c:	8978      	ldrh	r0, [r7, #10]
 800a04e:	9908      	ldr	r1, [sp, #32]
 800a050:	4418      	add	r0, r3
 800a052:	462a      	mov	r2, r5
 800a054:	f002 fadf 	bl	800c616 <memcpy>
 800a058:	897b      	ldrh	r3, [r7, #10]
 800a05a:	442b      	add	r3, r5
 800a05c:	817b      	strh	r3, [r7, #10]
 800a05e:	683f      	ldr	r7, [r7, #0]
 800a060:	e7c0      	b.n	8009fe4 <tcp_write+0x3e0>
 800a062:	f1ba 0f00 	cmp.w	sl, #0
 800a066:	d01a      	beq.n	800a09e <tcp_write+0x49a>
 800a068:	b10e      	cbz	r6, 800a06e <tcp_write+0x46a>
 800a06a:	6873      	ldr	r3, [r6, #4]
 800a06c:	b933      	cbnz	r3, 800a07c <tcp_write+0x478>
 800a06e:	4b2b      	ldr	r3, [pc, #172]	; (800a11c <tcp_write+0x518>)
 800a070:	4930      	ldr	r1, [pc, #192]	; (800a134 <tcp_write+0x530>)
 800a072:	482c      	ldr	r0, [pc, #176]	; (800a124 <tcp_write+0x520>)
 800a074:	f240 22e7 	movw	r2, #743	; 0x2e7
 800a078:	f002 fb3a 	bl	800c6f0 <iprintf>
 800a07c:	6873      	ldr	r3, [r6, #4]
 800a07e:	891a      	ldrh	r2, [r3, #8]
 800a080:	6819      	ldr	r1, [r3, #0]
 800a082:	4452      	add	r2, sl
 800a084:	b292      	uxth	r2, r2
 800a086:	811a      	strh	r2, [r3, #8]
 800a088:	b939      	cbnz	r1, 800a09a <tcp_write+0x496>
 800a08a:	895a      	ldrh	r2, [r3, #10]
 800a08c:	4452      	add	r2, sl
 800a08e:	815a      	strh	r2, [r3, #10]
 800a090:	8933      	ldrh	r3, [r6, #8]
 800a092:	449a      	add	sl, r3
 800a094:	f8a6 a008 	strh.w	sl, [r6, #8]
 800a098:	e7c0      	b.n	800a01c <tcp_write+0x418>
 800a09a:	460b      	mov	r3, r1
 800a09c:	e7ef      	b.n	800a07e <tcp_write+0x47a>
 800a09e:	2e00      	cmp	r6, #0
 800a0a0:	d1bc      	bne.n	800a01c <tcp_write+0x418>
 800a0a2:	f8c4 b06c 	str.w	fp, [r4, #108]	; 0x6c
 800a0a6:	6de3      	ldr	r3, [r4, #92]	; 0x5c
 800a0a8:	9a05      	ldr	r2, [sp, #20]
 800a0aa:	4413      	add	r3, r2
 800a0ac:	65e3      	str	r3, [r4, #92]	; 0x5c
 800a0ae:	f8b4 3064 	ldrh.w	r3, [r4, #100]	; 0x64
 800a0b2:	1a9b      	subs	r3, r3, r2
 800a0b4:	f8a4 3064 	strh.w	r3, [r4, #100]	; 0x64
 800a0b8:	9b06      	ldr	r3, [sp, #24]
 800a0ba:	f8a4 3066 	strh.w	r3, [r4, #102]	; 0x66
 800a0be:	b153      	cbz	r3, 800a0d6 <tcp_write+0x4d2>
 800a0c0:	6f23      	ldr	r3, [r4, #112]	; 0x70
 800a0c2:	b943      	cbnz	r3, 800a0d6 <tcp_write+0x4d2>
 800a0c4:	6ee3      	ldr	r3, [r4, #108]	; 0x6c
 800a0c6:	b933      	cbnz	r3, 800a0d6 <tcp_write+0x4d2>
 800a0c8:	4b14      	ldr	r3, [pc, #80]	; (800a11c <tcp_write+0x518>)
 800a0ca:	4917      	ldr	r1, [pc, #92]	; (800a128 <tcp_write+0x524>)
 800a0cc:	4815      	ldr	r0, [pc, #84]	; (800a124 <tcp_write+0x520>)
 800a0ce:	f240 3213 	movw	r2, #787	; 0x313
 800a0d2:	f002 fb0d 	bl	800c6f0 <iprintf>
 800a0d6:	f1b8 0f00 	cmp.w	r8, #0
 800a0da:	d010      	beq.n	800a0fe <tcp_write+0x4fa>
 800a0dc:	f8d8 000c 	ldr.w	r0, [r8, #12]
 800a0e0:	2800      	cmp	r0, #0
 800a0e2:	f43f ada3 	beq.w	8009c2c <tcp_write+0x28>
 800a0e6:	9b0a      	ldr	r3, [sp, #40]	; 0x28
 800a0e8:	f013 0502 	ands.w	r5, r3, #2
 800a0ec:	d107      	bne.n	800a0fe <tcp_write+0x4fa>
 800a0ee:	8984      	ldrh	r4, [r0, #12]
 800a0f0:	2008      	movs	r0, #8
 800a0f2:	f7fc f84d 	bl	8006190 <lwip_htons>
 800a0f6:	f8d8 300c 	ldr.w	r3, [r8, #12]
 800a0fa:	4320      	orrs	r0, r4
 800a0fc:	8198      	strh	r0, [r3, #12]
 800a0fe:	2000      	movs	r0, #0
 800a100:	e594      	b.n	8009c2c <tcp_write+0x28>
 800a102:	f04f 0900 	mov.w	r9, #0
 800a106:	e71f      	b.n	8009f48 <tcp_write+0x344>
 800a108:	f06f 000a 	mvn.w	r0, #10
 800a10c:	e58e      	b.n	8009c2c <tcp_write+0x28>
 800a10e:	2d00      	cmp	r5, #0
 800a110:	d192      	bne.n	800a038 <tcp_write+0x434>
 800a112:	f8bd 303e 	ldrh.w	r3, [sp, #62]	; 0x3e
 800a116:	f8a4 3068 	strh.w	r3, [r4, #104]	; 0x68
 800a11a:	e77f      	b.n	800a01c <tcp_write+0x418>
 800a11c:	0800f03b 	.word	0x0800f03b
 800a120:	0800f3cb 	.word	0x0800f3cb
 800a124:	0800d51e 	.word	0x0800d51e
 800a128:	0800f457 	.word	0x0800f457
 800a12c:	0800f3d9 	.word	0x0800f3d9
 800a130:	0800f3ea 	.word	0x0800f3ea
 800a134:	0800f422 	.word	0x0800f422

0800a138 <tcp_split_unsent_seg>:
 800a138:	e92d 4ff7 	stmdb	sp!, {r0, r1, r2, r4, r5, r6, r7, r8, r9, sl, fp, lr}
 800a13c:	4689      	mov	r9, r1
 800a13e:	4605      	mov	r5, r0
 800a140:	b930      	cbnz	r0, 800a150 <tcp_split_unsent_seg+0x18>
 800a142:	4b5a      	ldr	r3, [pc, #360]	; (800a2ac <tcp_split_unsent_seg+0x174>)
 800a144:	495a      	ldr	r1, [pc, #360]	; (800a2b0 <tcp_split_unsent_seg+0x178>)
 800a146:	485b      	ldr	r0, [pc, #364]	; (800a2b4 <tcp_split_unsent_seg+0x17c>)
 800a148:	f240 324b 	movw	r2, #843	; 0x34b
 800a14c:	f002 fad0 	bl	800c6f0 <iprintf>
 800a150:	6eec      	ldr	r4, [r5, #108]	; 0x6c
 800a152:	b914      	cbnz	r4, 800a15a <tcp_split_unsent_seg+0x22>
 800a154:	f04f 30ff 	mov.w	r0, #4294967295
 800a158:	e00b      	b.n	800a172 <tcp_split_unsent_seg+0x3a>
 800a15a:	f1b9 0f00 	cmp.w	r9, #0
 800a15e:	d10b      	bne.n	800a178 <tcp_split_unsent_seg+0x40>
 800a160:	4b52      	ldr	r3, [pc, #328]	; (800a2ac <tcp_split_unsent_seg+0x174>)
 800a162:	4955      	ldr	r1, [pc, #340]	; (800a2b8 <tcp_split_unsent_seg+0x180>)
 800a164:	4853      	ldr	r0, [pc, #332]	; (800a2b4 <tcp_split_unsent_seg+0x17c>)
 800a166:	f240 3253 	movw	r2, #851	; 0x353
 800a16a:	f002 fac1 	bl	800c6f0 <iprintf>
 800a16e:	f06f 0005 	mvn.w	r0, #5
 800a172:	b003      	add	sp, #12
 800a174:	e8bd 8ff0 	ldmia.w	sp!, {r4, r5, r6, r7, r8, r9, sl, fp, pc}
 800a178:	8923      	ldrh	r3, [r4, #8]
 800a17a:	454b      	cmp	r3, r9
 800a17c:	d801      	bhi.n	800a182 <tcp_split_unsent_seg+0x4a>
 800a17e:	2000      	movs	r0, #0
 800a180:	e7f7      	b.n	800a172 <tcp_split_unsent_seg+0x3a>
 800a182:	8e6b      	ldrh	r3, [r5, #50]	; 0x32
 800a184:	454b      	cmp	r3, r9
 800a186:	d206      	bcs.n	800a196 <tcp_split_unsent_seg+0x5e>
 800a188:	4b48      	ldr	r3, [pc, #288]	; (800a2ac <tcp_split_unsent_seg+0x174>)
 800a18a:	494c      	ldr	r1, [pc, #304]	; (800a2bc <tcp_split_unsent_seg+0x184>)
 800a18c:	4849      	ldr	r0, [pc, #292]	; (800a2b4 <tcp_split_unsent_seg+0x17c>)
 800a18e:	f240 325b 	movw	r2, #859	; 0x35b
 800a192:	f002 faad 	bl	800c6f0 <iprintf>
 800a196:	8923      	ldrh	r3, [r4, #8]
 800a198:	b933      	cbnz	r3, 800a1a8 <tcp_split_unsent_seg+0x70>
 800a19a:	4b44      	ldr	r3, [pc, #272]	; (800a2ac <tcp_split_unsent_seg+0x174>)
 800a19c:	4948      	ldr	r1, [pc, #288]	; (800a2c0 <tcp_split_unsent_seg+0x188>)
 800a19e:	4845      	ldr	r0, [pc, #276]	; (800a2b4 <tcp_split_unsent_seg+0x17c>)
 800a1a0:	f44f 7257 	mov.w	r2, #860	; 0x35c
 800a1a4:	f002 faa4 	bl	800c6f0 <iprintf>
 800a1a8:	f894 b00a 	ldrb.w	fp, [r4, #10]
 800a1ac:	8927      	ldrh	r7, [r4, #8]
 800a1ae:	ea4f 068b 	mov.w	r6, fp, lsl #2
 800a1b2:	eba7 0709 	sub.w	r7, r7, r9
 800a1b6:	f006 0604 	and.w	r6, r6, #4
 800a1ba:	b2bf      	uxth	r7, r7
 800a1bc:	19b9      	adds	r1, r7, r6
 800a1be:	f44f 7220 	mov.w	r2, #640	; 0x280
 800a1c2:	b289      	uxth	r1, r1
 800a1c4:	2036      	movs	r0, #54	; 0x36
 800a1c6:	f7fc fdc5 	bl	8006d54 <pbuf_alloc>
 800a1ca:	4682      	mov	sl, r0
 800a1cc:	2800      	cmp	r0, #0
 800a1ce:	d0c1      	beq.n	800a154 <tcp_split_unsent_seg+0x1c>
 800a1d0:	6860      	ldr	r0, [r4, #4]
 800a1d2:	8922      	ldrh	r2, [r4, #8]
 800a1d4:	8903      	ldrh	r3, [r0, #8]
 800a1d6:	f8da 1004 	ldr.w	r1, [sl, #4]
 800a1da:	1a9b      	subs	r3, r3, r2
 800a1dc:	444b      	add	r3, r9
 800a1de:	b29b      	uxth	r3, r3
 800a1e0:	463a      	mov	r2, r7
 800a1e2:	4431      	add	r1, r6
 800a1e4:	f7fc ff82 	bl	80070ec <pbuf_copy_partial>
 800a1e8:	42b8      	cmp	r0, r7
 800a1ea:	d15a      	bne.n	800a2a2 <tcp_split_unsent_seg+0x16a>
 800a1ec:	68e3      	ldr	r3, [r4, #12]
 800a1ee:	8998      	ldrh	r0, [r3, #12]
 800a1f0:	f7fb ffce 	bl	8006190 <lwip_htons>
 800a1f4:	b2c6      	uxtb	r6, r0
 800a1f6:	f016 0808 	ands.w	r8, r6, #8
 800a1fa:	bf0e      	itee	eq
 800a1fc:	f006 063f 	andeq.w	r6, r6, #63	; 0x3f
 800a200:	f006 0637 	andne.w	r6, r6, #55	; 0x37
 800a204:	f04f 0808 	movne.w	r8, #8
 800a208:	07f3      	lsls	r3, r6, #31
 800a20a:	68e3      	ldr	r3, [r4, #12]
 800a20c:	6858      	ldr	r0, [r3, #4]
 800a20e:	bf44      	itt	mi
 800a210:	f048 0801 	orrmi.w	r8, r8, #1
 800a214:	f006 06fe 	andmi.w	r6, r6, #254	; 0xfe
 800a218:	f7fb ffbd 	bl	8006196 <lwip_htonl>
 800a21c:	4642      	mov	r2, r8
 800a21e:	eb09 0300 	add.w	r3, r9, r0
 800a222:	f8cd b000 	str.w	fp, [sp]
 800a226:	4651      	mov	r1, sl
 800a228:	4628      	mov	r0, r5
 800a22a:	f7ff fbcb 	bl	80099c4 <tcp_create_segment>
 800a22e:	4680      	mov	r8, r0
 800a230:	2800      	cmp	r0, #0
 800a232:	d036      	beq.n	800a2a2 <tcp_split_unsent_seg+0x16a>
 800a234:	6860      	ldr	r0, [r4, #4]
 800a236:	f7fc fe79 	bl	8006f2c <pbuf_clen>
 800a23a:	f8b5 3066 	ldrh.w	r3, [r5, #102]	; 0x66
 800a23e:	1a18      	subs	r0, r3, r0
 800a240:	f8a5 0066 	strh.w	r0, [r5, #102]	; 0x66
 800a244:	6860      	ldr	r0, [r4, #4]
 800a246:	8901      	ldrh	r1, [r0, #8]
 800a248:	1bc9      	subs	r1, r1, r7
 800a24a:	b289      	uxth	r1, r1
 800a24c:	f7fc fe16 	bl	8006e7c <pbuf_realloc>
 800a250:	8923      	ldrh	r3, [r4, #8]
 800a252:	1bdf      	subs	r7, r3, r7
 800a254:	68e3      	ldr	r3, [r4, #12]
 800a256:	8127      	strh	r7, [r4, #8]
 800a258:	4630      	mov	r0, r6
 800a25a:	899f      	ldrh	r7, [r3, #12]
 800a25c:	f7fb ff98 	bl	8006190 <lwip_htons>
 800a260:	68e3      	ldr	r3, [r4, #12]
 800a262:	4338      	orrs	r0, r7
 800a264:	8198      	strh	r0, [r3, #12]
 800a266:	6860      	ldr	r0, [r4, #4]
 800a268:	f7fc fe60 	bl	8006f2c <pbuf_clen>
 800a26c:	f8b5 3066 	ldrh.w	r3, [r5, #102]	; 0x66
 800a270:	4418      	add	r0, r3
 800a272:	f8a5 0066 	strh.w	r0, [r5, #102]	; 0x66
 800a276:	f8d8 0004 	ldr.w	r0, [r8, #4]
 800a27a:	f7fc fe57 	bl	8006f2c <pbuf_clen>
 800a27e:	f8b5 3066 	ldrh.w	r3, [r5, #102]	; 0x66
 800a282:	4418      	add	r0, r3
 800a284:	6823      	ldr	r3, [r4, #0]
 800a286:	f8a5 0066 	strh.w	r0, [r5, #102]	; 0x66
 800a28a:	f8c8 3000 	str.w	r3, [r8]
 800a28e:	f8c4 8000 	str.w	r8, [r4]
 800a292:	f8d8 0000 	ldr.w	r0, [r8]
 800a296:	2800      	cmp	r0, #0
 800a298:	f47f af71 	bne.w	800a17e <tcp_split_unsent_seg+0x46>
 800a29c:	f8a5 0068 	strh.w	r0, [r5, #104]	; 0x68
 800a2a0:	e767      	b.n	800a172 <tcp_split_unsent_seg+0x3a>
 800a2a2:	4650      	mov	r0, sl
 800a2a4:	f7fc fcee 	bl	8006c84 <pbuf_free>
 800a2a8:	e754      	b.n	800a154 <tcp_split_unsent_seg+0x1c>
 800a2aa:	bf00      	nop
 800a2ac:	0800f03b 	.word	0x0800f03b
 800a2b0:	0800f1cd 	.word	0x0800f1cd
 800a2b4:	0800d51e 	.word	0x0800d51e
 800a2b8:	0800f1ef 	.word	0x0800f1ef
 800a2bc:	0800f211 	.word	0x0800f211
 800a2c0:	0800f21e 	.word	0x0800f21e

0800a2c4 <tcp_enqueue_flags>:
 800a2c4:	e92d 43f7 	stmdb	sp!, {r0, r1, r2, r4, r5, r6, r7, r8, r9, lr}
 800a2c8:	f011 0803 	ands.w	r8, r1, #3
 800a2cc:	4604      	mov	r4, r0
 800a2ce:	460e      	mov	r6, r1
 800a2d0:	d106      	bne.n	800a2e0 <tcp_enqueue_flags+0x1c>
 800a2d2:	4b3e      	ldr	r3, [pc, #248]	; (800a3cc <tcp_enqueue_flags+0x108>)
 800a2d4:	493e      	ldr	r1, [pc, #248]	; (800a3d0 <tcp_enqueue_flags+0x10c>)
 800a2d6:	483f      	ldr	r0, [pc, #252]	; (800a3d4 <tcp_enqueue_flags+0x110>)
 800a2d8:	f240 4212 	movw	r2, #1042	; 0x412
 800a2dc:	f002 fa08 	bl	800c6f0 <iprintf>
 800a2e0:	b934      	cbnz	r4, 800a2f0 <tcp_enqueue_flags+0x2c>
 800a2e2:	4b3a      	ldr	r3, [pc, #232]	; (800a3cc <tcp_enqueue_flags+0x108>)
 800a2e4:	493c      	ldr	r1, [pc, #240]	; (800a3d8 <tcp_enqueue_flags+0x114>)
 800a2e6:	483b      	ldr	r0, [pc, #236]	; (800a3d4 <tcp_enqueue_flags+0x110>)
 800a2e8:	f240 4213 	movw	r2, #1043	; 0x413
 800a2ec:	f002 fa00 	bl	800c6f0 <iprintf>
 800a2f0:	f3c6 0740 	ubfx	r7, r6, #1, #1
 800a2f4:	ea4f 0987 	mov.w	r9, r7, lsl #2
 800a2f8:	f44f 7220 	mov.w	r2, #640	; 0x280
 800a2fc:	4649      	mov	r1, r9
 800a2fe:	2036      	movs	r0, #54	; 0x36
 800a300:	f7fc fd28 	bl	8006d54 <pbuf_alloc>
 800a304:	4605      	mov	r5, r0
 800a306:	b940      	cbnz	r0, 800a31a <tcp_enqueue_flags+0x56>
 800a308:	8b63      	ldrh	r3, [r4, #26]
 800a30a:	f043 0380 	orr.w	r3, r3, #128	; 0x80
 800a30e:	8363      	strh	r3, [r4, #26]
 800a310:	f04f 30ff 	mov.w	r0, #4294967295
 800a314:	b003      	add	sp, #12
 800a316:	e8bd 83f0 	ldmia.w	sp!, {r4, r5, r6, r7, r8, r9, pc}
 800a31a:	8943      	ldrh	r3, [r0, #10]
 800a31c:	454b      	cmp	r3, r9
 800a31e:	d206      	bcs.n	800a32e <tcp_enqueue_flags+0x6a>
 800a320:	4b2a      	ldr	r3, [pc, #168]	; (800a3cc <tcp_enqueue_flags+0x108>)
 800a322:	492e      	ldr	r1, [pc, #184]	; (800a3dc <tcp_enqueue_flags+0x118>)
 800a324:	482b      	ldr	r0, [pc, #172]	; (800a3d4 <tcp_enqueue_flags+0x110>)
 800a326:	f240 423a 	movw	r2, #1082	; 0x43a
 800a32a:	f002 f9e1 	bl	800c6f0 <iprintf>
 800a32e:	9700      	str	r7, [sp, #0]
 800a330:	4629      	mov	r1, r5
 800a332:	6de3      	ldr	r3, [r4, #92]	; 0x5c
 800a334:	4632      	mov	r2, r6
 800a336:	4620      	mov	r0, r4
 800a338:	f7ff fb44 	bl	80099c4 <tcp_create_segment>
 800a33c:	4605      	mov	r5, r0
 800a33e:	2800      	cmp	r0, #0
 800a340:	d0e2      	beq.n	800a308 <tcp_enqueue_flags+0x44>
 800a342:	68c3      	ldr	r3, [r0, #12]
 800a344:	079a      	lsls	r2, r3, #30
 800a346:	d006      	beq.n	800a356 <tcp_enqueue_flags+0x92>
 800a348:	4b20      	ldr	r3, [pc, #128]	; (800a3cc <tcp_enqueue_flags+0x108>)
 800a34a:	4925      	ldr	r1, [pc, #148]	; (800a3e0 <tcp_enqueue_flags+0x11c>)
 800a34c:	4821      	ldr	r0, [pc, #132]	; (800a3d4 <tcp_enqueue_flags+0x110>)
 800a34e:	f240 4242 	movw	r2, #1090	; 0x442
 800a352:	f002 f9cd 	bl	800c6f0 <iprintf>
 800a356:	892b      	ldrh	r3, [r5, #8]
 800a358:	b133      	cbz	r3, 800a368 <tcp_enqueue_flags+0xa4>
 800a35a:	4b1c      	ldr	r3, [pc, #112]	; (800a3cc <tcp_enqueue_flags+0x108>)
 800a35c:	4921      	ldr	r1, [pc, #132]	; (800a3e4 <tcp_enqueue_flags+0x120>)
 800a35e:	481d      	ldr	r0, [pc, #116]	; (800a3d4 <tcp_enqueue_flags+0x110>)
 800a360:	f240 4243 	movw	r2, #1091	; 0x443
 800a364:	f002 f9c4 	bl	800c6f0 <iprintf>
 800a368:	6ee3      	ldr	r3, [r4, #108]	; 0x6c
 800a36a:	bb53      	cbnz	r3, 800a3c2 <tcp_enqueue_flags+0xfe>
 800a36c:	66e5      	str	r5, [r4, #108]	; 0x6c
 800a36e:	2300      	movs	r3, #0
 800a370:	f8a4 3068 	strh.w	r3, [r4, #104]	; 0x68
 800a374:	f1b8 0f00 	cmp.w	r8, #0
 800a378:	d002      	beq.n	800a380 <tcp_enqueue_flags+0xbc>
 800a37a:	6de3      	ldr	r3, [r4, #92]	; 0x5c
 800a37c:	3301      	adds	r3, #1
 800a37e:	65e3      	str	r3, [r4, #92]	; 0x5c
 800a380:	07f3      	lsls	r3, r6, #31
 800a382:	bf48      	it	mi
 800a384:	8b63      	ldrhmi	r3, [r4, #26]
 800a386:	6868      	ldr	r0, [r5, #4]
 800a388:	bf44      	itt	mi
 800a38a:	f043 0320 	orrmi.w	r3, r3, #32
 800a38e:	8363      	strhmi	r3, [r4, #26]
 800a390:	f7fc fdcc 	bl	8006f2c <pbuf_clen>
 800a394:	f8b4 3066 	ldrh.w	r3, [r4, #102]	; 0x66
 800a398:	4418      	add	r0, r3
 800a39a:	b280      	uxth	r0, r0
 800a39c:	f8a4 0066 	strh.w	r0, [r4, #102]	; 0x66
 800a3a0:	2800      	cmp	r0, #0
 800a3a2:	d0b7      	beq.n	800a314 <tcp_enqueue_flags+0x50>
 800a3a4:	6f20      	ldr	r0, [r4, #112]	; 0x70
 800a3a6:	b948      	cbnz	r0, 800a3bc <tcp_enqueue_flags+0xf8>
 800a3a8:	6ee4      	ldr	r4, [r4, #108]	; 0x6c
 800a3aa:	2c00      	cmp	r4, #0
 800a3ac:	d1b2      	bne.n	800a314 <tcp_enqueue_flags+0x50>
 800a3ae:	4b07      	ldr	r3, [pc, #28]	; (800a3cc <tcp_enqueue_flags+0x108>)
 800a3b0:	490d      	ldr	r1, [pc, #52]	; (800a3e8 <tcp_enqueue_flags+0x124>)
 800a3b2:	4808      	ldr	r0, [pc, #32]	; (800a3d4 <tcp_enqueue_flags+0x110>)
 800a3b4:	f240 4266 	movw	r2, #1126	; 0x466
 800a3b8:	f002 f99a 	bl	800c6f0 <iprintf>
 800a3bc:	2000      	movs	r0, #0
 800a3be:	e7a9      	b.n	800a314 <tcp_enqueue_flags+0x50>
 800a3c0:	4613      	mov	r3, r2
 800a3c2:	681a      	ldr	r2, [r3, #0]
 800a3c4:	2a00      	cmp	r2, #0
 800a3c6:	d1fb      	bne.n	800a3c0 <tcp_enqueue_flags+0xfc>
 800a3c8:	601d      	str	r5, [r3, #0]
 800a3ca:	e7d0      	b.n	800a36e <tcp_enqueue_flags+0xaa>
 800a3cc:	0800f03b 	.word	0x0800f03b
 800a3d0:	0800edff 	.word	0x0800edff
 800a3d4:	0800d51e 	.word	0x0800d51e
 800a3d8:	0800ee54 	.word	0x0800ee54
 800a3dc:	0800ee73 	.word	0x0800ee73
 800a3e0:	0800eeac 	.word	0x0800eeac
 800a3e4:	0800eec4 	.word	0x0800eec4
 800a3e8:	0800eeee 	.word	0x0800eeee

0800a3ec <tcp_send_fin>:
 800a3ec:	b5f8      	push	{r3, r4, r5, r6, r7, lr}
 800a3ee:	4605      	mov	r5, r0
 800a3f0:	b930      	cbnz	r0, 800a400 <tcp_send_fin+0x14>
 800a3f2:	4b14      	ldr	r3, [pc, #80]	; (800a444 <tcp_send_fin+0x58>)
 800a3f4:	4914      	ldr	r1, [pc, #80]	; (800a448 <tcp_send_fin+0x5c>)
 800a3f6:	4815      	ldr	r0, [pc, #84]	; (800a44c <tcp_send_fin+0x60>)
 800a3f8:	f240 32eb 	movw	r2, #1003	; 0x3eb
 800a3fc:	f002 f978 	bl	800c6f0 <iprintf>
 800a400:	6eec      	ldr	r4, [r5, #108]	; 0x6c
 800a402:	b934      	cbnz	r4, 800a412 <tcp_send_fin+0x26>
 800a404:	4628      	mov	r0, r5
 800a406:	2101      	movs	r1, #1
 800a408:	e8bd 40f8 	ldmia.w	sp!, {r3, r4, r5, r6, r7, lr}
 800a40c:	f7ff bf5a 	b.w	800a2c4 <tcp_enqueue_flags>
 800a410:	461c      	mov	r4, r3
 800a412:	6823      	ldr	r3, [r4, #0]
 800a414:	2b00      	cmp	r3, #0
 800a416:	d1fb      	bne.n	800a410 <tcp_send_fin+0x24>
 800a418:	68e3      	ldr	r3, [r4, #12]
 800a41a:	8998      	ldrh	r0, [r3, #12]
 800a41c:	f7fb feb8 	bl	8006190 <lwip_htons>
 800a420:	f010 0707 	ands.w	r7, r0, #7
 800a424:	d1ee      	bne.n	800a404 <tcp_send_fin+0x18>
 800a426:	68e3      	ldr	r3, [r4, #12]
 800a428:	2001      	movs	r0, #1
 800a42a:	899e      	ldrh	r6, [r3, #12]
 800a42c:	f7fb feb0 	bl	8006190 <lwip_htons>
 800a430:	68e3      	ldr	r3, [r4, #12]
 800a432:	4330      	orrs	r0, r6
 800a434:	8198      	strh	r0, [r3, #12]
 800a436:	8b6b      	ldrh	r3, [r5, #26]
 800a438:	f043 0320 	orr.w	r3, r3, #32
 800a43c:	836b      	strh	r3, [r5, #26]
 800a43e:	4638      	mov	r0, r7
 800a440:	bdf8      	pop	{r3, r4, r5, r6, r7, pc}
 800a442:	bf00      	nop
 800a444:	0800f03b 	.word	0x0800f03b
 800a448:	0800f1b3 	.word	0x0800f1b3
 800a44c:	0800d51e 	.word	0x0800d51e

0800a450 <tcp_rexmit_rto_prepare>:
 800a450:	e92d 41f0 	stmdb	sp!, {r4, r5, r6, r7, r8, lr}
 800a454:	4604      	mov	r4, r0
 800a456:	b930      	cbnz	r0, 800a466 <tcp_rexmit_rto_prepare+0x16>
 800a458:	4b1c      	ldr	r3, [pc, #112]	; (800a4cc <tcp_rexmit_rto_prepare+0x7c>)
 800a45a:	491d      	ldr	r1, [pc, #116]	; (800a4d0 <tcp_rexmit_rto_prepare+0x80>)
 800a45c:	481d      	ldr	r0, [pc, #116]	; (800a4d4 <tcp_rexmit_rto_prepare+0x84>)
 800a45e:	f240 6263 	movw	r2, #1635	; 0x663
 800a462:	f002 f945 	bl	800c6f0 <iprintf>
 800a466:	6f25      	ldr	r5, [r4, #112]	; 0x70
 800a468:	b945      	cbnz	r5, 800a47c <tcp_rexmit_rto_prepare+0x2c>
 800a46a:	f06f 0005 	mvn.w	r0, #5
 800a46e:	e8bd 81f0 	ldmia.w	sp!, {r4, r5, r6, r7, r8, pc}
 800a472:	f7ff fa45 	bl	8009900 <tcp_output_segment_busy>
 800a476:	2800      	cmp	r0, #0
 800a478:	d1f7      	bne.n	800a46a <tcp_rexmit_rto_prepare+0x1a>
 800a47a:	682d      	ldr	r5, [r5, #0]
 800a47c:	682b      	ldr	r3, [r5, #0]
 800a47e:	4628      	mov	r0, r5
 800a480:	2b00      	cmp	r3, #0
 800a482:	d1f6      	bne.n	800a472 <tcp_rexmit_rto_prepare+0x22>
 800a484:	f7ff fa3c 	bl	8009900 <tcp_output_segment_busy>
 800a488:	4606      	mov	r6, r0
 800a48a:	2800      	cmp	r0, #0
 800a48c:	d1ed      	bne.n	800a46a <tcp_rexmit_rto_prepare+0x1a>
 800a48e:	6ee3      	ldr	r3, [r4, #108]	; 0x6c
 800a490:	602b      	str	r3, [r5, #0]
 800a492:	6f23      	ldr	r3, [r4, #112]	; 0x70
 800a494:	e9c4 301b 	strd	r3, r0, [r4, #108]	; 0x6c
 800a498:	8b63      	ldrh	r3, [r4, #26]
 800a49a:	f443 6300 	orr.w	r3, r3, #2048	; 0x800
 800a49e:	8363      	strh	r3, [r4, #26]
 800a4a0:	68eb      	ldr	r3, [r5, #12]
 800a4a2:	6858      	ldr	r0, [r3, #4]
 800a4a4:	f7fb fe77 	bl	8006196 <lwip_htonl>
 800a4a8:	68eb      	ldr	r3, [r5, #12]
 800a4aa:	f8b5 8008 	ldrh.w	r8, [r5, #8]
 800a4ae:	4607      	mov	r7, r0
 800a4b0:	8998      	ldrh	r0, [r3, #12]
 800a4b2:	f7fb fe6d 	bl	8006190 <lwip_htons>
 800a4b6:	f010 0003 	ands.w	r0, r0, #3
 800a4ba:	bf18      	it	ne
 800a4bc:	2001      	movne	r0, #1
 800a4be:	4447      	add	r7, r8
 800a4c0:	4438      	add	r0, r7
 800a4c2:	64e0      	str	r0, [r4, #76]	; 0x4c
 800a4c4:	6366      	str	r6, [r4, #52]	; 0x34
 800a4c6:	4630      	mov	r0, r6
 800a4c8:	e7d1      	b.n	800a46e <tcp_rexmit_rto_prepare+0x1e>
 800a4ca:	bf00      	nop
 800a4cc:	0800f03b 	.word	0x0800f03b
 800a4d0:	0800f13a 	.word	0x0800f13a
 800a4d4:	0800d51e 	.word	0x0800d51e

0800a4d8 <tcp_rexmit>:
 800a4d8:	b5f8      	push	{r3, r4, r5, r6, r7, lr}
 800a4da:	4604      	mov	r4, r0
 800a4dc:	b930      	cbnz	r0, 800a4ec <tcp_rexmit+0x14>
 800a4de:	4b1c      	ldr	r3, [pc, #112]	; (800a550 <tcp_rexmit+0x78>)
 800a4e0:	491c      	ldr	r1, [pc, #112]	; (800a554 <tcp_rexmit+0x7c>)
 800a4e2:	481d      	ldr	r0, [pc, #116]	; (800a558 <tcp_rexmit+0x80>)
 800a4e4:	f240 62c1 	movw	r2, #1729	; 0x6c1
 800a4e8:	f002 f902 	bl	800c6f0 <iprintf>
 800a4ec:	6f25      	ldr	r5, [r4, #112]	; 0x70
 800a4ee:	b915      	cbnz	r5, 800a4f6 <tcp_rexmit+0x1e>
 800a4f0:	f06f 0005 	mvn.w	r0, #5
 800a4f4:	bdf8      	pop	{r3, r4, r5, r6, r7, pc}
 800a4f6:	4628      	mov	r0, r5
 800a4f8:	f7ff fa02 	bl	8009900 <tcp_output_segment_busy>
 800a4fc:	2800      	cmp	r0, #0
 800a4fe:	d1f7      	bne.n	800a4f0 <tcp_rexmit+0x18>
 800a500:	682b      	ldr	r3, [r5, #0]
 800a502:	6723      	str	r3, [r4, #112]	; 0x70
 800a504:	f104 066c 	add.w	r6, r4, #108	; 0x6c
 800a508:	6833      	ldr	r3, [r6, #0]
 800a50a:	b993      	cbnz	r3, 800a532 <tcp_rexmit+0x5a>
 800a50c:	6833      	ldr	r3, [r6, #0]
 800a50e:	602b      	str	r3, [r5, #0]
 800a510:	6035      	str	r5, [r6, #0]
 800a512:	682b      	ldr	r3, [r5, #0]
 800a514:	b90b      	cbnz	r3, 800a51a <tcp_rexmit+0x42>
 800a516:	f8a4 3068 	strh.w	r3, [r4, #104]	; 0x68
 800a51a:	f894 3042 	ldrb.w	r3, [r4, #66]	; 0x42
 800a51e:	2bff      	cmp	r3, #255	; 0xff
 800a520:	bf18      	it	ne
 800a522:	3301      	addne	r3, #1
 800a524:	f04f 0000 	mov.w	r0, #0
 800a528:	bf18      	it	ne
 800a52a:	f884 3042 	strbne.w	r3, [r4, #66]	; 0x42
 800a52e:	6360      	str	r0, [r4, #52]	; 0x34
 800a530:	e7e0      	b.n	800a4f4 <tcp_rexmit+0x1c>
 800a532:	68db      	ldr	r3, [r3, #12]
 800a534:	6858      	ldr	r0, [r3, #4]
 800a536:	f7fb fe2e 	bl	8006196 <lwip_htonl>
 800a53a:	68eb      	ldr	r3, [r5, #12]
 800a53c:	4607      	mov	r7, r0
 800a53e:	6858      	ldr	r0, [r3, #4]
 800a540:	f7fb fe29 	bl	8006196 <lwip_htonl>
 800a544:	1a38      	subs	r0, r7, r0
 800a546:	2800      	cmp	r0, #0
 800a548:	dae0      	bge.n	800a50c <tcp_rexmit+0x34>
 800a54a:	6836      	ldr	r6, [r6, #0]
 800a54c:	e7dc      	b.n	800a508 <tcp_rexmit+0x30>
 800a54e:	bf00      	nop
 800a550:	0800f03b 	.word	0x0800f03b
 800a554:	0800f0c6 	.word	0x0800f0c6
 800a558:	0800d51e 	.word	0x0800d51e

0800a55c <tcp_rexmit_fast>:
 800a55c:	b510      	push	{r4, lr}
 800a55e:	4604      	mov	r4, r0
 800a560:	b930      	cbnz	r0, 800a570 <tcp_rexmit_fast+0x14>
 800a562:	4b17      	ldr	r3, [pc, #92]	; (800a5c0 <tcp_rexmit_fast+0x64>)
 800a564:	4917      	ldr	r1, [pc, #92]	; (800a5c4 <tcp_rexmit_fast+0x68>)
 800a566:	4818      	ldr	r0, [pc, #96]	; (800a5c8 <tcp_rexmit_fast+0x6c>)
 800a568:	f240 62f9 	movw	r2, #1785	; 0x6f9
 800a56c:	f002 f8c0 	bl	800c6f0 <iprintf>
 800a570:	6f23      	ldr	r3, [r4, #112]	; 0x70
 800a572:	b31b      	cbz	r3, 800a5bc <tcp_rexmit_fast+0x60>
 800a574:	8b63      	ldrh	r3, [r4, #26]
 800a576:	075b      	lsls	r3, r3, #29
 800a578:	d420      	bmi.n	800a5bc <tcp_rexmit_fast+0x60>
 800a57a:	4620      	mov	r0, r4
 800a57c:	f7ff ffac 	bl	800a4d8 <tcp_rexmit>
 800a580:	b9e0      	cbnz	r0, 800a5bc <tcp_rexmit_fast+0x60>
 800a582:	f8b4 2060 	ldrh.w	r2, [r4, #96]	; 0x60
 800a586:	f8b4 3048 	ldrh.w	r3, [r4, #72]	; 0x48
 800a58a:	4293      	cmp	r3, r2
 800a58c:	bf38      	it	cc
 800a58e:	085a      	lsrcc	r2, r3, #1
 800a590:	8e63      	ldrh	r3, [r4, #50]	; 0x32
 800a592:	bf28      	it	cs
 800a594:	0852      	lsrcs	r2, r2, #1
 800a596:	0059      	lsls	r1, r3, #1
 800a598:	428a      	cmp	r2, r1
 800a59a:	f8a4 204a 	strh.w	r2, [r4, #74]	; 0x4a
 800a59e:	bf38      	it	cc
 800a5a0:	f8a4 104a 	strhcc.w	r1, [r4, #74]	; 0x4a
 800a5a4:	f8b4 204a 	ldrh.w	r2, [r4, #74]	; 0x4a
 800a5a8:	440b      	add	r3, r1
 800a5aa:	4413      	add	r3, r2
 800a5ac:	f8a4 3048 	strh.w	r3, [r4, #72]	; 0x48
 800a5b0:	8b63      	ldrh	r3, [r4, #26]
 800a5b2:	f043 0304 	orr.w	r3, r3, #4
 800a5b6:	8363      	strh	r3, [r4, #26]
 800a5b8:	2300      	movs	r3, #0
 800a5ba:	8623      	strh	r3, [r4, #48]	; 0x30
 800a5bc:	bd10      	pop	{r4, pc}
 800a5be:	bf00      	nop
 800a5c0:	0800f03b 	.word	0x0800f03b
 800a5c4:	0800f0de 	.word	0x0800f0de
 800a5c8:	0800d51e 	.word	0x0800d51e

0800a5cc <tcp_rst>:
 800a5cc:	e92d 47ff 	stmdb	sp!, {r0, r1, r2, r3, r4, r5, r6, r7, r8, r9, sl, lr}
 800a5d0:	9d0c      	ldr	r5, [sp, #48]	; 0x30
 800a5d2:	f8bd 8034 	ldrh.w	r8, [sp, #52]	; 0x34
 800a5d6:	f8bd 9038 	ldrh.w	r9, [sp, #56]	; 0x38
 800a5da:	4606      	mov	r6, r0
 800a5dc:	468a      	mov	sl, r1
 800a5de:	4617      	mov	r7, r2
 800a5e0:	461c      	mov	r4, r3
 800a5e2:	b933      	cbnz	r3, 800a5f2 <tcp_rst+0x26>
 800a5e4:	4b17      	ldr	r3, [pc, #92]	; (800a644 <tcp_rst+0x78>)
 800a5e6:	4918      	ldr	r1, [pc, #96]	; (800a648 <tcp_rst+0x7c>)
 800a5e8:	4818      	ldr	r0, [pc, #96]	; (800a64c <tcp_rst+0x80>)
 800a5ea:	f240 72c4 	movw	r2, #1988	; 0x7c4
 800a5ee:	f002 f87f 	bl	800c6f0 <iprintf>
 800a5f2:	b935      	cbnz	r5, 800a602 <tcp_rst+0x36>
 800a5f4:	4b13      	ldr	r3, [pc, #76]	; (800a644 <tcp_rst+0x78>)
 800a5f6:	4916      	ldr	r1, [pc, #88]	; (800a650 <tcp_rst+0x84>)
 800a5f8:	4814      	ldr	r0, [pc, #80]	; (800a64c <tcp_rst+0x80>)
 800a5fa:	f240 72c5 	movw	r2, #1989	; 0x7c5
 800a5fe:	f002 f877 	bl	800c6f0 <iprintf>
 800a602:	4650      	mov	r0, sl
 800a604:	f7fb fdc7 	bl	8006196 <lwip_htonl>
 800a608:	2314      	movs	r3, #20
 800a60a:	f246 0208 	movw	r2, #24584	; 0x6008
 800a60e:	e9cd 3201 	strd	r3, r2, [sp, #4]
 800a612:	f8cd 9000 	str.w	r9, [sp]
 800a616:	4602      	mov	r2, r0
 800a618:	4643      	mov	r3, r8
 800a61a:	4638      	mov	r0, r7
 800a61c:	2100      	movs	r1, #0
 800a61e:	f7ff fa41 	bl	8009aa4 <tcp_output_alloc_header_common.constprop.4>
 800a622:	4607      	mov	r7, r0
 800a624:	b150      	cbz	r0, 800a63c <tcp_rst+0x70>
 800a626:	f7ff faa5 	bl	8009b74 <tcp_output_fill_options.isra.0.constprop.5>
 800a62a:	462b      	mov	r3, r5
 800a62c:	4622      	mov	r2, r4
 800a62e:	4639      	mov	r1, r7
 800a630:	4630      	mov	r0, r6
 800a632:	b004      	add	sp, #16
 800a634:	e8bd 47f0 	ldmia.w	sp!, {r4, r5, r6, r7, r8, r9, sl, lr}
 800a638:	f7ff baac 	b.w	8009b94 <tcp_output_control_segment>
 800a63c:	b004      	add	sp, #16
 800a63e:	e8bd 87f0 	ldmia.w	sp!, {r4, r5, r6, r7, r8, r9, sl, pc}
 800a642:	bf00      	nop
 800a644:	0800f03b 	.word	0x0800f03b
 800a648:	0800f15e 	.word	0x0800f15e
 800a64c:	0800d51e 	.word	0x0800d51e
 800a650:	0800f178 	.word	0x0800f178

0800a654 <tcp_send_empty_ack>:
 800a654:	b538      	push	{r3, r4, r5, lr}
 800a656:	4604      	mov	r4, r0
 800a658:	b930      	cbnz	r0, 800a668 <tcp_send_empty_ack+0x14>
 800a65a:	4b14      	ldr	r3, [pc, #80]	; (800a6ac <tcp_send_empty_ack+0x58>)
 800a65c:	4914      	ldr	r1, [pc, #80]	; (800a6b0 <tcp_send_empty_ack+0x5c>)
 800a65e:	4815      	ldr	r0, [pc, #84]	; (800a6b4 <tcp_send_empty_ack+0x60>)
 800a660:	f240 72ea 	movw	r2, #2026	; 0x7ea
 800a664:	f002 f844 	bl	800c6f0 <iprintf>
 800a668:	6d20      	ldr	r0, [r4, #80]	; 0x50
 800a66a:	f7fb fd94 	bl	8006196 <lwip_htonl>
 800a66e:	2100      	movs	r1, #0
 800a670:	4602      	mov	r2, r0
 800a672:	4620      	mov	r0, r4
 800a674:	f7ff fa58 	bl	8009b28 <tcp_output_alloc_header.constprop.3>
 800a678:	4605      	mov	r5, r0
 800a67a:	b930      	cbnz	r0, 800a68a <tcp_send_empty_ack+0x36>
 800a67c:	8b63      	ldrh	r3, [r4, #26]
 800a67e:	f043 0303 	orr.w	r3, r3, #3
 800a682:	8363      	strh	r3, [r4, #26]
 800a684:	f06f 0001 	mvn.w	r0, #1
 800a688:	bd38      	pop	{r3, r4, r5, pc}
 800a68a:	f7ff fa73 	bl	8009b74 <tcp_output_fill_options.isra.0.constprop.5>
 800a68e:	1d23      	adds	r3, r4, #4
 800a690:	4622      	mov	r2, r4
 800a692:	4629      	mov	r1, r5
 800a694:	4620      	mov	r0, r4
 800a696:	f7ff fa7d 	bl	8009b94 <tcp_output_control_segment>
 800a69a:	8b63      	ldrh	r3, [r4, #26]
 800a69c:	b118      	cbz	r0, 800a6a6 <tcp_send_empty_ack+0x52>
 800a69e:	f043 0303 	orr.w	r3, r3, #3
 800a6a2:	8363      	strh	r3, [r4, #26]
 800a6a4:	e7f0      	b.n	800a688 <tcp_send_empty_ack+0x34>
 800a6a6:	f023 0303 	bic.w	r3, r3, #3
 800a6aa:	e7fa      	b.n	800a6a2 <tcp_send_empty_ack+0x4e>
 800a6ac:	0800f03b 	.word	0x0800f03b
 800a6b0:	0800f193 	.word	0x0800f193
 800a6b4:	0800d51e 	.word	0x0800d51e

0800a6b8 <tcp_output>:
 800a6b8:	e92d 4ff0 	stmdb	sp!, {r4, r5, r6, r7, r8, r9, sl, fp, lr}
 800a6bc:	4604      	mov	r4, r0
 800a6be:	b087      	sub	sp, #28
 800a6c0:	b930      	cbnz	r0, 800a6d0 <tcp_output+0x18>
 800a6c2:	4b8f      	ldr	r3, [pc, #572]	; (800a900 <tcp_output+0x248>)
 800a6c4:	498f      	ldr	r1, [pc, #572]	; (800a904 <tcp_output+0x24c>)
 800a6c6:	4890      	ldr	r0, [pc, #576]	; (800a908 <tcp_output+0x250>)
 800a6c8:	f240 42e1 	movw	r2, #1249	; 0x4e1
 800a6cc:	f002 f810 	bl	800c6f0 <iprintf>
 800a6d0:	7d23      	ldrb	r3, [r4, #20]
 800a6d2:	2b01      	cmp	r3, #1
 800a6d4:	d106      	bne.n	800a6e4 <tcp_output+0x2c>
 800a6d6:	4b8a      	ldr	r3, [pc, #552]	; (800a900 <tcp_output+0x248>)
 800a6d8:	498c      	ldr	r1, [pc, #560]	; (800a90c <tcp_output+0x254>)
 800a6da:	488b      	ldr	r0, [pc, #556]	; (800a908 <tcp_output+0x250>)
 800a6dc:	f240 42e4 	movw	r2, #1252	; 0x4e4
 800a6e0:	f002 f806 	bl	800c6f0 <iprintf>
 800a6e4:	4b8a      	ldr	r3, [pc, #552]	; (800a910 <tcp_output+0x258>)
 800a6e6:	681b      	ldr	r3, [r3, #0]
 800a6e8:	42a3      	cmp	r3, r4
 800a6ea:	f000 8170 	beq.w	800a9ce <tcp_output+0x316>
 800a6ee:	f8b4 7060 	ldrh.w	r7, [r4, #96]	; 0x60
 800a6f2:	f8b4 3048 	ldrh.w	r3, [r4, #72]	; 0x48
 800a6f6:	6ee5      	ldr	r5, [r4, #108]	; 0x6c
 800a6f8:	429f      	cmp	r7, r3
 800a6fa:	bf28      	it	cs
 800a6fc:	461f      	movcs	r7, r3
 800a6fe:	b94d      	cbnz	r5, 800a714 <tcp_output+0x5c>
 800a700:	8b63      	ldrh	r3, [r4, #26]
 800a702:	0798      	lsls	r0, r3, #30
 800a704:	f140 815f 	bpl.w	800a9c6 <tcp_output+0x30e>
 800a708:	4620      	mov	r0, r4
 800a70a:	b007      	add	sp, #28
 800a70c:	e8bd 4ff0 	ldmia.w	sp!, {r4, r5, r6, r7, r8, r9, sl, fp, lr}
 800a710:	f7ff bfa0 	b.w	800a654 <tcp_send_empty_ack>
 800a714:	7a20      	ldrb	r0, [r4, #8]
 800a716:	f104 0904 	add.w	r9, r4, #4
 800a71a:	b328      	cbz	r0, 800a768 <tcp_output+0xb0>
 800a71c:	f7fc f9e2 	bl	8006ae4 <netif_get_by_index>
 800a720:	4680      	mov	r8, r0
 800a722:	2800      	cmp	r0, #0
 800a724:	f000 816c 	beq.w	800aa00 <tcp_output+0x348>
 800a728:	6823      	ldr	r3, [r4, #0]
 800a72a:	b90b      	cbnz	r3, 800a730 <tcp_output+0x78>
 800a72c:	6843      	ldr	r3, [r0, #4]
 800a72e:	6023      	str	r3, [r4, #0]
 800a730:	68eb      	ldr	r3, [r5, #12]
 800a732:	6858      	ldr	r0, [r3, #4]
 800a734:	f7fb fd2f 	bl	8006196 <lwip_htonl>
 800a738:	892b      	ldrh	r3, [r5, #8]
 800a73a:	6c62      	ldr	r2, [r4, #68]	; 0x44
 800a73c:	1a9b      	subs	r3, r3, r2
 800a73e:	4418      	add	r0, r3
 800a740:	42b8      	cmp	r0, r7
 800a742:	d915      	bls.n	800a770 <tcp_output+0xb8>
 800a744:	f8b4 3060 	ldrh.w	r3, [r4, #96]	; 0x60
 800a748:	42bb      	cmp	r3, r7
 800a74a:	d1d9      	bne.n	800a700 <tcp_output+0x48>
 800a74c:	6f23      	ldr	r3, [r4, #112]	; 0x70
 800a74e:	2b00      	cmp	r3, #0
 800a750:	d1d6      	bne.n	800a700 <tcp_output+0x48>
 800a752:	f894 3099 	ldrb.w	r3, [r4, #153]	; 0x99
 800a756:	2b00      	cmp	r3, #0
 800a758:	d1d2      	bne.n	800a700 <tcp_output+0x48>
 800a75a:	f44f 7280 	mov.w	r2, #256	; 0x100
 800a75e:	f8a4 2098 	strh.w	r2, [r4, #152]	; 0x98
 800a762:	f884 309a 	strb.w	r3, [r4, #154]	; 0x9a
 800a766:	e7cb      	b.n	800a700 <tcp_output+0x48>
 800a768:	4648      	mov	r0, r9
 800a76a:	f000 ffaf 	bl	800b6cc <ip4_route>
 800a76e:	e7d7      	b.n	800a720 <tcp_output+0x68>
 800a770:	6f26      	ldr	r6, [r4, #112]	; 0x70
 800a772:	2300      	movs	r3, #0
 800a774:	f884 3099 	strb.w	r3, [r4, #153]	; 0x99
 800a778:	b92e      	cbnz	r6, 800a786 <tcp_output+0xce>
 800a77a:	f8df a184 	ldr.w	sl, [pc, #388]	; 800a900 <tcp_output+0x248>
 800a77e:	f8df b188 	ldr.w	fp, [pc, #392]	; 800a908 <tcp_output+0x250>
 800a782:	e0e3      	b.n	800a94c <tcp_output+0x294>
 800a784:	461e      	mov	r6, r3
 800a786:	6833      	ldr	r3, [r6, #0]
 800a788:	2b00      	cmp	r3, #0
 800a78a:	d1fb      	bne.n	800a784 <tcp_output+0xcc>
 800a78c:	e7f5      	b.n	800a77a <tcp_output+0xc2>
 800a78e:	7d23      	ldrb	r3, [r4, #20]
 800a790:	2b02      	cmp	r3, #2
 800a792:	d009      	beq.n	800a7a8 <tcp_output+0xf0>
 800a794:	68eb      	ldr	r3, [r5, #12]
 800a796:	2010      	movs	r0, #16
 800a798:	899b      	ldrh	r3, [r3, #12]
 800a79a:	9304      	str	r3, [sp, #16]
 800a79c:	f7fb fcf8 	bl	8006190 <lwip_htons>
 800a7a0:	9b04      	ldr	r3, [sp, #16]
 800a7a2:	68ea      	ldr	r2, [r5, #12]
 800a7a4:	4318      	orrs	r0, r3
 800a7a6:	8190      	strh	r0, [r2, #12]
 800a7a8:	4628      	mov	r0, r5
 800a7aa:	f7ff f8a9 	bl	8009900 <tcp_output_segment_busy>
 800a7ae:	2800      	cmp	r0, #0
 800a7b0:	d170      	bne.n	800a894 <tcp_output+0x1dc>
 800a7b2:	68eb      	ldr	r3, [r5, #12]
 800a7b4:	6a60      	ldr	r0, [r4, #36]	; 0x24
 800a7b6:	9304      	str	r3, [sp, #16]
 800a7b8:	f7fb fced 	bl	8006196 <lwip_htonl>
 800a7bc:	9b04      	ldr	r3, [sp, #16]
 800a7be:	6098      	str	r0, [r3, #8]
 800a7c0:	68eb      	ldr	r3, [r5, #12]
 800a7c2:	8d60      	ldrh	r0, [r4, #42]	; 0x2a
 800a7c4:	9304      	str	r3, [sp, #16]
 800a7c6:	f7fb fce3 	bl	8006190 <lwip_htons>
 800a7ca:	9b04      	ldr	r3, [sp, #16]
 800a7cc:	8d62      	ldrh	r2, [r4, #42]	; 0x2a
 800a7ce:	81d8      	strh	r0, [r3, #14]
 800a7d0:	6a63      	ldr	r3, [r4, #36]	; 0x24
 800a7d2:	4413      	add	r3, r2
 800a7d4:	62e3      	str	r3, [r4, #44]	; 0x2c
 800a7d6:	7aaa      	ldrb	r2, [r5, #10]
 800a7d8:	68eb      	ldr	r3, [r5, #12]
 800a7da:	07d2      	lsls	r2, r2, #31
 800a7dc:	d44a      	bmi.n	800a874 <tcp_output+0x1bc>
 800a7de:	f103 0214 	add.w	r2, r3, #20
 800a7e2:	f9b4 3030 	ldrsh.w	r3, [r4, #48]	; 0x30
 800a7e6:	2b00      	cmp	r3, #0
 800a7e8:	bfbc      	itt	lt
 800a7ea:	2300      	movlt	r3, #0
 800a7ec:	8623      	strhlt	r3, [r4, #48]	; 0x30
 800a7ee:	6b63      	ldr	r3, [r4, #52]	; 0x34
 800a7f0:	b94b      	cbnz	r3, 800a806 <tcp_output+0x14e>
 800a7f2:	4948      	ldr	r1, [pc, #288]	; (800a914 <tcp_output+0x25c>)
 800a7f4:	68eb      	ldr	r3, [r5, #12]
 800a7f6:	6809      	ldr	r1, [r1, #0]
 800a7f8:	9204      	str	r2, [sp, #16]
 800a7fa:	6361      	str	r1, [r4, #52]	; 0x34
 800a7fc:	6858      	ldr	r0, [r3, #4]
 800a7fe:	f7fb fcca 	bl	8006196 <lwip_htonl>
 800a802:	9a04      	ldr	r2, [sp, #16]
 800a804:	63a0      	str	r0, [r4, #56]	; 0x38
 800a806:	6869      	ldr	r1, [r5, #4]
 800a808:	68eb      	ldr	r3, [r5, #12]
 800a80a:	6848      	ldr	r0, [r1, #4]
 800a80c:	f8b1 c00a 	ldrh.w	ip, [r1, #10]
 800a810:	604b      	str	r3, [r1, #4]
 800a812:	1a18      	subs	r0, r3, r0
 800a814:	b280      	uxth	r0, r0
 800a816:	ebac 0c00 	sub.w	ip, ip, r0
 800a81a:	f8a1 c00a 	strh.w	ip, [r1, #10]
 800a81e:	f8b1 c008 	ldrh.w	ip, [r1, #8]
 800a822:	ebac 0000 	sub.w	r0, ip, r0
 800a826:	8108      	strh	r0, [r1, #8]
 800a828:	2100      	movs	r1, #0
 800a82a:	7419      	strb	r1, [r3, #16]
 800a82c:	7459      	strb	r1, [r3, #17]
 800a82e:	7aa9      	ldrb	r1, [r5, #10]
 800a830:	0089      	lsls	r1, r1, #2
 800a832:	f001 0104 	and.w	r1, r1, #4
 800a836:	3114      	adds	r1, #20
 800a838:	440b      	add	r3, r1
 800a83a:	429a      	cmp	r2, r3
 800a83c:	d006      	beq.n	800a84c <tcp_output+0x194>
 800a83e:	4653      	mov	r3, sl
 800a840:	f240 621c 	movw	r2, #1564	; 0x61c
 800a844:	4934      	ldr	r1, [pc, #208]	; (800a918 <tcp_output+0x260>)
 800a846:	4658      	mov	r0, fp
 800a848:	f001 ff52 	bl	800c6f0 <iprintf>
 800a84c:	2206      	movs	r2, #6
 800a84e:	7ae3      	ldrb	r3, [r4, #11]
 800a850:	f8cd 8008 	str.w	r8, [sp, #8]
 800a854:	9201      	str	r2, [sp, #4]
 800a856:	7aa2      	ldrb	r2, [r4, #10]
 800a858:	9200      	str	r2, [sp, #0]
 800a85a:	4621      	mov	r1, r4
 800a85c:	464a      	mov	r2, r9
 800a85e:	6868      	ldr	r0, [r5, #4]
 800a860:	f001 f88c 	bl	800b97c <ip4_output_if>
 800a864:	b1b0      	cbz	r0, 800a894 <tcp_output+0x1dc>
 800a866:	8b63      	ldrh	r3, [r4, #26]
 800a868:	f043 0380 	orr.w	r3, r3, #128	; 0x80
 800a86c:	8363      	strh	r3, [r4, #26]
 800a86e:	b007      	add	sp, #28
 800a870:	e8bd 8ff0 	ldmia.w	sp!, {r4, r5, r6, r7, r8, r9, sl, fp, pc}
 800a874:	464a      	mov	r2, r9
 800a876:	4641      	mov	r1, r8
 800a878:	f44f 7006 	mov.w	r0, #536	; 0x218
 800a87c:	9304      	str	r3, [sp, #16]
 800a87e:	f7fc fea5 	bl	80075cc <tcp_eff_send_mss_netif>
 800a882:	f040 7001 	orr.w	r0, r0, #33816576	; 0x2040000
 800a886:	f7fb fc86 	bl	8006196 <lwip_htonl>
 800a88a:	9b04      	ldr	r3, [sp, #16]
 800a88c:	6158      	str	r0, [r3, #20]
 800a88e:	f103 0218 	add.w	r2, r3, #24
 800a892:	e7a6      	b.n	800a7e2 <tcp_output+0x12a>
 800a894:	682b      	ldr	r3, [r5, #0]
 800a896:	66e3      	str	r3, [r4, #108]	; 0x6c
 800a898:	7d23      	ldrb	r3, [r4, #20]
 800a89a:	2b02      	cmp	r3, #2
 800a89c:	bf1e      	ittt	ne
 800a89e:	8b63      	ldrhne	r3, [r4, #26]
 800a8a0:	f023 0303 	bicne.w	r3, r3, #3
 800a8a4:	8363      	strhne	r3, [r4, #26]
 800a8a6:	68eb      	ldr	r3, [r5, #12]
 800a8a8:	6858      	ldr	r0, [r3, #4]
 800a8aa:	f7fb fc74 	bl	8006196 <lwip_htonl>
 800a8ae:	892a      	ldrh	r2, [r5, #8]
 800a8b0:	68e9      	ldr	r1, [r5, #12]
 800a8b2:	9204      	str	r2, [sp, #16]
 800a8b4:	9005      	str	r0, [sp, #20]
 800a8b6:	8988      	ldrh	r0, [r1, #12]
 800a8b8:	f7fb fc6a 	bl	8006190 <lwip_htons>
 800a8bc:	e9dd 2304 	ldrd	r2, r3, [sp, #16]
 800a8c0:	f010 0003 	ands.w	r0, r0, #3
 800a8c4:	4413      	add	r3, r2
 800a8c6:	bf18      	it	ne
 800a8c8:	2001      	movne	r0, #1
 800a8ca:	4418      	add	r0, r3
 800a8cc:	6d23      	ldr	r3, [r4, #80]	; 0x50
 800a8ce:	68ea      	ldr	r2, [r5, #12]
 800a8d0:	1a1b      	subs	r3, r3, r0
 800a8d2:	2b00      	cmp	r3, #0
 800a8d4:	892b      	ldrh	r3, [r5, #8]
 800a8d6:	bfb8      	it	lt
 800a8d8:	6520      	strlt	r0, [r4, #80]	; 0x50
 800a8da:	9304      	str	r3, [sp, #16]
 800a8dc:	8990      	ldrh	r0, [r2, #12]
 800a8de:	f7fb fc57 	bl	8006190 <lwip_htons>
 800a8e2:	9b04      	ldr	r3, [sp, #16]
 800a8e4:	f010 0003 	ands.w	r0, r0, #3
 800a8e8:	bf18      	it	ne
 800a8ea:	2001      	movne	r0, #1
 800a8ec:	42d8      	cmn	r0, r3
 800a8ee:	f000 8083 	beq.w	800a9f8 <tcp_output+0x340>
 800a8f2:	2300      	movs	r3, #0
 800a8f4:	602b      	str	r3, [r5, #0]
 800a8f6:	6f23      	ldr	r3, [r4, #112]	; 0x70
 800a8f8:	b983      	cbnz	r3, 800a91c <tcp_output+0x264>
 800a8fa:	6725      	str	r5, [r4, #112]	; 0x70
 800a8fc:	462e      	mov	r6, r5
 800a8fe:	e022      	b.n	800a946 <tcp_output+0x28e>
 800a900:	0800f03b 	.word	0x0800f03b
 800a904:	0800ef31 	.word	0x0800ef31
 800a908:	0800d51e 	.word	0x0800d51e
 800a90c:	0800ef49 	.word	0x0800ef49
 800a910:	2000b558 	.word	0x2000b558
 800a914:	2000b548 	.word	0x2000b548
 800a918:	0800ef86 	.word	0x0800ef86
 800a91c:	68eb      	ldr	r3, [r5, #12]
 800a91e:	6858      	ldr	r0, [r3, #4]
 800a920:	f7fb fc39 	bl	8006196 <lwip_htonl>
 800a924:	68f2      	ldr	r2, [r6, #12]
 800a926:	9004      	str	r0, [sp, #16]
 800a928:	6850      	ldr	r0, [r2, #4]
 800a92a:	f7fb fc34 	bl	8006196 <lwip_htonl>
 800a92e:	9b04      	ldr	r3, [sp, #16]
 800a930:	1a18      	subs	r0, r3, r0
 800a932:	2800      	cmp	r0, #0
 800a934:	da5e      	bge.n	800a9f4 <tcp_output+0x33c>
 800a936:	f104 0370 	add.w	r3, r4, #112	; 0x70
 800a93a:	681a      	ldr	r2, [r3, #0]
 800a93c:	2a00      	cmp	r2, #0
 800a93e:	d148      	bne.n	800a9d2 <tcp_output+0x31a>
 800a940:	681a      	ldr	r2, [r3, #0]
 800a942:	602a      	str	r2, [r5, #0]
 800a944:	601d      	str	r5, [r3, #0]
 800a946:	6ee5      	ldr	r5, [r4, #108]	; 0x6c
 800a948:	2d00      	cmp	r5, #0
 800a94a:	d038      	beq.n	800a9be <tcp_output+0x306>
 800a94c:	68eb      	ldr	r3, [r5, #12]
 800a94e:	6858      	ldr	r0, [r3, #4]
 800a950:	f7fb fc21 	bl	8006196 <lwip_htonl>
 800a954:	6c63      	ldr	r3, [r4, #68]	; 0x44
 800a956:	1ac0      	subs	r0, r0, r3
 800a958:	892b      	ldrh	r3, [r5, #8]
 800a95a:	4418      	add	r0, r3
 800a95c:	42b8      	cmp	r0, r7
 800a95e:	d82e      	bhi.n	800a9be <tcp_output+0x306>
 800a960:	68eb      	ldr	r3, [r5, #12]
 800a962:	8998      	ldrh	r0, [r3, #12]
 800a964:	f7fb fc14 	bl	8006190 <lwip_htons>
 800a968:	0741      	lsls	r1, r0, #29
 800a96a:	d506      	bpl.n	800a97a <tcp_output+0x2c2>
 800a96c:	4653      	mov	r3, sl
 800a96e:	f240 5237 	movw	r2, #1335	; 0x537
 800a972:	4925      	ldr	r1, [pc, #148]	; (800aa08 <tcp_output+0x350>)
 800a974:	4658      	mov	r0, fp
 800a976:	f001 febb 	bl	800c6f0 <iprintf>
 800a97a:	6f23      	ldr	r3, [r4, #112]	; 0x70
 800a97c:	2b00      	cmp	r3, #0
 800a97e:	f43f af06 	beq.w	800a78e <tcp_output+0xd6>
 800a982:	8b62      	ldrh	r2, [r4, #26]
 800a984:	f012 0f44 	tst.w	r2, #68	; 0x44
 800a988:	f47f af01 	bne.w	800a78e <tcp_output+0xd6>
 800a98c:	6ee3      	ldr	r3, [r4, #108]	; 0x6c
 800a98e:	b143      	cbz	r3, 800a9a2 <tcp_output+0x2ea>
 800a990:	6819      	ldr	r1, [r3, #0]
 800a992:	2900      	cmp	r1, #0
 800a994:	f47f aefb 	bne.w	800a78e <tcp_output+0xd6>
 800a998:	8919      	ldrh	r1, [r3, #8]
 800a99a:	8e63      	ldrh	r3, [r4, #50]	; 0x32
 800a99c:	4299      	cmp	r1, r3
 800a99e:	f4bf aef6 	bcs.w	800a78e <tcp_output+0xd6>
 800a9a2:	f8b4 3064 	ldrh.w	r3, [r4, #100]	; 0x64
 800a9a6:	2b00      	cmp	r3, #0
 800a9a8:	f43f aef1 	beq.w	800a78e <tcp_output+0xd6>
 800a9ac:	f8b4 3066 	ldrh.w	r3, [r4, #102]	; 0x66
 800a9b0:	2b08      	cmp	r3, #8
 800a9b2:	f63f aeec 	bhi.w	800a78e <tcp_output+0xd6>
 800a9b6:	f012 0fa0 	tst.w	r2, #160	; 0xa0
 800a9ba:	f47f aee8 	bne.w	800a78e <tcp_output+0xd6>
 800a9be:	6ee3      	ldr	r3, [r4, #108]	; 0x6c
 800a9c0:	b90b      	cbnz	r3, 800a9c6 <tcp_output+0x30e>
 800a9c2:	f8a4 3068 	strh.w	r3, [r4, #104]	; 0x68
 800a9c6:	8b63      	ldrh	r3, [r4, #26]
 800a9c8:	f023 0380 	bic.w	r3, r3, #128	; 0x80
 800a9cc:	8363      	strh	r3, [r4, #26]
 800a9ce:	2000      	movs	r0, #0
 800a9d0:	e74d      	b.n	800a86e <tcp_output+0x1b6>
 800a9d2:	68d2      	ldr	r2, [r2, #12]
 800a9d4:	9305      	str	r3, [sp, #20]
 800a9d6:	6850      	ldr	r0, [r2, #4]
 800a9d8:	f7fb fbdd 	bl	8006196 <lwip_htonl>
 800a9dc:	68e9      	ldr	r1, [r5, #12]
 800a9de:	9004      	str	r0, [sp, #16]
 800a9e0:	6848      	ldr	r0, [r1, #4]
 800a9e2:	f7fb fbd8 	bl	8006196 <lwip_htonl>
 800a9e6:	9a04      	ldr	r2, [sp, #16]
 800a9e8:	9b05      	ldr	r3, [sp, #20]
 800a9ea:	1a10      	subs	r0, r2, r0
 800a9ec:	2800      	cmp	r0, #0
 800a9ee:	daa7      	bge.n	800a940 <tcp_output+0x288>
 800a9f0:	681b      	ldr	r3, [r3, #0]
 800a9f2:	e7a2      	b.n	800a93a <tcp_output+0x282>
 800a9f4:	6035      	str	r5, [r6, #0]
 800a9f6:	e781      	b.n	800a8fc <tcp_output+0x244>
 800a9f8:	4628      	mov	r0, r5
 800a9fa:	f7fc fd1d 	bl	8007438 <tcp_seg_free>
 800a9fe:	e7a2      	b.n	800a946 <tcp_output+0x28e>
 800aa00:	f06f 0003 	mvn.w	r0, #3
 800aa04:	e733      	b.n	800a86e <tcp_output+0x1b6>
 800aa06:	bf00      	nop
 800aa08:	0800ef6f 	.word	0x0800ef6f

0800aa0c <tcp_rexmit_rto_commit>:
 800aa0c:	b510      	push	{r4, lr}
 800aa0e:	4604      	mov	r4, r0
 800aa10:	b930      	cbnz	r0, 800aa20 <tcp_rexmit_rto_commit+0x14>
 800aa12:	4b09      	ldr	r3, [pc, #36]	; (800aa38 <tcp_rexmit_rto_commit+0x2c>)
 800aa14:	4909      	ldr	r1, [pc, #36]	; (800aa3c <tcp_rexmit_rto_commit+0x30>)
 800aa16:	480a      	ldr	r0, [pc, #40]	; (800aa40 <tcp_rexmit_rto_commit+0x34>)
 800aa18:	f44f 62d3 	mov.w	r2, #1688	; 0x698
 800aa1c:	f001 fe68 	bl	800c6f0 <iprintf>
 800aa20:	f894 3042 	ldrb.w	r3, [r4, #66]	; 0x42
 800aa24:	2bff      	cmp	r3, #255	; 0xff
 800aa26:	bf1c      	itt	ne
 800aa28:	3301      	addne	r3, #1
 800aa2a:	f884 3042 	strbne.w	r3, [r4, #66]	; 0x42
 800aa2e:	4620      	mov	r0, r4
 800aa30:	e8bd 4010 	ldmia.w	sp!, {r4, lr}
 800aa34:	f7ff be40 	b.w	800a6b8 <tcp_output>
 800aa38:	0800f03b 	.word	0x0800f03b
 800aa3c:	0800f117 	.word	0x0800f117
 800aa40:	0800d51e 	.word	0x0800d51e

0800aa44 <tcp_rexmit_rto>:
 800aa44:	b510      	push	{r4, lr}
 800aa46:	4604      	mov	r4, r0
 800aa48:	b930      	cbnz	r0, 800aa58 <tcp_rexmit_rto+0x14>
 800aa4a:	4b08      	ldr	r3, [pc, #32]	; (800aa6c <tcp_rexmit_rto+0x28>)
 800aa4c:	4908      	ldr	r1, [pc, #32]	; (800aa70 <tcp_rexmit_rto+0x2c>)
 800aa4e:	4809      	ldr	r0, [pc, #36]	; (800aa74 <tcp_rexmit_rto+0x30>)
 800aa50:	f240 62ad 	movw	r2, #1709	; 0x6ad
 800aa54:	f001 fe4c 	bl	800c6f0 <iprintf>
 800aa58:	4620      	mov	r0, r4
 800aa5a:	f7ff fcf9 	bl	800a450 <tcp_rexmit_rto_prepare>
 800aa5e:	b920      	cbnz	r0, 800aa6a <tcp_rexmit_rto+0x26>
 800aa60:	4620      	mov	r0, r4
 800aa62:	e8bd 4010 	ldmia.w	sp!, {r4, lr}
 800aa66:	f7ff bfd1 	b.w	800aa0c <tcp_rexmit_rto_commit>
 800aa6a:	bd10      	pop	{r4, pc}
 800aa6c:	0800f03b 	.word	0x0800f03b
 800aa70:	0800f0fb 	.word	0x0800f0fb
 800aa74:	0800d51e 	.word	0x0800d51e

0800aa78 <tcp_keepalive>:
 800aa78:	b570      	push	{r4, r5, r6, lr}
 800aa7a:	4604      	mov	r4, r0
 800aa7c:	b930      	cbnz	r0, 800aa8c <tcp_keepalive+0x14>
 800aa7e:	4b0f      	ldr	r3, [pc, #60]	; (800aabc <tcp_keepalive+0x44>)
 800aa80:	490f      	ldr	r1, [pc, #60]	; (800aac0 <tcp_keepalive+0x48>)
 800aa82:	4810      	ldr	r0, [pc, #64]	; (800aac4 <tcp_keepalive+0x4c>)
 800aa84:	f640 0224 	movw	r2, #2084	; 0x824
 800aa88:	f001 fe32 	bl	800c6f0 <iprintf>
 800aa8c:	6d20      	ldr	r0, [r4, #80]	; 0x50
 800aa8e:	3801      	subs	r0, #1
 800aa90:	f7fb fb81 	bl	8006196 <lwip_htonl>
 800aa94:	2100      	movs	r1, #0
 800aa96:	4602      	mov	r2, r0
 800aa98:	4620      	mov	r0, r4
 800aa9a:	f7ff f845 	bl	8009b28 <tcp_output_alloc_header.constprop.3>
 800aa9e:	4605      	mov	r5, r0
 800aaa0:	b148      	cbz	r0, 800aab6 <tcp_keepalive+0x3e>
 800aaa2:	f7ff f867 	bl	8009b74 <tcp_output_fill_options.isra.0.constprop.5>
 800aaa6:	1d23      	adds	r3, r4, #4
 800aaa8:	4622      	mov	r2, r4
 800aaaa:	4629      	mov	r1, r5
 800aaac:	4620      	mov	r0, r4
 800aaae:	e8bd 4070 	ldmia.w	sp!, {r4, r5, r6, lr}
 800aab2:	f7ff b86f 	b.w	8009b94 <tcp_output_control_segment>
 800aab6:	f04f 30ff 	mov.w	r0, #4294967295
 800aaba:	bd70      	pop	{r4, r5, r6, pc}
 800aabc:	0800f03b 	.word	0x0800f03b
 800aac0:	0800ef16 	.word	0x0800ef16
 800aac4:	0800d51e 	.word	0x0800d51e

0800aac8 <tcp_zero_window_probe>:
 800aac8:	e92d 41f0 	stmdb	sp!, {r4, r5, r6, r7, r8, lr}
 800aacc:	4605      	mov	r5, r0
 800aace:	b930      	cbnz	r0, 800aade <tcp_zero_window_probe+0x16>
 800aad0:	4b2c      	ldr	r3, [pc, #176]	; (800ab84 <tcp_zero_window_probe+0xbc>)
 800aad2:	492d      	ldr	r1, [pc, #180]	; (800ab88 <tcp_zero_window_probe+0xc0>)
 800aad4:	482d      	ldr	r0, [pc, #180]	; (800ab8c <tcp_zero_window_probe+0xc4>)
 800aad6:	f640 024f 	movw	r2, #2127	; 0x84f
 800aada:	f001 fe09 	bl	800c6f0 <iprintf>
 800aade:	6eec      	ldr	r4, [r5, #108]	; 0x6c
 800aae0:	2c00      	cmp	r4, #0
 800aae2:	d048      	beq.n	800ab76 <tcp_zero_window_probe+0xae>
 800aae4:	f895 309a 	ldrb.w	r3, [r5, #154]	; 0x9a
 800aae8:	2bff      	cmp	r3, #255	; 0xff
 800aaea:	bf1c      	itt	ne
 800aaec:	3301      	addne	r3, #1
 800aaee:	f885 309a 	strbne.w	r3, [r5, #154]	; 0x9a
 800aaf2:	68e3      	ldr	r3, [r4, #12]
 800aaf4:	8998      	ldrh	r0, [r3, #12]
 800aaf6:	f7fb fb4b 	bl	8006190 <lwip_htons>
 800aafa:	f010 0601 	ands.w	r6, r0, #1
 800aafe:	bf18      	it	ne
 800ab00:	8926      	ldrhne	r6, [r4, #8]
 800ab02:	68e3      	ldr	r3, [r4, #12]
 800ab04:	bf1c      	itt	ne
 800ab06:	fab6 f686 	clzne	r6, r6
 800ab0a:	0976      	lsrne	r6, r6, #5
 800ab0c:	685a      	ldr	r2, [r3, #4]
 800ab0e:	f086 0101 	eor.w	r1, r6, #1
 800ab12:	4628      	mov	r0, r5
 800ab14:	f7ff f808 	bl	8009b28 <tcp_output_alloc_header.constprop.3>
 800ab18:	4607      	mov	r7, r0
 800ab1a:	b378      	cbz	r0, 800ab7c <tcp_zero_window_probe+0xb4>
 800ab1c:	f8d0 8004 	ldr.w	r8, [r0, #4]
 800ab20:	b1f6      	cbz	r6, 800ab60 <tcp_zero_window_probe+0x98>
 800ab22:	2011      	movs	r0, #17
 800ab24:	f9b8 600c 	ldrsh.w	r6, [r8, #12]
 800ab28:	f7fb fb32 	bl	8006190 <lwip_htons>
 800ab2c:	f426 567c 	bic.w	r6, r6, #16128	; 0x3f00
 800ab30:	4330      	orrs	r0, r6
 800ab32:	f8a8 000c 	strh.w	r0, [r8, #12]
 800ab36:	68e3      	ldr	r3, [r4, #12]
 800ab38:	6858      	ldr	r0, [r3, #4]
 800ab3a:	f7fb fb2c 	bl	8006196 <lwip_htonl>
 800ab3e:	6d2b      	ldr	r3, [r5, #80]	; 0x50
 800ab40:	3001      	adds	r0, #1
 800ab42:	1a1b      	subs	r3, r3, r0
 800ab44:	2b00      	cmp	r3, #0
 800ab46:	bfb8      	it	lt
 800ab48:	6528      	strlt	r0, [r5, #80]	; 0x50
 800ab4a:	4638      	mov	r0, r7
 800ab4c:	f7ff f812 	bl	8009b74 <tcp_output_fill_options.isra.0.constprop.5>
 800ab50:	1d2b      	adds	r3, r5, #4
 800ab52:	462a      	mov	r2, r5
 800ab54:	4639      	mov	r1, r7
 800ab56:	4628      	mov	r0, r5
 800ab58:	e8bd 41f0 	ldmia.w	sp!, {r4, r5, r6, r7, r8, lr}
 800ab5c:	f7ff b81a 	b.w	8009b94 <tcp_output_control_segment>
 800ab60:	6860      	ldr	r0, [r4, #4]
 800ab62:	8922      	ldrh	r2, [r4, #8]
 800ab64:	8903      	ldrh	r3, [r0, #8]
 800ab66:	1a9b      	subs	r3, r3, r2
 800ab68:	b29b      	uxth	r3, r3
 800ab6a:	2201      	movs	r2, #1
 800ab6c:	f108 0114 	add.w	r1, r8, #20
 800ab70:	f7fc fabc 	bl	80070ec <pbuf_copy_partial>
 800ab74:	e7df      	b.n	800ab36 <tcp_zero_window_probe+0x6e>
 800ab76:	4620      	mov	r0, r4
 800ab78:	e8bd 81f0 	ldmia.w	sp!, {r4, r5, r6, r7, r8, pc}
 800ab7c:	f04f 30ff 	mov.w	r0, #4294967295
 800ab80:	e7fa      	b.n	800ab78 <tcp_zero_window_probe+0xb0>
 800ab82:	bf00      	nop
 800ab84:	0800f03b 	.word	0x0800f03b
 800ab88:	0800f475 	.word	0x0800f475
 800ab8c:	0800d51e 	.word	0x0800d51e

0800ab90 <sys_timeout_abs>:
 800ab90:	b570      	push	{r4, r5, r6, lr}
 800ab92:	4604      	mov	r4, r0
 800ab94:	2009      	movs	r0, #9
 800ab96:	460e      	mov	r6, r1
 800ab98:	4615      	mov	r5, r2
 800ab9a:	f7fb fdd9 	bl	8006750 <memp_malloc>
 800ab9e:	b938      	cbnz	r0, 800abb0 <sys_timeout_abs+0x20>
 800aba0:	4b10      	ldr	r3, [pc, #64]	; (800abe4 <sys_timeout_abs+0x54>)
 800aba2:	4911      	ldr	r1, [pc, #68]	; (800abe8 <sys_timeout_abs+0x58>)
 800aba4:	4811      	ldr	r0, [pc, #68]	; (800abec <sys_timeout_abs+0x5c>)
 800aba6:	22be      	movs	r2, #190	; 0xbe
 800aba8:	e8bd 4070 	ldmia.w	sp!, {r4, r5, r6, lr}
 800abac:	f001 bda0 	b.w	800c6f0 <iprintf>
 800abb0:	4a0f      	ldr	r2, [pc, #60]	; (800abf0 <sys_timeout_abs+0x60>)
 800abb2:	6044      	str	r4, [r0, #4]
 800abb4:	2300      	movs	r3, #0
 800abb6:	6003      	str	r3, [r0, #0]
 800abb8:	6813      	ldr	r3, [r2, #0]
 800abba:	e9c0 6502 	strd	r6, r5, [r0, #8]
 800abbe:	b90b      	cbnz	r3, 800abc4 <sys_timeout_abs+0x34>
 800abc0:	6010      	str	r0, [r2, #0]
 800abc2:	bd70      	pop	{r4, r5, r6, pc}
 800abc4:	6859      	ldr	r1, [r3, #4]
 800abc6:	1a61      	subs	r1, r4, r1
 800abc8:	2900      	cmp	r1, #0
 800abca:	da02      	bge.n	800abd2 <sys_timeout_abs+0x42>
 800abcc:	6003      	str	r3, [r0, #0]
 800abce:	e7f7      	b.n	800abc0 <sys_timeout_abs+0x30>
 800abd0:	4613      	mov	r3, r2
 800abd2:	681a      	ldr	r2, [r3, #0]
 800abd4:	b11a      	cbz	r2, 800abde <sys_timeout_abs+0x4e>
 800abd6:	6851      	ldr	r1, [r2, #4]
 800abd8:	1a61      	subs	r1, r4, r1
 800abda:	2900      	cmp	r1, #0
 800abdc:	daf8      	bge.n	800abd0 <sys_timeout_abs+0x40>
 800abde:	6002      	str	r2, [r0, #0]
 800abe0:	6018      	str	r0, [r3, #0]
 800abe2:	e7ee      	b.n	800abc2 <sys_timeout_abs+0x32>
 800abe4:	0800f4e6 	.word	0x0800f4e6
 800abe8:	0800f51a 	.word	0x0800f51a
 800abec:	0800d51e 	.word	0x0800d51e
 800abf0:	20004b00 	.word	0x20004b00

0800abf4 <lwip_cyclic_timer>:
 800abf4:	b538      	push	{r3, r4, r5, lr}
 800abf6:	6843      	ldr	r3, [r0, #4]
 800abf8:	4604      	mov	r4, r0
 800abfa:	4798      	blx	r3
 800abfc:	f7f7 fc80 	bl	8002500 <sys_now>
 800ac00:	4b07      	ldr	r3, [pc, #28]	; (800ac20 <lwip_cyclic_timer+0x2c>)
 800ac02:	6825      	ldr	r5, [r4, #0]
 800ac04:	681b      	ldr	r3, [r3, #0]
 800ac06:	4907      	ldr	r1, [pc, #28]	; (800ac24 <lwip_cyclic_timer+0x30>)
 800ac08:	442b      	add	r3, r5
 800ac0a:	1a1a      	subs	r2, r3, r0
 800ac0c:	2a00      	cmp	r2, #0
 800ac0e:	bfb8      	it	lt
 800ac10:	1940      	addlt	r0, r0, r5
 800ac12:	4622      	mov	r2, r4
 800ac14:	bfa8      	it	ge
 800ac16:	4618      	movge	r0, r3
 800ac18:	e8bd 4038 	ldmia.w	sp!, {r3, r4, r5, lr}
 800ac1c:	f7ff bfb8 	b.w	800ab90 <sys_timeout_abs>
 800ac20:	20004afc 	.word	0x20004afc
 800ac24:	0800abf5 	.word	0x0800abf5

0800ac28 <sys_timeout>:
 800ac28:	f1b0 4f80 	cmp.w	r0, #1073741824	; 0x40000000
 800ac2c:	b570      	push	{r4, r5, r6, lr}
 800ac2e:	4604      	mov	r4, r0
 800ac30:	460d      	mov	r5, r1
 800ac32:	4616      	mov	r6, r2
 800ac34:	d306      	bcc.n	800ac44 <sys_timeout+0x1c>
 800ac36:	4b08      	ldr	r3, [pc, #32]	; (800ac58 <sys_timeout+0x30>)
 800ac38:	4908      	ldr	r1, [pc, #32]	; (800ac5c <sys_timeout+0x34>)
 800ac3a:	4809      	ldr	r0, [pc, #36]	; (800ac60 <sys_timeout+0x38>)
 800ac3c:	f240 1229 	movw	r2, #297	; 0x129
 800ac40:	f001 fd56 	bl	800c6f0 <iprintf>
 800ac44:	f7f7 fc5c 	bl	8002500 <sys_now>
 800ac48:	4632      	mov	r2, r6
 800ac4a:	4629      	mov	r1, r5
 800ac4c:	4420      	add	r0, r4
 800ac4e:	e8bd 4070 	ldmia.w	sp!, {r4, r5, r6, lr}
 800ac52:	f7ff bf9d 	b.w	800ab90 <sys_timeout_abs>
 800ac56:	bf00      	nop
 800ac58:	0800f4e6 	.word	0x0800f4e6
 800ac5c:	0800f4b0 	.word	0x0800f4b0
 800ac60:	0800d51e 	.word	0x0800d51e

0800ac64 <tcp_timer_needed>:
 800ac64:	4b08      	ldr	r3, [pc, #32]	; (800ac88 <tcp_timer_needed+0x24>)
 800ac66:	681a      	ldr	r2, [r3, #0]
 800ac68:	b962      	cbnz	r2, 800ac84 <tcp_timer_needed+0x20>
 800ac6a:	4a08      	ldr	r2, [pc, #32]	; (800ac8c <tcp_timer_needed+0x28>)
 800ac6c:	6812      	ldr	r2, [r2, #0]
 800ac6e:	b912      	cbnz	r2, 800ac76 <tcp_timer_needed+0x12>
 800ac70:	4a07      	ldr	r2, [pc, #28]	; (800ac90 <tcp_timer_needed+0x2c>)
 800ac72:	6812      	ldr	r2, [r2, #0]
 800ac74:	b132      	cbz	r2, 800ac84 <tcp_timer_needed+0x20>
 800ac76:	2201      	movs	r2, #1
 800ac78:	601a      	str	r2, [r3, #0]
 800ac7a:	4906      	ldr	r1, [pc, #24]	; (800ac94 <tcp_timer_needed+0x30>)
 800ac7c:	2200      	movs	r2, #0
 800ac7e:	20fa      	movs	r0, #250	; 0xfa
 800ac80:	f7ff bfd2 	b.w	800ac28 <sys_timeout>
 800ac84:	4770      	bx	lr
 800ac86:	bf00      	nop
 800ac88:	20004b04 	.word	0x20004b04
 800ac8c:	2000b544 	.word	0x2000b544
 800ac90:	2000b554 	.word	0x2000b554
 800ac94:	0800ac99 	.word	0x0800ac99

0800ac98 <tcpip_tcp_timer>:
 800ac98:	b508      	push	{r3, lr}
 800ac9a:	f7fd fb4b 	bl	8008334 <tcp_tmr>
 800ac9e:	4b08      	ldr	r3, [pc, #32]	; (800acc0 <tcpip_tcp_timer+0x28>)
 800aca0:	681b      	ldr	r3, [r3, #0]
 800aca2:	b913      	cbnz	r3, 800acaa <tcpip_tcp_timer+0x12>
 800aca4:	4b07      	ldr	r3, [pc, #28]	; (800acc4 <tcpip_tcp_timer+0x2c>)
 800aca6:	681b      	ldr	r3, [r3, #0]
 800aca8:	b133      	cbz	r3, 800acb8 <tcpip_tcp_timer+0x20>
 800acaa:	2200      	movs	r2, #0
 800acac:	4906      	ldr	r1, [pc, #24]	; (800acc8 <tcpip_tcp_timer+0x30>)
 800acae:	20fa      	movs	r0, #250	; 0xfa
 800acb0:	e8bd 4008 	ldmia.w	sp!, {r3, lr}
 800acb4:	f7ff bfb8 	b.w	800ac28 <sys_timeout>
 800acb8:	4a04      	ldr	r2, [pc, #16]	; (800accc <tcpip_tcp_timer+0x34>)
 800acba:	6013      	str	r3, [r2, #0]
 800acbc:	bd08      	pop	{r3, pc}
 800acbe:	bf00      	nop
 800acc0:	2000b544 	.word	0x2000b544
 800acc4:	2000b554 	.word	0x2000b554
 800acc8:	0800ac99 	.word	0x0800ac99
 800accc:	20004b04 	.word	0x20004b04

0800acd0 <sys_timeouts_init>:
 800acd0:	b538      	push	{r3, r4, r5, lr}
 800acd2:	4d09      	ldr	r5, [pc, #36]	; (800acf8 <sys_timeouts_init+0x28>)
 800acd4:	4c09      	ldr	r4, [pc, #36]	; (800acfc <sys_timeouts_init+0x2c>)
 800acd6:	f105 0208 	add.w	r2, r5, #8
 800acda:	4621      	mov	r1, r4
 800acdc:	f44f 707a 	mov.w	r0, #1000	; 0x3e8
 800ace0:	f7ff ffa2 	bl	800ac28 <sys_timeout>
 800ace4:	f105 0210 	add.w	r2, r5, #16
 800ace8:	4621      	mov	r1, r4
 800acea:	f44f 707a 	mov.w	r0, #1000	; 0x3e8
 800acee:	e8bd 4038 	ldmia.w	sp!, {r3, r4, r5, lr}
 800acf2:	f7ff bf99 	b.w	800ac28 <sys_timeout>
 800acf6:	bf00      	nop
 800acf8:	0800f498 	.word	0x0800f498
 800acfc:	0800abf5 	.word	0x0800abf5

0800ad00 <sys_check_timeouts>:
 800ad00:	e92d 41f0 	stmdb	sp!, {r4, r5, r6, r7, r8, lr}
 800ad04:	f7f7 fbfc 	bl	8002500 <sys_now>
 800ad08:	4d0c      	ldr	r5, [pc, #48]	; (800ad3c <sys_check_timeouts+0x3c>)
 800ad0a:	f8df 8034 	ldr.w	r8, [pc, #52]	; 800ad40 <sys_check_timeouts+0x40>
 800ad0e:	4607      	mov	r7, r0
 800ad10:	6829      	ldr	r1, [r5, #0]
 800ad12:	b189      	cbz	r1, 800ad38 <sys_check_timeouts+0x38>
 800ad14:	684b      	ldr	r3, [r1, #4]
 800ad16:	1afa      	subs	r2, r7, r3
 800ad18:	2a00      	cmp	r2, #0
 800ad1a:	db0d      	blt.n	800ad38 <sys_check_timeouts+0x38>
 800ad1c:	e9d1 4602 	ldrd	r4, r6, [r1, #8]
 800ad20:	680a      	ldr	r2, [r1, #0]
 800ad22:	602a      	str	r2, [r5, #0]
 800ad24:	2009      	movs	r0, #9
 800ad26:	f8c8 3000 	str.w	r3, [r8]
 800ad2a:	f7fb fd2d 	bl	8006788 <memp_free>
 800ad2e:	2c00      	cmp	r4, #0
 800ad30:	d0ee      	beq.n	800ad10 <sys_check_timeouts+0x10>
 800ad32:	4630      	mov	r0, r6
 800ad34:	47a0      	blx	r4
 800ad36:	e7eb      	b.n	800ad10 <sys_check_timeouts+0x10>
 800ad38:	e8bd 81f0 	ldmia.w	sp!, {r4, r5, r6, r7, r8, pc}
 800ad3c:	20004b00 	.word	0x20004b00
 800ad40:	20004afc 	.word	0x20004afc

0800ad44 <sys_timeouts_sleeptime>:
 800ad44:	b510      	push	{r4, lr}
 800ad46:	4c07      	ldr	r4, [pc, #28]	; (800ad64 <sys_timeouts_sleeptime+0x20>)
 800ad48:	6823      	ldr	r3, [r4, #0]
 800ad4a:	b13b      	cbz	r3, 800ad5c <sys_timeouts_sleeptime+0x18>
 800ad4c:	f7f7 fbd8 	bl	8002500 <sys_now>
 800ad50:	6823      	ldr	r3, [r4, #0]
 800ad52:	685b      	ldr	r3, [r3, #4]
 800ad54:	1a18      	subs	r0, r3, r0
 800ad56:	bf48      	it	mi
 800ad58:	2000      	movmi	r0, #0
 800ad5a:	bd10      	pop	{r4, pc}
 800ad5c:	f04f 30ff 	mov.w	r0, #4294967295
 800ad60:	e7fb      	b.n	800ad5a <sys_timeouts_sleeptime+0x16>
 800ad62:	bf00      	nop
 800ad64:	20004b00 	.word	0x20004b00

0800ad68 <etharp_free_entry>:
 800ad68:	b570      	push	{r4, r5, r6, lr}
 800ad6a:	2618      	movs	r6, #24
 800ad6c:	4c07      	ldr	r4, [pc, #28]	; (800ad8c <etharp_free_entry+0x24>)
 800ad6e:	4346      	muls	r6, r0
 800ad70:	4605      	mov	r5, r0
 800ad72:	59a0      	ldr	r0, [r4, r6]
 800ad74:	b118      	cbz	r0, 800ad7e <etharp_free_entry+0x16>
 800ad76:	f7fb ff85 	bl	8006c84 <pbuf_free>
 800ad7a:	2300      	movs	r3, #0
 800ad7c:	51a3      	str	r3, [r4, r6]
 800ad7e:	2318      	movs	r3, #24
 800ad80:	fb03 4405 	mla	r4, r3, r5, r4
 800ad84:	2300      	movs	r3, #0
 800ad86:	7523      	strb	r3, [r4, #20]
 800ad88:	bd70      	pop	{r4, r5, r6, pc}
 800ad8a:	bf00      	nop
 800ad8c:	20004b08 	.word	0x20004b08

0800ad90 <etharp_find_entry>:
 800ad90:	e92d 4ff7 	stmdb	sp!, {r0, r1, r2, r4, r5, r6, r7, r8, r9, sl, fp, lr}
 800ad94:	2300      	movs	r3, #0
 800ad96:	f04f 0e0a 	mov.w	lr, #10
 800ad9a:	e9cd 2100 	strd	r2, r1, [sp]
 800ad9e:	4a3f      	ldr	r2, [pc, #252]	; (800ae9c <etharp_find_entry+0x10c>)
 800ada0:	4606      	mov	r6, r0
 800ada2:	4699      	mov	r9, r3
 800ada4:	469b      	mov	fp, r3
 800ada6:	469c      	mov	ip, r3
 800ada8:	4674      	mov	r4, lr
 800adaa:	4675      	mov	r5, lr
 800adac:	46f0      	mov	r8, lr
 800adae:	2c0a      	cmp	r4, #10
 800adb0:	b218      	sxth	r0, r3
 800adb2:	f892 a014 	ldrb.w	sl, [r2, #20]
 800adb6:	d11a      	bne.n	800adee <etharp_find_entry+0x5e>
 800adb8:	f1ba 0f00 	cmp.w	sl, #0
 800adbc:	d05e      	beq.n	800ae7c <etharp_find_entry+0xec>
 800adbe:	b156      	cbz	r6, 800add6 <etharp_find_entry+0x46>
 800adc0:	6837      	ldr	r7, [r6, #0]
 800adc2:	6851      	ldr	r1, [r2, #4]
 800adc4:	428f      	cmp	r7, r1
 800adc6:	d106      	bne.n	800add6 <etharp_find_entry+0x46>
 800adc8:	9900      	ldr	r1, [sp, #0]
 800adca:	2900      	cmp	r1, #0
 800adcc:	d049      	beq.n	800ae62 <etharp_find_entry+0xd2>
 800adce:	6891      	ldr	r1, [r2, #8]
 800add0:	9f00      	ldr	r7, [sp, #0]
 800add2:	42b9      	cmp	r1, r7
 800add4:	d045      	beq.n	800ae62 <etharp_find_entry+0xd2>
 800add6:	f1ba 0f01 	cmp.w	sl, #1
 800adda:	8a51      	ldrh	r1, [r2, #18]
 800addc:	d149      	bne.n	800ae72 <etharp_find_entry+0xe2>
 800adde:	6817      	ldr	r7, [r2, #0]
 800ade0:	2f00      	cmp	r7, #0
 800ade2:	d041      	beq.n	800ae68 <etharp_find_entry+0xd8>
 800ade4:	458c      	cmp	ip, r1
 800ade6:	d805      	bhi.n	800adf4 <etharp_find_entry+0x64>
 800ade8:	468c      	mov	ip, r1
 800adea:	4686      	mov	lr, r0
 800adec:	e002      	b.n	800adf4 <etharp_find_entry+0x64>
 800adee:	f1ba 0f00 	cmp.w	sl, #0
 800adf2:	d1e4      	bne.n	800adbe <etharp_find_entry+0x2e>
 800adf4:	3301      	adds	r3, #1
 800adf6:	2b0a      	cmp	r3, #10
 800adf8:	f102 0218 	add.w	r2, r2, #24
 800adfc:	d1d7      	bne.n	800adae <etharp_find_entry+0x1e>
 800adfe:	9b01      	ldr	r3, [sp, #4]
 800ae00:	2b01      	cmp	r3, #1
 800ae02:	d143      	bne.n	800ae8c <etharp_find_entry+0xfc>
 800ae04:	2c0a      	cmp	r4, #10
 800ae06:	d111      	bne.n	800ae2c <etharp_find_entry+0x9c>
 800ae08:	2d0a      	cmp	r5, #10
 800ae0a:	d039      	beq.n	800ae80 <etharp_find_entry+0xf0>
 800ae0c:	2318      	movs	r3, #24
 800ae0e:	436b      	muls	r3, r5
 800ae10:	4a22      	ldr	r2, [pc, #136]	; (800ae9c <etharp_find_entry+0x10c>)
 800ae12:	58d3      	ldr	r3, [r2, r3]
 800ae14:	b133      	cbz	r3, 800ae24 <etharp_find_entry+0x94>
 800ae16:	4b22      	ldr	r3, [pc, #136]	; (800aea0 <etharp_find_entry+0x110>)
 800ae18:	4922      	ldr	r1, [pc, #136]	; (800aea4 <etharp_find_entry+0x114>)
 800ae1a:	4823      	ldr	r0, [pc, #140]	; (800aea8 <etharp_find_entry+0x118>)
 800ae1c:	f240 126d 	movw	r2, #365	; 0x16d
 800ae20:	f001 fc66 	bl	800c6f0 <iprintf>
 800ae24:	4628      	mov	r0, r5
 800ae26:	f7ff ff9f 	bl	800ad68 <etharp_free_entry>
 800ae2a:	462c      	mov	r4, r5
 800ae2c:	4d1b      	ldr	r5, [pc, #108]	; (800ae9c <etharp_find_entry+0x10c>)
 800ae2e:	2318      	movs	r3, #24
 800ae30:	fb03 5304 	mla	r3, r3, r4, r5
 800ae34:	7d1b      	ldrb	r3, [r3, #20]
 800ae36:	b133      	cbz	r3, 800ae46 <etharp_find_entry+0xb6>
 800ae38:	4b19      	ldr	r3, [pc, #100]	; (800aea0 <etharp_find_entry+0x110>)
 800ae3a:	491c      	ldr	r1, [pc, #112]	; (800aeac <etharp_find_entry+0x11c>)
 800ae3c:	481a      	ldr	r0, [pc, #104]	; (800aea8 <etharp_find_entry+0x118>)
 800ae3e:	f240 1285 	movw	r2, #389	; 0x185
 800ae42:	f001 fc55 	bl	800c6f0 <iprintf>
 800ae46:	b126      	cbz	r6, 800ae52 <etharp_find_entry+0xc2>
 800ae48:	2318      	movs	r3, #24
 800ae4a:	fb03 5304 	mla	r3, r3, r4, r5
 800ae4e:	6832      	ldr	r2, [r6, #0]
 800ae50:	605a      	str	r2, [r3, #4]
 800ae52:	2318      	movs	r3, #24
 800ae54:	fb03 5504 	mla	r5, r3, r4, r5
 800ae58:	2300      	movs	r3, #0
 800ae5a:	826b      	strh	r3, [r5, #18]
 800ae5c:	9b00      	ldr	r3, [sp, #0]
 800ae5e:	60ab      	str	r3, [r5, #8]
 800ae60:	4620      	mov	r0, r4
 800ae62:	b003      	add	sp, #12
 800ae64:	e8bd 8ff0 	ldmia.w	sp!, {r4, r5, r6, r7, r8, r9, sl, fp, pc}
 800ae68:	458b      	cmp	fp, r1
 800ae6a:	d8c3      	bhi.n	800adf4 <etharp_find_entry+0x64>
 800ae6c:	468b      	mov	fp, r1
 800ae6e:	4680      	mov	r8, r0
 800ae70:	e7c0      	b.n	800adf4 <etharp_find_entry+0x64>
 800ae72:	4589      	cmp	r9, r1
 800ae74:	d8be      	bhi.n	800adf4 <etharp_find_entry+0x64>
 800ae76:	4689      	mov	r9, r1
 800ae78:	4605      	mov	r5, r0
 800ae7a:	e7bb      	b.n	800adf4 <etharp_find_entry+0x64>
 800ae7c:	4604      	mov	r4, r0
 800ae7e:	e7b9      	b.n	800adf4 <etharp_find_entry+0x64>
 800ae80:	f1b8 0f0a 	cmp.w	r8, #10
 800ae84:	d105      	bne.n	800ae92 <etharp_find_entry+0x102>
 800ae86:	f1be 0f0a 	cmp.w	lr, #10
 800ae8a:	d104      	bne.n	800ae96 <etharp_find_entry+0x106>
 800ae8c:	f04f 30ff 	mov.w	r0, #4294967295
 800ae90:	e7e7      	b.n	800ae62 <etharp_find_entry+0xd2>
 800ae92:	4645      	mov	r5, r8
 800ae94:	e7c6      	b.n	800ae24 <etharp_find_entry+0x94>
 800ae96:	4675      	mov	r5, lr
 800ae98:	e7c4      	b.n	800ae24 <etharp_find_entry+0x94>
 800ae9a:	bf00      	nop
 800ae9c:	20004b08 	.word	0x20004b08
 800aea0:	0800f557 	.word	0x0800f557
 800aea4:	0800f58e 	.word	0x0800f58e
 800aea8:	0800d51e 	.word	0x0800d51e
 800aeac:	0800f5a5 	.word	0x0800f5a5

0800aeb0 <etharp_raw>:
 800aeb0:	e92d 47f3 	stmdb	sp!, {r0, r1, r4, r5, r6, r7, r8, r9, sl, lr}
 800aeb4:	9d0b      	ldr	r5, [sp, #44]	; 0x2c
 800aeb6:	4689      	mov	r9, r1
 800aeb8:	4692      	mov	sl, r2
 800aeba:	4698      	mov	r8, r3
 800aebc:	4607      	mov	r7, r0
 800aebe:	b930      	cbnz	r0, 800aece <etharp_raw+0x1e>
 800aec0:	4b2d      	ldr	r3, [pc, #180]	; (800af78 <etharp_raw+0xc8>)
 800aec2:	492e      	ldr	r1, [pc, #184]	; (800af7c <etharp_raw+0xcc>)
 800aec4:	482e      	ldr	r0, [pc, #184]	; (800af80 <etharp_raw+0xd0>)
 800aec6:	f240 4257 	movw	r2, #1111	; 0x457
 800aeca:	f001 fc11 	bl	800c6f0 <iprintf>
 800aece:	f44f 7220 	mov.w	r2, #640	; 0x280
 800aed2:	211c      	movs	r1, #28
 800aed4:	200e      	movs	r0, #14
 800aed6:	f7fb ff3d 	bl	8006d54 <pbuf_alloc>
 800aeda:	4606      	mov	r6, r0
 800aedc:	2800      	cmp	r0, #0
 800aede:	d047      	beq.n	800af70 <etharp_raw+0xc0>
 800aee0:	8943      	ldrh	r3, [r0, #10]
 800aee2:	2b1b      	cmp	r3, #27
 800aee4:	d806      	bhi.n	800aef4 <etharp_raw+0x44>
 800aee6:	4b24      	ldr	r3, [pc, #144]	; (800af78 <etharp_raw+0xc8>)
 800aee8:	4926      	ldr	r1, [pc, #152]	; (800af84 <etharp_raw+0xd4>)
 800aeea:	4825      	ldr	r0, [pc, #148]	; (800af80 <etharp_raw+0xd0>)
 800aeec:	f240 4263 	movw	r2, #1123	; 0x463
 800aef0:	f001 fbfe 	bl	800c6f0 <iprintf>
 800aef4:	f8bd 0034 	ldrh.w	r0, [sp, #52]	; 0x34
 800aef8:	6874      	ldr	r4, [r6, #4]
 800aefa:	f7fb f949 	bl	8006190 <lwip_htons>
 800aefe:	80e0      	strh	r0, [r4, #6]
 800af00:	f897 302c 	ldrb.w	r3, [r7, #44]	; 0x2c
 800af04:	2b06      	cmp	r3, #6
 800af06:	d006      	beq.n	800af16 <etharp_raw+0x66>
 800af08:	4b1b      	ldr	r3, [pc, #108]	; (800af78 <etharp_raw+0xc8>)
 800af0a:	491f      	ldr	r1, [pc, #124]	; (800af88 <etharp_raw+0xd8>)
 800af0c:	481c      	ldr	r0, [pc, #112]	; (800af80 <etharp_raw+0xd0>)
 800af0e:	f240 426a 	movw	r2, #1130	; 0x46a
 800af12:	f001 fbed 	bl	800c6f0 <iprintf>
 800af16:	f8d8 3000 	ldr.w	r3, [r8]
 800af1a:	60a3      	str	r3, [r4, #8]
 800af1c:	f8b8 3004 	ldrh.w	r3, [r8, #4]
 800af20:	81a3      	strh	r3, [r4, #12]
 800af22:	682b      	ldr	r3, [r5, #0]
 800af24:	f8c4 3012 	str.w	r3, [r4, #18]
 800af28:	88ab      	ldrh	r3, [r5, #4]
 800af2a:	82e3      	strh	r3, [r4, #22]
 800af2c:	9b0a      	ldr	r3, [sp, #40]	; 0x28
 800af2e:	681b      	ldr	r3, [r3, #0]
 800af30:	f8c4 300e 	str.w	r3, [r4, #14]
 800af34:	9b0c      	ldr	r3, [sp, #48]	; 0x30
 800af36:	681b      	ldr	r3, [r3, #0]
 800af38:	61a3      	str	r3, [r4, #24]
 800af3a:	2301      	movs	r3, #1
 800af3c:	7063      	strb	r3, [r4, #1]
 800af3e:	2308      	movs	r3, #8
 800af40:	70a3      	strb	r3, [r4, #2]
 800af42:	2306      	movs	r3, #6
 800af44:	7123      	strb	r3, [r4, #4]
 800af46:	2304      	movs	r3, #4
 800af48:	2500      	movs	r5, #0
 800af4a:	7163      	strb	r3, [r4, #5]
 800af4c:	f640 0306 	movw	r3, #2054	; 0x806
 800af50:	7025      	strb	r5, [r4, #0]
 800af52:	70e5      	strb	r5, [r4, #3]
 800af54:	464a      	mov	r2, r9
 800af56:	9300      	str	r3, [sp, #0]
 800af58:	4631      	mov	r1, r6
 800af5a:	4653      	mov	r3, sl
 800af5c:	4638      	mov	r0, r7
 800af5e:	f001 f94b 	bl	800c1f8 <ethernet_output>
 800af62:	4630      	mov	r0, r6
 800af64:	f7fb fe8e 	bl	8006c84 <pbuf_free>
 800af68:	4628      	mov	r0, r5
 800af6a:	b002      	add	sp, #8
 800af6c:	e8bd 87f0 	ldmia.w	sp!, {r4, r5, r6, r7, r8, r9, sl, pc}
 800af70:	f04f 30ff 	mov.w	r0, #4294967295
 800af74:	e7f9      	b.n	800af6a <etharp_raw+0xba>
 800af76:	bf00      	nop
 800af78:	0800f557 	.word	0x0800f557
 800af7c:	0800d510 	.word	0x0800d510
 800af80:	0800d51e 	.word	0x0800d51e
 800af84:	0800f691 	.word	0x0800f691
 800af88:	0800f6c2 	.word	0x0800f6c2

0800af8c <etharp_cleanup_netif>:
 800af8c:	b5f8      	push	{r3, r4, r5, r6, r7, lr}
 800af8e:	4e09      	ldr	r6, [pc, #36]	; (800afb4 <etharp_cleanup_netif+0x28>)
 800af90:	4605      	mov	r5, r0
 800af92:	2400      	movs	r4, #0
 800af94:	2718      	movs	r7, #24
 800af96:	fb07 6304 	mla	r3, r7, r4, r6
 800af9a:	7d1a      	ldrb	r2, [r3, #20]
 800af9c:	b12a      	cbz	r2, 800afaa <etharp_cleanup_netif+0x1e>
 800af9e:	689b      	ldr	r3, [r3, #8]
 800afa0:	42ab      	cmp	r3, r5
 800afa2:	d102      	bne.n	800afaa <etharp_cleanup_netif+0x1e>
 800afa4:	4620      	mov	r0, r4
 800afa6:	f7ff fedf 	bl	800ad68 <etharp_free_entry>
 800afaa:	3401      	adds	r4, #1
 800afac:	2c0a      	cmp	r4, #10
 800afae:	d1f2      	bne.n	800af96 <etharp_cleanup_netif+0xa>
 800afb0:	bdf8      	pop	{r3, r4, r5, r6, r7, pc}
 800afb2:	bf00      	nop
 800afb4:	20004b08 	.word	0x20004b08

0800afb8 <etharp_input>:
 800afb8:	e92d 47f0 	stmdb	sp!, {r4, r5, r6, r7, r8, r9, sl, lr}
 800afbc:	4680      	mov	r8, r0
 800afbe:	b086      	sub	sp, #24
 800afc0:	460c      	mov	r4, r1
 800afc2:	b949      	cbnz	r1, 800afd8 <etharp_input+0x20>
 800afc4:	4b46      	ldr	r3, [pc, #280]	; (800b0e0 <etharp_input+0x128>)
 800afc6:	4947      	ldr	r1, [pc, #284]	; (800b0e4 <etharp_input+0x12c>)
 800afc8:	4847      	ldr	r0, [pc, #284]	; (800b0e8 <etharp_input+0x130>)
 800afca:	f240 228a 	movw	r2, #650	; 0x28a
 800afce:	f001 fb8f 	bl	800c6f0 <iprintf>
 800afd2:	b006      	add	sp, #24
 800afd4:	e8bd 87f0 	ldmia.w	sp!, {r4, r5, r6, r7, r8, r9, sl, pc}
 800afd8:	6846      	ldr	r6, [r0, #4]
 800afda:	8833      	ldrh	r3, [r6, #0]
 800afdc:	f5b3 7f80 	cmp.w	r3, #256	; 0x100
 800afe0:	d108      	bne.n	800aff4 <etharp_input+0x3c>
 800afe2:	7933      	ldrb	r3, [r6, #4]
 800afe4:	2b06      	cmp	r3, #6
 800afe6:	d105      	bne.n	800aff4 <etharp_input+0x3c>
 800afe8:	7973      	ldrb	r3, [r6, #5]
 800afea:	2b04      	cmp	r3, #4
 800afec:	d102      	bne.n	800aff4 <etharp_input+0x3c>
 800afee:	8873      	ldrh	r3, [r6, #2]
 800aff0:	2b08      	cmp	r3, #8
 800aff2:	d003      	beq.n	800affc <etharp_input+0x44>
 800aff4:	4640      	mov	r0, r8
 800aff6:	f7fb fe45 	bl	8006c84 <pbuf_free>
 800affa:	e7ea      	b.n	800afd2 <etharp_input+0x1a>
 800affc:	684d      	ldr	r5, [r1, #4]
 800affe:	f8d6 300e 	ldr.w	r3, [r6, #14]
 800b002:	9305      	str	r3, [sp, #20]
 800b004:	f106 0708 	add.w	r7, r6, #8
 800b008:	69b3      	ldr	r3, [r6, #24]
 800b00a:	b115      	cbz	r5, 800b012 <etharp_input+0x5a>
 800b00c:	429d      	cmp	r5, r3
 800b00e:	d063      	beq.n	800b0d8 <etharp_input+0x120>
 800b010:	2500      	movs	r5, #0
 800b012:	f04f 0a02 	mov.w	sl, #2
 800b016:	f894 302c 	ldrb.w	r3, [r4, #44]	; 0x2c
 800b01a:	2b06      	cmp	r3, #6
 800b01c:	d006      	beq.n	800b02c <etharp_input+0x74>
 800b01e:	4b30      	ldr	r3, [pc, #192]	; (800b0e0 <etharp_input+0x128>)
 800b020:	4932      	ldr	r1, [pc, #200]	; (800b0ec <etharp_input+0x134>)
 800b022:	4831      	ldr	r0, [pc, #196]	; (800b0e8 <etharp_input+0x130>)
 800b024:	f240 12a9 	movw	r2, #425	; 0x1a9
 800b028:	f001 fb62 	bl	800c6f0 <iprintf>
 800b02c:	9805      	ldr	r0, [sp, #20]
 800b02e:	2800      	cmp	r0, #0
 800b030:	d03d      	beq.n	800b0ae <etharp_input+0xf6>
 800b032:	4621      	mov	r1, r4
 800b034:	f000 fcb3 	bl	800b99e <ip4_addr_isbroadcast_u32>
 800b038:	4681      	mov	r9, r0
 800b03a:	bbc0      	cbnz	r0, 800b0ae <etharp_input+0xf6>
 800b03c:	9b05      	ldr	r3, [sp, #20]
 800b03e:	f003 03f0 	and.w	r3, r3, #240	; 0xf0
 800b042:	2be0      	cmp	r3, #224	; 0xe0
 800b044:	d033      	beq.n	800b0ae <etharp_input+0xf6>
 800b046:	4622      	mov	r2, r4
 800b048:	4651      	mov	r1, sl
 800b04a:	a805      	add	r0, sp, #20
 800b04c:	f7ff fea0 	bl	800ad90 <etharp_find_entry>
 800b050:	2800      	cmp	r0, #0
 800b052:	db2c      	blt.n	800b0ae <etharp_input+0xf6>
 800b054:	4b26      	ldr	r3, [pc, #152]	; (800b0f0 <etharp_input+0x138>)
 800b056:	2218      	movs	r2, #24
 800b058:	fb02 f100 	mul.w	r1, r2, r0
 800b05c:	eb03 0c01 	add.w	ip, r3, r1
 800b060:	f04f 0e02 	mov.w	lr, #2
 800b064:	f88c e014 	strb.w	lr, [ip, #20]
 800b068:	f04f 0e0c 	mov.w	lr, #12
 800b06c:	f8cc 4008 	str.w	r4, [ip, #8]
 800b070:	fb10 e202 	smlabb	r2, r0, r2, lr
 800b074:	6838      	ldr	r0, [r7, #0]
 800b076:	5098      	str	r0, [r3, r2]
 800b078:	eb03 0e02 	add.w	lr, r3, r2
 800b07c:	88ba      	ldrh	r2, [r7, #4]
 800b07e:	f8ae 2004 	strh.w	r2, [lr, #4]
 800b082:	f853 a001 	ldr.w	sl, [r3, r1]
 800b086:	f8ac 9012 	strh.w	r9, [ip, #18]
 800b08a:	f1ba 0f00 	cmp.w	sl, #0
 800b08e:	d00e      	beq.n	800b0ae <etharp_input+0xf6>
 800b090:	f843 9001 	str.w	r9, [r3, r1]
 800b094:	f44f 6300 	mov.w	r3, #2048	; 0x800
 800b098:	9300      	str	r3, [sp, #0]
 800b09a:	f104 0226 	add.w	r2, r4, #38	; 0x26
 800b09e:	463b      	mov	r3, r7
 800b0a0:	4651      	mov	r1, sl
 800b0a2:	4620      	mov	r0, r4
 800b0a4:	f001 f8a8 	bl	800c1f8 <ethernet_output>
 800b0a8:	4650      	mov	r0, sl
 800b0aa:	f7fb fdeb 	bl	8006c84 <pbuf_free>
 800b0ae:	88f3      	ldrh	r3, [r6, #6]
 800b0b0:	f5b3 7f80 	cmp.w	r3, #256	; 0x100
 800b0b4:	d19e      	bne.n	800aff4 <etharp_input+0x3c>
 800b0b6:	2d00      	cmp	r5, #0
 800b0b8:	d09c      	beq.n	800aff4 <etharp_input+0x3c>
 800b0ba:	2202      	movs	r2, #2
 800b0bc:	9203      	str	r2, [sp, #12]
 800b0be:	aa05      	add	r2, sp, #20
 800b0c0:	f104 0326 	add.w	r3, r4, #38	; 0x26
 800b0c4:	e9cd 7201 	strd	r7, r2, [sp, #4]
 800b0c8:	1d22      	adds	r2, r4, #4
 800b0ca:	9200      	str	r2, [sp, #0]
 800b0cc:	4619      	mov	r1, r3
 800b0ce:	463a      	mov	r2, r7
 800b0d0:	4620      	mov	r0, r4
 800b0d2:	f7ff feed 	bl	800aeb0 <etharp_raw>
 800b0d6:	e78d      	b.n	800aff4 <etharp_input+0x3c>
 800b0d8:	2501      	movs	r5, #1
 800b0da:	46aa      	mov	sl, r5
 800b0dc:	e79b      	b.n	800b016 <etharp_input+0x5e>
 800b0de:	bf00      	nop
 800b0e0:	0800f557 	.word	0x0800f557
 800b0e4:	0800d510 	.word	0x0800d510
 800b0e8:	0800d51e 	.word	0x0800d51e
 800b0ec:	0800f5ed 	.word	0x0800f5ed
 800b0f0:	20004b08 	.word	0x20004b08

0800b0f4 <etharp_request>:
 800b0f4:	b51f      	push	{r0, r1, r2, r3, r4, lr}
 800b0f6:	4602      	mov	r2, r0
 800b0f8:	2401      	movs	r4, #1
 800b0fa:	f100 0326 	add.w	r3, r0, #38	; 0x26
 800b0fe:	e9cd 1402 	strd	r1, r4, [sp, #8]
 800b102:	3204      	adds	r2, #4
 800b104:	4904      	ldr	r1, [pc, #16]	; (800b118 <etharp_request+0x24>)
 800b106:	9101      	str	r1, [sp, #4]
 800b108:	9200      	str	r2, [sp, #0]
 800b10a:	4619      	mov	r1, r3
 800b10c:	4a03      	ldr	r2, [pc, #12]	; (800b11c <etharp_request+0x28>)
 800b10e:	f7ff fecf 	bl	800aeb0 <etharp_raw>
 800b112:	b004      	add	sp, #16
 800b114:	bd10      	pop	{r4, pc}
 800b116:	bf00      	nop
 800b118:	0800fa6c 	.word	0x0800fa6c
 800b11c:	0800fa00 	.word	0x0800fa00

0800b120 <etharp_tmr>:
 800b120:	e92d 41f0 	stmdb	sp!, {r4, r5, r6, r7, r8, lr}
 800b124:	4c15      	ldr	r4, [pc, #84]	; (800b17c <etharp_tmr+0x5c>)
 800b126:	2500      	movs	r5, #0
 800b128:	2602      	movs	r6, #2
 800b12a:	2704      	movs	r7, #4
 800b12c:	f1a4 0804 	sub.w	r8, r4, #4
 800b130:	7b22      	ldrb	r2, [r4, #12]
 800b132:	b16a      	cbz	r2, 800b150 <etharp_tmr+0x30>
 800b134:	8963      	ldrh	r3, [r4, #10]
 800b136:	3301      	adds	r3, #1
 800b138:	b29b      	uxth	r3, r3
 800b13a:	f5b3 7f96 	cmp.w	r3, #300	; 0x12c
 800b13e:	8163      	strh	r3, [r4, #10]
 800b140:	d203      	bcs.n	800b14a <etharp_tmr+0x2a>
 800b142:	2a01      	cmp	r2, #1
 800b144:	d10b      	bne.n	800b15e <etharp_tmr+0x3e>
 800b146:	2b04      	cmp	r3, #4
 800b148:	d90d      	bls.n	800b166 <etharp_tmr+0x46>
 800b14a:	4628      	mov	r0, r5
 800b14c:	f7ff fe0c 	bl	800ad68 <etharp_free_entry>
 800b150:	3501      	adds	r5, #1
 800b152:	2d0a      	cmp	r5, #10
 800b154:	f104 0418 	add.w	r4, r4, #24
 800b158:	d1ea      	bne.n	800b130 <etharp_tmr+0x10>
 800b15a:	e8bd 81f0 	ldmia.w	sp!, {r4, r5, r6, r7, r8, pc}
 800b15e:	2a03      	cmp	r2, #3
 800b160:	d108      	bne.n	800b174 <etharp_tmr+0x54>
 800b162:	7327      	strb	r7, [r4, #12]
 800b164:	e7f4      	b.n	800b150 <etharp_tmr+0x30>
 800b166:	2118      	movs	r1, #24
 800b168:	fb01 8105 	mla	r1, r1, r5, r8
 800b16c:	6820      	ldr	r0, [r4, #0]
 800b16e:	f7ff ffc1 	bl	800b0f4 <etharp_request>
 800b172:	e7ed      	b.n	800b150 <etharp_tmr+0x30>
 800b174:	2a04      	cmp	r2, #4
 800b176:	d1eb      	bne.n	800b150 <etharp_tmr+0x30>
 800b178:	7326      	strb	r6, [r4, #12]
 800b17a:	e7e9      	b.n	800b150 <etharp_tmr+0x30>
 800b17c:	20004b10 	.word	0x20004b10

0800b180 <etharp_output_to_arp_index>:
 800b180:	e92d 43f0 	stmdb	sp!, {r4, r5, r6, r7, r8, r9, lr}
 800b184:	4d25      	ldr	r5, [pc, #148]	; (800b21c <etharp_output_to_arp_index+0x9c>)
 800b186:	2318      	movs	r3, #24
 800b188:	fb03 5302 	mla	r3, r3, r2, r5
 800b18c:	b085      	sub	sp, #20
 800b18e:	7d1b      	ldrb	r3, [r3, #20]
 800b190:	2b01      	cmp	r3, #1
 800b192:	4606      	mov	r6, r0
 800b194:	4689      	mov	r9, r1
 800b196:	4614      	mov	r4, r2
 800b198:	d806      	bhi.n	800b1a8 <etharp_output_to_arp_index+0x28>
 800b19a:	4b21      	ldr	r3, [pc, #132]	; (800b220 <etharp_output_to_arp_index+0xa0>)
 800b19c:	4921      	ldr	r1, [pc, #132]	; (800b224 <etharp_output_to_arp_index+0xa4>)
 800b19e:	4822      	ldr	r0, [pc, #136]	; (800b228 <etharp_output_to_arp_index+0xa8>)
 800b1a0:	f240 22ef 	movw	r2, #751	; 0x2ef
 800b1a4:	f001 faa4 	bl	800c6f0 <iprintf>
 800b1a8:	2318      	movs	r3, #24
 800b1aa:	eb04 0144 	add.w	r1, r4, r4, lsl #1
 800b1ae:	fb03 5404 	mla	r4, r3, r4, r5
 800b1b2:	00c9      	lsls	r1, r1, #3
 800b1b4:	7d23      	ldrb	r3, [r4, #20]
 800b1b6:	f101 070c 	add.w	r7, r1, #12
 800b1ba:	2b02      	cmp	r3, #2
 800b1bc:	442f      	add	r7, r5
 800b1be:	f106 0826 	add.w	r8, r6, #38	; 0x26
 800b1c2:	d10b      	bne.n	800b1dc <etharp_output_to_arp_index+0x5c>
 800b1c4:	8a63      	ldrh	r3, [r4, #18]
 800b1c6:	f5b3 7f8e 	cmp.w	r3, #284	; 0x11c
 800b1ca:	d913      	bls.n	800b1f4 <etharp_output_to_arp_index+0x74>
 800b1cc:	3104      	adds	r1, #4
 800b1ce:	4429      	add	r1, r5
 800b1d0:	4630      	mov	r0, r6
 800b1d2:	f7ff ff8f 	bl	800b0f4 <etharp_request>
 800b1d6:	b908      	cbnz	r0, 800b1dc <etharp_output_to_arp_index+0x5c>
 800b1d8:	2303      	movs	r3, #3
 800b1da:	7523      	strb	r3, [r4, #20]
 800b1dc:	f44f 6300 	mov.w	r3, #2048	; 0x800
 800b1e0:	9300      	str	r3, [sp, #0]
 800b1e2:	4642      	mov	r2, r8
 800b1e4:	463b      	mov	r3, r7
 800b1e6:	4649      	mov	r1, r9
 800b1e8:	4630      	mov	r0, r6
 800b1ea:	f001 f805 	bl	800c1f8 <ethernet_output>
 800b1ee:	b005      	add	sp, #20
 800b1f0:	e8bd 83f0 	ldmia.w	sp!, {r4, r5, r6, r7, r8, r9, pc}
 800b1f4:	f5b3 7f87 	cmp.w	r3, #270	; 0x10e
 800b1f8:	d3f0      	bcc.n	800b1dc <etharp_output_to_arp_index+0x5c>
 800b1fa:	2301      	movs	r3, #1
 800b1fc:	9303      	str	r3, [sp, #12]
 800b1fe:	3104      	adds	r1, #4
 800b200:	4b0a      	ldr	r3, [pc, #40]	; (800b22c <etharp_output_to_arp_index+0xac>)
 800b202:	9301      	str	r3, [sp, #4]
 800b204:	4429      	add	r1, r5
 800b206:	1d33      	adds	r3, r6, #4
 800b208:	9102      	str	r1, [sp, #8]
 800b20a:	9300      	str	r3, [sp, #0]
 800b20c:	463a      	mov	r2, r7
 800b20e:	4643      	mov	r3, r8
 800b210:	4641      	mov	r1, r8
 800b212:	4630      	mov	r0, r6
 800b214:	f7ff fe4c 	bl	800aeb0 <etharp_raw>
 800b218:	e7dd      	b.n	800b1d6 <etharp_output_to_arp_index+0x56>
 800b21a:	bf00      	nop
 800b21c:	20004b08 	.word	0x20004b08
 800b220:	0800f557 	.word	0x0800f557
 800b224:	0800f611 	.word	0x0800f611
 800b228:	0800d51e 	.word	0x0800d51e
 800b22c:	0800fa6c 	.word	0x0800fa6c

0800b230 <etharp_query>:
 800b230:	e92d 47f3 	stmdb	sp!, {r0, r1, r4, r5, r6, r7, r8, r9, sl, lr}
 800b234:	4689      	mov	r9, r1
 800b236:	4607      	mov	r7, r0
 800b238:	4601      	mov	r1, r0
 800b23a:	f8d9 0000 	ldr.w	r0, [r9]
 800b23e:	4615      	mov	r5, r2
 800b240:	f000 fbad 	bl	800b99e <ip4_addr_isbroadcast_u32>
 800b244:	2800      	cmp	r0, #0
 800b246:	f040 8081 	bne.w	800b34c <etharp_query+0x11c>
 800b24a:	f8d9 3000 	ldr.w	r3, [r9]
 800b24e:	f003 02f0 	and.w	r2, r3, #240	; 0xf0
 800b252:	2ae0      	cmp	r2, #224	; 0xe0
 800b254:	d07a      	beq.n	800b34c <etharp_query+0x11c>
 800b256:	2b00      	cmp	r3, #0
 800b258:	d078      	beq.n	800b34c <etharp_query+0x11c>
 800b25a:	463a      	mov	r2, r7
 800b25c:	2101      	movs	r1, #1
 800b25e:	4648      	mov	r0, r9
 800b260:	f7ff fd96 	bl	800ad90 <etharp_find_entry>
 800b264:	1e04      	subs	r4, r0, #0
 800b266:	da03      	bge.n	800b270 <etharp_query+0x40>
 800b268:	b260      	sxtb	r0, r4
 800b26a:	b002      	add	sp, #8
 800b26c:	e8bd 87f0 	ldmia.w	sp!, {r4, r5, r6, r7, r8, r9, sl, pc}
 800b270:	2c7e      	cmp	r4, #126	; 0x7e
 800b272:	dd06      	ble.n	800b282 <etharp_query+0x52>
 800b274:	4b3e      	ldr	r3, [pc, #248]	; (800b370 <etharp_query+0x140>)
 800b276:	493f      	ldr	r1, [pc, #252]	; (800b374 <etharp_query+0x144>)
 800b278:	483f      	ldr	r0, [pc, #252]	; (800b378 <etharp_query+0x148>)
 800b27a:	f240 32c1 	movw	r2, #961	; 0x3c1
 800b27e:	f001 fa37 	bl	800c6f0 <iprintf>
 800b282:	4e3e      	ldr	r6, [pc, #248]	; (800b37c <etharp_query+0x14c>)
 800b284:	b2e4      	uxtb	r4, r4
 800b286:	2218      	movs	r2, #24
 800b288:	fb02 6204 	mla	r2, r2, r4, r6
 800b28c:	7d13      	ldrb	r3, [r2, #20]
 800b28e:	bb83      	cbnz	r3, 800b2f2 <etharp_query+0xc2>
 800b290:	f04f 0801 	mov.w	r8, #1
 800b294:	f882 8014 	strb.w	r8, [r2, #20]
 800b298:	6097      	str	r7, [r2, #8]
 800b29a:	2318      	movs	r3, #24
 800b29c:	fb03 6304 	mla	r3, r3, r4, r6
 800b2a0:	7d1b      	ldrb	r3, [r3, #20]
 800b2a2:	b933      	cbnz	r3, 800b2b2 <etharp_query+0x82>
 800b2a4:	4b32      	ldr	r3, [pc, #200]	; (800b370 <etharp_query+0x140>)
 800b2a6:	4936      	ldr	r1, [pc, #216]	; (800b380 <etharp_query+0x150>)
 800b2a8:	4833      	ldr	r0, [pc, #204]	; (800b378 <etharp_query+0x148>)
 800b2aa:	f240 32cf 	movw	r2, #975	; 0x3cf
 800b2ae:	f001 fa1f 	bl	800c6f0 <iprintf>
 800b2b2:	f1b8 0f00 	cmp.w	r8, #0
 800b2b6:	d101      	bne.n	800b2bc <etharp_query+0x8c>
 800b2b8:	2d00      	cmp	r5, #0
 800b2ba:	d14a      	bne.n	800b352 <etharp_query+0x122>
 800b2bc:	4649      	mov	r1, r9
 800b2be:	4638      	mov	r0, r7
 800b2c0:	f7ff ff18 	bl	800b0f4 <etharp_request>
 800b2c4:	2d00      	cmp	r5, #0
 800b2c6:	d0d0      	beq.n	800b26a <etharp_query+0x3a>
 800b2c8:	2318      	movs	r3, #24
 800b2ca:	fb03 6204 	mla	r2, r3, r4, r6
 800b2ce:	7d12      	ldrb	r2, [r2, #20]
 800b2d0:	2a01      	cmp	r2, #1
 800b2d2:	d911      	bls.n	800b2f8 <etharp_query+0xc8>
 800b2d4:	4a2b      	ldr	r2, [pc, #172]	; (800b384 <etharp_query+0x154>)
 800b2d6:	fb03 6304 	mla	r3, r3, r4, r6
 800b2da:	7014      	strb	r4, [r2, #0]
 800b2dc:	f44f 6200 	mov.w	r2, #2048	; 0x800
 800b2e0:	9200      	str	r2, [sp, #0]
 800b2e2:	330c      	adds	r3, #12
 800b2e4:	f107 0226 	add.w	r2, r7, #38	; 0x26
 800b2e8:	4629      	mov	r1, r5
 800b2ea:	4638      	mov	r0, r7
 800b2ec:	f000 ff84 	bl	800c1f8 <ethernet_output>
 800b2f0:	e7bb      	b.n	800b26a <etharp_query+0x3a>
 800b2f2:	f04f 0800 	mov.w	r8, #0
 800b2f6:	e7d0      	b.n	800b29a <etharp_query+0x6a>
 800b2f8:	d1b7      	bne.n	800b26a <etharp_query+0x3a>
 800b2fa:	f8df 8074 	ldr.w	r8, [pc, #116]	; 800b370 <etharp_query+0x140>
 800b2fe:	f8df 9088 	ldr.w	r9, [pc, #136]	; 800b388 <etharp_query+0x158>
 800b302:	f8df a074 	ldr.w	sl, [pc, #116]	; 800b378 <etharp_query+0x148>
 800b306:	462f      	mov	r7, r5
 800b308:	897a      	ldrh	r2, [r7, #10]
 800b30a:	893b      	ldrh	r3, [r7, #8]
 800b30c:	429a      	cmp	r2, r3
 800b30e:	d108      	bne.n	800b322 <etharp_query+0xf2>
 800b310:	683b      	ldr	r3, [r7, #0]
 800b312:	b133      	cbz	r3, 800b322 <etharp_query+0xf2>
 800b314:	4643      	mov	r3, r8
 800b316:	f240 32f1 	movw	r2, #1009	; 0x3f1
 800b31a:	4649      	mov	r1, r9
 800b31c:	4650      	mov	r0, sl
 800b31e:	f001 f9e7 	bl	800c6f0 <iprintf>
 800b322:	7b3b      	ldrb	r3, [r7, #12]
 800b324:	065b      	lsls	r3, r3, #25
 800b326:	d417      	bmi.n	800b358 <etharp_query+0x128>
 800b328:	683f      	ldr	r7, [r7, #0]
 800b32a:	2f00      	cmp	r7, #0
 800b32c:	d1ec      	bne.n	800b308 <etharp_query+0xd8>
 800b32e:	4628      	mov	r0, r5
 800b330:	f7fb fe04 	bl	8006f3c <pbuf_ref>
 800b334:	2318      	movs	r3, #24
 800b336:	fb03 f204 	mul.w	r2, r3, r4
 800b33a:	461f      	mov	r7, r3
 800b33c:	58b0      	ldr	r0, [r6, r2]
 800b33e:	b108      	cbz	r0, 800b344 <etharp_query+0x114>
 800b340:	f7fb fca0 	bl	8006c84 <pbuf_free>
 800b344:	437c      	muls	r4, r7
 800b346:	2000      	movs	r0, #0
 800b348:	5135      	str	r5, [r6, r4]
 800b34a:	e78e      	b.n	800b26a <etharp_query+0x3a>
 800b34c:	f06f 000f 	mvn.w	r0, #15
 800b350:	e78b      	b.n	800b26a <etharp_query+0x3a>
 800b352:	f04f 30ff 	mov.w	r0, #4294967295
 800b356:	e7b7      	b.n	800b2c8 <etharp_query+0x98>
 800b358:	462a      	mov	r2, r5
 800b35a:	f44f 7120 	mov.w	r1, #640	; 0x280
 800b35e:	200e      	movs	r0, #14
 800b360:	f7fb ff0a 	bl	8007178 <pbuf_clone>
 800b364:	4605      	mov	r5, r0
 800b366:	2800      	cmp	r0, #0
 800b368:	d1e4      	bne.n	800b334 <etharp_query+0x104>
 800b36a:	f04f 30ff 	mov.w	r0, #4294967295
 800b36e:	e77c      	b.n	800b26a <etharp_query+0x3a>
 800b370:	0800f557 	.word	0x0800f557
 800b374:	0800f641 	.word	0x0800f641
 800b378:	0800d51e 	.word	0x0800d51e
 800b37c:	20004b08 	.word	0x20004b08
 800b380:	0800f64f 	.word	0x0800f64f
 800b384:	20004bf8 	.word	0x20004bf8
 800b388:	0800f677 	.word	0x0800f677

0800b38c <etharp_output>:
 800b38c:	b5f0      	push	{r4, r5, r6, r7, lr}
 800b38e:	460e      	mov	r6, r1
 800b390:	b085      	sub	sp, #20
 800b392:	4615      	mov	r5, r2
 800b394:	4604      	mov	r4, r0
 800b396:	b930      	cbnz	r0, 800b3a6 <etharp_output+0x1a>
 800b398:	4b41      	ldr	r3, [pc, #260]	; (800b4a0 <etharp_output+0x114>)
 800b39a:	4942      	ldr	r1, [pc, #264]	; (800b4a4 <etharp_output+0x118>)
 800b39c:	4842      	ldr	r0, [pc, #264]	; (800b4a8 <etharp_output+0x11c>)
 800b39e:	f240 321e 	movw	r2, #798	; 0x31e
 800b3a2:	f001 f9a5 	bl	800c6f0 <iprintf>
 800b3a6:	b936      	cbnz	r6, 800b3b6 <etharp_output+0x2a>
 800b3a8:	4b3d      	ldr	r3, [pc, #244]	; (800b4a0 <etharp_output+0x114>)
 800b3aa:	4940      	ldr	r1, [pc, #256]	; (800b4ac <etharp_output+0x120>)
 800b3ac:	483e      	ldr	r0, [pc, #248]	; (800b4a8 <etharp_output+0x11c>)
 800b3ae:	f240 321f 	movw	r2, #799	; 0x31f
 800b3b2:	f001 f99d 	bl	800c6f0 <iprintf>
 800b3b6:	b935      	cbnz	r5, 800b3c6 <etharp_output+0x3a>
 800b3b8:	4b39      	ldr	r3, [pc, #228]	; (800b4a0 <etharp_output+0x114>)
 800b3ba:	493d      	ldr	r1, [pc, #244]	; (800b4b0 <etharp_output+0x124>)
 800b3bc:	483a      	ldr	r0, [pc, #232]	; (800b4a8 <etharp_output+0x11c>)
 800b3be:	f44f 7248 	mov.w	r2, #800	; 0x320
 800b3c2:	f001 f995 	bl	800c6f0 <iprintf>
 800b3c6:	4621      	mov	r1, r4
 800b3c8:	6828      	ldr	r0, [r5, #0]
 800b3ca:	f000 fae8 	bl	800b99e <ip4_addr_isbroadcast_u32>
 800b3ce:	2800      	cmp	r0, #0
 800b3d0:	d161      	bne.n	800b496 <etharp_output+0x10a>
 800b3d2:	682b      	ldr	r3, [r5, #0]
 800b3d4:	f003 02f0 	and.w	r2, r3, #240	; 0xf0
 800b3d8:	2ae0      	cmp	r2, #224	; 0xe0
 800b3da:	d11b      	bne.n	800b414 <etharp_output+0x88>
 800b3dc:	2301      	movs	r3, #1
 800b3de:	f8ad 3008 	strh.w	r3, [sp, #8]
 800b3e2:	235e      	movs	r3, #94	; 0x5e
 800b3e4:	f88d 300a 	strb.w	r3, [sp, #10]
 800b3e8:	786b      	ldrb	r3, [r5, #1]
 800b3ea:	f003 037f 	and.w	r3, r3, #127	; 0x7f
 800b3ee:	f88d 300b 	strb.w	r3, [sp, #11]
 800b3f2:	78ab      	ldrb	r3, [r5, #2]
 800b3f4:	f88d 300c 	strb.w	r3, [sp, #12]
 800b3f8:	78eb      	ldrb	r3, [r5, #3]
 800b3fa:	f88d 300d 	strb.w	r3, [sp, #13]
 800b3fe:	ab02      	add	r3, sp, #8
 800b400:	f44f 6200 	mov.w	r2, #2048	; 0x800
 800b404:	9200      	str	r2, [sp, #0]
 800b406:	4631      	mov	r1, r6
 800b408:	f104 0226 	add.w	r2, r4, #38	; 0x26
 800b40c:	4620      	mov	r0, r4
 800b40e:	f000 fef3 	bl	800c1f8 <ethernet_output>
 800b412:	e023      	b.n	800b45c <etharp_output+0xd0>
 800b414:	6862      	ldr	r2, [r4, #4]
 800b416:	68a1      	ldr	r1, [r4, #8]
 800b418:	405a      	eors	r2, r3
 800b41a:	420a      	tst	r2, r1
 800b41c:	d009      	beq.n	800b432 <etharp_output+0xa6>
 800b41e:	b29b      	uxth	r3, r3
 800b420:	f64f 62a9 	movw	r2, #65193	; 0xfea9
 800b424:	4293      	cmp	r3, r2
 800b426:	d004      	beq.n	800b432 <etharp_output+0xa6>
 800b428:	68e3      	ldr	r3, [r4, #12]
 800b42a:	2b00      	cmp	r3, #0
 800b42c:	d035      	beq.n	800b49a <etharp_output+0x10e>
 800b42e:	f104 050c 	add.w	r5, r4, #12
 800b432:	4920      	ldr	r1, [pc, #128]	; (800b4b4 <etharp_output+0x128>)
 800b434:	4820      	ldr	r0, [pc, #128]	; (800b4b8 <etharp_output+0x12c>)
 800b436:	780a      	ldrb	r2, [r1, #0]
 800b438:	2318      	movs	r3, #24
 800b43a:	fb03 0302 	mla	r3, r3, r2, r0
 800b43e:	468c      	mov	ip, r1
 800b440:	7d18      	ldrb	r0, [r3, #20]
 800b442:	2801      	cmp	r0, #1
 800b444:	d90c      	bls.n	800b460 <etharp_output+0xd4>
 800b446:	6899      	ldr	r1, [r3, #8]
 800b448:	42a1      	cmp	r1, r4
 800b44a:	d109      	bne.n	800b460 <etharp_output+0xd4>
 800b44c:	6829      	ldr	r1, [r5, #0]
 800b44e:	685b      	ldr	r3, [r3, #4]
 800b450:	4299      	cmp	r1, r3
 800b452:	d105      	bne.n	800b460 <etharp_output+0xd4>
 800b454:	4631      	mov	r1, r6
 800b456:	4620      	mov	r0, r4
 800b458:	f7ff fe92 	bl	800b180 <etharp_output_to_arp_index>
 800b45c:	b005      	add	sp, #20
 800b45e:	bdf0      	pop	{r4, r5, r6, r7, pc}
 800b460:	4b16      	ldr	r3, [pc, #88]	; (800b4bc <etharp_output+0x130>)
 800b462:	2100      	movs	r1, #0
 800b464:	7c18      	ldrb	r0, [r3, #16]
 800b466:	2801      	cmp	r0, #1
 800b468:	b2ca      	uxtb	r2, r1
 800b46a:	d909      	bls.n	800b480 <etharp_output+0xf4>
 800b46c:	6858      	ldr	r0, [r3, #4]
 800b46e:	42a0      	cmp	r0, r4
 800b470:	d106      	bne.n	800b480 <etharp_output+0xf4>
 800b472:	682f      	ldr	r7, [r5, #0]
 800b474:	6818      	ldr	r0, [r3, #0]
 800b476:	4287      	cmp	r7, r0
 800b478:	d102      	bne.n	800b480 <etharp_output+0xf4>
 800b47a:	f88c 2000 	strb.w	r2, [ip]
 800b47e:	e7e9      	b.n	800b454 <etharp_output+0xc8>
 800b480:	3101      	adds	r1, #1
 800b482:	290a      	cmp	r1, #10
 800b484:	f103 0318 	add.w	r3, r3, #24
 800b488:	d1ec      	bne.n	800b464 <etharp_output+0xd8>
 800b48a:	4632      	mov	r2, r6
 800b48c:	4629      	mov	r1, r5
 800b48e:	4620      	mov	r0, r4
 800b490:	f7ff fece 	bl	800b230 <etharp_query>
 800b494:	e7e2      	b.n	800b45c <etharp_output+0xd0>
 800b496:	4b0a      	ldr	r3, [pc, #40]	; (800b4c0 <etharp_output+0x134>)
 800b498:	e7b2      	b.n	800b400 <etharp_output+0x74>
 800b49a:	f06f 0003 	mvn.w	r0, #3
 800b49e:	e7dd      	b.n	800b45c <etharp_output+0xd0>
 800b4a0:	0800f557 	.word	0x0800f557
 800b4a4:	0800d510 	.word	0x0800d510
 800b4a8:	0800d51e 	.word	0x0800d51e
 800b4ac:	0800e361 	.word	0x0800e361
 800b4b0:	0800f5ce 	.word	0x0800f5ce
 800b4b4:	20004bf8 	.word	0x20004bf8
 800b4b8:	20004b08 	.word	0x20004b08
 800b4bc:	20004b0c 	.word	0x20004b0c
 800b4c0:	0800fa00 	.word	0x0800fa00

0800b4c4 <icmp_send_response.isra.0>:
 800b4c4:	b5f0      	push	{r4, r5, r6, r7, lr}
 800b4c6:	4604      	mov	r4, r0
 800b4c8:	b087      	sub	sp, #28
 800b4ca:	460f      	mov	r7, r1
 800b4cc:	4616      	mov	r6, r2
 800b4ce:	2124      	movs	r1, #36	; 0x24
 800b4d0:	f44f 7220 	mov.w	r2, #640	; 0x280
 800b4d4:	2022      	movs	r0, #34	; 0x22
 800b4d6:	f7fb fc3d 	bl	8006d54 <pbuf_alloc>
 800b4da:	4605      	mov	r5, r0
 800b4dc:	b3a0      	cbz	r0, 800b548 <icmp_send_response.isra.0+0x84>
 800b4de:	8943      	ldrh	r3, [r0, #10]
 800b4e0:	2b23      	cmp	r3, #35	; 0x23
 800b4e2:	d806      	bhi.n	800b4f2 <icmp_send_response.isra.0+0x2e>
 800b4e4:	4b19      	ldr	r3, [pc, #100]	; (800b54c <icmp_send_response.isra.0+0x88>)
 800b4e6:	491a      	ldr	r1, [pc, #104]	; (800b550 <icmp_send_response.isra.0+0x8c>)
 800b4e8:	481a      	ldr	r0, [pc, #104]	; (800b554 <icmp_send_response.isra.0+0x90>)
 800b4ea:	f240 1269 	movw	r2, #361	; 0x169
 800b4ee:	f001 f8ff 	bl	800c6f0 <iprintf>
 800b4f2:	6822      	ldr	r2, [r4, #0]
 800b4f4:	686c      	ldr	r4, [r5, #4]
 800b4f6:	2300      	movs	r3, #0
 800b4f8:	7123      	strb	r3, [r4, #4]
 800b4fa:	7163      	strb	r3, [r4, #5]
 800b4fc:	71a3      	strb	r3, [r4, #6]
 800b4fe:	71e3      	strb	r3, [r4, #7]
 800b500:	7027      	strb	r7, [r4, #0]
 800b502:	7066      	strb	r6, [r4, #1]
 800b504:	4613      	mov	r3, r2
 800b506:	f104 0108 	add.w	r1, r4, #8
 800b50a:	f102 001c 	add.w	r0, r2, #28
 800b50e:	f853 6b04 	ldr.w	r6, [r3], #4
 800b512:	f841 6b04 	str.w	r6, [r1], #4
 800b516:	4283      	cmp	r3, r0
 800b518:	d1f9      	bne.n	800b50e <icmp_send_response.isra.0+0x4a>
 800b51a:	ae06      	add	r6, sp, #24
 800b51c:	68d3      	ldr	r3, [r2, #12]
 800b51e:	f846 3d04 	str.w	r3, [r6, #-4]!
 800b522:	4630      	mov	r0, r6
 800b524:	f000 f8d2 	bl	800b6cc <ip4_route>
 800b528:	b158      	cbz	r0, 800b542 <icmp_send_response.isra.0+0x7e>
 800b52a:	2100      	movs	r1, #0
 800b52c:	2301      	movs	r3, #1
 800b52e:	70a1      	strb	r1, [r4, #2]
 800b530:	70e1      	strb	r1, [r4, #3]
 800b532:	4632      	mov	r2, r6
 800b534:	9002      	str	r0, [sp, #8]
 800b536:	e9cd 1300 	strd	r1, r3, [sp]
 800b53a:	4628      	mov	r0, r5
 800b53c:	23ff      	movs	r3, #255	; 0xff
 800b53e:	f000 fa1d 	bl	800b97c <ip4_output_if>
 800b542:	4628      	mov	r0, r5
 800b544:	f7fb fb9e 	bl	8006c84 <pbuf_free>
 800b548:	b007      	add	sp, #28
 800b54a:	bdf0      	pop	{r4, r5, r6, r7, pc}
 800b54c:	0800f76a 	.word	0x0800f76a
 800b550:	0800f79f 	.word	0x0800f79f
 800b554:	0800d51e 	.word	0x0800d51e

0800b558 <icmp_input>:
 800b558:	e92d 43f0 	stmdb	sp!, {r4, r5, r6, r7, r8, r9, lr}
 800b55c:	4f43      	ldr	r7, [pc, #268]	; (800b66c <icmp_input+0x114>)
 800b55e:	f8d7 9008 	ldr.w	r9, [r7, #8]
 800b562:	f899 5000 	ldrb.w	r5, [r9]
 800b566:	f005 050f 	and.w	r5, r5, #15
 800b56a:	00ad      	lsls	r5, r5, #2
 800b56c:	2d13      	cmp	r5, #19
 800b56e:	b085      	sub	sp, #20
 800b570:	4604      	mov	r4, r0
 800b572:	4688      	mov	r8, r1
 800b574:	d92e      	bls.n	800b5d4 <icmp_input+0x7c>
 800b576:	8943      	ldrh	r3, [r0, #10]
 800b578:	2b03      	cmp	r3, #3
 800b57a:	d92b      	bls.n	800b5d4 <icmp_input+0x7c>
 800b57c:	6843      	ldr	r3, [r0, #4]
 800b57e:	781b      	ldrb	r3, [r3, #0]
 800b580:	2b08      	cmp	r3, #8
 800b582:	d127      	bne.n	800b5d4 <icmp_input+0x7c>
 800b584:	6978      	ldr	r0, [r7, #20]
 800b586:	f000 03f0 	and.w	r3, r0, #240	; 0xf0
 800b58a:	2be0      	cmp	r3, #224	; 0xe0
 800b58c:	d022      	beq.n	800b5d4 <icmp_input+0x7c>
 800b58e:	6839      	ldr	r1, [r7, #0]
 800b590:	f000 fa05 	bl	800b99e <ip4_addr_isbroadcast_u32>
 800b594:	b9f0      	cbnz	r0, 800b5d4 <icmp_input+0x7c>
 800b596:	8923      	ldrh	r3, [r4, #8]
 800b598:	2b07      	cmp	r3, #7
 800b59a:	d91b      	bls.n	800b5d4 <icmp_input+0x7c>
 800b59c:	f105 060e 	add.w	r6, r5, #14
 800b5a0:	4631      	mov	r1, r6
 800b5a2:	4620      	mov	r0, r4
 800b5a4:	f7fb fb37 	bl	8006c16 <pbuf_add_header>
 800b5a8:	2800      	cmp	r0, #0
 800b5aa:	d052      	beq.n	800b652 <icmp_input+0xfa>
 800b5ac:	8923      	ldrh	r3, [r4, #8]
 800b5ae:	1959      	adds	r1, r3, r5
 800b5b0:	b289      	uxth	r1, r1
 800b5b2:	428b      	cmp	r3, r1
 800b5b4:	d80e      	bhi.n	800b5d4 <icmp_input+0x7c>
 800b5b6:	f44f 7220 	mov.w	r2, #640	; 0x280
 800b5ba:	200e      	movs	r0, #14
 800b5bc:	f7fb fbca 	bl	8006d54 <pbuf_alloc>
 800b5c0:	4606      	mov	r6, r0
 800b5c2:	b138      	cbz	r0, 800b5d4 <icmp_input+0x7c>
 800b5c4:	8942      	ldrh	r2, [r0, #10]
 800b5c6:	f105 0308 	add.w	r3, r5, #8
 800b5ca:	429a      	cmp	r2, r3
 800b5cc:	d208      	bcs.n	800b5e0 <icmp_input+0x88>
 800b5ce:	4630      	mov	r0, r6
 800b5d0:	f7fb fb58 	bl	8006c84 <pbuf_free>
 800b5d4:	4620      	mov	r0, r4
 800b5d6:	b005      	add	sp, #20
 800b5d8:	e8bd 43f0 	ldmia.w	sp!, {r4, r5, r6, r7, r8, r9, lr}
 800b5dc:	f7fb bb52 	b.w	8006c84 <pbuf_free>
 800b5e0:	4649      	mov	r1, r9
 800b5e2:	462a      	mov	r2, r5
 800b5e4:	6840      	ldr	r0, [r0, #4]
 800b5e6:	f001 f816 	bl	800c616 <memcpy>
 800b5ea:	4629      	mov	r1, r5
 800b5ec:	4630      	mov	r0, r6
 800b5ee:	f7fb fb15 	bl	8006c1c <pbuf_remove_header>
 800b5f2:	b130      	cbz	r0, 800b602 <icmp_input+0xaa>
 800b5f4:	4b1e      	ldr	r3, [pc, #120]	; (800b670 <icmp_input+0x118>)
 800b5f6:	491f      	ldr	r1, [pc, #124]	; (800b674 <icmp_input+0x11c>)
 800b5f8:	481f      	ldr	r0, [pc, #124]	; (800b678 <icmp_input+0x120>)
 800b5fa:	22b6      	movs	r2, #182	; 0xb6
 800b5fc:	f001 f878 	bl	800c6f0 <iprintf>
 800b600:	e7e5      	b.n	800b5ce <icmp_input+0x76>
 800b602:	4621      	mov	r1, r4
 800b604:	4630      	mov	r0, r6
 800b606:	f7fb fcef 	bl	8006fe8 <pbuf_copy>
 800b60a:	2800      	cmp	r0, #0
 800b60c:	d1df      	bne.n	800b5ce <icmp_input+0x76>
 800b60e:	4620      	mov	r0, r4
 800b610:	f7fb fb38 	bl	8006c84 <pbuf_free>
 800b614:	4634      	mov	r4, r6
 800b616:	4629      	mov	r1, r5
 800b618:	4620      	mov	r0, r4
 800b61a:	6866      	ldr	r6, [r4, #4]
 800b61c:	f7fb fafb 	bl	8006c16 <pbuf_add_header>
 800b620:	4602      	mov	r2, r0
 800b622:	2800      	cmp	r0, #0
 800b624:	d1d6      	bne.n	800b5d4 <icmp_input+0x7c>
 800b626:	6861      	ldr	r1, [r4, #4]
 800b628:	697b      	ldr	r3, [r7, #20]
 800b62a:	60cb      	str	r3, [r1, #12]
 800b62c:	693b      	ldr	r3, [r7, #16]
 800b62e:	610b      	str	r3, [r1, #16]
 800b630:	23ff      	movs	r3, #255	; 0xff
 800b632:	7030      	strb	r0, [r6, #0]
 800b634:	70b0      	strb	r0, [r6, #2]
 800b636:	70f0      	strb	r0, [r6, #3]
 800b638:	720b      	strb	r3, [r1, #8]
 800b63a:	7288      	strb	r0, [r1, #10]
 800b63c:	72c8      	strb	r0, [r1, #11]
 800b63e:	2101      	movs	r1, #1
 800b640:	e9cd 0100 	strd	r0, r1, [sp]
 800b644:	f8cd 8008 	str.w	r8, [sp, #8]
 800b648:	490c      	ldr	r1, [pc, #48]	; (800b67c <icmp_input+0x124>)
 800b64a:	4620      	mov	r0, r4
 800b64c:	f000 f996 	bl	800b97c <ip4_output_if>
 800b650:	e7c0      	b.n	800b5d4 <icmp_input+0x7c>
 800b652:	4631      	mov	r1, r6
 800b654:	4620      	mov	r0, r4
 800b656:	f7fb fae1 	bl	8006c1c <pbuf_remove_header>
 800b65a:	2800      	cmp	r0, #0
 800b65c:	d0db      	beq.n	800b616 <icmp_input+0xbe>
 800b65e:	4b04      	ldr	r3, [pc, #16]	; (800b670 <icmp_input+0x118>)
 800b660:	4907      	ldr	r1, [pc, #28]	; (800b680 <icmp_input+0x128>)
 800b662:	4805      	ldr	r0, [pc, #20]	; (800b678 <icmp_input+0x120>)
 800b664:	22c7      	movs	r2, #199	; 0xc7
 800b666:	f001 f843 	bl	800c6f0 <iprintf>
 800b66a:	e7b3      	b.n	800b5d4 <icmp_input+0x7c>
 800b66c:	20007ec0 	.word	0x20007ec0
 800b670:	0800f76a 	.word	0x0800f76a
 800b674:	0800f703 	.word	0x0800f703
 800b678:	0800d51e 	.word	0x0800d51e
 800b67c:	20007ed4 	.word	0x20007ed4
 800b680:	0800f738 	.word	0x0800f738

0800b684 <icmp_dest_unreach>:
 800b684:	460a      	mov	r2, r1
 800b686:	3004      	adds	r0, #4
 800b688:	2103      	movs	r1, #3
 800b68a:	f7ff bf1b 	b.w	800b4c4 <icmp_send_response.isra.0>

0800b68e <icmp_time_exceeded>:
 800b68e:	460a      	mov	r2, r1
 800b690:	3004      	adds	r0, #4
 800b692:	210b      	movs	r1, #11
 800b694:	f7ff bf16 	b.w	800b4c4 <icmp_send_response.isra.0>

0800b698 <ip4_input_accept>:
 800b698:	b508      	push	{r3, lr}
 800b69a:	f890 302d 	ldrb.w	r3, [r0, #45]	; 0x2d
 800b69e:	f013 0301 	ands.w	r3, r3, #1
 800b6a2:	4601      	mov	r1, r0
 800b6a4:	d00b      	beq.n	800b6be <ip4_input_accept+0x26>
 800b6a6:	6843      	ldr	r3, [r0, #4]
 800b6a8:	b14b      	cbz	r3, 800b6be <ip4_input_accept+0x26>
 800b6aa:	4a07      	ldr	r2, [pc, #28]	; (800b6c8 <ip4_input_accept+0x30>)
 800b6ac:	6950      	ldr	r0, [r2, #20]
 800b6ae:	4283      	cmp	r3, r0
 800b6b0:	d007      	beq.n	800b6c2 <ip4_input_accept+0x2a>
 800b6b2:	f000 f974 	bl	800b99e <ip4_addr_isbroadcast_u32>
 800b6b6:	3000      	adds	r0, #0
 800b6b8:	bf18      	it	ne
 800b6ba:	2001      	movne	r0, #1
 800b6bc:	bd08      	pop	{r3, pc}
 800b6be:	4618      	mov	r0, r3
 800b6c0:	e7fc      	b.n	800b6bc <ip4_input_accept+0x24>
 800b6c2:	2001      	movs	r0, #1
 800b6c4:	e7fa      	b.n	800b6bc <ip4_input_accept+0x24>
 800b6c6:	bf00      	nop
 800b6c8:	20007ec0 	.word	0x20007ec0

0800b6cc <ip4_route>:
 800b6cc:	b530      	push	{r4, r5, lr}
 800b6ce:	4b14      	ldr	r3, [pc, #80]	; (800b720 <ip4_route+0x54>)
 800b6d0:	681b      	ldr	r3, [r3, #0]
 800b6d2:	b97b      	cbnz	r3, 800b6f4 <ip4_route+0x28>
 800b6d4:	4a13      	ldr	r2, [pc, #76]	; (800b724 <ip4_route+0x58>)
 800b6d6:	6812      	ldr	r2, [r2, #0]
 800b6d8:	b1fa      	cbz	r2, 800b71a <ip4_route+0x4e>
 800b6da:	f892 102d 	ldrb.w	r1, [r2, #45]	; 0x2d
 800b6de:	f001 0105 	and.w	r1, r1, #5
 800b6e2:	2905      	cmp	r1, #5
 800b6e4:	d119      	bne.n	800b71a <ip4_route+0x4e>
 800b6e6:	6851      	ldr	r1, [r2, #4]
 800b6e8:	b1b9      	cbz	r1, 800b71a <ip4_route+0x4e>
 800b6ea:	7801      	ldrb	r1, [r0, #0]
 800b6ec:	297f      	cmp	r1, #127	; 0x7f
 800b6ee:	bf18      	it	ne
 800b6f0:	4613      	movne	r3, r2
 800b6f2:	e012      	b.n	800b71a <ip4_route+0x4e>
 800b6f4:	f893 102d 	ldrb.w	r1, [r3, #45]	; 0x2d
 800b6f8:	07cd      	lsls	r5, r1, #31
 800b6fa:	d5e9      	bpl.n	800b6d0 <ip4_route+0x4>
 800b6fc:	074c      	lsls	r4, r1, #29
 800b6fe:	d5e7      	bpl.n	800b6d0 <ip4_route+0x4>
 800b700:	685a      	ldr	r2, [r3, #4]
 800b702:	2a00      	cmp	r2, #0
 800b704:	d0e4      	beq.n	800b6d0 <ip4_route+0x4>
 800b706:	6804      	ldr	r4, [r0, #0]
 800b708:	689d      	ldr	r5, [r3, #8]
 800b70a:	4062      	eors	r2, r4
 800b70c:	422a      	tst	r2, r5
 800b70e:	d004      	beq.n	800b71a <ip4_route+0x4e>
 800b710:	078a      	lsls	r2, r1, #30
 800b712:	d4dd      	bmi.n	800b6d0 <ip4_route+0x4>
 800b714:	68da      	ldr	r2, [r3, #12]
 800b716:	4294      	cmp	r4, r2
 800b718:	d1da      	bne.n	800b6d0 <ip4_route+0x4>
 800b71a:	4618      	mov	r0, r3
 800b71c:	bd30      	pop	{r4, r5, pc}
 800b71e:	bf00      	nop
 800b720:	2000b534 	.word	0x2000b534
 800b724:	2000b538 	.word	0x2000b538

0800b728 <ip4_input>:
 800b728:	e92d 43f8 	stmdb	sp!, {r3, r4, r5, r6, r7, r8, r9, lr}
 800b72c:	f8d0 8004 	ldr.w	r8, [r0, #4]
 800b730:	f898 9000 	ldrb.w	r9, [r8]
 800b734:	ea4f 1319 	mov.w	r3, r9, lsr #4
 800b738:	2b04      	cmp	r3, #4
 800b73a:	4605      	mov	r5, r0
 800b73c:	460f      	mov	r7, r1
 800b73e:	d005      	beq.n	800b74c <ip4_input+0x24>
 800b740:	4628      	mov	r0, r5
 800b742:	f7fb fa9f 	bl	8006c84 <pbuf_free>
 800b746:	2000      	movs	r0, #0
 800b748:	e8bd 83f8 	ldmia.w	sp!, {r3, r4, r5, r6, r7, r8, r9, pc}
 800b74c:	f8b8 0002 	ldrh.w	r0, [r8, #2]
 800b750:	f7fa fd1e 	bl	8006190 <lwip_htons>
 800b754:	892b      	ldrh	r3, [r5, #8]
 800b756:	f009 090f 	and.w	r9, r9, #15
 800b75a:	ea4f 0989 	mov.w	r9, r9, lsl #2
 800b75e:	4283      	cmp	r3, r0
 800b760:	fa1f f689 	uxth.w	r6, r9
 800b764:	4604      	mov	r4, r0
 800b766:	d903      	bls.n	800b770 <ip4_input+0x48>
 800b768:	4601      	mov	r1, r0
 800b76a:	4628      	mov	r0, r5
 800b76c:	f7fb fb86 	bl	8006e7c <pbuf_realloc>
 800b770:	896b      	ldrh	r3, [r5, #10]
 800b772:	42b3      	cmp	r3, r6
 800b774:	d3e4      	bcc.n	800b740 <ip4_input+0x18>
 800b776:	892b      	ldrh	r3, [r5, #8]
 800b778:	42a3      	cmp	r3, r4
 800b77a:	d3e1      	bcc.n	800b740 <ip4_input+0x18>
 800b77c:	2e13      	cmp	r6, #19
 800b77e:	d9df      	bls.n	800b740 <ip4_input+0x18>
 800b780:	f8d8 3010 	ldr.w	r3, [r8, #16]
 800b784:	4c3e      	ldr	r4, [pc, #248]	; (800b880 <ip4_input+0x158>)
 800b786:	6163      	str	r3, [r4, #20]
 800b788:	f003 03f0 	and.w	r3, r3, #240	; 0xf0
 800b78c:	f8d8 200c 	ldr.w	r2, [r8, #12]
 800b790:	6122      	str	r2, [r4, #16]
 800b792:	2be0      	cmp	r3, #224	; 0xe0
 800b794:	d141      	bne.n	800b81a <ip4_input+0xf2>
 800b796:	f897 302d 	ldrb.w	r3, [r7, #45]	; 0x2d
 800b79a:	07db      	lsls	r3, r3, #31
 800b79c:	d548      	bpl.n	800b830 <ip4_input+0x108>
 800b79e:	687b      	ldr	r3, [r7, #4]
 800b7a0:	2b00      	cmp	r3, #0
 800b7a2:	d045      	beq.n	800b830 <ip4_input+0x108>
 800b7a4:	463e      	mov	r6, r7
 800b7a6:	4639      	mov	r1, r7
 800b7a8:	6920      	ldr	r0, [r4, #16]
 800b7aa:	f000 f8f8 	bl	800b99e <ip4_addr_isbroadcast_u32>
 800b7ae:	2800      	cmp	r0, #0
 800b7b0:	d1c6      	bne.n	800b740 <ip4_input+0x18>
 800b7b2:	6923      	ldr	r3, [r4, #16]
 800b7b4:	f003 03f0 	and.w	r3, r3, #240	; 0xf0
 800b7b8:	2be0      	cmp	r3, #224	; 0xe0
 800b7ba:	d0c1      	beq.n	800b740 <ip4_input+0x18>
 800b7bc:	2e00      	cmp	r6, #0
 800b7be:	d0bf      	beq.n	800b740 <ip4_input+0x18>
 800b7c0:	f8b8 3006 	ldrh.w	r3, [r8, #6]
 800b7c4:	f023 03c0 	bic.w	r3, r3, #192	; 0xc0
 800b7c8:	b13b      	cbz	r3, 800b7da <ip4_input+0xb2>
 800b7ca:	4628      	mov	r0, r5
 800b7cc:	f000 fa18 	bl	800bc00 <ip4_reass>
 800b7d0:	4605      	mov	r5, r0
 800b7d2:	2800      	cmp	r0, #0
 800b7d4:	d0b7      	beq.n	800b746 <ip4_input+0x1e>
 800b7d6:	f8d0 8004 	ldr.w	r8, [r0, #4]
 800b7da:	f8c4 8008 	str.w	r8, [r4, #8]
 800b7de:	e9c4 6700 	strd	r6, r7, [r4]
 800b7e2:	f898 3000 	ldrb.w	r3, [r8]
 800b7e6:	f003 030f 	and.w	r3, r3, #15
 800b7ea:	009b      	lsls	r3, r3, #2
 800b7ec:	4649      	mov	r1, r9
 800b7ee:	4628      	mov	r0, r5
 800b7f0:	81a3      	strh	r3, [r4, #12]
 800b7f2:	f7fb fa13 	bl	8006c1c <pbuf_remove_header>
 800b7f6:	f898 3009 	ldrb.w	r3, [r8, #9]
 800b7fa:	2b01      	cmp	r3, #1
 800b7fc:	d024      	beq.n	800b848 <ip4_input+0x120>
 800b7fe:	2b06      	cmp	r3, #6
 800b800:	d127      	bne.n	800b852 <ip4_input+0x12a>
 800b802:	4639      	mov	r1, r7
 800b804:	4628      	mov	r0, r5
 800b806:	f7fd fb05 	bl	8008e14 <tcp_input>
 800b80a:	2300      	movs	r3, #0
 800b80c:	e9c4 3300 	strd	r3, r3, [r4]
 800b810:	60a3      	str	r3, [r4, #8]
 800b812:	81a3      	strh	r3, [r4, #12]
 800b814:	e9c4 3304 	strd	r3, r3, [r4, #16]
 800b818:	e795      	b.n	800b746 <ip4_input+0x1e>
 800b81a:	4638      	mov	r0, r7
 800b81c:	f7ff ff3c 	bl	800b698 <ip4_input_accept>
 800b820:	2800      	cmp	r0, #0
 800b822:	d1bf      	bne.n	800b7a4 <ip4_input+0x7c>
 800b824:	7d23      	ldrb	r3, [r4, #20]
 800b826:	2b7f      	cmp	r3, #127	; 0x7f
 800b828:	d002      	beq.n	800b830 <ip4_input+0x108>
 800b82a:	4b16      	ldr	r3, [pc, #88]	; (800b884 <ip4_input+0x15c>)
 800b82c:	681e      	ldr	r6, [r3, #0]
 800b82e:	b90e      	cbnz	r6, 800b834 <ip4_input+0x10c>
 800b830:	2600      	movs	r6, #0
 800b832:	e7b8      	b.n	800b7a6 <ip4_input+0x7e>
 800b834:	42be      	cmp	r6, r7
 800b836:	d101      	bne.n	800b83c <ip4_input+0x114>
 800b838:	6836      	ldr	r6, [r6, #0]
 800b83a:	e7f8      	b.n	800b82e <ip4_input+0x106>
 800b83c:	4630      	mov	r0, r6
 800b83e:	f7ff ff2b 	bl	800b698 <ip4_input_accept>
 800b842:	2800      	cmp	r0, #0
 800b844:	d0f8      	beq.n	800b838 <ip4_input+0x110>
 800b846:	e7ae      	b.n	800b7a6 <ip4_input+0x7e>
 800b848:	4639      	mov	r1, r7
 800b84a:	4628      	mov	r0, r5
 800b84c:	f7ff fe84 	bl	800b558 <icmp_input>
 800b850:	e7db      	b.n	800b80a <ip4_input+0xe2>
 800b852:	4631      	mov	r1, r6
 800b854:	6960      	ldr	r0, [r4, #20]
 800b856:	f000 f8a2 	bl	800b99e <ip4_addr_isbroadcast_u32>
 800b85a:	b960      	cbnz	r0, 800b876 <ip4_input+0x14e>
 800b85c:	6963      	ldr	r3, [r4, #20]
 800b85e:	f003 03f0 	and.w	r3, r3, #240	; 0xf0
 800b862:	2be0      	cmp	r3, #224	; 0xe0
 800b864:	d007      	beq.n	800b876 <ip4_input+0x14e>
 800b866:	4649      	mov	r1, r9
 800b868:	4628      	mov	r0, r5
 800b86a:	f7fb fa03 	bl	8006c74 <pbuf_header_force>
 800b86e:	2102      	movs	r1, #2
 800b870:	4628      	mov	r0, r5
 800b872:	f7ff ff07 	bl	800b684 <icmp_dest_unreach>
 800b876:	4628      	mov	r0, r5
 800b878:	f7fb fa04 	bl	8006c84 <pbuf_free>
 800b87c:	e7c5      	b.n	800b80a <ip4_input+0xe2>
 800b87e:	bf00      	nop
 800b880:	20007ec0 	.word	0x20007ec0
 800b884:	2000b534 	.word	0x2000b534

0800b888 <ip4_output_if_src>:
 800b888:	e92d 47f3 	stmdb	sp!, {r0, r1, r4, r5, r6, r7, r8, r9, sl, lr}
 800b88c:	461f      	mov	r7, r3
 800b88e:	7b83      	ldrb	r3, [r0, #14]
 800b890:	f8dd 8030 	ldr.w	r8, [sp, #48]	; 0x30
 800b894:	2b01      	cmp	r3, #1
 800b896:	4605      	mov	r5, r0
 800b898:	468a      	mov	sl, r1
 800b89a:	4616      	mov	r6, r2
 800b89c:	d006      	beq.n	800b8ac <ip4_output_if_src+0x24>
 800b89e:	4b31      	ldr	r3, [pc, #196]	; (800b964 <ip4_output_if_src+0xdc>)
 800b8a0:	4931      	ldr	r1, [pc, #196]	; (800b968 <ip4_output_if_src+0xe0>)
 800b8a2:	4832      	ldr	r0, [pc, #200]	; (800b96c <ip4_output_if_src+0xe4>)
 800b8a4:	f44f 7255 	mov.w	r2, #852	; 0x354
 800b8a8:	f000 ff22 	bl	800c6f0 <iprintf>
 800b8ac:	2e00      	cmp	r6, #0
 800b8ae:	d049      	beq.n	800b944 <ip4_output_if_src+0xbc>
 800b8b0:	2114      	movs	r1, #20
 800b8b2:	4628      	mov	r0, r5
 800b8b4:	f7fb f9af 	bl	8006c16 <pbuf_add_header>
 800b8b8:	b120      	cbz	r0, 800b8c4 <ip4_output_if_src+0x3c>
 800b8ba:	f06f 0001 	mvn.w	r0, #1
 800b8be:	b002      	add	sp, #8
 800b8c0:	e8bd 87f0 	ldmia.w	sp!, {r4, r5, r6, r7, r8, r9, sl, pc}
 800b8c4:	896b      	ldrh	r3, [r5, #10]
 800b8c6:	686c      	ldr	r4, [r5, #4]
 800b8c8:	2b13      	cmp	r3, #19
 800b8ca:	d806      	bhi.n	800b8da <ip4_output_if_src+0x52>
 800b8cc:	4b25      	ldr	r3, [pc, #148]	; (800b964 <ip4_output_if_src+0xdc>)
 800b8ce:	4928      	ldr	r1, [pc, #160]	; (800b970 <ip4_output_if_src+0xe8>)
 800b8d0:	4826      	ldr	r0, [pc, #152]	; (800b96c <ip4_output_if_src+0xe4>)
 800b8d2:	f240 3289 	movw	r2, #905	; 0x389
 800b8d6:	f000 ff0b 	bl	800c6f0 <iprintf>
 800b8da:	f89d 302c 	ldrb.w	r3, [sp, #44]	; 0x2c
 800b8de:	7227      	strb	r7, [r4, #8]
 800b8e0:	7263      	strb	r3, [r4, #9]
 800b8e2:	6833      	ldr	r3, [r6, #0]
 800b8e4:	6123      	str	r3, [r4, #16]
 800b8e6:	2345      	movs	r3, #69	; 0x45
 800b8e8:	7023      	strb	r3, [r4, #0]
 800b8ea:	f89d 3028 	ldrb.w	r3, [sp, #40]	; 0x28
 800b8ee:	7063      	strb	r3, [r4, #1]
 800b8f0:	8928      	ldrh	r0, [r5, #8]
 800b8f2:	f8df 9084 	ldr.w	r9, [pc, #132]	; 800b978 <ip4_output_if_src+0xf0>
 800b8f6:	f7fa fc4b 	bl	8006190 <lwip_htons>
 800b8fa:	2700      	movs	r7, #0
 800b8fc:	8060      	strh	r0, [r4, #2]
 800b8fe:	71a7      	strb	r7, [r4, #6]
 800b900:	71e7      	strb	r7, [r4, #7]
 800b902:	f8b9 0000 	ldrh.w	r0, [r9]
 800b906:	f7fa fc43 	bl	8006190 <lwip_htons>
 800b90a:	f8b9 3000 	ldrh.w	r3, [r9]
 800b90e:	80a0      	strh	r0, [r4, #4]
 800b910:	3301      	adds	r3, #1
 800b912:	f8a9 3000 	strh.w	r3, [r9]
 800b916:	f1ba 0f00 	cmp.w	sl, #0
 800b91a:	d110      	bne.n	800b93e <ip4_output_if_src+0xb6>
 800b91c:	4b15      	ldr	r3, [pc, #84]	; (800b974 <ip4_output_if_src+0xec>)
 800b91e:	681b      	ldr	r3, [r3, #0]
 800b920:	60e3      	str	r3, [r4, #12]
 800b922:	72a7      	strb	r7, [r4, #10]
 800b924:	72e7      	strb	r7, [r4, #11]
 800b926:	f8b8 3024 	ldrh.w	r3, [r8, #36]	; 0x24
 800b92a:	b1a3      	cbz	r3, 800b956 <ip4_output_if_src+0xce>
 800b92c:	892a      	ldrh	r2, [r5, #8]
 800b92e:	429a      	cmp	r2, r3
 800b930:	d911      	bls.n	800b956 <ip4_output_if_src+0xce>
 800b932:	4632      	mov	r2, r6
 800b934:	4641      	mov	r1, r8
 800b936:	4628      	mov	r0, r5
 800b938:	f000 fb2c 	bl	800bf94 <ip4_frag>
 800b93c:	e7bf      	b.n	800b8be <ip4_output_if_src+0x36>
 800b93e:	f8da 3000 	ldr.w	r3, [sl]
 800b942:	e7ed      	b.n	800b920 <ip4_output_if_src+0x98>
 800b944:	896b      	ldrh	r3, [r5, #10]
 800b946:	2b13      	cmp	r3, #19
 800b948:	d9b7      	bls.n	800b8ba <ip4_output_if_src+0x32>
 800b94a:	686b      	ldr	r3, [r5, #4]
 800b94c:	ae02      	add	r6, sp, #8
 800b94e:	691b      	ldr	r3, [r3, #16]
 800b950:	f846 3d04 	str.w	r3, [r6, #-4]!
 800b954:	e7e7      	b.n	800b926 <ip4_output_if_src+0x9e>
 800b956:	f8d8 3014 	ldr.w	r3, [r8, #20]
 800b95a:	4632      	mov	r2, r6
 800b95c:	4629      	mov	r1, r5
 800b95e:	4640      	mov	r0, r8
 800b960:	4798      	blx	r3
 800b962:	e7ac      	b.n	800b8be <ip4_output_if_src+0x36>
 800b964:	0800f7cb 	.word	0x0800f7cb
 800b968:	0800f7ff 	.word	0x0800f7ff
 800b96c:	0800d51e 	.word	0x0800d51e
 800b970:	0800f80b 	.word	0x0800f80b
 800b974:	0800f838 	.word	0x0800f838
 800b978:	20004bfa 	.word	0x20004bfa

0800b97c <ip4_output_if>:
 800b97c:	b4f0      	push	{r4, r5, r6, r7}
 800b97e:	9c06      	ldr	r4, [sp, #24]
 800b980:	f89d 5010 	ldrb.w	r5, [sp, #16]
 800b984:	f89d 6014 	ldrb.w	r6, [sp, #20]
 800b988:	b11a      	cbz	r2, 800b992 <ip4_output_if+0x16>
 800b98a:	b109      	cbz	r1, 800b990 <ip4_output_if+0x14>
 800b98c:	680f      	ldr	r7, [r1, #0]
 800b98e:	b907      	cbnz	r7, 800b992 <ip4_output_if+0x16>
 800b990:	1d21      	adds	r1, r4, #4
 800b992:	e9cd 6405 	strd	r6, r4, [sp, #20]
 800b996:	9504      	str	r5, [sp, #16]
 800b998:	bcf0      	pop	{r4, r5, r6, r7}
 800b99a:	f7ff bf75 	b.w	800b888 <ip4_output_if_src>

0800b99e <ip4_addr_isbroadcast_u32>:
 800b99e:	1e43      	subs	r3, r0, #1
 800b9a0:	3303      	adds	r3, #3
 800b9a2:	d811      	bhi.n	800b9c8 <ip4_addr_isbroadcast_u32+0x2a>
 800b9a4:	f891 302d 	ldrb.w	r3, [r1, #45]	; 0x2d
 800b9a8:	f013 0302 	ands.w	r3, r3, #2
 800b9ac:	d00e      	beq.n	800b9cc <ip4_addr_isbroadcast_u32+0x2e>
 800b9ae:	684a      	ldr	r2, [r1, #4]
 800b9b0:	4282      	cmp	r2, r0
 800b9b2:	d00b      	beq.n	800b9cc <ip4_addr_isbroadcast_u32+0x2e>
 800b9b4:	688b      	ldr	r3, [r1, #8]
 800b9b6:	4042      	eors	r2, r0
 800b9b8:	421a      	tst	r2, r3
 800b9ba:	d107      	bne.n	800b9cc <ip4_addr_isbroadcast_u32+0x2e>
 800b9bc:	43db      	mvns	r3, r3
 800b9be:	4383      	bics	r3, r0
 800b9c0:	bf0c      	ite	eq
 800b9c2:	2001      	moveq	r0, #1
 800b9c4:	2000      	movne	r0, #0
 800b9c6:	4770      	bx	lr
 800b9c8:	2001      	movs	r0, #1
 800b9ca:	4770      	bx	lr
 800b9cc:	2000      	movs	r0, #0
 800b9ce:	4770      	bx	lr

0800b9d0 <ip_reass_dequeue_datagram>:
 800b9d0:	b538      	push	{r3, r4, r5, lr}
 800b9d2:	4b0c      	ldr	r3, [pc, #48]	; (800ba04 <ip_reass_dequeue_datagram+0x34>)
 800b9d4:	681a      	ldr	r2, [r3, #0]
 800b9d6:	4282      	cmp	r2, r0
 800b9d8:	4604      	mov	r4, r0
 800b9da:	460d      	mov	r5, r1
 800b9dc:	d107      	bne.n	800b9ee <ip_reass_dequeue_datagram+0x1e>
 800b9de:	6802      	ldr	r2, [r0, #0]
 800b9e0:	601a      	str	r2, [r3, #0]
 800b9e2:	4621      	mov	r1, r4
 800b9e4:	2003      	movs	r0, #3
 800b9e6:	e8bd 4038 	ldmia.w	sp!, {r3, r4, r5, lr}
 800b9ea:	f7fa becd 	b.w	8006788 <memp_free>
 800b9ee:	b931      	cbnz	r1, 800b9fe <ip_reass_dequeue_datagram+0x2e>
 800b9f0:	4b05      	ldr	r3, [pc, #20]	; (800ba08 <ip_reass_dequeue_datagram+0x38>)
 800b9f2:	4906      	ldr	r1, [pc, #24]	; (800ba0c <ip_reass_dequeue_datagram+0x3c>)
 800b9f4:	4806      	ldr	r0, [pc, #24]	; (800ba10 <ip_reass_dequeue_datagram+0x40>)
 800b9f6:	f240 1245 	movw	r2, #325	; 0x145
 800b9fa:	f000 fe79 	bl	800c6f0 <iprintf>
 800b9fe:	6823      	ldr	r3, [r4, #0]
 800ba00:	602b      	str	r3, [r5, #0]
 800ba02:	e7ee      	b.n	800b9e2 <ip_reass_dequeue_datagram+0x12>
 800ba04:	20004c00 	.word	0x20004c00
 800ba08:	0800f945 	.word	0x0800f945
 800ba0c:	0800f97e 	.word	0x0800f97e
 800ba10:	0800d51e 	.word	0x0800d51e

0800ba14 <ip_reass_free_complete_datagram>:
 800ba14:	4281      	cmp	r1, r0
 800ba16:	e92d 4ff8 	stmdb	sp!, {r3, r4, r5, r6, r7, r8, r9, sl, fp, lr}
 800ba1a:	4605      	mov	r5, r0
 800ba1c:	460f      	mov	r7, r1
 800ba1e:	d105      	bne.n	800ba2c <ip_reass_free_complete_datagram+0x18>
 800ba20:	4b2f      	ldr	r3, [pc, #188]	; (800bae0 <ip_reass_free_complete_datagram+0xcc>)
 800ba22:	4930      	ldr	r1, [pc, #192]	; (800bae4 <ip_reass_free_complete_datagram+0xd0>)
 800ba24:	4830      	ldr	r0, [pc, #192]	; (800bae8 <ip_reass_free_complete_datagram+0xd4>)
 800ba26:	22ab      	movs	r2, #171	; 0xab
 800ba28:	f000 fe62 	bl	800c6f0 <iprintf>
 800ba2c:	b147      	cbz	r7, 800ba40 <ip_reass_free_complete_datagram+0x2c>
 800ba2e:	683b      	ldr	r3, [r7, #0]
 800ba30:	42ab      	cmp	r3, r5
 800ba32:	d005      	beq.n	800ba40 <ip_reass_free_complete_datagram+0x2c>
 800ba34:	4b2a      	ldr	r3, [pc, #168]	; (800bae0 <ip_reass_free_complete_datagram+0xcc>)
 800ba36:	492d      	ldr	r1, [pc, #180]	; (800baec <ip_reass_free_complete_datagram+0xd8>)
 800ba38:	482b      	ldr	r0, [pc, #172]	; (800bae8 <ip_reass_free_complete_datagram+0xd4>)
 800ba3a:	22ad      	movs	r2, #173	; 0xad
 800ba3c:	f000 fe58 	bl	800c6f0 <iprintf>
 800ba40:	686e      	ldr	r6, [r5, #4]
 800ba42:	6873      	ldr	r3, [r6, #4]
 800ba44:	889a      	ldrh	r2, [r3, #4]
 800ba46:	bb92      	cbnz	r2, 800baae <ip_reass_free_complete_datagram+0x9a>
 800ba48:	681a      	ldr	r2, [r3, #0]
 800ba4a:	606a      	str	r2, [r5, #4]
 800ba4c:	f105 011c 	add.w	r1, r5, #28
 800ba50:	f105 0208 	add.w	r2, r5, #8
 800ba54:	f852 0b04 	ldr.w	r0, [r2], #4
 800ba58:	f843 0b04 	str.w	r0, [r3], #4
 800ba5c:	428a      	cmp	r2, r1
 800ba5e:	d1f9      	bne.n	800ba54 <ip_reass_free_complete_datagram+0x40>
 800ba60:	2101      	movs	r1, #1
 800ba62:	4630      	mov	r0, r6
 800ba64:	f7ff fe13 	bl	800b68e <icmp_time_exceeded>
 800ba68:	4630      	mov	r0, r6
 800ba6a:	f7fb fa5f 	bl	8006f2c <pbuf_clen>
 800ba6e:	4604      	mov	r4, r0
 800ba70:	4630      	mov	r0, r6
 800ba72:	f7fb f907 	bl	8006c84 <pbuf_free>
 800ba76:	686e      	ldr	r6, [r5, #4]
 800ba78:	f8df 8064 	ldr.w	r8, [pc, #100]	; 800bae0 <ip_reass_free_complete_datagram+0xcc>
 800ba7c:	f8df 9078 	ldr.w	r9, [pc, #120]	; 800baf8 <ip_reass_free_complete_datagram+0xe4>
 800ba80:	f8df a064 	ldr.w	sl, [pc, #100]	; 800bae8 <ip_reass_free_complete_datagram+0xd4>
 800ba84:	b9ae      	cbnz	r6, 800bab2 <ip_reass_free_complete_datagram+0x9e>
 800ba86:	4628      	mov	r0, r5
 800ba88:	4d19      	ldr	r5, [pc, #100]	; (800baf0 <ip_reass_free_complete_datagram+0xdc>)
 800ba8a:	4639      	mov	r1, r7
 800ba8c:	f7ff ffa0 	bl	800b9d0 <ip_reass_dequeue_datagram>
 800ba90:	882b      	ldrh	r3, [r5, #0]
 800ba92:	42a3      	cmp	r3, r4
 800ba94:	d205      	bcs.n	800baa2 <ip_reass_free_complete_datagram+0x8e>
 800ba96:	4b12      	ldr	r3, [pc, #72]	; (800bae0 <ip_reass_free_complete_datagram+0xcc>)
 800ba98:	4916      	ldr	r1, [pc, #88]	; (800baf4 <ip_reass_free_complete_datagram+0xe0>)
 800ba9a:	4813      	ldr	r0, [pc, #76]	; (800bae8 <ip_reass_free_complete_datagram+0xd4>)
 800ba9c:	22d2      	movs	r2, #210	; 0xd2
 800ba9e:	f000 fe27 	bl	800c6f0 <iprintf>
 800baa2:	882b      	ldrh	r3, [r5, #0]
 800baa4:	1b1b      	subs	r3, r3, r4
 800baa6:	802b      	strh	r3, [r5, #0]
 800baa8:	4620      	mov	r0, r4
 800baaa:	e8bd 8ff8 	ldmia.w	sp!, {r3, r4, r5, r6, r7, r8, r9, sl, fp, pc}
 800baae:	2400      	movs	r4, #0
 800bab0:	e7e1      	b.n	800ba76 <ip_reass_free_complete_datagram+0x62>
 800bab2:	6873      	ldr	r3, [r6, #4]
 800bab4:	4630      	mov	r0, r6
 800bab6:	f8d3 b000 	ldr.w	fp, [r3]
 800baba:	f7fb fa37 	bl	8006f2c <pbuf_clen>
 800babe:	4404      	add	r4, r0
 800bac0:	f5b4 3f80 	cmp.w	r4, #65536	; 0x10000
 800bac4:	db05      	blt.n	800bad2 <ip_reass_free_complete_datagram+0xbe>
 800bac6:	4643      	mov	r3, r8
 800bac8:	22cc      	movs	r2, #204	; 0xcc
 800baca:	4649      	mov	r1, r9
 800bacc:	4650      	mov	r0, sl
 800bace:	f000 fe0f 	bl	800c6f0 <iprintf>
 800bad2:	4630      	mov	r0, r6
 800bad4:	b2a4      	uxth	r4, r4
 800bad6:	f7fb f8d5 	bl	8006c84 <pbuf_free>
 800bada:	465e      	mov	r6, fp
 800badc:	e7d2      	b.n	800ba84 <ip_reass_free_complete_datagram+0x70>
 800bade:	bf00      	nop
 800bae0:	0800f945 	.word	0x0800f945
 800bae4:	0800f997 	.word	0x0800f997
 800bae8:	0800d51e 	.word	0x0800d51e
 800baec:	0800f9a3 	.word	0x0800f9a3
 800baf0:	20004bfc 	.word	0x20004bfc
 800baf4:	0800f9d2 	.word	0x0800f9d2
 800baf8:	0800f9b5 	.word	0x0800f9b5

0800bafc <ip_reass_remove_oldest_datagram>:
 800bafc:	e92d 41f0 	stmdb	sp!, {r4, r5, r6, r7, r8, lr}
 800bb00:	f8df 806c 	ldr.w	r8, [pc, #108]	; 800bb70 <ip_reass_remove_oldest_datagram+0x74>
 800bb04:	4606      	mov	r6, r0
 800bb06:	460f      	mov	r7, r1
 800bb08:	2500      	movs	r5, #0
 800bb0a:	2400      	movs	r4, #0
 800bb0c:	f8d8 3000 	ldr.w	r3, [r8]
 800bb10:	4621      	mov	r1, r4
 800bb12:	46a4      	mov	ip, r4
 800bb14:	4620      	mov	r0, r4
 800bb16:	b953      	cbnz	r3, 800bb2e <ip_reass_remove_oldest_datagram+0x32>
 800bb18:	b110      	cbz	r0, 800bb20 <ip_reass_remove_oldest_datagram+0x24>
 800bb1a:	f7ff ff7b 	bl	800ba14 <ip_reass_free_complete_datagram>
 800bb1e:	4405      	add	r5, r0
 800bb20:	42bd      	cmp	r5, r7
 800bb22:	da01      	bge.n	800bb28 <ip_reass_remove_oldest_datagram+0x2c>
 800bb24:	2c01      	cmp	r4, #1
 800bb26:	dcf0      	bgt.n	800bb0a <ip_reass_remove_oldest_datagram+0xe>
 800bb28:	4628      	mov	r0, r5
 800bb2a:	e8bd 81f0 	ldmia.w	sp!, {r4, r5, r6, r7, r8, pc}
 800bb2e:	f8d6 e00c 	ldr.w	lr, [r6, #12]
 800bb32:	695a      	ldr	r2, [r3, #20]
 800bb34:	4572      	cmp	r2, lr
 800bb36:	d109      	bne.n	800bb4c <ip_reass_remove_oldest_datagram+0x50>
 800bb38:	f8d6 e010 	ldr.w	lr, [r6, #16]
 800bb3c:	699a      	ldr	r2, [r3, #24]
 800bb3e:	4572      	cmp	r2, lr
 800bb40:	d104      	bne.n	800bb4c <ip_reass_remove_oldest_datagram+0x50>
 800bb42:	f8b3 e00c 	ldrh.w	lr, [r3, #12]
 800bb46:	88b2      	ldrh	r2, [r6, #4]
 800bb48:	4596      	cmp	lr, r2
 800bb4a:	d008      	beq.n	800bb5e <ip_reass_remove_oldest_datagram+0x62>
 800bb4c:	3401      	adds	r4, #1
 800bb4e:	b160      	cbz	r0, 800bb6a <ip_reass_remove_oldest_datagram+0x6e>
 800bb50:	7fc2      	ldrb	r2, [r0, #31]
 800bb52:	f893 e01f 	ldrb.w	lr, [r3, #31]
 800bb56:	4596      	cmp	lr, r2
 800bb58:	bf9c      	itt	ls
 800bb5a:	4661      	movls	r1, ip
 800bb5c:	4618      	movls	r0, r3
 800bb5e:	681a      	ldr	r2, [r3, #0]
 800bb60:	2a00      	cmp	r2, #0
 800bb62:	bf18      	it	ne
 800bb64:	469c      	movne	ip, r3
 800bb66:	4613      	mov	r3, r2
 800bb68:	e7d5      	b.n	800bb16 <ip_reass_remove_oldest_datagram+0x1a>
 800bb6a:	4661      	mov	r1, ip
 800bb6c:	4618      	mov	r0, r3
 800bb6e:	e7f6      	b.n	800bb5e <ip_reass_remove_oldest_datagram+0x62>
 800bb70:	20004c00 	.word	0x20004c00

0800bb74 <ip_frag_free_pbuf_custom_ref>:
 800bb74:	b510      	push	{r4, lr}
 800bb76:	4604      	mov	r4, r0
 800bb78:	b930      	cbnz	r0, 800bb88 <ip_frag_free_pbuf_custom_ref+0x14>
 800bb7a:	4b06      	ldr	r3, [pc, #24]	; (800bb94 <ip_frag_free_pbuf_custom_ref+0x20>)
 800bb7c:	4906      	ldr	r1, [pc, #24]	; (800bb98 <ip_frag_free_pbuf_custom_ref+0x24>)
 800bb7e:	4807      	ldr	r0, [pc, #28]	; (800bb9c <ip_frag_free_pbuf_custom_ref+0x28>)
 800bb80:	f44f 7231 	mov.w	r2, #708	; 0x2c4
 800bb84:	f000 fdb4 	bl	800c6f0 <iprintf>
 800bb88:	4621      	mov	r1, r4
 800bb8a:	2004      	movs	r0, #4
 800bb8c:	e8bd 4010 	ldmia.w	sp!, {r4, lr}
 800bb90:	f7fa bdfa 	b.w	8006788 <memp_free>
 800bb94:	0800f945 	.word	0x0800f945
 800bb98:	0800e349 	.word	0x0800e349
 800bb9c:	0800d51e 	.word	0x0800d51e

0800bba0 <ipfrag_free_pbuf_custom>:
 800bba0:	b510      	push	{r4, lr}
 800bba2:	4604      	mov	r4, r0
 800bba4:	b930      	cbnz	r0, 800bbb4 <ipfrag_free_pbuf_custom+0x14>
 800bba6:	4b08      	ldr	r3, [pc, #32]	; (800bbc8 <ipfrag_free_pbuf_custom+0x28>)
 800bba8:	4908      	ldr	r1, [pc, #32]	; (800bbcc <ipfrag_free_pbuf_custom+0x2c>)
 800bbaa:	4809      	ldr	r0, [pc, #36]	; (800bbd0 <ipfrag_free_pbuf_custom+0x30>)
 800bbac:	f240 22ce 	movw	r2, #718	; 0x2ce
 800bbb0:	f000 fd9e 	bl	800c6f0 <iprintf>
 800bbb4:	6960      	ldr	r0, [r4, #20]
 800bbb6:	b108      	cbz	r0, 800bbbc <ipfrag_free_pbuf_custom+0x1c>
 800bbb8:	f7fb f864 	bl	8006c84 <pbuf_free>
 800bbbc:	4620      	mov	r0, r4
 800bbbe:	e8bd 4010 	ldmia.w	sp!, {r4, lr}
 800bbc2:	f7ff bfd7 	b.w	800bb74 <ip_frag_free_pbuf_custom_ref>
 800bbc6:	bf00      	nop
 800bbc8:	0800f945 	.word	0x0800f945
 800bbcc:	0800f9f4 	.word	0x0800f9f4
 800bbd0:	0800d51e 	.word	0x0800d51e

0800bbd4 <ip_reass_tmr>:
 800bbd4:	b538      	push	{r3, r4, r5, lr}
 800bbd6:	4b09      	ldr	r3, [pc, #36]	; (800bbfc <ip_reass_tmr+0x28>)
 800bbd8:	6818      	ldr	r0, [r3, #0]
 800bbda:	2400      	movs	r4, #0
 800bbdc:	b900      	cbnz	r0, 800bbe0 <ip_reass_tmr+0xc>
 800bbde:	bd38      	pop	{r3, r4, r5, pc}
 800bbe0:	7fc3      	ldrb	r3, [r0, #31]
 800bbe2:	6805      	ldr	r5, [r0, #0]
 800bbe4:	b123      	cbz	r3, 800bbf0 <ip_reass_tmr+0x1c>
 800bbe6:	3b01      	subs	r3, #1
 800bbe8:	77c3      	strb	r3, [r0, #31]
 800bbea:	4604      	mov	r4, r0
 800bbec:	4628      	mov	r0, r5
 800bbee:	e7f5      	b.n	800bbdc <ip_reass_tmr+0x8>
 800bbf0:	4621      	mov	r1, r4
 800bbf2:	f7ff ff0f 	bl	800ba14 <ip_reass_free_complete_datagram>
 800bbf6:	4620      	mov	r0, r4
 800bbf8:	e7f7      	b.n	800bbea <ip_reass_tmr+0x16>
 800bbfa:	bf00      	nop
 800bbfc:	20004c00 	.word	0x20004c00

0800bc00 <ip4_reass>:
 800bc00:	e92d 4ff7 	stmdb	sp!, {r0, r1, r2, r4, r5, r6, r7, r8, r9, sl, fp, lr}
 800bc04:	6845      	ldr	r5, [r0, #4]
 800bc06:	782b      	ldrb	r3, [r5, #0]
 800bc08:	f003 030f 	and.w	r3, r3, #15
 800bc0c:	2b05      	cmp	r3, #5
 800bc0e:	4607      	mov	r7, r0
 800bc10:	f040 8096 	bne.w	800bd40 <ip4_reass+0x140>
 800bc14:	88e8      	ldrh	r0, [r5, #6]
 800bc16:	f7fa fabb 	bl	8006190 <lwip_htons>
 800bc1a:	f3c0 000c 	ubfx	r0, r0, #0, #13
 800bc1e:	ea4f 09c0 	mov.w	r9, r0, lsl #3
 800bc22:	8868      	ldrh	r0, [r5, #2]
 800bc24:	f7fa fab4 	bl	8006190 <lwip_htons>
 800bc28:	782b      	ldrb	r3, [r5, #0]
 800bc2a:	f003 030f 	and.w	r3, r3, #15
 800bc2e:	009b      	lsls	r3, r3, #2
 800bc30:	4283      	cmp	r3, r0
 800bc32:	f200 8085 	bhi.w	800bd40 <ip4_reass+0x140>
 800bc36:	1ac0      	subs	r0, r0, r3
 800bc38:	b283      	uxth	r3, r0
 800bc3a:	4cba      	ldr	r4, [pc, #744]	; (800bf24 <ip4_reass+0x324>)
 800bc3c:	9301      	str	r3, [sp, #4]
 800bc3e:	4638      	mov	r0, r7
 800bc40:	f7fb f974 	bl	8006f2c <pbuf_clen>
 800bc44:	8823      	ldrh	r3, [r4, #0]
 800bc46:	4403      	add	r3, r0
 800bc48:	2b0a      	cmp	r3, #10
 800bc4a:	4682      	mov	sl, r0
 800bc4c:	dc6f      	bgt.n	800bd2e <ip4_reass+0x12e>
 800bc4e:	4eb6      	ldr	r6, [pc, #728]	; (800bf28 <ip4_reass+0x328>)
 800bc50:	6834      	ldr	r4, [r6, #0]
 800bc52:	2c00      	cmp	r4, #0
 800bc54:	d179      	bne.n	800bd4a <ip4_reass+0x14a>
 800bc56:	2003      	movs	r0, #3
 800bc58:	f7fa fd7a 	bl	8006750 <memp_malloc>
 800bc5c:	4604      	mov	r4, r0
 800bc5e:	b958      	cbnz	r0, 800bc78 <ip4_reass+0x78>
 800bc60:	4651      	mov	r1, sl
 800bc62:	4628      	mov	r0, r5
 800bc64:	f7ff ff4a 	bl	800bafc <ip_reass_remove_oldest_datagram>
 800bc68:	4582      	cmp	sl, r0
 800bc6a:	dc69      	bgt.n	800bd40 <ip4_reass+0x140>
 800bc6c:	2003      	movs	r0, #3
 800bc6e:	f7fa fd6f 	bl	8006750 <memp_malloc>
 800bc72:	4604      	mov	r4, r0
 800bc74:	2800      	cmp	r0, #0
 800bc76:	d063      	beq.n	800bd40 <ip4_reass+0x140>
 800bc78:	221c      	movs	r2, #28
 800bc7a:	2100      	movs	r1, #0
 800bc7c:	1d20      	adds	r0, r4, #4
 800bc7e:	f000 fcd5 	bl	800c62c <memset>
 800bc82:	230f      	movs	r3, #15
 800bc84:	77e3      	strb	r3, [r4, #31]
 800bc86:	6833      	ldr	r3, [r6, #0]
 800bc88:	6023      	str	r3, [r4, #0]
 800bc8a:	6034      	str	r4, [r6, #0]
 800bc8c:	462b      	mov	r3, r5
 800bc8e:	f104 0208 	add.w	r2, r4, #8
 800bc92:	f105 0114 	add.w	r1, r5, #20
 800bc96:	f853 0b04 	ldr.w	r0, [r3], #4
 800bc9a:	f842 0b04 	str.w	r0, [r2], #4
 800bc9e:	428b      	cmp	r3, r1
 800bca0:	d1f9      	bne.n	800bc96 <ip4_reass+0x96>
 800bca2:	f8b5 b006 	ldrh.w	fp, [r5, #6]
 800bca6:	f01b 0b20 	ands.w	fp, fp, #32
 800bcaa:	d10a      	bne.n	800bcc2 <ip4_reass+0xc2>
 800bcac:	9b01      	ldr	r3, [sp, #4]
 800bcae:	444b      	add	r3, r9
 800bcb0:	b29b      	uxth	r3, r3
 800bcb2:	4599      	cmp	r9, r3
 800bcb4:	f200 8122 	bhi.w	800befc <ip4_reass+0x2fc>
 800bcb8:	f64f 72eb 	movw	r2, #65515	; 0xffeb
 800bcbc:	4293      	cmp	r3, r2
 800bcbe:	f200 811d 	bhi.w	800befc <ip4_reass+0x2fc>
 800bcc2:	687d      	ldr	r5, [r7, #4]
 800bcc4:	8868      	ldrh	r0, [r5, #2]
 800bcc6:	f7fa fa63 	bl	8006190 <lwip_htons>
 800bcca:	782b      	ldrb	r3, [r5, #0]
 800bccc:	f003 030f 	and.w	r3, r3, #15
 800bcd0:	009b      	lsls	r3, r3, #2
 800bcd2:	4298      	cmp	r0, r3
 800bcd4:	f0c0 8112 	bcc.w	800befc <ip4_reass+0x2fc>
 800bcd8:	1ac3      	subs	r3, r0, r3
 800bcda:	88e8      	ldrh	r0, [r5, #6]
 800bcdc:	fa1f f883 	uxth.w	r8, r3
 800bce0:	f7fa fa56 	bl	8006190 <lwip_htons>
 800bce4:	f3c0 000c 	ubfx	r0, r0, #0, #13
 800bce8:	00c0      	lsls	r0, r0, #3
 800bcea:	eb08 0300 	add.w	r3, r8, r0
 800bcee:	687e      	ldr	r6, [r7, #4]
 800bcf0:	b29b      	uxth	r3, r3
 800bcf2:	2500      	movs	r5, #0
 800bcf4:	4298      	cmp	r0, r3
 800bcf6:	7035      	strb	r5, [r6, #0]
 800bcf8:	7075      	strb	r5, [r6, #1]
 800bcfa:	70b5      	strb	r5, [r6, #2]
 800bcfc:	70f5      	strb	r5, [r6, #3]
 800bcfe:	80b0      	strh	r0, [r6, #4]
 800bd00:	80f3      	strh	r3, [r6, #6]
 800bd02:	f200 80fb 	bhi.w	800befc <ip4_reass+0x2fc>
 800bd06:	f8d4 c004 	ldr.w	ip, [r4, #4]
 800bd0a:	f04f 0801 	mov.w	r8, #1
 800bd0e:	4662      	mov	r2, ip
 800bd10:	bb52      	cbnz	r2, 800bd68 <ip4_reass+0x168>
 800bd12:	2d00      	cmp	r5, #0
 800bd14:	f040 8091 	bne.w	800be3a <ip4_reass+0x23a>
 800bd18:	f1bc 0f00 	cmp.w	ip, #0
 800bd1c:	d07c      	beq.n	800be18 <ip4_reass+0x218>
 800bd1e:	4b83      	ldr	r3, [pc, #524]	; (800bf2c <ip4_reass+0x32c>)
 800bd20:	4983      	ldr	r1, [pc, #524]	; (800bf30 <ip4_reass+0x330>)
 800bd22:	4884      	ldr	r0, [pc, #528]	; (800bf34 <ip4_reass+0x334>)
 800bd24:	f240 12bf 	movw	r2, #447	; 0x1bf
 800bd28:	f000 fce2 	bl	800c6f0 <iprintf>
 800bd2c:	e074      	b.n	800be18 <ip4_reass+0x218>
 800bd2e:	4601      	mov	r1, r0
 800bd30:	4628      	mov	r0, r5
 800bd32:	f7ff fee3 	bl	800bafc <ip_reass_remove_oldest_datagram>
 800bd36:	b118      	cbz	r0, 800bd40 <ip4_reass+0x140>
 800bd38:	8823      	ldrh	r3, [r4, #0]
 800bd3a:	4453      	add	r3, sl
 800bd3c:	2b0a      	cmp	r3, #10
 800bd3e:	dd86      	ble.n	800bc4e <ip4_reass+0x4e>
 800bd40:	4638      	mov	r0, r7
 800bd42:	f7fa ff9f 	bl	8006c84 <pbuf_free>
 800bd46:	2600      	movs	r6, #0
 800bd48:	e0d4      	b.n	800bef4 <ip4_reass+0x2f4>
 800bd4a:	68eb      	ldr	r3, [r5, #12]
 800bd4c:	6962      	ldr	r2, [r4, #20]
 800bd4e:	429a      	cmp	r2, r3
 800bd50:	d108      	bne.n	800bd64 <ip4_reass+0x164>
 800bd52:	692b      	ldr	r3, [r5, #16]
 800bd54:	69a2      	ldr	r2, [r4, #24]
 800bd56:	429a      	cmp	r2, r3
 800bd58:	d104      	bne.n	800bd64 <ip4_reass+0x164>
 800bd5a:	89a2      	ldrh	r2, [r4, #12]
 800bd5c:	88ab      	ldrh	r3, [r5, #4]
 800bd5e:	429a      	cmp	r2, r3
 800bd60:	f000 80f4 	beq.w	800bf4c <ip4_reass+0x34c>
 800bd64:	6824      	ldr	r4, [r4, #0]
 800bd66:	e774      	b.n	800bc52 <ip4_reass+0x52>
 800bd68:	f8d2 e004 	ldr.w	lr, [r2, #4]
 800bd6c:	f8be 1004 	ldrh.w	r1, [lr, #4]
 800bd70:	4288      	cmp	r0, r1
 800bd72:	d253      	bcs.n	800be1c <ip4_reass+0x21c>
 800bd74:	6032      	str	r2, [r6, #0]
 800bd76:	2d00      	cmp	r5, #0
 800bd78:	d04c      	beq.n	800be14 <ip4_reass+0x214>
 800bd7a:	88ea      	ldrh	r2, [r5, #6]
 800bd7c:	4290      	cmp	r0, r2
 800bd7e:	f0c0 80bd 	bcc.w	800befc <ip4_reass+0x2fc>
 800bd82:	428b      	cmp	r3, r1
 800bd84:	f200 80ba 	bhi.w	800befc <ip4_reass+0x2fc>
 800bd88:	602f      	str	r7, [r5, #0]
 800bd8a:	4290      	cmp	r0, r2
 800bd8c:	f040 80fa 	bne.w	800bf84 <ip4_reass+0x384>
 800bd90:	f1bb 0f00 	cmp.w	fp, #0
 800bd94:	d004      	beq.n	800bda0 <ip4_reass+0x1a0>
 800bd96:	7fa3      	ldrb	r3, [r4, #30]
 800bd98:	f013 0301 	ands.w	r3, r3, #1
 800bd9c:	f000 8081 	beq.w	800bea2 <ip4_reass+0x2a2>
 800bda0:	f1b8 0f00 	cmp.w	r8, #0
 800bda4:	d158      	bne.n	800be58 <ip4_reass+0x258>
 800bda6:	f04f 0800 	mov.w	r8, #0
 800bdaa:	4d5e      	ldr	r5, [pc, #376]	; (800bf24 <ip4_reass+0x324>)
 800bdac:	882b      	ldrh	r3, [r5, #0]
 800bdae:	449a      	add	sl, r3
 800bdb0:	f8a5 a000 	strh.w	sl, [r5]
 800bdb4:	f1bb 0f00 	cmp.w	fp, #0
 800bdb8:	d107      	bne.n	800bdca <ip4_reass+0x1ca>
 800bdba:	9b01      	ldr	r3, [sp, #4]
 800bdbc:	4499      	add	r9, r3
 800bdbe:	7fa3      	ldrb	r3, [r4, #30]
 800bdc0:	f8a4 901c 	strh.w	r9, [r4, #28]
 800bdc4:	f043 0301 	orr.w	r3, r3, #1
 800bdc8:	77a3      	strb	r3, [r4, #30]
 800bdca:	f1b8 0f01 	cmp.w	r8, #1
 800bdce:	d1ba      	bne.n	800bd46 <ip4_reass+0x146>
 800bdd0:	6863      	ldr	r3, [r4, #4]
 800bdd2:	8ba0      	ldrh	r0, [r4, #28]
 800bdd4:	685e      	ldr	r6, [r3, #4]
 800bdd6:	3014      	adds	r0, #20
 800bdd8:	6837      	ldr	r7, [r6, #0]
 800bdda:	b280      	uxth	r0, r0
 800bddc:	f104 0308 	add.w	r3, r4, #8
 800bde0:	4632      	mov	r2, r6
 800bde2:	f104 011c 	add.w	r1, r4, #28
 800bde6:	f853 cb04 	ldr.w	ip, [r3], #4
 800bdea:	f842 cb04 	str.w	ip, [r2], #4
 800bdee:	428b      	cmp	r3, r1
 800bdf0:	d1f9      	bne.n	800bde6 <ip4_reass+0x1e6>
 800bdf2:	f7fa f9cd 	bl	8006190 <lwip_htons>
 800bdf6:	2300      	movs	r3, #0
 800bdf8:	8070      	strh	r0, [r6, #2]
 800bdfa:	71b3      	strb	r3, [r6, #6]
 800bdfc:	71f3      	strb	r3, [r6, #7]
 800bdfe:	72b3      	strb	r3, [r6, #10]
 800be00:	72f3      	strb	r3, [r6, #11]
 800be02:	6866      	ldr	r6, [r4, #4]
 800be04:	2f00      	cmp	r7, #0
 800be06:	d14e      	bne.n	800bea6 <ip4_reass+0x2a6>
 800be08:	4b47      	ldr	r3, [pc, #284]	; (800bf28 <ip4_reass+0x328>)
 800be0a:	6819      	ldr	r1, [r3, #0]
 800be0c:	42a1      	cmp	r1, r4
 800be0e:	d15b      	bne.n	800bec8 <ip4_reass+0x2c8>
 800be10:	4639      	mov	r1, r7
 800be12:	e05b      	b.n	800becc <ip4_reass+0x2cc>
 800be14:	428b      	cmp	r3, r1
 800be16:	d871      	bhi.n	800befc <ip4_reass+0x2fc>
 800be18:	6067      	str	r7, [r4, #4]
 800be1a:	e7b9      	b.n	800bd90 <ip4_reass+0x190>
 800be1c:	d06e      	beq.n	800befc <ip4_reass+0x2fc>
 800be1e:	f8be 2006 	ldrh.w	r2, [lr, #6]
 800be22:	4282      	cmp	r2, r0
 800be24:	d86a      	bhi.n	800befc <ip4_reass+0x2fc>
 800be26:	b125      	cbz	r5, 800be32 <ip4_reass+0x232>
 800be28:	88ea      	ldrh	r2, [r5, #6]
 800be2a:	428a      	cmp	r2, r1
 800be2c:	bf18      	it	ne
 800be2e:	f04f 0800 	movne.w	r8, #0
 800be32:	f8de 2000 	ldr.w	r2, [lr]
 800be36:	4675      	mov	r5, lr
 800be38:	e76a      	b.n	800bd10 <ip4_reass+0x110>
 800be3a:	88eb      	ldrh	r3, [r5, #6]
 800be3c:	4283      	cmp	r3, r0
 800be3e:	d906      	bls.n	800be4e <ip4_reass+0x24e>
 800be40:	4b3a      	ldr	r3, [pc, #232]	; (800bf2c <ip4_reass+0x32c>)
 800be42:	493d      	ldr	r1, [pc, #244]	; (800bf38 <ip4_reass+0x338>)
 800be44:	483b      	ldr	r0, [pc, #236]	; (800bf34 <ip4_reass+0x334>)
 800be46:	f44f 72db 	mov.w	r2, #438	; 0x1b6
 800be4a:	f000 fc51 	bl	800c6f0 <iprintf>
 800be4e:	602f      	str	r7, [r5, #0]
 800be50:	88ea      	ldrh	r2, [r5, #6]
 800be52:	88b3      	ldrh	r3, [r6, #4]
 800be54:	429a      	cmp	r2, r3
 800be56:	e799      	b.n	800bd8c <ip4_reass+0x18c>
 800be58:	6863      	ldr	r3, [r4, #4]
 800be5a:	2b00      	cmp	r3, #0
 800be5c:	d0a3      	beq.n	800bda6 <ip4_reass+0x1a6>
 800be5e:	6859      	ldr	r1, [r3, #4]
 800be60:	888b      	ldrh	r3, [r1, #4]
 800be62:	2b00      	cmp	r3, #0
 800be64:	d19f      	bne.n	800bda6 <ip4_reass+0x1a6>
 800be66:	6833      	ldr	r3, [r6, #0]
 800be68:	b99b      	cbnz	r3, 800be92 <ip4_reass+0x292>
 800be6a:	42b1      	cmp	r1, r6
 800be6c:	d106      	bne.n	800be7c <ip4_reass+0x27c>
 800be6e:	4b2f      	ldr	r3, [pc, #188]	; (800bf2c <ip4_reass+0x32c>)
 800be70:	4932      	ldr	r1, [pc, #200]	; (800bf3c <ip4_reass+0x33c>)
 800be72:	4830      	ldr	r0, [pc, #192]	; (800bf34 <ip4_reass+0x334>)
 800be74:	f240 12e1 	movw	r2, #481	; 0x1e1
 800be78:	f000 fc3a 	bl	800c6f0 <iprintf>
 800be7c:	6833      	ldr	r3, [r6, #0]
 800be7e:	2b00      	cmp	r3, #0
 800be80:	d093      	beq.n	800bdaa <ip4_reass+0x1aa>
 800be82:	4b2a      	ldr	r3, [pc, #168]	; (800bf2c <ip4_reass+0x32c>)
 800be84:	492e      	ldr	r1, [pc, #184]	; (800bf40 <ip4_reass+0x340>)
 800be86:	482b      	ldr	r0, [pc, #172]	; (800bf34 <ip4_reass+0x334>)
 800be88:	f240 12e3 	movw	r2, #483	; 0x1e3
 800be8c:	f000 fc30 	bl	800c6f0 <iprintf>
 800be90:	e78b      	b.n	800bdaa <ip4_reass+0x1aa>
 800be92:	685a      	ldr	r2, [r3, #4]
 800be94:	88f0      	ldrh	r0, [r6, #6]
 800be96:	8893      	ldrh	r3, [r2, #4]
 800be98:	4298      	cmp	r0, r3
 800be9a:	d184      	bne.n	800bda6 <ip4_reass+0x1a6>
 800be9c:	6813      	ldr	r3, [r2, #0]
 800be9e:	4616      	mov	r6, r2
 800bea0:	e7e2      	b.n	800be68 <ip4_reass+0x268>
 800bea2:	4698      	mov	r8, r3
 800bea4:	e781      	b.n	800bdaa <ip4_reass+0x1aa>
 800bea6:	f8d7 8004 	ldr.w	r8, [r7, #4]
 800beaa:	2114      	movs	r1, #20
 800beac:	4638      	mov	r0, r7
 800beae:	f7fa feb5 	bl	8006c1c <pbuf_remove_header>
 800beb2:	4639      	mov	r1, r7
 800beb4:	4630      	mov	r0, r6
 800beb6:	f7fb f85d 	bl	8006f74 <pbuf_cat>
 800beba:	f8d8 7000 	ldr.w	r7, [r8]
 800bebe:	e7a1      	b.n	800be04 <ip4_reass+0x204>
 800bec0:	680b      	ldr	r3, [r1, #0]
 800bec2:	42a3      	cmp	r3, r4
 800bec4:	d002      	beq.n	800becc <ip4_reass+0x2cc>
 800bec6:	4619      	mov	r1, r3
 800bec8:	2900      	cmp	r1, #0
 800beca:	d1f9      	bne.n	800bec0 <ip4_reass+0x2c0>
 800becc:	4620      	mov	r0, r4
 800bece:	f7ff fd7f 	bl	800b9d0 <ip_reass_dequeue_datagram>
 800bed2:	4630      	mov	r0, r6
 800bed4:	f7fb f82a 	bl	8006f2c <pbuf_clen>
 800bed8:	882b      	ldrh	r3, [r5, #0]
 800beda:	4283      	cmp	r3, r0
 800bedc:	4604      	mov	r4, r0
 800bede:	d206      	bcs.n	800beee <ip4_reass+0x2ee>
 800bee0:	4b12      	ldr	r3, [pc, #72]	; (800bf2c <ip4_reass+0x32c>)
 800bee2:	4918      	ldr	r1, [pc, #96]	; (800bf44 <ip4_reass+0x344>)
 800bee4:	4813      	ldr	r0, [pc, #76]	; (800bf34 <ip4_reass+0x334>)
 800bee6:	f240 229b 	movw	r2, #667	; 0x29b
 800beea:	f000 fc01 	bl	800c6f0 <iprintf>
 800beee:	8828      	ldrh	r0, [r5, #0]
 800bef0:	1b00      	subs	r0, r0, r4
 800bef2:	8028      	strh	r0, [r5, #0]
 800bef4:	4630      	mov	r0, r6
 800bef6:	b003      	add	sp, #12
 800bef8:	e8bd 8ff0 	ldmia.w	sp!, {r4, r5, r6, r7, r8, r9, sl, fp, pc}
 800befc:	6863      	ldr	r3, [r4, #4]
 800befe:	2b00      	cmp	r3, #0
 800bf00:	f47f af1e 	bne.w	800bd40 <ip4_reass+0x140>
 800bf04:	4b08      	ldr	r3, [pc, #32]	; (800bf28 <ip4_reass+0x328>)
 800bf06:	681b      	ldr	r3, [r3, #0]
 800bf08:	42a3      	cmp	r3, r4
 800bf0a:	d006      	beq.n	800bf1a <ip4_reass+0x31a>
 800bf0c:	4b07      	ldr	r3, [pc, #28]	; (800bf2c <ip4_reass+0x32c>)
 800bf0e:	490e      	ldr	r1, [pc, #56]	; (800bf48 <ip4_reass+0x348>)
 800bf10:	4808      	ldr	r0, [pc, #32]	; (800bf34 <ip4_reass+0x334>)
 800bf12:	f240 22ab 	movw	r2, #683	; 0x2ab
 800bf16:	f000 fbeb 	bl	800c6f0 <iprintf>
 800bf1a:	2100      	movs	r1, #0
 800bf1c:	4620      	mov	r0, r4
 800bf1e:	f7ff fd57 	bl	800b9d0 <ip_reass_dequeue_datagram>
 800bf22:	e70d      	b.n	800bd40 <ip4_reass+0x140>
 800bf24:	20004bfc 	.word	0x20004bfc
 800bf28:	20004c00 	.word	0x20004c00
 800bf2c:	0800f945 	.word	0x0800f945
 800bf30:	0800f8a4 	.word	0x0800f8a4
 800bf34:	0800d51e 	.word	0x0800d51e
 800bf38:	0800f886 	.word	0x0800f886
 800bf3c:	0800f8db 	.word	0x0800f8db
 800bf40:	0800f8e8 	.word	0x0800f8e8
 800bf44:	0800f90a 	.word	0x0800f90a
 800bf48:	0800f925 	.word	0x0800f925
 800bf4c:	88e8      	ldrh	r0, [r5, #6]
 800bf4e:	f7fa f91f 	bl	8006190 <lwip_htons>
 800bf52:	f3c0 000c 	ubfx	r0, r0, #0, #13
 800bf56:	2800      	cmp	r0, #0
 800bf58:	f47f aea3 	bne.w	800bca2 <ip4_reass+0xa2>
 800bf5c:	89e0      	ldrh	r0, [r4, #14]
 800bf5e:	f7fa f917 	bl	8006190 <lwip_htons>
 800bf62:	f3c0 000c 	ubfx	r0, r0, #0, #13
 800bf66:	2800      	cmp	r0, #0
 800bf68:	f43f ae9b 	beq.w	800bca2 <ip4_reass+0xa2>
 800bf6c:	462b      	mov	r3, r5
 800bf6e:	f104 0208 	add.w	r2, r4, #8
 800bf72:	f105 0114 	add.w	r1, r5, #20
 800bf76:	f853 0b04 	ldr.w	r0, [r3], #4
 800bf7a:	f842 0b04 	str.w	r0, [r2], #4
 800bf7e:	428b      	cmp	r3, r1
 800bf80:	d1f9      	bne.n	800bf76 <ip4_reass+0x376>
 800bf82:	e68e      	b.n	800bca2 <ip4_reass+0xa2>
 800bf84:	f1bb 0f00 	cmp.w	fp, #0
 800bf88:	f43f af0d 	beq.w	800bda6 <ip4_reass+0x1a6>
 800bf8c:	f04f 0800 	mov.w	r8, #0
 800bf90:	e701      	b.n	800bd96 <ip4_reass+0x196>
 800bf92:	bf00      	nop

0800bf94 <ip4_frag>:
 800bf94:	e92d 4ff0 	stmdb	sp!, {r4, r5, r6, r7, r8, r9, sl, fp, lr}
 800bf98:	8c8b      	ldrh	r3, [r1, #36]	; 0x24
 800bf9a:	b08d      	sub	sp, #52	; 0x34
 800bf9c:	3b14      	subs	r3, #20
 800bf9e:	920a      	str	r2, [sp, #40]	; 0x28
 800bfa0:	2208      	movs	r2, #8
 800bfa2:	fb93 f3f2 	sdiv	r3, r3, r2
 800bfa6:	b29b      	uxth	r3, r3
 800bfa8:	9307      	str	r3, [sp, #28]
 800bfaa:	6843      	ldr	r3, [r0, #4]
 800bfac:	9303      	str	r3, [sp, #12]
 800bfae:	781d      	ldrb	r5, [r3, #0]
 800bfb0:	f005 050f 	and.w	r5, r5, #15
 800bfb4:	00ad      	lsls	r5, r5, #2
 800bfb6:	2d14      	cmp	r5, #20
 800bfb8:	4607      	mov	r7, r0
 800bfba:	468b      	mov	fp, r1
 800bfbc:	d109      	bne.n	800bfd2 <ip4_frag+0x3e>
 800bfbe:	8943      	ldrh	r3, [r0, #10]
 800bfc0:	2b13      	cmp	r3, #19
 800bfc2:	d809      	bhi.n	800bfd8 <ip4_frag+0x44>
 800bfc4:	4b5e      	ldr	r3, [pc, #376]	; (800c140 <ip4_frag+0x1ac>)
 800bfc6:	495f      	ldr	r1, [pc, #380]	; (800c144 <ip4_frag+0x1b0>)
 800bfc8:	485f      	ldr	r0, [pc, #380]	; (800c148 <ip4_frag+0x1b4>)
 800bfca:	f44f 723f 	mov.w	r2, #764	; 0x2fc
 800bfce:	f000 fb8f 	bl	800c6f0 <iprintf>
 800bfd2:	f06f 0005 	mvn.w	r0, #5
 800bfd6:	e013      	b.n	800c000 <ip4_frag+0x6c>
 800bfd8:	9b03      	ldr	r3, [sp, #12]
 800bfda:	88d8      	ldrh	r0, [r3, #6]
 800bfdc:	f7fa f8d8 	bl	8006190 <lwip_htons>
 800bfe0:	f3c0 030c 	ubfx	r3, r0, #0, #13
 800bfe4:	9305      	str	r3, [sp, #20]
 800bfe6:	f400 5300 	and.w	r3, r0, #8192	; 0x2000
 800bfea:	9309      	str	r3, [sp, #36]	; 0x24
 800bfec:	9b07      	ldr	r3, [sp, #28]
 800bfee:	893c      	ldrh	r4, [r7, #8]
 800bff0:	00db      	lsls	r3, r3, #3
 800bff2:	3c14      	subs	r4, #20
 800bff4:	b29b      	uxth	r3, r3
 800bff6:	b2a4      	uxth	r4, r4
 800bff8:	9308      	str	r3, [sp, #32]
 800bffa:	2600      	movs	r6, #0
 800bffc:	b91c      	cbnz	r4, 800c006 <ip4_frag+0x72>
 800bffe:	4620      	mov	r0, r4
 800c000:	b00d      	add	sp, #52	; 0x34
 800c002:	e8bd 8ff0 	ldmia.w	sp!, {r4, r5, r6, r7, r8, r9, sl, fp, pc}
 800c006:	9b08      	ldr	r3, [sp, #32]
 800c008:	42a3      	cmp	r3, r4
 800c00a:	bf28      	it	cs
 800c00c:	4623      	movcs	r3, r4
 800c00e:	f44f 7220 	mov.w	r2, #640	; 0x280
 800c012:	2114      	movs	r1, #20
 800c014:	200e      	movs	r0, #14
 800c016:	9306      	str	r3, [sp, #24]
 800c018:	f7fa fe9c 	bl	8006d54 <pbuf_alloc>
 800c01c:	4680      	mov	r8, r0
 800c01e:	2800      	cmp	r0, #0
 800c020:	d037      	beq.n	800c092 <ip4_frag+0xfe>
 800c022:	8943      	ldrh	r3, [r0, #10]
 800c024:	2b13      	cmp	r3, #19
 800c026:	d806      	bhi.n	800c036 <ip4_frag+0xa2>
 800c028:	4b45      	ldr	r3, [pc, #276]	; (800c140 <ip4_frag+0x1ac>)
 800c02a:	4948      	ldr	r1, [pc, #288]	; (800c14c <ip4_frag+0x1b8>)
 800c02c:	4846      	ldr	r0, [pc, #280]	; (800c148 <ip4_frag+0x1b4>)
 800c02e:	f240 3225 	movw	r2, #805	; 0x325
 800c032:	f000 fb5d 	bl	800c6f0 <iprintf>
 800c036:	9b03      	ldr	r3, [sp, #12]
 800c038:	f8d8 2004 	ldr.w	r2, [r8, #4]
 800c03c:	4619      	mov	r1, r3
 800c03e:	3114      	adds	r1, #20
 800c040:	f853 0b04 	ldr.w	r0, [r3], #4
 800c044:	f842 0b04 	str.w	r0, [r2], #4
 800c048:	428b      	cmp	r3, r1
 800c04a:	d1f9      	bne.n	800c040 <ip4_frag+0xac>
 800c04c:	f8d8 3004 	ldr.w	r3, [r8, #4]
 800c050:	f8dd 9018 	ldr.w	r9, [sp, #24]
 800c054:	9304      	str	r3, [sp, #16]
 800c056:	f1b9 0f00 	cmp.w	r9, #0
 800c05a:	d040      	beq.n	800c0de <ip4_frag+0x14a>
 800c05c:	897b      	ldrh	r3, [r7, #10]
 800c05e:	1b5e      	subs	r6, r3, r5
 800c060:	42ab      	cmp	r3, r5
 800c062:	b2b6      	uxth	r6, r6
 800c064:	d206      	bcs.n	800c074 <ip4_frag+0xe0>
 800c066:	4b36      	ldr	r3, [pc, #216]	; (800c140 <ip4_frag+0x1ac>)
 800c068:	4939      	ldr	r1, [pc, #228]	; (800c150 <ip4_frag+0x1bc>)
 800c06a:	4837      	ldr	r0, [pc, #220]	; (800c148 <ip4_frag+0x1b4>)
 800c06c:	f240 322d 	movw	r2, #813	; 0x32d
 800c070:	f000 fb3e 	bl	800c6f0 <iprintf>
 800c074:	454e      	cmp	r6, r9
 800c076:	bf28      	it	cs
 800c078:	464e      	movcs	r6, r9
 800c07a:	b916      	cbnz	r6, 800c082 <ip4_frag+0xee>
 800c07c:	683f      	ldr	r7, [r7, #0]
 800c07e:	2500      	movs	r5, #0
 800c080:	e7e9      	b.n	800c056 <ip4_frag+0xc2>
 800c082:	2004      	movs	r0, #4
 800c084:	f7fa fb64 	bl	8006750 <memp_malloc>
 800c088:	4682      	mov	sl, r0
 800c08a:	b928      	cbnz	r0, 800c098 <ip4_frag+0x104>
 800c08c:	4640      	mov	r0, r8
 800c08e:	f7fa fdf9 	bl	8006c84 <pbuf_free>
 800c092:	f04f 30ff 	mov.w	r0, #4294967295
 800c096:	e7b3      	b.n	800c000 <ip4_frag+0x6c>
 800c098:	9601      	str	r6, [sp, #4]
 800c09a:	687b      	ldr	r3, [r7, #4]
 800c09c:	442b      	add	r3, r5
 800c09e:	9300      	str	r3, [sp, #0]
 800c0a0:	2241      	movs	r2, #65	; 0x41
 800c0a2:	4603      	mov	r3, r0
 800c0a4:	4631      	mov	r1, r6
 800c0a6:	2000      	movs	r0, #0
 800c0a8:	f7fa fd9a 	bl	8006be0 <pbuf_alloced_custom>
 800c0ac:	b918      	cbnz	r0, 800c0b6 <ip4_frag+0x122>
 800c0ae:	4650      	mov	r0, sl
 800c0b0:	f7ff fd60 	bl	800bb74 <ip_frag_free_pbuf_custom_ref>
 800c0b4:	e7ea      	b.n	800c08c <ip4_frag+0xf8>
 800c0b6:	900b      	str	r0, [sp, #44]	; 0x2c
 800c0b8:	4638      	mov	r0, r7
 800c0ba:	f7fa ff3f 	bl	8006f3c <pbuf_ref>
 800c0be:	eba9 0906 	sub.w	r9, r9, r6
 800c0c2:	4b24      	ldr	r3, [pc, #144]	; (800c154 <ip4_frag+0x1c0>)
 800c0c4:	f8ca 7014 	str.w	r7, [sl, #20]
 800c0c8:	f8ca 3010 	str.w	r3, [sl, #16]
 800c0cc:	990b      	ldr	r1, [sp, #44]	; 0x2c
 800c0ce:	4640      	mov	r0, r8
 800c0d0:	fa1f f989 	uxth.w	r9, r9
 800c0d4:	f7fa ff4e 	bl	8006f74 <pbuf_cat>
 800c0d8:	f1b9 0f00 	cmp.w	r9, #0
 800c0dc:	d1ce      	bne.n	800c07c <ip4_frag+0xe8>
 800c0de:	9b05      	ldr	r3, [sp, #20]
 800c0e0:	f3c3 000c 	ubfx	r0, r3, #0, #13
 800c0e4:	f8bb 3024 	ldrh.w	r3, [fp, #36]	; 0x24
 800c0e8:	3b13      	subs	r3, #19
 800c0ea:	4435      	add	r5, r6
 800c0ec:	42a3      	cmp	r3, r4
 800c0ee:	b2ad      	uxth	r5, r5
 800c0f0:	dd01      	ble.n	800c0f6 <ip4_frag+0x162>
 800c0f2:	9b09      	ldr	r3, [sp, #36]	; 0x24
 800c0f4:	b10b      	cbz	r3, 800c0fa <ip4_frag+0x166>
 800c0f6:	f440 5000 	orr.w	r0, r0, #8192	; 0x2000
 800c0fa:	f7fa f849 	bl	8006190 <lwip_htons>
 800c0fe:	9b04      	ldr	r3, [sp, #16]
 800c100:	80d8      	strh	r0, [r3, #6]
 800c102:	9b06      	ldr	r3, [sp, #24]
 800c104:	f103 0014 	add.w	r0, r3, #20
 800c108:	b280      	uxth	r0, r0
 800c10a:	f7fa f841 	bl	8006190 <lwip_htons>
 800c10e:	9b04      	ldr	r3, [sp, #16]
 800c110:	9a04      	ldr	r2, [sp, #16]
 800c112:	8058      	strh	r0, [r3, #2]
 800c114:	2300      	movs	r3, #0
 800c116:	7293      	strb	r3, [r2, #10]
 800c118:	72d3      	strb	r3, [r2, #11]
 800c11a:	4641      	mov	r1, r8
 800c11c:	f8db 3014 	ldr.w	r3, [fp, #20]
 800c120:	9a0a      	ldr	r2, [sp, #40]	; 0x28
 800c122:	4658      	mov	r0, fp
 800c124:	4798      	blx	r3
 800c126:	4640      	mov	r0, r8
 800c128:	f7fa fdac 	bl	8006c84 <pbuf_free>
 800c12c:	9b06      	ldr	r3, [sp, #24]
 800c12e:	9a07      	ldr	r2, [sp, #28]
 800c130:	1ae4      	subs	r4, r4, r3
 800c132:	9b05      	ldr	r3, [sp, #20]
 800c134:	4413      	add	r3, r2
 800c136:	b29b      	uxth	r3, r3
 800c138:	b2a4      	uxth	r4, r4
 800c13a:	9305      	str	r3, [sp, #20]
 800c13c:	e75e      	b.n	800bffc <ip4_frag+0x68>
 800c13e:	bf00      	nop
 800c140:	0800f945 	.word	0x0800f945
 800c144:	0800f83c 	.word	0x0800f83c
 800c148:	0800d51e 	.word	0x0800d51e
 800c14c:	0800f857 	.word	0x0800f857
 800c150:	0800f877 	.word	0x0800f877
 800c154:	0800bba1 	.word	0x0800bba1

0800c158 <ethernet_input>:
 800c158:	8943      	ldrh	r3, [r0, #10]
 800c15a:	2b0e      	cmp	r3, #14
 800c15c:	b570      	push	{r4, r5, r6, lr}
 800c15e:	4604      	mov	r4, r0
 800c160:	460d      	mov	r5, r1
 800c162:	d91a      	bls.n	800c19a <ethernet_input+0x42>
 800c164:	7bc3      	ldrb	r3, [r0, #15]
 800c166:	b91b      	cbnz	r3, 800c170 <ethernet_input+0x18>
 800c168:	f891 3030 	ldrb.w	r3, [r1, #48]	; 0x30
 800c16c:	3301      	adds	r3, #1
 800c16e:	73c3      	strb	r3, [r0, #15]
 800c170:	6860      	ldr	r0, [r4, #4]
 800c172:	7803      	ldrb	r3, [r0, #0]
 800c174:	8986      	ldrh	r6, [r0, #12]
 800c176:	07d9      	lsls	r1, r3, #31
 800c178:	d50a      	bpl.n	800c190 <ethernet_input+0x38>
 800c17a:	2b01      	cmp	r3, #1
 800c17c:	d111      	bne.n	800c1a2 <ethernet_input+0x4a>
 800c17e:	7843      	ldrb	r3, [r0, #1]
 800c180:	b933      	cbnz	r3, 800c190 <ethernet_input+0x38>
 800c182:	7883      	ldrb	r3, [r0, #2]
 800c184:	2b5e      	cmp	r3, #94	; 0x5e
 800c186:	d103      	bne.n	800c190 <ethernet_input+0x38>
 800c188:	7b63      	ldrb	r3, [r4, #13]
 800c18a:	f043 0310 	orr.w	r3, r3, #16
 800c18e:	7363      	strb	r3, [r4, #13]
 800c190:	2e08      	cmp	r6, #8
 800c192:	d010      	beq.n	800c1b6 <ethernet_input+0x5e>
 800c194:	f5b6 6fc1 	cmp.w	r6, #1544	; 0x608
 800c198:	d01d      	beq.n	800c1d6 <ethernet_input+0x7e>
 800c19a:	4620      	mov	r0, r4
 800c19c:	f7fa fd72 	bl	8006c84 <pbuf_free>
 800c1a0:	e017      	b.n	800c1d2 <ethernet_input+0x7a>
 800c1a2:	2206      	movs	r2, #6
 800c1a4:	4913      	ldr	r1, [pc, #76]	; (800c1f4 <ethernet_input+0x9c>)
 800c1a6:	f000 fa27 	bl	800c5f8 <memcmp>
 800c1aa:	2800      	cmp	r0, #0
 800c1ac:	d1f0      	bne.n	800c190 <ethernet_input+0x38>
 800c1ae:	7b63      	ldrb	r3, [r4, #13]
 800c1b0:	f043 0308 	orr.w	r3, r3, #8
 800c1b4:	e7eb      	b.n	800c18e <ethernet_input+0x36>
 800c1b6:	f895 302d 	ldrb.w	r3, [r5, #45]	; 0x2d
 800c1ba:	071a      	lsls	r2, r3, #28
 800c1bc:	d5ed      	bpl.n	800c19a <ethernet_input+0x42>
 800c1be:	210e      	movs	r1, #14
 800c1c0:	4620      	mov	r0, r4
 800c1c2:	f7fa fd2b 	bl	8006c1c <pbuf_remove_header>
 800c1c6:	2800      	cmp	r0, #0
 800c1c8:	d1e7      	bne.n	800c19a <ethernet_input+0x42>
 800c1ca:	4629      	mov	r1, r5
 800c1cc:	4620      	mov	r0, r4
 800c1ce:	f7ff faab 	bl	800b728 <ip4_input>
 800c1d2:	2000      	movs	r0, #0
 800c1d4:	bd70      	pop	{r4, r5, r6, pc}
 800c1d6:	f895 302d 	ldrb.w	r3, [r5, #45]	; 0x2d
 800c1da:	071b      	lsls	r3, r3, #28
 800c1dc:	d5dd      	bpl.n	800c19a <ethernet_input+0x42>
 800c1de:	210e      	movs	r1, #14
 800c1e0:	4620      	mov	r0, r4
 800c1e2:	f7fa fd1b 	bl	8006c1c <pbuf_remove_header>
 800c1e6:	2800      	cmp	r0, #0
 800c1e8:	d1d7      	bne.n	800c19a <ethernet_input+0x42>
 800c1ea:	4629      	mov	r1, r5
 800c1ec:	4620      	mov	r0, r4
 800c1ee:	f7fe fee3 	bl	800afb8 <etharp_input>
 800c1f2:	e7ee      	b.n	800c1d2 <ethernet_input+0x7a>
 800c1f4:	0800fa00 	.word	0x0800fa00

0800c1f8 <ethernet_output>:
 800c1f8:	e92d 41f0 	stmdb	sp!, {r4, r5, r6, r7, r8, lr}
 800c1fc:	4604      	mov	r4, r0
 800c1fe:	f8bd 0018 	ldrh.w	r0, [sp, #24]
 800c202:	460d      	mov	r5, r1
 800c204:	4616      	mov	r6, r2
 800c206:	461f      	mov	r7, r3
 800c208:	f7f9 ffc2 	bl	8006190 <lwip_htons>
 800c20c:	210e      	movs	r1, #14
 800c20e:	4680      	mov	r8, r0
 800c210:	4628      	mov	r0, r5
 800c212:	f7fa fd00 	bl	8006c16 <pbuf_add_header>
 800c216:	b9e0      	cbnz	r0, 800c252 <ethernet_output+0x5a>
 800c218:	6869      	ldr	r1, [r5, #4]
 800c21a:	f8a1 800c 	strh.w	r8, [r1, #12]
 800c21e:	683b      	ldr	r3, [r7, #0]
 800c220:	600b      	str	r3, [r1, #0]
 800c222:	88bb      	ldrh	r3, [r7, #4]
 800c224:	808b      	strh	r3, [r1, #4]
 800c226:	6833      	ldr	r3, [r6, #0]
 800c228:	f8c1 3006 	str.w	r3, [r1, #6]
 800c22c:	88b3      	ldrh	r3, [r6, #4]
 800c22e:	814b      	strh	r3, [r1, #10]
 800c230:	f894 302c 	ldrb.w	r3, [r4, #44]	; 0x2c
 800c234:	2b06      	cmp	r3, #6
 800c236:	d006      	beq.n	800c246 <ethernet_output+0x4e>
 800c238:	4b08      	ldr	r3, [pc, #32]	; (800c25c <ethernet_output+0x64>)
 800c23a:	4909      	ldr	r1, [pc, #36]	; (800c260 <ethernet_output+0x68>)
 800c23c:	4809      	ldr	r0, [pc, #36]	; (800c264 <ethernet_output+0x6c>)
 800c23e:	f240 1233 	movw	r2, #307	; 0x133
 800c242:	f000 fa55 	bl	800c6f0 <iprintf>
 800c246:	69a3      	ldr	r3, [r4, #24]
 800c248:	4629      	mov	r1, r5
 800c24a:	4620      	mov	r0, r4
 800c24c:	e8bd 41f0 	ldmia.w	sp!, {r4, r5, r6, r7, r8, lr}
 800c250:	4718      	bx	r3
 800c252:	f06f 0001 	mvn.w	r0, #1
 800c256:	e8bd 81f0 	ldmia.w	sp!, {r4, r5, r6, r7, r8, pc}
 800c25a:	bf00      	nop
 800c25c:	0800fa06 	.word	0x0800fa06
 800c260:	0800fa3b 	.word	0x0800fa3b
 800c264:	0800d51e 	.word	0x0800d51e

0800c268 <sys_mbox_new>:
 800c268:	b510      	push	{r4, lr}
 800c26a:	2200      	movs	r2, #0
 800c26c:	4604      	mov	r4, r0
 800c26e:	4608      	mov	r0, r1
 800c270:	2104      	movs	r1, #4
 800c272:	f7f6 fc1f 	bl	8002ab4 <osMessageQueueNew>
 800c276:	6020      	str	r0, [r4, #0]
 800c278:	fab0 f080 	clz	r0, r0
 800c27c:	0940      	lsrs	r0, r0, #5
 800c27e:	4240      	negs	r0, r0
 800c280:	bd10      	pop	{r4, pc}

0800c282 <sys_mbox_free>:
 800c282:	b510      	push	{r4, lr}
 800c284:	4604      	mov	r4, r0
 800c286:	6800      	ldr	r0, [r0, #0]
 800c288:	f7f6 fcdc 	bl	8002c44 <osMessageQueueGetCount>
 800c28c:	6820      	ldr	r0, [r4, #0]
 800c28e:	e8bd 4010 	ldmia.w	sp!, {r4, lr}
 800c292:	f7f6 bcd9 	b.w	8002c48 <osMessageQueueDelete>

0800c296 <sys_mbox_trypost>:
 800c296:	b513      	push	{r0, r1, r4, lr}
 800c298:	ac02      	add	r4, sp, #8
 800c29a:	2300      	movs	r3, #0
 800c29c:	f844 1d04 	str.w	r1, [r4, #-4]!
 800c2a0:	461a      	mov	r2, r3
 800c2a2:	4621      	mov	r1, r4
 800c2a4:	6800      	ldr	r0, [r0, #0]
 800c2a6:	f7f6 fc4b 	bl	8002b40 <osMessageQueuePut>
 800c2aa:	3000      	adds	r0, #0
 800c2ac:	bf18      	it	ne
 800c2ae:	2001      	movne	r0, #1
 800c2b0:	4240      	negs	r0, r0
 800c2b2:	b002      	add	sp, #8
 800c2b4:	bd10      	pop	{r4, pc}

0800c2b6 <sys_arch_mbox_fetch>:
 800c2b6:	b5f8      	push	{r3, r4, r5, r6, r7, lr}
 800c2b8:	4606      	mov	r6, r0
 800c2ba:	460f      	mov	r7, r1
 800c2bc:	4615      	mov	r5, r2
 800c2be:	f7f6 f9d7 	bl	8002670 <osKernelGetTickCount>
 800c2c2:	4604      	mov	r4, r0
 800c2c4:	b155      	cbz	r5, 800c2dc <sys_arch_mbox_fetch+0x26>
 800c2c6:	462b      	mov	r3, r5
 800c2c8:	2200      	movs	r2, #0
 800c2ca:	4639      	mov	r1, r7
 800c2cc:	6830      	ldr	r0, [r6, #0]
 800c2ce:	f7f6 fc79 	bl	8002bc4 <osMessageQueueGet>
 800c2d2:	b958      	cbnz	r0, 800c2ec <sys_arch_mbox_fetch+0x36>
 800c2d4:	f7f6 f9cc 	bl	8002670 <osKernelGetTickCount>
 800c2d8:	1b00      	subs	r0, r0, r4
 800c2da:	bdf8      	pop	{r3, r4, r5, r6, r7, pc}
 800c2dc:	f04f 33ff 	mov.w	r3, #4294967295
 800c2e0:	462a      	mov	r2, r5
 800c2e2:	4639      	mov	r1, r7
 800c2e4:	6830      	ldr	r0, [r6, #0]
 800c2e6:	f7f6 fc6d 	bl	8002bc4 <osMessageQueueGet>
 800c2ea:	e7f3      	b.n	800c2d4 <sys_arch_mbox_fetch+0x1e>
 800c2ec:	f04f 30ff 	mov.w	r0, #4294967295
 800c2f0:	e7f3      	b.n	800c2da <sys_arch_mbox_fetch+0x24>

0800c2f2 <sys_arch_mbox_tryfetch>:
 800c2f2:	b508      	push	{r3, lr}
 800c2f4:	2300      	movs	r3, #0
 800c2f6:	461a      	mov	r2, r3
 800c2f8:	6800      	ldr	r0, [r0, #0]
 800c2fa:	f7f6 fc63 	bl	8002bc4 <osMessageQueueGet>
 800c2fe:	3000      	adds	r0, #0
 800c300:	bf18      	it	ne
 800c302:	2001      	movne	r0, #1
 800c304:	4240      	negs	r0, r0
 800c306:	bd08      	pop	{r3, pc}

0800c308 <sys_mbox_valid>:
 800c308:	6800      	ldr	r0, [r0, #0]
 800c30a:	3000      	adds	r0, #0
 800c30c:	bf18      	it	ne
 800c30e:	2001      	movne	r0, #1
 800c310:	4770      	bx	lr

0800c312 <sys_mbox_set_invalid>:
 800c312:	2300      	movs	r3, #0
 800c314:	6003      	str	r3, [r0, #0]
 800c316:	4770      	bx	lr

0800c318 <sys_sem_new>:
 800c318:	b538      	push	{r3, r4, r5, lr}
 800c31a:	2200      	movs	r2, #0
 800c31c:	4605      	mov	r5, r0
 800c31e:	f64f 70ff 	movw	r0, #65535	; 0xffff
 800c322:	460c      	mov	r4, r1
 800c324:	f7f6 fac4 	bl	80028b0 <osSemaphoreNew>
 800c328:	6028      	str	r0, [r5, #0]
 800c32a:	b128      	cbz	r0, 800c338 <sys_sem_new+0x20>
 800c32c:	b914      	cbnz	r4, 800c334 <sys_sem_new+0x1c>
 800c32e:	4621      	mov	r1, r4
 800c330:	f7f6 fb14 	bl	800295c <osSemaphoreAcquire>
 800c334:	2000      	movs	r0, #0
 800c336:	e001      	b.n	800c33c <sys_sem_new+0x24>
 800c338:	f04f 30ff 	mov.w	r0, #4294967295
 800c33c:	bd38      	pop	{r3, r4, r5, pc}

0800c33e <sys_arch_sem_wait>:
 800c33e:	b570      	push	{r4, r5, r6, lr}
 800c340:	4605      	mov	r5, r0
 800c342:	460e      	mov	r6, r1
 800c344:	f7f6 f994 	bl	8002670 <osKernelGetTickCount>
 800c348:	4604      	mov	r4, r0
 800c34a:	b146      	cbz	r6, 800c35e <sys_arch_sem_wait+0x20>
 800c34c:	4631      	mov	r1, r6
 800c34e:	6828      	ldr	r0, [r5, #0]
 800c350:	f7f6 fb04 	bl	800295c <osSemaphoreAcquire>
 800c354:	b958      	cbnz	r0, 800c36e <sys_arch_sem_wait+0x30>
 800c356:	f7f6 f98b 	bl	8002670 <osKernelGetTickCount>
 800c35a:	1b00      	subs	r0, r0, r4
 800c35c:	bd70      	pop	{r4, r5, r6, pc}
 800c35e:	f04f 31ff 	mov.w	r1, #4294967295
 800c362:	6828      	ldr	r0, [r5, #0]
 800c364:	f7f6 fafa 	bl	800295c <osSemaphoreAcquire>
 800c368:	2800      	cmp	r0, #0
 800c36a:	d1f8      	bne.n	800c35e <sys_arch_sem_wait+0x20>
 800c36c:	e7f3      	b.n	800c356 <sys_arch_sem_wait+0x18>
 800c36e:	f04f 30ff 	mov.w	r0, #4294967295
 800c372:	e7f3      	b.n	800c35c <sys_arch_sem_wait+0x1e>

0800c374 <sys_sem_signal>:
 800c374:	6800      	ldr	r0, [r0, #0]
 800c376:	f7f6 bb2d 	b.w	80029d4 <osSemaphoreRelease>

0800c37a <sys_sem_free>:
 800c37a:	6800      	ldr	r0, [r0, #0]
 800c37c:	f7f6 bb7a 	b.w	8002a74 <osSemaphoreDelete>

0800c380 <sys_sem_valid>:
 800c380:	6800      	ldr	r0, [r0, #0]
 800c382:	3000      	adds	r0, #0
 800c384:	bf18      	it	ne
 800c386:	2001      	movne	r0, #1
 800c388:	4770      	bx	lr

0800c38a <sys_sem_set_invalid>:
 800c38a:	2300      	movs	r3, #0
 800c38c:	6003      	str	r3, [r0, #0]
 800c38e:	4770      	bx	lr

0800c390 <sys_init>:
 800c390:	b508      	push	{r3, lr}
 800c392:	2000      	movs	r0, #0
 800c394:	f7f6 f9f0 	bl	8002778 <osMutexNew>
 800c398:	4b01      	ldr	r3, [pc, #4]	; (800c3a0 <sys_init+0x10>)
 800c39a:	6018      	str	r0, [r3, #0]
 800c39c:	bd08      	pop	{r3, pc}
 800c39e:	bf00      	nop
 800c3a0:	2000b560 	.word	0x2000b560

0800c3a4 <sys_mutex_new>:
 800c3a4:	b510      	push	{r4, lr}
 800c3a6:	4604      	mov	r4, r0
 800c3a8:	2000      	movs	r0, #0
 800c3aa:	f7f6 f9e5 	bl	8002778 <osMutexNew>
 800c3ae:	6020      	str	r0, [r4, #0]
 800c3b0:	fab0 f080 	clz	r0, r0
 800c3b4:	0940      	lsrs	r0, r0, #5
 800c3b6:	4240      	negs	r0, r0
 800c3b8:	bd10      	pop	{r4, pc}

0800c3ba <sys_mutex_lock>:
 800c3ba:	f04f 31ff 	mov.w	r1, #4294967295
 800c3be:	6800      	ldr	r0, [r0, #0]
 800c3c0:	f7f6 ba1c 	b.w	80027fc <osMutexAcquire>

0800c3c4 <sys_mutex_unlock>:
 800c3c4:	6800      	ldr	r0, [r0, #0]
 800c3c6:	f7f6 ba49 	b.w	800285c <osMutexRelease>

0800c3ca <sys_thread_new>:
 800c3ca:	b5f0      	push	{r4, r5, r6, r7, lr}
 800c3cc:	b08b      	sub	sp, #44	; 0x2c
 800c3ce:	4607      	mov	r7, r0
 800c3d0:	460c      	mov	r4, r1
 800c3d2:	4615      	mov	r5, r2
 800c3d4:	2100      	movs	r1, #0
 800c3d6:	2220      	movs	r2, #32
 800c3d8:	a802      	add	r0, sp, #8
 800c3da:	461e      	mov	r6, r3
 800c3dc:	f000 f926 	bl	800c62c <memset>
 800c3e0:	9b10      	ldr	r3, [sp, #64]	; 0x40
 800c3e2:	9701      	str	r7, [sp, #4]
 800c3e4:	aa01      	add	r2, sp, #4
 800c3e6:	4629      	mov	r1, r5
 800c3e8:	4620      	mov	r0, r4
 800c3ea:	9606      	str	r6, [sp, #24]
 800c3ec:	9307      	str	r3, [sp, #28]
 800c3ee:	f7f6 f953 	bl	8002698 <osThreadNew>
 800c3f2:	b00b      	add	sp, #44	; 0x2c
 800c3f4:	bdf0      	pop	{r4, r5, r6, r7, pc}
	...

0800c3f8 <sys_arch_protect>:
 800c3f8:	b508      	push	{r3, lr}
 800c3fa:	4b04      	ldr	r3, [pc, #16]	; (800c40c <sys_arch_protect+0x14>)
 800c3fc:	f04f 31ff 	mov.w	r1, #4294967295
 800c400:	6818      	ldr	r0, [r3, #0]
 800c402:	f7f6 f9fb 	bl	80027fc <osMutexAcquire>
 800c406:	2001      	movs	r0, #1
 800c408:	bd08      	pop	{r3, pc}
 800c40a:	bf00      	nop
 800c40c:	2000b560 	.word	0x2000b560

0800c410 <sys_arch_unprotect>:
 800c410:	4b01      	ldr	r3, [pc, #4]	; (800c418 <sys_arch_unprotect+0x8>)
 800c412:	6818      	ldr	r0, [r3, #0]
 800c414:	f7f6 ba22 	b.w	800285c <osMutexRelease>
 800c418:	2000b560 	.word	0x2000b560

0800c41c <std>:
 800c41c:	2300      	movs	r3, #0
 800c41e:	b510      	push	{r4, lr}
 800c420:	4604      	mov	r4, r0
 800c422:	e9c0 3300 	strd	r3, r3, [r0]
 800c426:	6083      	str	r3, [r0, #8]
 800c428:	8181      	strh	r1, [r0, #12]
 800c42a:	6643      	str	r3, [r0, #100]	; 0x64
 800c42c:	81c2      	strh	r2, [r0, #14]
 800c42e:	e9c0 3304 	strd	r3, r3, [r0, #16]
 800c432:	6183      	str	r3, [r0, #24]
 800c434:	4619      	mov	r1, r3
 800c436:	2208      	movs	r2, #8
 800c438:	305c      	adds	r0, #92	; 0x5c
 800c43a:	f000 f8f7 	bl	800c62c <memset>
 800c43e:	4b05      	ldr	r3, [pc, #20]	; (800c454 <std+0x38>)
 800c440:	6263      	str	r3, [r4, #36]	; 0x24
 800c442:	4b05      	ldr	r3, [pc, #20]	; (800c458 <std+0x3c>)
 800c444:	62a3      	str	r3, [r4, #40]	; 0x28
 800c446:	4b05      	ldr	r3, [pc, #20]	; (800c45c <std+0x40>)
 800c448:	62e3      	str	r3, [r4, #44]	; 0x2c
 800c44a:	4b05      	ldr	r3, [pc, #20]	; (800c460 <std+0x44>)
 800c44c:	6224      	str	r4, [r4, #32]
 800c44e:	6323      	str	r3, [r4, #48]	; 0x30
 800c450:	bd10      	pop	{r4, pc}
 800c452:	bf00      	nop
 800c454:	0800c87d 	.word	0x0800c87d
 800c458:	0800c89f 	.word	0x0800c89f
 800c45c:	0800c8d7 	.word	0x0800c8d7
 800c460:	0800c8fb 	.word	0x0800c8fb

0800c464 <_cleanup_r>:
 800c464:	4901      	ldr	r1, [pc, #4]	; (800c46c <_cleanup_r+0x8>)
 800c466:	f000 b885 	b.w	800c574 <_fwalk_reent>
 800c46a:	bf00      	nop
 800c46c:	0800ca8d 	.word	0x0800ca8d

0800c470 <__sfmoreglue>:
 800c470:	b570      	push	{r4, r5, r6, lr}
 800c472:	1e4a      	subs	r2, r1, #1
 800c474:	2568      	movs	r5, #104	; 0x68
 800c476:	4355      	muls	r5, r2
 800c478:	460e      	mov	r6, r1
 800c47a:	f105 0174 	add.w	r1, r5, #116	; 0x74
 800c47e:	f000 f8dd 	bl	800c63c <_malloc_r>
 800c482:	4604      	mov	r4, r0
 800c484:	b140      	cbz	r0, 800c498 <__sfmoreglue+0x28>
 800c486:	2100      	movs	r1, #0
 800c488:	e9c0 1600 	strd	r1, r6, [r0]
 800c48c:	300c      	adds	r0, #12
 800c48e:	60a0      	str	r0, [r4, #8]
 800c490:	f105 0268 	add.w	r2, r5, #104	; 0x68
 800c494:	f000 f8ca 	bl	800c62c <memset>
 800c498:	4620      	mov	r0, r4
 800c49a:	bd70      	pop	{r4, r5, r6, pc}

0800c49c <__sinit>:
 800c49c:	6983      	ldr	r3, [r0, #24]
 800c49e:	b510      	push	{r4, lr}
 800c4a0:	4604      	mov	r4, r0
 800c4a2:	bb33      	cbnz	r3, 800c4f2 <__sinit+0x56>
 800c4a4:	e9c0 3312 	strd	r3, r3, [r0, #72]	; 0x48
 800c4a8:	6503      	str	r3, [r0, #80]	; 0x50
 800c4aa:	4b12      	ldr	r3, [pc, #72]	; (800c4f4 <__sinit+0x58>)
 800c4ac:	4a12      	ldr	r2, [pc, #72]	; (800c4f8 <__sinit+0x5c>)
 800c4ae:	681b      	ldr	r3, [r3, #0]
 800c4b0:	6282      	str	r2, [r0, #40]	; 0x28
 800c4b2:	4298      	cmp	r0, r3
 800c4b4:	bf04      	itt	eq
 800c4b6:	2301      	moveq	r3, #1
 800c4b8:	6183      	streq	r3, [r0, #24]
 800c4ba:	f000 f81f 	bl	800c4fc <__sfp>
 800c4be:	6060      	str	r0, [r4, #4]
 800c4c0:	4620      	mov	r0, r4
 800c4c2:	f000 f81b 	bl	800c4fc <__sfp>
 800c4c6:	60a0      	str	r0, [r4, #8]
 800c4c8:	4620      	mov	r0, r4
 800c4ca:	f000 f817 	bl	800c4fc <__sfp>
 800c4ce:	2200      	movs	r2, #0
 800c4d0:	60e0      	str	r0, [r4, #12]
 800c4d2:	2104      	movs	r1, #4
 800c4d4:	6860      	ldr	r0, [r4, #4]
 800c4d6:	f7ff ffa1 	bl	800c41c <std>
 800c4da:	2201      	movs	r2, #1
 800c4dc:	2109      	movs	r1, #9
 800c4de:	68a0      	ldr	r0, [r4, #8]
 800c4e0:	f7ff ff9c 	bl	800c41c <std>
 800c4e4:	2202      	movs	r2, #2
 800c4e6:	2112      	movs	r1, #18
 800c4e8:	68e0      	ldr	r0, [r4, #12]
 800c4ea:	f7ff ff97 	bl	800c41c <std>
 800c4ee:	2301      	movs	r3, #1
 800c4f0:	61a3      	str	r3, [r4, #24]
 800c4f2:	bd10      	pop	{r4, pc}
 800c4f4:	0800fad4 	.word	0x0800fad4
 800c4f8:	0800c465 	.word	0x0800c465

0800c4fc <__sfp>:
 800c4fc:	b5f8      	push	{r3, r4, r5, r6, r7, lr}
 800c4fe:	4b1b      	ldr	r3, [pc, #108]	; (800c56c <__sfp+0x70>)
 800c500:	681e      	ldr	r6, [r3, #0]
 800c502:	69b3      	ldr	r3, [r6, #24]
 800c504:	4607      	mov	r7, r0
 800c506:	b913      	cbnz	r3, 800c50e <__sfp+0x12>
 800c508:	4630      	mov	r0, r6
 800c50a:	f7ff ffc7 	bl	800c49c <__sinit>
 800c50e:	3648      	adds	r6, #72	; 0x48
 800c510:	e9d6 3401 	ldrd	r3, r4, [r6, #4]
 800c514:	3b01      	subs	r3, #1
 800c516:	d503      	bpl.n	800c520 <__sfp+0x24>
 800c518:	6833      	ldr	r3, [r6, #0]
 800c51a:	b133      	cbz	r3, 800c52a <__sfp+0x2e>
 800c51c:	6836      	ldr	r6, [r6, #0]
 800c51e:	e7f7      	b.n	800c510 <__sfp+0x14>
 800c520:	f9b4 500c 	ldrsh.w	r5, [r4, #12]
 800c524:	b16d      	cbz	r5, 800c542 <__sfp+0x46>
 800c526:	3468      	adds	r4, #104	; 0x68
 800c528:	e7f4      	b.n	800c514 <__sfp+0x18>
 800c52a:	2104      	movs	r1, #4
 800c52c:	4638      	mov	r0, r7
 800c52e:	f7ff ff9f 	bl	800c470 <__sfmoreglue>
 800c532:	6030      	str	r0, [r6, #0]
 800c534:	2800      	cmp	r0, #0
 800c536:	d1f1      	bne.n	800c51c <__sfp+0x20>
 800c538:	230c      	movs	r3, #12
 800c53a:	603b      	str	r3, [r7, #0]
 800c53c:	4604      	mov	r4, r0
 800c53e:	4620      	mov	r0, r4
 800c540:	bdf8      	pop	{r3, r4, r5, r6, r7, pc}
 800c542:	4b0b      	ldr	r3, [pc, #44]	; (800c570 <__sfp+0x74>)
 800c544:	6665      	str	r5, [r4, #100]	; 0x64
 800c546:	e9c4 5500 	strd	r5, r5, [r4]
 800c54a:	60a5      	str	r5, [r4, #8]
 800c54c:	e9c4 3503 	strd	r3, r5, [r4, #12]
 800c550:	e9c4 5505 	strd	r5, r5, [r4, #20]
 800c554:	2208      	movs	r2, #8
 800c556:	4629      	mov	r1, r5
 800c558:	f104 005c 	add.w	r0, r4, #92	; 0x5c
 800c55c:	f000 f866 	bl	800c62c <memset>
 800c560:	e9c4 550d 	strd	r5, r5, [r4, #52]	; 0x34
 800c564:	e9c4 5512 	strd	r5, r5, [r4, #72]	; 0x48
 800c568:	e7e9      	b.n	800c53e <__sfp+0x42>
 800c56a:	bf00      	nop
 800c56c:	0800fad4 	.word	0x0800fad4
 800c570:	ffff0001 	.word	0xffff0001

0800c574 <_fwalk_reent>:
 800c574:	e92d 43f8 	stmdb	sp!, {r3, r4, r5, r6, r7, r8, r9, lr}
 800c578:	4680      	mov	r8, r0
 800c57a:	4689      	mov	r9, r1
 800c57c:	f100 0448 	add.w	r4, r0, #72	; 0x48
 800c580:	2600      	movs	r6, #0
 800c582:	b914      	cbnz	r4, 800c58a <_fwalk_reent+0x16>
 800c584:	4630      	mov	r0, r6
 800c586:	e8bd 83f8 	ldmia.w	sp!, {r3, r4, r5, r6, r7, r8, r9, pc}
 800c58a:	e9d4 7501 	ldrd	r7, r5, [r4, #4]
 800c58e:	3f01      	subs	r7, #1
 800c590:	d501      	bpl.n	800c596 <_fwalk_reent+0x22>
 800c592:	6824      	ldr	r4, [r4, #0]
 800c594:	e7f5      	b.n	800c582 <_fwalk_reent+0xe>
 800c596:	89ab      	ldrh	r3, [r5, #12]
 800c598:	2b01      	cmp	r3, #1
 800c59a:	d907      	bls.n	800c5ac <_fwalk_reent+0x38>
 800c59c:	f9b5 300e 	ldrsh.w	r3, [r5, #14]
 800c5a0:	3301      	adds	r3, #1
 800c5a2:	d003      	beq.n	800c5ac <_fwalk_reent+0x38>
 800c5a4:	4629      	mov	r1, r5
 800c5a6:	4640      	mov	r0, r8
 800c5a8:	47c8      	blx	r9
 800c5aa:	4306      	orrs	r6, r0
 800c5ac:	3568      	adds	r5, #104	; 0x68
 800c5ae:	e7ee      	b.n	800c58e <_fwalk_reent+0x1a>

0800c5b0 <__libc_init_array>:
 800c5b0:	b570      	push	{r4, r5, r6, lr}
 800c5b2:	4e0d      	ldr	r6, [pc, #52]	; (800c5e8 <__libc_init_array+0x38>)
 800c5b4:	4c0d      	ldr	r4, [pc, #52]	; (800c5ec <__libc_init_array+0x3c>)
 800c5b6:	1ba4      	subs	r4, r4, r6
 800c5b8:	10a4      	asrs	r4, r4, #2
 800c5ba:	2500      	movs	r5, #0
 800c5bc:	42a5      	cmp	r5, r4
 800c5be:	d109      	bne.n	800c5d4 <__libc_init_array+0x24>
 800c5c0:	4e0b      	ldr	r6, [pc, #44]	; (800c5f0 <__libc_init_array+0x40>)
 800c5c2:	4c0c      	ldr	r4, [pc, #48]	; (800c5f4 <__libc_init_array+0x44>)
 800c5c4:	f000 ff16 	bl	800d3f4 <_init>
 800c5c8:	1ba4      	subs	r4, r4, r6
 800c5ca:	10a4      	asrs	r4, r4, #2
 800c5cc:	2500      	movs	r5, #0
 800c5ce:	42a5      	cmp	r5, r4
 800c5d0:	d105      	bne.n	800c5de <__libc_init_array+0x2e>
 800c5d2:	bd70      	pop	{r4, r5, r6, pc}
 800c5d4:	f856 3025 	ldr.w	r3, [r6, r5, lsl #2]
 800c5d8:	4798      	blx	r3
 800c5da:	3501      	adds	r5, #1
 800c5dc:	e7ee      	b.n	800c5bc <__libc_init_array+0xc>
 800c5de:	f856 3025 	ldr.w	r3, [r6, r5, lsl #2]
 800c5e2:	4798      	blx	r3
 800c5e4:	3501      	adds	r5, #1
 800c5e6:	e7f2      	b.n	800c5ce <__libc_init_array+0x1e>
 800c5e8:	0800fb14 	.word	0x0800fb14
 800c5ec:	0800fb14 	.word	0x0800fb14
 800c5f0:	0800fb14 	.word	0x0800fb14
 800c5f4:	0800fb18 	.word	0x0800fb18

0800c5f8 <memcmp>:
 800c5f8:	b530      	push	{r4, r5, lr}
 800c5fa:	2400      	movs	r4, #0
 800c5fc:	42a2      	cmp	r2, r4
 800c5fe:	d101      	bne.n	800c604 <memcmp+0xc>
 800c600:	2000      	movs	r0, #0
 800c602:	e007      	b.n	800c614 <memcmp+0x1c>
 800c604:	5d03      	ldrb	r3, [r0, r4]
 800c606:	3401      	adds	r4, #1
 800c608:	190d      	adds	r5, r1, r4
 800c60a:	f815 5c01 	ldrb.w	r5, [r5, #-1]
 800c60e:	42ab      	cmp	r3, r5
 800c610:	d0f4      	beq.n	800c5fc <memcmp+0x4>
 800c612:	1b58      	subs	r0, r3, r5
 800c614:	bd30      	pop	{r4, r5, pc}

0800c616 <memcpy>:
 800c616:	b510      	push	{r4, lr}
 800c618:	1e43      	subs	r3, r0, #1
 800c61a:	440a      	add	r2, r1
 800c61c:	4291      	cmp	r1, r2
 800c61e:	d100      	bne.n	800c622 <memcpy+0xc>
 800c620:	bd10      	pop	{r4, pc}
 800c622:	f811 4b01 	ldrb.w	r4, [r1], #1
 800c626:	f803 4f01 	strb.w	r4, [r3, #1]!
 800c62a:	e7f7      	b.n	800c61c <memcpy+0x6>

0800c62c <memset>:
 800c62c:	4402      	add	r2, r0
 800c62e:	4603      	mov	r3, r0
 800c630:	4293      	cmp	r3, r2
 800c632:	d100      	bne.n	800c636 <memset+0xa>
 800c634:	4770      	bx	lr
 800c636:	f803 1b01 	strb.w	r1, [r3], #1
 800c63a:	e7f9      	b.n	800c630 <memset+0x4>

0800c63c <_malloc_r>:
 800c63c:	b570      	push	{r4, r5, r6, lr}
 800c63e:	1ccd      	adds	r5, r1, #3
 800c640:	f025 0503 	bic.w	r5, r5, #3
 800c644:	3508      	adds	r5, #8
 800c646:	2d0c      	cmp	r5, #12
 800c648:	bf38      	it	cc
 800c64a:	250c      	movcc	r5, #12
 800c64c:	2d00      	cmp	r5, #0
 800c64e:	4606      	mov	r6, r0
 800c650:	db01      	blt.n	800c656 <_malloc_r+0x1a>
 800c652:	42a9      	cmp	r1, r5
 800c654:	d903      	bls.n	800c65e <_malloc_r+0x22>
 800c656:	230c      	movs	r3, #12
 800c658:	6033      	str	r3, [r6, #0]
 800c65a:	2000      	movs	r0, #0
 800c65c:	bd70      	pop	{r4, r5, r6, pc}
 800c65e:	f000 fa59 	bl	800cb14 <__malloc_lock>
 800c662:	4a21      	ldr	r2, [pc, #132]	; (800c6e8 <_malloc_r+0xac>)
 800c664:	6814      	ldr	r4, [r2, #0]
 800c666:	4621      	mov	r1, r4
 800c668:	b991      	cbnz	r1, 800c690 <_malloc_r+0x54>
 800c66a:	4c20      	ldr	r4, [pc, #128]	; (800c6ec <_malloc_r+0xb0>)
 800c66c:	6823      	ldr	r3, [r4, #0]
 800c66e:	b91b      	cbnz	r3, 800c678 <_malloc_r+0x3c>
 800c670:	4630      	mov	r0, r6
 800c672:	f000 f8f3 	bl	800c85c <_sbrk_r>
 800c676:	6020      	str	r0, [r4, #0]
 800c678:	4629      	mov	r1, r5
 800c67a:	4630      	mov	r0, r6
 800c67c:	f000 f8ee 	bl	800c85c <_sbrk_r>
 800c680:	1c43      	adds	r3, r0, #1
 800c682:	d124      	bne.n	800c6ce <_malloc_r+0x92>
 800c684:	230c      	movs	r3, #12
 800c686:	6033      	str	r3, [r6, #0]
 800c688:	4630      	mov	r0, r6
 800c68a:	f000 fa44 	bl	800cb16 <__malloc_unlock>
 800c68e:	e7e4      	b.n	800c65a <_malloc_r+0x1e>
 800c690:	680b      	ldr	r3, [r1, #0]
 800c692:	1b5b      	subs	r3, r3, r5
 800c694:	d418      	bmi.n	800c6c8 <_malloc_r+0x8c>
 800c696:	2b0b      	cmp	r3, #11
 800c698:	d90f      	bls.n	800c6ba <_malloc_r+0x7e>
 800c69a:	600b      	str	r3, [r1, #0]
 800c69c:	50cd      	str	r5, [r1, r3]
 800c69e:	18cc      	adds	r4, r1, r3
 800c6a0:	4630      	mov	r0, r6
 800c6a2:	f000 fa38 	bl	800cb16 <__malloc_unlock>
 800c6a6:	f104 000b 	add.w	r0, r4, #11
 800c6aa:	1d23      	adds	r3, r4, #4
 800c6ac:	f020 0007 	bic.w	r0, r0, #7
 800c6b0:	1ac3      	subs	r3, r0, r3
 800c6b2:	d0d3      	beq.n	800c65c <_malloc_r+0x20>
 800c6b4:	425a      	negs	r2, r3
 800c6b6:	50e2      	str	r2, [r4, r3]
 800c6b8:	e7d0      	b.n	800c65c <_malloc_r+0x20>
 800c6ba:	428c      	cmp	r4, r1
 800c6bc:	684b      	ldr	r3, [r1, #4]
 800c6be:	bf16      	itet	ne
 800c6c0:	6063      	strne	r3, [r4, #4]
 800c6c2:	6013      	streq	r3, [r2, #0]
 800c6c4:	460c      	movne	r4, r1
 800c6c6:	e7eb      	b.n	800c6a0 <_malloc_r+0x64>
 800c6c8:	460c      	mov	r4, r1
 800c6ca:	6849      	ldr	r1, [r1, #4]
 800c6cc:	e7cc      	b.n	800c668 <_malloc_r+0x2c>
 800c6ce:	1cc4      	adds	r4, r0, #3
 800c6d0:	f024 0403 	bic.w	r4, r4, #3
 800c6d4:	42a0      	cmp	r0, r4
 800c6d6:	d005      	beq.n	800c6e4 <_malloc_r+0xa8>
 800c6d8:	1a21      	subs	r1, r4, r0
 800c6da:	4630      	mov	r0, r6
 800c6dc:	f000 f8be 	bl	800c85c <_sbrk_r>
 800c6e0:	3001      	adds	r0, #1
 800c6e2:	d0cf      	beq.n	800c684 <_malloc_r+0x48>
 800c6e4:	6025      	str	r5, [r4, #0]
 800c6e6:	e7db      	b.n	800c6a0 <_malloc_r+0x64>
 800c6e8:	20004c04 	.word	0x20004c04
 800c6ec:	20004c08 	.word	0x20004c08

0800c6f0 <iprintf>:
 800c6f0:	b40f      	push	{r0, r1, r2, r3}
 800c6f2:	4b0a      	ldr	r3, [pc, #40]	; (800c71c <iprintf+0x2c>)
 800c6f4:	b513      	push	{r0, r1, r4, lr}
 800c6f6:	681c      	ldr	r4, [r3, #0]
 800c6f8:	b124      	cbz	r4, 800c704 <iprintf+0x14>
 800c6fa:	69a3      	ldr	r3, [r4, #24]
 800c6fc:	b913      	cbnz	r3, 800c704 <iprintf+0x14>
 800c6fe:	4620      	mov	r0, r4
 800c700:	f7ff fecc 	bl	800c49c <__sinit>
 800c704:	ab05      	add	r3, sp, #20
 800c706:	9a04      	ldr	r2, [sp, #16]
 800c708:	68a1      	ldr	r1, [r4, #8]
 800c70a:	9301      	str	r3, [sp, #4]
 800c70c:	4620      	mov	r0, r4
 800c70e:	f000 fa7b 	bl	800cc08 <_vfiprintf_r>
 800c712:	b002      	add	sp, #8
 800c714:	e8bd 4010 	ldmia.w	sp!, {r4, lr}
 800c718:	b004      	add	sp, #16
 800c71a:	4770      	bx	lr
 800c71c:	2000001c 	.word	0x2000001c

0800c720 <rand>:
 800c720:	b538      	push	{r3, r4, r5, lr}
 800c722:	4b13      	ldr	r3, [pc, #76]	; (800c770 <rand+0x50>)
 800c724:	681c      	ldr	r4, [r3, #0]
 800c726:	6ba3      	ldr	r3, [r4, #56]	; 0x38
 800c728:	b97b      	cbnz	r3, 800c74a <rand+0x2a>
 800c72a:	2018      	movs	r0, #24
 800c72c:	f000 f9ea 	bl	800cb04 <malloc>
 800c730:	4a10      	ldr	r2, [pc, #64]	; (800c774 <rand+0x54>)
 800c732:	4b11      	ldr	r3, [pc, #68]	; (800c778 <rand+0x58>)
 800c734:	63a0      	str	r0, [r4, #56]	; 0x38
 800c736:	e9c0 2300 	strd	r2, r3, [r0]
 800c73a:	4b10      	ldr	r3, [pc, #64]	; (800c77c <rand+0x5c>)
 800c73c:	6083      	str	r3, [r0, #8]
 800c73e:	230b      	movs	r3, #11
 800c740:	8183      	strh	r3, [r0, #12]
 800c742:	2201      	movs	r2, #1
 800c744:	2300      	movs	r3, #0
 800c746:	e9c0 2304 	strd	r2, r3, [r0, #16]
 800c74a:	6ba1      	ldr	r1, [r4, #56]	; 0x38
 800c74c:	480c      	ldr	r0, [pc, #48]	; (800c780 <rand+0x60>)
 800c74e:	690a      	ldr	r2, [r1, #16]
 800c750:	694b      	ldr	r3, [r1, #20]
 800c752:	4c0c      	ldr	r4, [pc, #48]	; (800c784 <rand+0x64>)
 800c754:	4350      	muls	r0, r2
 800c756:	fb04 0003 	mla	r0, r4, r3, r0
 800c75a:	fba2 2304 	umull	r2, r3, r2, r4
 800c75e:	4403      	add	r3, r0
 800c760:	1c54      	adds	r4, r2, #1
 800c762:	f143 0500 	adc.w	r5, r3, #0
 800c766:	e9c1 4504 	strd	r4, r5, [r1, #16]
 800c76a:	f025 4000 	bic.w	r0, r5, #2147483648	; 0x80000000
 800c76e:	bd38      	pop	{r3, r4, r5, pc}
 800c770:	2000001c 	.word	0x2000001c
 800c774:	abcd330e 	.word	0xabcd330e
 800c778:	e66d1234 	.word	0xe66d1234
 800c77c:	0005deec 	.word	0x0005deec
 800c780:	5851f42d 	.word	0x5851f42d
 800c784:	4c957f2d 	.word	0x4c957f2d

0800c788 <cleanup_glue>:
 800c788:	b538      	push	{r3, r4, r5, lr}
 800c78a:	460c      	mov	r4, r1
 800c78c:	6809      	ldr	r1, [r1, #0]
 800c78e:	4605      	mov	r5, r0
 800c790:	b109      	cbz	r1, 800c796 <cleanup_glue+0xe>
 800c792:	f7ff fff9 	bl	800c788 <cleanup_glue>
 800c796:	4621      	mov	r1, r4
 800c798:	4628      	mov	r0, r5
 800c79a:	e8bd 4038 	ldmia.w	sp!, {r3, r4, r5, lr}
 800c79e:	f000 b9bb 	b.w	800cb18 <_free_r>
	...

0800c7a4 <_reclaim_reent>:
 800c7a4:	4b2c      	ldr	r3, [pc, #176]	; (800c858 <_reclaim_reent+0xb4>)
 800c7a6:	681b      	ldr	r3, [r3, #0]
 800c7a8:	4283      	cmp	r3, r0
 800c7aa:	b570      	push	{r4, r5, r6, lr}
 800c7ac:	4604      	mov	r4, r0
 800c7ae:	d051      	beq.n	800c854 <_reclaim_reent+0xb0>
 800c7b0:	6a43      	ldr	r3, [r0, #36]	; 0x24
 800c7b2:	b143      	cbz	r3, 800c7c6 <_reclaim_reent+0x22>
 800c7b4:	68db      	ldr	r3, [r3, #12]
 800c7b6:	2b00      	cmp	r3, #0
 800c7b8:	d14a      	bne.n	800c850 <_reclaim_reent+0xac>
 800c7ba:	6a63      	ldr	r3, [r4, #36]	; 0x24
 800c7bc:	6819      	ldr	r1, [r3, #0]
 800c7be:	b111      	cbz	r1, 800c7c6 <_reclaim_reent+0x22>
 800c7c0:	4620      	mov	r0, r4
 800c7c2:	f000 f9a9 	bl	800cb18 <_free_r>
 800c7c6:	6961      	ldr	r1, [r4, #20]
 800c7c8:	b111      	cbz	r1, 800c7d0 <_reclaim_reent+0x2c>
 800c7ca:	4620      	mov	r0, r4
 800c7cc:	f000 f9a4 	bl	800cb18 <_free_r>
 800c7d0:	6a61      	ldr	r1, [r4, #36]	; 0x24
 800c7d2:	b111      	cbz	r1, 800c7da <_reclaim_reent+0x36>
 800c7d4:	4620      	mov	r0, r4
 800c7d6:	f000 f99f 	bl	800cb18 <_free_r>
 800c7da:	6ba1      	ldr	r1, [r4, #56]	; 0x38
 800c7dc:	b111      	cbz	r1, 800c7e4 <_reclaim_reent+0x40>
 800c7de:	4620      	mov	r0, r4
 800c7e0:	f000 f99a 	bl	800cb18 <_free_r>
 800c7e4:	6be1      	ldr	r1, [r4, #60]	; 0x3c
 800c7e6:	b111      	cbz	r1, 800c7ee <_reclaim_reent+0x4a>
 800c7e8:	4620      	mov	r0, r4
 800c7ea:	f000 f995 	bl	800cb18 <_free_r>
 800c7ee:	6c21      	ldr	r1, [r4, #64]	; 0x40
 800c7f0:	b111      	cbz	r1, 800c7f8 <_reclaim_reent+0x54>
 800c7f2:	4620      	mov	r0, r4
 800c7f4:	f000 f990 	bl	800cb18 <_free_r>
 800c7f8:	6de1      	ldr	r1, [r4, #92]	; 0x5c
 800c7fa:	b111      	cbz	r1, 800c802 <_reclaim_reent+0x5e>
 800c7fc:	4620      	mov	r0, r4
 800c7fe:	f000 f98b 	bl	800cb18 <_free_r>
 800c802:	6da1      	ldr	r1, [r4, #88]	; 0x58
 800c804:	b111      	cbz	r1, 800c80c <_reclaim_reent+0x68>
 800c806:	4620      	mov	r0, r4
 800c808:	f000 f986 	bl	800cb18 <_free_r>
 800c80c:	6b61      	ldr	r1, [r4, #52]	; 0x34
 800c80e:	b111      	cbz	r1, 800c816 <_reclaim_reent+0x72>
 800c810:	4620      	mov	r0, r4
 800c812:	f000 f981 	bl	800cb18 <_free_r>
 800c816:	69a3      	ldr	r3, [r4, #24]
 800c818:	b1e3      	cbz	r3, 800c854 <_reclaim_reent+0xb0>
 800c81a:	6aa3      	ldr	r3, [r4, #40]	; 0x28
 800c81c:	4620      	mov	r0, r4
 800c81e:	4798      	blx	r3
 800c820:	6ca1      	ldr	r1, [r4, #72]	; 0x48
 800c822:	b1b9      	cbz	r1, 800c854 <_reclaim_reent+0xb0>
 800c824:	4620      	mov	r0, r4
 800c826:	e8bd 4070 	ldmia.w	sp!, {r4, r5, r6, lr}
 800c82a:	f7ff bfad 	b.w	800c788 <cleanup_glue>
 800c82e:	5949      	ldr	r1, [r1, r5]
 800c830:	b941      	cbnz	r1, 800c844 <_reclaim_reent+0xa0>
 800c832:	3504      	adds	r5, #4
 800c834:	6a63      	ldr	r3, [r4, #36]	; 0x24
 800c836:	2d80      	cmp	r5, #128	; 0x80
 800c838:	68d9      	ldr	r1, [r3, #12]
 800c83a:	d1f8      	bne.n	800c82e <_reclaim_reent+0x8a>
 800c83c:	4620      	mov	r0, r4
 800c83e:	f000 f96b 	bl	800cb18 <_free_r>
 800c842:	e7ba      	b.n	800c7ba <_reclaim_reent+0x16>
 800c844:	680e      	ldr	r6, [r1, #0]
 800c846:	4620      	mov	r0, r4
 800c848:	f000 f966 	bl	800cb18 <_free_r>
 800c84c:	4631      	mov	r1, r6
 800c84e:	e7ef      	b.n	800c830 <_reclaim_reent+0x8c>
 800c850:	2500      	movs	r5, #0
 800c852:	e7ef      	b.n	800c834 <_reclaim_reent+0x90>
 800c854:	bd70      	pop	{r4, r5, r6, pc}
 800c856:	bf00      	nop
 800c858:	2000001c 	.word	0x2000001c

0800c85c <_sbrk_r>:
 800c85c:	b538      	push	{r3, r4, r5, lr}
 800c85e:	4c06      	ldr	r4, [pc, #24]	; (800c878 <_sbrk_r+0x1c>)
 800c860:	2300      	movs	r3, #0
 800c862:	4605      	mov	r5, r0
 800c864:	4608      	mov	r0, r1
 800c866:	6023      	str	r3, [r4, #0]
 800c868:	f7f4 f854 	bl	8000914 <_sbrk>
 800c86c:	1c43      	adds	r3, r0, #1
 800c86e:	d102      	bne.n	800c876 <_sbrk_r+0x1a>
 800c870:	6823      	ldr	r3, [r4, #0]
 800c872:	b103      	cbz	r3, 800c876 <_sbrk_r+0x1a>
 800c874:	602b      	str	r3, [r5, #0]
 800c876:	bd38      	pop	{r3, r4, r5, pc}
 800c878:	2000b55c 	.word	0x2000b55c

0800c87c <__sread>:
 800c87c:	b510      	push	{r4, lr}
 800c87e:	460c      	mov	r4, r1
 800c880:	f9b1 100e 	ldrsh.w	r1, [r1, #14]
 800c884:	f000 fc5e 	bl	800d144 <_read_r>
 800c888:	2800      	cmp	r0, #0
 800c88a:	bfab      	itete	ge
 800c88c:	6d63      	ldrge	r3, [r4, #84]	; 0x54
 800c88e:	89a3      	ldrhlt	r3, [r4, #12]
 800c890:	181b      	addge	r3, r3, r0
 800c892:	f423 5380 	biclt.w	r3, r3, #4096	; 0x1000
 800c896:	bfac      	ite	ge
 800c898:	6563      	strge	r3, [r4, #84]	; 0x54
 800c89a:	81a3      	strhlt	r3, [r4, #12]
 800c89c:	bd10      	pop	{r4, pc}

0800c89e <__swrite>:
 800c89e:	e92d 41f0 	stmdb	sp!, {r4, r5, r6, r7, r8, lr}
 800c8a2:	461f      	mov	r7, r3
 800c8a4:	898b      	ldrh	r3, [r1, #12]
 800c8a6:	05db      	lsls	r3, r3, #23
 800c8a8:	4605      	mov	r5, r0
 800c8aa:	460c      	mov	r4, r1
 800c8ac:	4616      	mov	r6, r2
 800c8ae:	d505      	bpl.n	800c8bc <__swrite+0x1e>
 800c8b0:	2302      	movs	r3, #2
 800c8b2:	2200      	movs	r2, #0
 800c8b4:	f9b1 100e 	ldrsh.w	r1, [r1, #14]
 800c8b8:	f000 f912 	bl	800cae0 <_lseek_r>
 800c8bc:	89a3      	ldrh	r3, [r4, #12]
 800c8be:	f9b4 100e 	ldrsh.w	r1, [r4, #14]
 800c8c2:	f423 5380 	bic.w	r3, r3, #4096	; 0x1000
 800c8c6:	81a3      	strh	r3, [r4, #12]
 800c8c8:	4632      	mov	r2, r6
 800c8ca:	463b      	mov	r3, r7
 800c8cc:	4628      	mov	r0, r5
 800c8ce:	e8bd 41f0 	ldmia.w	sp!, {r4, r5, r6, r7, r8, lr}
 800c8d2:	f000 b833 	b.w	800c93c <_write_r>

0800c8d6 <__sseek>:
 800c8d6:	b510      	push	{r4, lr}
 800c8d8:	460c      	mov	r4, r1
 800c8da:	f9b1 100e 	ldrsh.w	r1, [r1, #14]
 800c8de:	f000 f8ff 	bl	800cae0 <_lseek_r>
 800c8e2:	1c43      	adds	r3, r0, #1
 800c8e4:	89a3      	ldrh	r3, [r4, #12]
 800c8e6:	bf15      	itete	ne
 800c8e8:	6560      	strne	r0, [r4, #84]	; 0x54
 800c8ea:	f423 5380 	biceq.w	r3, r3, #4096	; 0x1000
 800c8ee:	f443 5380 	orrne.w	r3, r3, #4096	; 0x1000
 800c8f2:	81a3      	strheq	r3, [r4, #12]
 800c8f4:	bf18      	it	ne
 800c8f6:	81a3      	strhne	r3, [r4, #12]
 800c8f8:	bd10      	pop	{r4, pc}

0800c8fa <__sclose>:
 800c8fa:	f9b1 100e 	ldrsh.w	r1, [r1, #14]
 800c8fe:	f000 b82f 	b.w	800c960 <_close_r>

0800c902 <strcpy>:
 800c902:	4603      	mov	r3, r0
 800c904:	f811 2b01 	ldrb.w	r2, [r1], #1
 800c908:	f803 2b01 	strb.w	r2, [r3], #1
 800c90c:	2a00      	cmp	r2, #0
 800c90e:	d1f9      	bne.n	800c904 <strcpy+0x2>
 800c910:	4770      	bx	lr

0800c912 <strncpy>:
 800c912:	b570      	push	{r4, r5, r6, lr}
 800c914:	3901      	subs	r1, #1
 800c916:	4604      	mov	r4, r0
 800c918:	b902      	cbnz	r2, 800c91c <strncpy+0xa>
 800c91a:	bd70      	pop	{r4, r5, r6, pc}
 800c91c:	4623      	mov	r3, r4
 800c91e:	f811 5f01 	ldrb.w	r5, [r1, #1]!
 800c922:	f803 5b01 	strb.w	r5, [r3], #1
 800c926:	1e56      	subs	r6, r2, #1
 800c928:	b92d      	cbnz	r5, 800c936 <strncpy+0x24>
 800c92a:	4414      	add	r4, r2
 800c92c:	42a3      	cmp	r3, r4
 800c92e:	d0f4      	beq.n	800c91a <strncpy+0x8>
 800c930:	f803 5b01 	strb.w	r5, [r3], #1
 800c934:	e7fa      	b.n	800c92c <strncpy+0x1a>
 800c936:	461c      	mov	r4, r3
 800c938:	4632      	mov	r2, r6
 800c93a:	e7ed      	b.n	800c918 <strncpy+0x6>

0800c93c <_write_r>:
 800c93c:	b538      	push	{r3, r4, r5, lr}
 800c93e:	4c07      	ldr	r4, [pc, #28]	; (800c95c <_write_r+0x20>)
 800c940:	4605      	mov	r5, r0
 800c942:	4608      	mov	r0, r1
 800c944:	4611      	mov	r1, r2
 800c946:	2200      	movs	r2, #0
 800c948:	6022      	str	r2, [r4, #0]
 800c94a:	461a      	mov	r2, r3
 800c94c:	f7f3 ffc8 	bl	80008e0 <_write>
 800c950:	1c43      	adds	r3, r0, #1
 800c952:	d102      	bne.n	800c95a <_write_r+0x1e>
 800c954:	6823      	ldr	r3, [r4, #0]
 800c956:	b103      	cbz	r3, 800c95a <_write_r+0x1e>
 800c958:	602b      	str	r3, [r5, #0]
 800c95a:	bd38      	pop	{r3, r4, r5, pc}
 800c95c:	2000b55c 	.word	0x2000b55c

0800c960 <_close_r>:
 800c960:	b538      	push	{r3, r4, r5, lr}
 800c962:	4c06      	ldr	r4, [pc, #24]	; (800c97c <_close_r+0x1c>)
 800c964:	2300      	movs	r3, #0
 800c966:	4605      	mov	r5, r0
 800c968:	4608      	mov	r0, r1
 800c96a:	6023      	str	r3, [r4, #0]
 800c96c:	f7f3 ffc6 	bl	80008fc <_close>
 800c970:	1c43      	adds	r3, r0, #1
 800c972:	d102      	bne.n	800c97a <_close_r+0x1a>
 800c974:	6823      	ldr	r3, [r4, #0]
 800c976:	b103      	cbz	r3, 800c97a <_close_r+0x1a>
 800c978:	602b      	str	r3, [r5, #0]
 800c97a:	bd38      	pop	{r3, r4, r5, pc}
 800c97c:	2000b55c 	.word	0x2000b55c

0800c980 <__sflush_r>:
 800c980:	898a      	ldrh	r2, [r1, #12]
 800c982:	e92d 41f0 	stmdb	sp!, {r4, r5, r6, r7, r8, lr}
 800c986:	4605      	mov	r5, r0
 800c988:	0710      	lsls	r0, r2, #28
 800c98a:	460c      	mov	r4, r1
 800c98c:	d458      	bmi.n	800ca40 <__sflush_r+0xc0>
 800c98e:	684b      	ldr	r3, [r1, #4]
 800c990:	2b00      	cmp	r3, #0
 800c992:	dc05      	bgt.n	800c9a0 <__sflush_r+0x20>
 800c994:	6c0b      	ldr	r3, [r1, #64]	; 0x40
 800c996:	2b00      	cmp	r3, #0
 800c998:	dc02      	bgt.n	800c9a0 <__sflush_r+0x20>
 800c99a:	2000      	movs	r0, #0
 800c99c:	e8bd 81f0 	ldmia.w	sp!, {r4, r5, r6, r7, r8, pc}
 800c9a0:	6ae6      	ldr	r6, [r4, #44]	; 0x2c
 800c9a2:	2e00      	cmp	r6, #0
 800c9a4:	d0f9      	beq.n	800c99a <__sflush_r+0x1a>
 800c9a6:	2300      	movs	r3, #0
 800c9a8:	f412 5280 	ands.w	r2, r2, #4096	; 0x1000
 800c9ac:	682f      	ldr	r7, [r5, #0]
 800c9ae:	6a21      	ldr	r1, [r4, #32]
 800c9b0:	602b      	str	r3, [r5, #0]
 800c9b2:	d032      	beq.n	800ca1a <__sflush_r+0x9a>
 800c9b4:	6d60      	ldr	r0, [r4, #84]	; 0x54
 800c9b6:	89a3      	ldrh	r3, [r4, #12]
 800c9b8:	075a      	lsls	r2, r3, #29
 800c9ba:	d505      	bpl.n	800c9c8 <__sflush_r+0x48>
 800c9bc:	6863      	ldr	r3, [r4, #4]
 800c9be:	1ac0      	subs	r0, r0, r3
 800c9c0:	6b63      	ldr	r3, [r4, #52]	; 0x34
 800c9c2:	b10b      	cbz	r3, 800c9c8 <__sflush_r+0x48>
 800c9c4:	6c23      	ldr	r3, [r4, #64]	; 0x40
 800c9c6:	1ac0      	subs	r0, r0, r3
 800c9c8:	2300      	movs	r3, #0
 800c9ca:	4602      	mov	r2, r0
 800c9cc:	6ae6      	ldr	r6, [r4, #44]	; 0x2c
 800c9ce:	6a21      	ldr	r1, [r4, #32]
 800c9d0:	4628      	mov	r0, r5
 800c9d2:	47b0      	blx	r6
 800c9d4:	1c43      	adds	r3, r0, #1
 800c9d6:	89a3      	ldrh	r3, [r4, #12]
 800c9d8:	d106      	bne.n	800c9e8 <__sflush_r+0x68>
 800c9da:	6829      	ldr	r1, [r5, #0]
 800c9dc:	291d      	cmp	r1, #29
 800c9de:	d848      	bhi.n	800ca72 <__sflush_r+0xf2>
 800c9e0:	4a29      	ldr	r2, [pc, #164]	; (800ca88 <__sflush_r+0x108>)
 800c9e2:	40ca      	lsrs	r2, r1
 800c9e4:	07d6      	lsls	r6, r2, #31
 800c9e6:	d544      	bpl.n	800ca72 <__sflush_r+0xf2>
 800c9e8:	2200      	movs	r2, #0
 800c9ea:	6062      	str	r2, [r4, #4]
 800c9ec:	04d9      	lsls	r1, r3, #19
 800c9ee:	6922      	ldr	r2, [r4, #16]
 800c9f0:	6022      	str	r2, [r4, #0]
 800c9f2:	d504      	bpl.n	800c9fe <__sflush_r+0x7e>
 800c9f4:	1c42      	adds	r2, r0, #1
 800c9f6:	d101      	bne.n	800c9fc <__sflush_r+0x7c>
 800c9f8:	682b      	ldr	r3, [r5, #0]
 800c9fa:	b903      	cbnz	r3, 800c9fe <__sflush_r+0x7e>
 800c9fc:	6560      	str	r0, [r4, #84]	; 0x54
 800c9fe:	6b61      	ldr	r1, [r4, #52]	; 0x34
 800ca00:	602f      	str	r7, [r5, #0]
 800ca02:	2900      	cmp	r1, #0
 800ca04:	d0c9      	beq.n	800c99a <__sflush_r+0x1a>
 800ca06:	f104 0344 	add.w	r3, r4, #68	; 0x44
 800ca0a:	4299      	cmp	r1, r3
 800ca0c:	d002      	beq.n	800ca14 <__sflush_r+0x94>
 800ca0e:	4628      	mov	r0, r5
 800ca10:	f000 f882 	bl	800cb18 <_free_r>
 800ca14:	2000      	movs	r0, #0
 800ca16:	6360      	str	r0, [r4, #52]	; 0x34
 800ca18:	e7c0      	b.n	800c99c <__sflush_r+0x1c>
 800ca1a:	2301      	movs	r3, #1
 800ca1c:	4628      	mov	r0, r5
 800ca1e:	47b0      	blx	r6
 800ca20:	1c41      	adds	r1, r0, #1
 800ca22:	d1c8      	bne.n	800c9b6 <__sflush_r+0x36>
 800ca24:	682b      	ldr	r3, [r5, #0]
 800ca26:	2b00      	cmp	r3, #0
 800ca28:	d0c5      	beq.n	800c9b6 <__sflush_r+0x36>
 800ca2a:	2b1d      	cmp	r3, #29
 800ca2c:	d001      	beq.n	800ca32 <__sflush_r+0xb2>
 800ca2e:	2b16      	cmp	r3, #22
 800ca30:	d101      	bne.n	800ca36 <__sflush_r+0xb6>
 800ca32:	602f      	str	r7, [r5, #0]
 800ca34:	e7b1      	b.n	800c99a <__sflush_r+0x1a>
 800ca36:	89a3      	ldrh	r3, [r4, #12]
 800ca38:	f043 0340 	orr.w	r3, r3, #64	; 0x40
 800ca3c:	81a3      	strh	r3, [r4, #12]
 800ca3e:	e7ad      	b.n	800c99c <__sflush_r+0x1c>
 800ca40:	690f      	ldr	r7, [r1, #16]
 800ca42:	2f00      	cmp	r7, #0
 800ca44:	d0a9      	beq.n	800c99a <__sflush_r+0x1a>
 800ca46:	0793      	lsls	r3, r2, #30
 800ca48:	680e      	ldr	r6, [r1, #0]
 800ca4a:	bf08      	it	eq
 800ca4c:	694b      	ldreq	r3, [r1, #20]
 800ca4e:	600f      	str	r7, [r1, #0]
 800ca50:	bf18      	it	ne
 800ca52:	2300      	movne	r3, #0
 800ca54:	eba6 0807 	sub.w	r8, r6, r7
 800ca58:	608b      	str	r3, [r1, #8]
 800ca5a:	f1b8 0f00 	cmp.w	r8, #0
 800ca5e:	dd9c      	ble.n	800c99a <__sflush_r+0x1a>
 800ca60:	4643      	mov	r3, r8
 800ca62:	463a      	mov	r2, r7
 800ca64:	6a21      	ldr	r1, [r4, #32]
 800ca66:	6aa6      	ldr	r6, [r4, #40]	; 0x28
 800ca68:	4628      	mov	r0, r5
 800ca6a:	47b0      	blx	r6
 800ca6c:	2800      	cmp	r0, #0
 800ca6e:	dc06      	bgt.n	800ca7e <__sflush_r+0xfe>
 800ca70:	89a3      	ldrh	r3, [r4, #12]
 800ca72:	f043 0340 	orr.w	r3, r3, #64	; 0x40
 800ca76:	81a3      	strh	r3, [r4, #12]
 800ca78:	f04f 30ff 	mov.w	r0, #4294967295
 800ca7c:	e78e      	b.n	800c99c <__sflush_r+0x1c>
 800ca7e:	4407      	add	r7, r0
 800ca80:	eba8 0800 	sub.w	r8, r8, r0
 800ca84:	e7e9      	b.n	800ca5a <__sflush_r+0xda>
 800ca86:	bf00      	nop
 800ca88:	20400001 	.word	0x20400001

0800ca8c <_fflush_r>:
 800ca8c:	b538      	push	{r3, r4, r5, lr}
 800ca8e:	690b      	ldr	r3, [r1, #16]
 800ca90:	4605      	mov	r5, r0
 800ca92:	460c      	mov	r4, r1
 800ca94:	b1db      	cbz	r3, 800cace <_fflush_r+0x42>
 800ca96:	b118      	cbz	r0, 800caa0 <_fflush_r+0x14>
 800ca98:	6983      	ldr	r3, [r0, #24]
 800ca9a:	b90b      	cbnz	r3, 800caa0 <_fflush_r+0x14>
 800ca9c:	f7ff fcfe 	bl	800c49c <__sinit>
 800caa0:	4b0c      	ldr	r3, [pc, #48]	; (800cad4 <_fflush_r+0x48>)
 800caa2:	429c      	cmp	r4, r3
 800caa4:	d109      	bne.n	800caba <_fflush_r+0x2e>
 800caa6:	686c      	ldr	r4, [r5, #4]
 800caa8:	f9b4 300c 	ldrsh.w	r3, [r4, #12]
 800caac:	b17b      	cbz	r3, 800cace <_fflush_r+0x42>
 800caae:	4621      	mov	r1, r4
 800cab0:	4628      	mov	r0, r5
 800cab2:	e8bd 4038 	ldmia.w	sp!, {r3, r4, r5, lr}
 800cab6:	f7ff bf63 	b.w	800c980 <__sflush_r>
 800caba:	4b07      	ldr	r3, [pc, #28]	; (800cad8 <_fflush_r+0x4c>)
 800cabc:	429c      	cmp	r4, r3
 800cabe:	d101      	bne.n	800cac4 <_fflush_r+0x38>
 800cac0:	68ac      	ldr	r4, [r5, #8]
 800cac2:	e7f1      	b.n	800caa8 <_fflush_r+0x1c>
 800cac4:	4b05      	ldr	r3, [pc, #20]	; (800cadc <_fflush_r+0x50>)
 800cac6:	429c      	cmp	r4, r3
 800cac8:	bf08      	it	eq
 800caca:	68ec      	ldreq	r4, [r5, #12]
 800cacc:	e7ec      	b.n	800caa8 <_fflush_r+0x1c>
 800cace:	2000      	movs	r0, #0
 800cad0:	bd38      	pop	{r3, r4, r5, pc}
 800cad2:	bf00      	nop
 800cad4:	0800fa94 	.word	0x0800fa94
 800cad8:	0800fab4 	.word	0x0800fab4
 800cadc:	0800fa74 	.word	0x0800fa74

0800cae0 <_lseek_r>:
 800cae0:	b538      	push	{r3, r4, r5, lr}
 800cae2:	4c07      	ldr	r4, [pc, #28]	; (800cb00 <_lseek_r+0x20>)
 800cae4:	4605      	mov	r5, r0
 800cae6:	4608      	mov	r0, r1
 800cae8:	4611      	mov	r1, r2
 800caea:	2200      	movs	r2, #0
 800caec:	6022      	str	r2, [r4, #0]
 800caee:	461a      	mov	r2, r3
 800caf0:	f7f3 ff0e 	bl	8000910 <_lseek>
 800caf4:	1c43      	adds	r3, r0, #1
 800caf6:	d102      	bne.n	800cafe <_lseek_r+0x1e>
 800caf8:	6823      	ldr	r3, [r4, #0]
 800cafa:	b103      	cbz	r3, 800cafe <_lseek_r+0x1e>
 800cafc:	602b      	str	r3, [r5, #0]
 800cafe:	bd38      	pop	{r3, r4, r5, pc}
 800cb00:	2000b55c 	.word	0x2000b55c

0800cb04 <malloc>:
 800cb04:	4b02      	ldr	r3, [pc, #8]	; (800cb10 <malloc+0xc>)
 800cb06:	4601      	mov	r1, r0
 800cb08:	6818      	ldr	r0, [r3, #0]
 800cb0a:	f7ff bd97 	b.w	800c63c <_malloc_r>
 800cb0e:	bf00      	nop
 800cb10:	2000001c 	.word	0x2000001c

0800cb14 <__malloc_lock>:
 800cb14:	4770      	bx	lr

0800cb16 <__malloc_unlock>:
 800cb16:	4770      	bx	lr

0800cb18 <_free_r>:
 800cb18:	b538      	push	{r3, r4, r5, lr}
 800cb1a:	4605      	mov	r5, r0
 800cb1c:	2900      	cmp	r1, #0
 800cb1e:	d045      	beq.n	800cbac <_free_r+0x94>
 800cb20:	f851 3c04 	ldr.w	r3, [r1, #-4]
 800cb24:	1f0c      	subs	r4, r1, #4
 800cb26:	2b00      	cmp	r3, #0
 800cb28:	bfb8      	it	lt
 800cb2a:	18e4      	addlt	r4, r4, r3
 800cb2c:	f7ff fff2 	bl	800cb14 <__malloc_lock>
 800cb30:	4a1f      	ldr	r2, [pc, #124]	; (800cbb0 <_free_r+0x98>)
 800cb32:	6813      	ldr	r3, [r2, #0]
 800cb34:	4610      	mov	r0, r2
 800cb36:	b933      	cbnz	r3, 800cb46 <_free_r+0x2e>
 800cb38:	6063      	str	r3, [r4, #4]
 800cb3a:	6014      	str	r4, [r2, #0]
 800cb3c:	4628      	mov	r0, r5
 800cb3e:	e8bd 4038 	ldmia.w	sp!, {r3, r4, r5, lr}
 800cb42:	f7ff bfe8 	b.w	800cb16 <__malloc_unlock>
 800cb46:	42a3      	cmp	r3, r4
 800cb48:	d90c      	bls.n	800cb64 <_free_r+0x4c>
 800cb4a:	6821      	ldr	r1, [r4, #0]
 800cb4c:	1862      	adds	r2, r4, r1
 800cb4e:	4293      	cmp	r3, r2
 800cb50:	bf04      	itt	eq
 800cb52:	681a      	ldreq	r2, [r3, #0]
 800cb54:	685b      	ldreq	r3, [r3, #4]
 800cb56:	6063      	str	r3, [r4, #4]
 800cb58:	bf04      	itt	eq
 800cb5a:	1852      	addeq	r2, r2, r1
 800cb5c:	6022      	streq	r2, [r4, #0]
 800cb5e:	6004      	str	r4, [r0, #0]
 800cb60:	e7ec      	b.n	800cb3c <_free_r+0x24>
 800cb62:	4613      	mov	r3, r2
 800cb64:	685a      	ldr	r2, [r3, #4]
 800cb66:	b10a      	cbz	r2, 800cb6c <_free_r+0x54>
 800cb68:	42a2      	cmp	r2, r4
 800cb6a:	d9fa      	bls.n	800cb62 <_free_r+0x4a>
 800cb6c:	6819      	ldr	r1, [r3, #0]
 800cb6e:	1858      	adds	r0, r3, r1
 800cb70:	42a0      	cmp	r0, r4
 800cb72:	d10b      	bne.n	800cb8c <_free_r+0x74>
 800cb74:	6820      	ldr	r0, [r4, #0]
 800cb76:	4401      	add	r1, r0
 800cb78:	1858      	adds	r0, r3, r1
 800cb7a:	4282      	cmp	r2, r0
 800cb7c:	6019      	str	r1, [r3, #0]
 800cb7e:	d1dd      	bne.n	800cb3c <_free_r+0x24>
 800cb80:	6810      	ldr	r0, [r2, #0]
 800cb82:	6852      	ldr	r2, [r2, #4]
 800cb84:	605a      	str	r2, [r3, #4]
 800cb86:	4401      	add	r1, r0
 800cb88:	6019      	str	r1, [r3, #0]
 800cb8a:	e7d7      	b.n	800cb3c <_free_r+0x24>
 800cb8c:	d902      	bls.n	800cb94 <_free_r+0x7c>
 800cb8e:	230c      	movs	r3, #12
 800cb90:	602b      	str	r3, [r5, #0]
 800cb92:	e7d3      	b.n	800cb3c <_free_r+0x24>
 800cb94:	6820      	ldr	r0, [r4, #0]
 800cb96:	1821      	adds	r1, r4, r0
 800cb98:	428a      	cmp	r2, r1
 800cb9a:	bf04      	itt	eq
 800cb9c:	6811      	ldreq	r1, [r2, #0]
 800cb9e:	6852      	ldreq	r2, [r2, #4]
 800cba0:	6062      	str	r2, [r4, #4]
 800cba2:	bf04      	itt	eq
 800cba4:	1809      	addeq	r1, r1, r0
 800cba6:	6021      	streq	r1, [r4, #0]
 800cba8:	605c      	str	r4, [r3, #4]
 800cbaa:	e7c7      	b.n	800cb3c <_free_r+0x24>
 800cbac:	bd38      	pop	{r3, r4, r5, pc}
 800cbae:	bf00      	nop
 800cbb0:	20004c04 	.word	0x20004c04

0800cbb4 <__sfputc_r>:
 800cbb4:	6893      	ldr	r3, [r2, #8]
 800cbb6:	3b01      	subs	r3, #1
 800cbb8:	2b00      	cmp	r3, #0
 800cbba:	b410      	push	{r4}
 800cbbc:	6093      	str	r3, [r2, #8]
 800cbbe:	da08      	bge.n	800cbd2 <__sfputc_r+0x1e>
 800cbc0:	6994      	ldr	r4, [r2, #24]
 800cbc2:	42a3      	cmp	r3, r4
 800cbc4:	db01      	blt.n	800cbca <__sfputc_r+0x16>
 800cbc6:	290a      	cmp	r1, #10
 800cbc8:	d103      	bne.n	800cbd2 <__sfputc_r+0x1e>
 800cbca:	f85d 4b04 	ldr.w	r4, [sp], #4
 800cbce:	f000 bacb 	b.w	800d168 <__swbuf_r>
 800cbd2:	6813      	ldr	r3, [r2, #0]
 800cbd4:	1c58      	adds	r0, r3, #1
 800cbd6:	6010      	str	r0, [r2, #0]
 800cbd8:	7019      	strb	r1, [r3, #0]
 800cbda:	4608      	mov	r0, r1
 800cbdc:	f85d 4b04 	ldr.w	r4, [sp], #4
 800cbe0:	4770      	bx	lr

0800cbe2 <__sfputs_r>:
 800cbe2:	b5f8      	push	{r3, r4, r5, r6, r7, lr}
 800cbe4:	4606      	mov	r6, r0
 800cbe6:	460f      	mov	r7, r1
 800cbe8:	4614      	mov	r4, r2
 800cbea:	18d5      	adds	r5, r2, r3
 800cbec:	42ac      	cmp	r4, r5
 800cbee:	d101      	bne.n	800cbf4 <__sfputs_r+0x12>
 800cbf0:	2000      	movs	r0, #0
 800cbf2:	e007      	b.n	800cc04 <__sfputs_r+0x22>
 800cbf4:	463a      	mov	r2, r7
 800cbf6:	f814 1b01 	ldrb.w	r1, [r4], #1
 800cbfa:	4630      	mov	r0, r6
 800cbfc:	f7ff ffda 	bl	800cbb4 <__sfputc_r>
 800cc00:	1c43      	adds	r3, r0, #1
 800cc02:	d1f3      	bne.n	800cbec <__sfputs_r+0xa>
 800cc04:	bdf8      	pop	{r3, r4, r5, r6, r7, pc}
	...

0800cc08 <_vfiprintf_r>:
 800cc08:	e92d 4ff0 	stmdb	sp!, {r4, r5, r6, r7, r8, r9, sl, fp, lr}
 800cc0c:	460c      	mov	r4, r1
 800cc0e:	b09d      	sub	sp, #116	; 0x74
 800cc10:	4617      	mov	r7, r2
 800cc12:	461d      	mov	r5, r3
 800cc14:	4606      	mov	r6, r0
 800cc16:	b118      	cbz	r0, 800cc20 <_vfiprintf_r+0x18>
 800cc18:	6983      	ldr	r3, [r0, #24]
 800cc1a:	b90b      	cbnz	r3, 800cc20 <_vfiprintf_r+0x18>
 800cc1c:	f7ff fc3e 	bl	800c49c <__sinit>
 800cc20:	4b7c      	ldr	r3, [pc, #496]	; (800ce14 <_vfiprintf_r+0x20c>)
 800cc22:	429c      	cmp	r4, r3
 800cc24:	d158      	bne.n	800ccd8 <_vfiprintf_r+0xd0>
 800cc26:	6874      	ldr	r4, [r6, #4]
 800cc28:	89a3      	ldrh	r3, [r4, #12]
 800cc2a:	0718      	lsls	r0, r3, #28
 800cc2c:	d55e      	bpl.n	800ccec <_vfiprintf_r+0xe4>
 800cc2e:	6923      	ldr	r3, [r4, #16]
 800cc30:	2b00      	cmp	r3, #0
 800cc32:	d05b      	beq.n	800ccec <_vfiprintf_r+0xe4>
 800cc34:	2300      	movs	r3, #0
 800cc36:	9309      	str	r3, [sp, #36]	; 0x24
 800cc38:	2320      	movs	r3, #32
 800cc3a:	f88d 3029 	strb.w	r3, [sp, #41]	; 0x29
 800cc3e:	2330      	movs	r3, #48	; 0x30
 800cc40:	f88d 302a 	strb.w	r3, [sp, #42]	; 0x2a
 800cc44:	9503      	str	r5, [sp, #12]
 800cc46:	f04f 0b01 	mov.w	fp, #1
 800cc4a:	46b8      	mov	r8, r7
 800cc4c:	4645      	mov	r5, r8
 800cc4e:	f815 3b01 	ldrb.w	r3, [r5], #1
 800cc52:	b10b      	cbz	r3, 800cc58 <_vfiprintf_r+0x50>
 800cc54:	2b25      	cmp	r3, #37	; 0x25
 800cc56:	d154      	bne.n	800cd02 <_vfiprintf_r+0xfa>
 800cc58:	ebb8 0a07 	subs.w	sl, r8, r7
 800cc5c:	d00b      	beq.n	800cc76 <_vfiprintf_r+0x6e>
 800cc5e:	4653      	mov	r3, sl
 800cc60:	463a      	mov	r2, r7
 800cc62:	4621      	mov	r1, r4
 800cc64:	4630      	mov	r0, r6
 800cc66:	f7ff ffbc 	bl	800cbe2 <__sfputs_r>
 800cc6a:	3001      	adds	r0, #1
 800cc6c:	f000 80c2 	beq.w	800cdf4 <_vfiprintf_r+0x1ec>
 800cc70:	9b09      	ldr	r3, [sp, #36]	; 0x24
 800cc72:	4453      	add	r3, sl
 800cc74:	9309      	str	r3, [sp, #36]	; 0x24
 800cc76:	f898 3000 	ldrb.w	r3, [r8]
 800cc7a:	2b00      	cmp	r3, #0
 800cc7c:	f000 80ba 	beq.w	800cdf4 <_vfiprintf_r+0x1ec>
 800cc80:	2300      	movs	r3, #0
 800cc82:	f04f 32ff 	mov.w	r2, #4294967295
 800cc86:	e9cd 2305 	strd	r2, r3, [sp, #20]
 800cc8a:	9304      	str	r3, [sp, #16]
 800cc8c:	9307      	str	r3, [sp, #28]
 800cc8e:	f88d 3053 	strb.w	r3, [sp, #83]	; 0x53
 800cc92:	931a      	str	r3, [sp, #104]	; 0x68
 800cc94:	46a8      	mov	r8, r5
 800cc96:	2205      	movs	r2, #5
 800cc98:	f818 1b01 	ldrb.w	r1, [r8], #1
 800cc9c:	485e      	ldr	r0, [pc, #376]	; (800ce18 <_vfiprintf_r+0x210>)
 800cc9e:	f7f3 fab7 	bl	8000210 <memchr>
 800cca2:	9b04      	ldr	r3, [sp, #16]
 800cca4:	bb78      	cbnz	r0, 800cd06 <_vfiprintf_r+0xfe>
 800cca6:	06d9      	lsls	r1, r3, #27
 800cca8:	bf44      	itt	mi
 800ccaa:	2220      	movmi	r2, #32
 800ccac:	f88d 2053 	strbmi.w	r2, [sp, #83]	; 0x53
 800ccb0:	071a      	lsls	r2, r3, #28
 800ccb2:	bf44      	itt	mi
 800ccb4:	222b      	movmi	r2, #43	; 0x2b
 800ccb6:	f88d 2053 	strbmi.w	r2, [sp, #83]	; 0x53
 800ccba:	782a      	ldrb	r2, [r5, #0]
 800ccbc:	2a2a      	cmp	r2, #42	; 0x2a
 800ccbe:	d02a      	beq.n	800cd16 <_vfiprintf_r+0x10e>
 800ccc0:	9a07      	ldr	r2, [sp, #28]
 800ccc2:	46a8      	mov	r8, r5
 800ccc4:	2000      	movs	r0, #0
 800ccc6:	250a      	movs	r5, #10
 800ccc8:	4641      	mov	r1, r8
 800ccca:	f811 3b01 	ldrb.w	r3, [r1], #1
 800ccce:	3b30      	subs	r3, #48	; 0x30
 800ccd0:	2b09      	cmp	r3, #9
 800ccd2:	d969      	bls.n	800cda8 <_vfiprintf_r+0x1a0>
 800ccd4:	b360      	cbz	r0, 800cd30 <_vfiprintf_r+0x128>
 800ccd6:	e024      	b.n	800cd22 <_vfiprintf_r+0x11a>
 800ccd8:	4b50      	ldr	r3, [pc, #320]	; (800ce1c <_vfiprintf_r+0x214>)
 800ccda:	429c      	cmp	r4, r3
 800ccdc:	d101      	bne.n	800cce2 <_vfiprintf_r+0xda>
 800ccde:	68b4      	ldr	r4, [r6, #8]
 800cce0:	e7a2      	b.n	800cc28 <_vfiprintf_r+0x20>
 800cce2:	4b4f      	ldr	r3, [pc, #316]	; (800ce20 <_vfiprintf_r+0x218>)
 800cce4:	429c      	cmp	r4, r3
 800cce6:	bf08      	it	eq
 800cce8:	68f4      	ldreq	r4, [r6, #12]
 800ccea:	e79d      	b.n	800cc28 <_vfiprintf_r+0x20>
 800ccec:	4621      	mov	r1, r4
 800ccee:	4630      	mov	r0, r6
 800ccf0:	f000 fa8c 	bl	800d20c <__swsetup_r>
 800ccf4:	2800      	cmp	r0, #0
 800ccf6:	d09d      	beq.n	800cc34 <_vfiprintf_r+0x2c>
 800ccf8:	f04f 30ff 	mov.w	r0, #4294967295
 800ccfc:	b01d      	add	sp, #116	; 0x74
 800ccfe:	e8bd 8ff0 	ldmia.w	sp!, {r4, r5, r6, r7, r8, r9, sl, fp, pc}
 800cd02:	46a8      	mov	r8, r5
 800cd04:	e7a2      	b.n	800cc4c <_vfiprintf_r+0x44>
 800cd06:	4a44      	ldr	r2, [pc, #272]	; (800ce18 <_vfiprintf_r+0x210>)
 800cd08:	1a80      	subs	r0, r0, r2
 800cd0a:	fa0b f000 	lsl.w	r0, fp, r0
 800cd0e:	4318      	orrs	r0, r3
 800cd10:	9004      	str	r0, [sp, #16]
 800cd12:	4645      	mov	r5, r8
 800cd14:	e7be      	b.n	800cc94 <_vfiprintf_r+0x8c>
 800cd16:	9a03      	ldr	r2, [sp, #12]
 800cd18:	1d11      	adds	r1, r2, #4
 800cd1a:	6812      	ldr	r2, [r2, #0]
 800cd1c:	9103      	str	r1, [sp, #12]
 800cd1e:	2a00      	cmp	r2, #0
 800cd20:	db01      	blt.n	800cd26 <_vfiprintf_r+0x11e>
 800cd22:	9207      	str	r2, [sp, #28]
 800cd24:	e004      	b.n	800cd30 <_vfiprintf_r+0x128>
 800cd26:	4252      	negs	r2, r2
 800cd28:	f043 0302 	orr.w	r3, r3, #2
 800cd2c:	9207      	str	r2, [sp, #28]
 800cd2e:	9304      	str	r3, [sp, #16]
 800cd30:	f898 3000 	ldrb.w	r3, [r8]
 800cd34:	2b2e      	cmp	r3, #46	; 0x2e
 800cd36:	d10e      	bne.n	800cd56 <_vfiprintf_r+0x14e>
 800cd38:	f898 3001 	ldrb.w	r3, [r8, #1]
 800cd3c:	2b2a      	cmp	r3, #42	; 0x2a
 800cd3e:	d138      	bne.n	800cdb2 <_vfiprintf_r+0x1aa>
 800cd40:	9b03      	ldr	r3, [sp, #12]
 800cd42:	1d1a      	adds	r2, r3, #4
 800cd44:	681b      	ldr	r3, [r3, #0]
 800cd46:	9203      	str	r2, [sp, #12]
 800cd48:	2b00      	cmp	r3, #0
 800cd4a:	bfb8      	it	lt
 800cd4c:	f04f 33ff 	movlt.w	r3, #4294967295
 800cd50:	f108 0802 	add.w	r8, r8, #2
 800cd54:	9305      	str	r3, [sp, #20]
 800cd56:	4d33      	ldr	r5, [pc, #204]	; (800ce24 <_vfiprintf_r+0x21c>)
 800cd58:	f898 1000 	ldrb.w	r1, [r8]
 800cd5c:	2203      	movs	r2, #3
 800cd5e:	4628      	mov	r0, r5
 800cd60:	f7f3 fa56 	bl	8000210 <memchr>
 800cd64:	b140      	cbz	r0, 800cd78 <_vfiprintf_r+0x170>
 800cd66:	2340      	movs	r3, #64	; 0x40
 800cd68:	1b40      	subs	r0, r0, r5
 800cd6a:	fa03 f000 	lsl.w	r0, r3, r0
 800cd6e:	9b04      	ldr	r3, [sp, #16]
 800cd70:	4303      	orrs	r3, r0
 800cd72:	f108 0801 	add.w	r8, r8, #1
 800cd76:	9304      	str	r3, [sp, #16]
 800cd78:	f898 1000 	ldrb.w	r1, [r8]
 800cd7c:	482a      	ldr	r0, [pc, #168]	; (800ce28 <_vfiprintf_r+0x220>)
 800cd7e:	f88d 1028 	strb.w	r1, [sp, #40]	; 0x28
 800cd82:	2206      	movs	r2, #6
 800cd84:	f108 0701 	add.w	r7, r8, #1
 800cd88:	f7f3 fa42 	bl	8000210 <memchr>
 800cd8c:	2800      	cmp	r0, #0
 800cd8e:	d037      	beq.n	800ce00 <_vfiprintf_r+0x1f8>
 800cd90:	4b26      	ldr	r3, [pc, #152]	; (800ce2c <_vfiprintf_r+0x224>)
 800cd92:	bb1b      	cbnz	r3, 800cddc <_vfiprintf_r+0x1d4>
 800cd94:	9b03      	ldr	r3, [sp, #12]
 800cd96:	3307      	adds	r3, #7
 800cd98:	f023 0307 	bic.w	r3, r3, #7
 800cd9c:	3308      	adds	r3, #8
 800cd9e:	9303      	str	r3, [sp, #12]
 800cda0:	9b09      	ldr	r3, [sp, #36]	; 0x24
 800cda2:	444b      	add	r3, r9
 800cda4:	9309      	str	r3, [sp, #36]	; 0x24
 800cda6:	e750      	b.n	800cc4a <_vfiprintf_r+0x42>
 800cda8:	fb05 3202 	mla	r2, r5, r2, r3
 800cdac:	2001      	movs	r0, #1
 800cdae:	4688      	mov	r8, r1
 800cdb0:	e78a      	b.n	800ccc8 <_vfiprintf_r+0xc0>
 800cdb2:	2300      	movs	r3, #0
 800cdb4:	f108 0801 	add.w	r8, r8, #1
 800cdb8:	9305      	str	r3, [sp, #20]
 800cdba:	4619      	mov	r1, r3
 800cdbc:	250a      	movs	r5, #10
 800cdbe:	4640      	mov	r0, r8
 800cdc0:	f810 2b01 	ldrb.w	r2, [r0], #1
 800cdc4:	3a30      	subs	r2, #48	; 0x30
 800cdc6:	2a09      	cmp	r2, #9
 800cdc8:	d903      	bls.n	800cdd2 <_vfiprintf_r+0x1ca>
 800cdca:	2b00      	cmp	r3, #0
 800cdcc:	d0c3      	beq.n	800cd56 <_vfiprintf_r+0x14e>
 800cdce:	9105      	str	r1, [sp, #20]
 800cdd0:	e7c1      	b.n	800cd56 <_vfiprintf_r+0x14e>
 800cdd2:	fb05 2101 	mla	r1, r5, r1, r2
 800cdd6:	2301      	movs	r3, #1
 800cdd8:	4680      	mov	r8, r0
 800cdda:	e7f0      	b.n	800cdbe <_vfiprintf_r+0x1b6>
 800cddc:	ab03      	add	r3, sp, #12
 800cdde:	9300      	str	r3, [sp, #0]
 800cde0:	4622      	mov	r2, r4
 800cde2:	4b13      	ldr	r3, [pc, #76]	; (800ce30 <_vfiprintf_r+0x228>)
 800cde4:	a904      	add	r1, sp, #16
 800cde6:	4630      	mov	r0, r6
 800cde8:	f3af 8000 	nop.w
 800cdec:	f1b0 3fff 	cmp.w	r0, #4294967295
 800cdf0:	4681      	mov	r9, r0
 800cdf2:	d1d5      	bne.n	800cda0 <_vfiprintf_r+0x198>
 800cdf4:	89a3      	ldrh	r3, [r4, #12]
 800cdf6:	065b      	lsls	r3, r3, #25
 800cdf8:	f53f af7e 	bmi.w	800ccf8 <_vfiprintf_r+0xf0>
 800cdfc:	9809      	ldr	r0, [sp, #36]	; 0x24
 800cdfe:	e77d      	b.n	800ccfc <_vfiprintf_r+0xf4>
 800ce00:	ab03      	add	r3, sp, #12
 800ce02:	9300      	str	r3, [sp, #0]
 800ce04:	4622      	mov	r2, r4
 800ce06:	4b0a      	ldr	r3, [pc, #40]	; (800ce30 <_vfiprintf_r+0x228>)
 800ce08:	a904      	add	r1, sp, #16
 800ce0a:	4630      	mov	r0, r6
 800ce0c:	f000 f888 	bl	800cf20 <_printf_i>
 800ce10:	e7ec      	b.n	800cdec <_vfiprintf_r+0x1e4>
 800ce12:	bf00      	nop
 800ce14:	0800fa94 	.word	0x0800fa94
 800ce18:	0800fad8 	.word	0x0800fad8
 800ce1c:	0800fab4 	.word	0x0800fab4
 800ce20:	0800fa74 	.word	0x0800fa74
 800ce24:	0800fade 	.word	0x0800fade
 800ce28:	0800fae2 	.word	0x0800fae2
 800ce2c:	00000000 	.word	0x00000000
 800ce30:	0800cbe3 	.word	0x0800cbe3

0800ce34 <_printf_common>:
 800ce34:	e92d 47f0 	stmdb	sp!, {r4, r5, r6, r7, r8, r9, sl, lr}
 800ce38:	4691      	mov	r9, r2
 800ce3a:	461f      	mov	r7, r3
 800ce3c:	688a      	ldr	r2, [r1, #8]
 800ce3e:	690b      	ldr	r3, [r1, #16]
 800ce40:	f8dd 8020 	ldr.w	r8, [sp, #32]
 800ce44:	4293      	cmp	r3, r2
 800ce46:	bfb8      	it	lt
 800ce48:	4613      	movlt	r3, r2
 800ce4a:	f8c9 3000 	str.w	r3, [r9]
 800ce4e:	f891 2043 	ldrb.w	r2, [r1, #67]	; 0x43
 800ce52:	4606      	mov	r6, r0
 800ce54:	460c      	mov	r4, r1
 800ce56:	b112      	cbz	r2, 800ce5e <_printf_common+0x2a>
 800ce58:	3301      	adds	r3, #1
 800ce5a:	f8c9 3000 	str.w	r3, [r9]
 800ce5e:	6823      	ldr	r3, [r4, #0]
 800ce60:	0699      	lsls	r1, r3, #26
 800ce62:	bf42      	ittt	mi
 800ce64:	f8d9 3000 	ldrmi.w	r3, [r9]
 800ce68:	3302      	addmi	r3, #2
 800ce6a:	f8c9 3000 	strmi.w	r3, [r9]
 800ce6e:	6825      	ldr	r5, [r4, #0]
 800ce70:	f015 0506 	ands.w	r5, r5, #6
 800ce74:	d107      	bne.n	800ce86 <_printf_common+0x52>
 800ce76:	f104 0a19 	add.w	sl, r4, #25
 800ce7a:	68e3      	ldr	r3, [r4, #12]
 800ce7c:	f8d9 2000 	ldr.w	r2, [r9]
 800ce80:	1a9b      	subs	r3, r3, r2
 800ce82:	42ab      	cmp	r3, r5
 800ce84:	dc28      	bgt.n	800ced8 <_printf_common+0xa4>
 800ce86:	f894 3043 	ldrb.w	r3, [r4, #67]	; 0x43
 800ce8a:	6822      	ldr	r2, [r4, #0]
 800ce8c:	3300      	adds	r3, #0
 800ce8e:	bf18      	it	ne
 800ce90:	2301      	movne	r3, #1
 800ce92:	0692      	lsls	r2, r2, #26
 800ce94:	d42d      	bmi.n	800cef2 <_printf_common+0xbe>
 800ce96:	f104 0243 	add.w	r2, r4, #67	; 0x43
 800ce9a:	4639      	mov	r1, r7
 800ce9c:	4630      	mov	r0, r6
 800ce9e:	47c0      	blx	r8
 800cea0:	3001      	adds	r0, #1
 800cea2:	d020      	beq.n	800cee6 <_printf_common+0xb2>
 800cea4:	6823      	ldr	r3, [r4, #0]
 800cea6:	68e5      	ldr	r5, [r4, #12]
 800cea8:	f8d9 2000 	ldr.w	r2, [r9]
 800ceac:	f003 0306 	and.w	r3, r3, #6
 800ceb0:	2b04      	cmp	r3, #4
 800ceb2:	bf08      	it	eq
 800ceb4:	1aad      	subeq	r5, r5, r2
 800ceb6:	68a3      	ldr	r3, [r4, #8]
 800ceb8:	6922      	ldr	r2, [r4, #16]
 800ceba:	bf0c      	ite	eq
 800cebc:	ea25 75e5 	biceq.w	r5, r5, r5, asr #31
 800cec0:	2500      	movne	r5, #0
 800cec2:	4293      	cmp	r3, r2
 800cec4:	bfc4      	itt	gt
 800cec6:	1a9b      	subgt	r3, r3, r2
 800cec8:	18ed      	addgt	r5, r5, r3
 800ceca:	f04f 0900 	mov.w	r9, #0
 800cece:	341a      	adds	r4, #26
 800ced0:	454d      	cmp	r5, r9
 800ced2:	d11a      	bne.n	800cf0a <_printf_common+0xd6>
 800ced4:	2000      	movs	r0, #0
 800ced6:	e008      	b.n	800ceea <_printf_common+0xb6>
 800ced8:	2301      	movs	r3, #1
 800ceda:	4652      	mov	r2, sl
 800cedc:	4639      	mov	r1, r7
 800cede:	4630      	mov	r0, r6
 800cee0:	47c0      	blx	r8
 800cee2:	3001      	adds	r0, #1
 800cee4:	d103      	bne.n	800ceee <_printf_common+0xba>
 800cee6:	f04f 30ff 	mov.w	r0, #4294967295
 800ceea:	e8bd 87f0 	ldmia.w	sp!, {r4, r5, r6, r7, r8, r9, sl, pc}
 800ceee:	3501      	adds	r5, #1
 800cef0:	e7c3      	b.n	800ce7a <_printf_common+0x46>
 800cef2:	18e1      	adds	r1, r4, r3
 800cef4:	1c5a      	adds	r2, r3, #1
 800cef6:	2030      	movs	r0, #48	; 0x30
 800cef8:	f881 0043 	strb.w	r0, [r1, #67]	; 0x43
 800cefc:	4422      	add	r2, r4
 800cefe:	f894 1045 	ldrb.w	r1, [r4, #69]	; 0x45
 800cf02:	f882 1043 	strb.w	r1, [r2, #67]	; 0x43
 800cf06:	3302      	adds	r3, #2
 800cf08:	e7c5      	b.n	800ce96 <_printf_common+0x62>
 800cf0a:	2301      	movs	r3, #1
 800cf0c:	4622      	mov	r2, r4
 800cf0e:	4639      	mov	r1, r7
 800cf10:	4630      	mov	r0, r6
 800cf12:	47c0      	blx	r8
 800cf14:	3001      	adds	r0, #1
 800cf16:	d0e6      	beq.n	800cee6 <_printf_common+0xb2>
 800cf18:	f109 0901 	add.w	r9, r9, #1
 800cf1c:	e7d8      	b.n	800ced0 <_printf_common+0x9c>
	...

0800cf20 <_printf_i>:
 800cf20:	e92d 43f0 	stmdb	sp!, {r4, r5, r6, r7, r8, r9, lr}
 800cf24:	f101 0c43 	add.w	ip, r1, #67	; 0x43
 800cf28:	460c      	mov	r4, r1
 800cf2a:	7e09      	ldrb	r1, [r1, #24]
 800cf2c:	b085      	sub	sp, #20
 800cf2e:	296e      	cmp	r1, #110	; 0x6e
 800cf30:	4617      	mov	r7, r2
 800cf32:	4606      	mov	r6, r0
 800cf34:	4698      	mov	r8, r3
 800cf36:	9a0c      	ldr	r2, [sp, #48]	; 0x30
 800cf38:	f000 80b3 	beq.w	800d0a2 <_printf_i+0x182>
 800cf3c:	d822      	bhi.n	800cf84 <_printf_i+0x64>
 800cf3e:	2963      	cmp	r1, #99	; 0x63
 800cf40:	d036      	beq.n	800cfb0 <_printf_i+0x90>
 800cf42:	d80a      	bhi.n	800cf5a <_printf_i+0x3a>
 800cf44:	2900      	cmp	r1, #0
 800cf46:	f000 80b9 	beq.w	800d0bc <_printf_i+0x19c>
 800cf4a:	2958      	cmp	r1, #88	; 0x58
 800cf4c:	f000 8083 	beq.w	800d056 <_printf_i+0x136>
 800cf50:	f104 0542 	add.w	r5, r4, #66	; 0x42
 800cf54:	f884 1042 	strb.w	r1, [r4, #66]	; 0x42
 800cf58:	e032      	b.n	800cfc0 <_printf_i+0xa0>
 800cf5a:	2964      	cmp	r1, #100	; 0x64
 800cf5c:	d001      	beq.n	800cf62 <_printf_i+0x42>
 800cf5e:	2969      	cmp	r1, #105	; 0x69
 800cf60:	d1f6      	bne.n	800cf50 <_printf_i+0x30>
 800cf62:	6820      	ldr	r0, [r4, #0]
 800cf64:	6813      	ldr	r3, [r2, #0]
 800cf66:	0605      	lsls	r5, r0, #24
 800cf68:	f103 0104 	add.w	r1, r3, #4
 800cf6c:	d52a      	bpl.n	800cfc4 <_printf_i+0xa4>
 800cf6e:	681b      	ldr	r3, [r3, #0]
 800cf70:	6011      	str	r1, [r2, #0]
 800cf72:	2b00      	cmp	r3, #0
 800cf74:	da03      	bge.n	800cf7e <_printf_i+0x5e>
 800cf76:	222d      	movs	r2, #45	; 0x2d
 800cf78:	425b      	negs	r3, r3
 800cf7a:	f884 2043 	strb.w	r2, [r4, #67]	; 0x43
 800cf7e:	486f      	ldr	r0, [pc, #444]	; (800d13c <_printf_i+0x21c>)
 800cf80:	220a      	movs	r2, #10
 800cf82:	e039      	b.n	800cff8 <_printf_i+0xd8>
 800cf84:	2973      	cmp	r1, #115	; 0x73
 800cf86:	f000 809d 	beq.w	800d0c4 <_printf_i+0x1a4>
 800cf8a:	d808      	bhi.n	800cf9e <_printf_i+0x7e>
 800cf8c:	296f      	cmp	r1, #111	; 0x6f
 800cf8e:	d020      	beq.n	800cfd2 <_printf_i+0xb2>
 800cf90:	2970      	cmp	r1, #112	; 0x70
 800cf92:	d1dd      	bne.n	800cf50 <_printf_i+0x30>
 800cf94:	6823      	ldr	r3, [r4, #0]
 800cf96:	f043 0320 	orr.w	r3, r3, #32
 800cf9a:	6023      	str	r3, [r4, #0]
 800cf9c:	e003      	b.n	800cfa6 <_printf_i+0x86>
 800cf9e:	2975      	cmp	r1, #117	; 0x75
 800cfa0:	d017      	beq.n	800cfd2 <_printf_i+0xb2>
 800cfa2:	2978      	cmp	r1, #120	; 0x78
 800cfa4:	d1d4      	bne.n	800cf50 <_printf_i+0x30>
 800cfa6:	2378      	movs	r3, #120	; 0x78
 800cfa8:	f884 3045 	strb.w	r3, [r4, #69]	; 0x45
 800cfac:	4864      	ldr	r0, [pc, #400]	; (800d140 <_printf_i+0x220>)
 800cfae:	e055      	b.n	800d05c <_printf_i+0x13c>
 800cfb0:	6813      	ldr	r3, [r2, #0]
 800cfb2:	1d19      	adds	r1, r3, #4
 800cfb4:	681b      	ldr	r3, [r3, #0]
 800cfb6:	6011      	str	r1, [r2, #0]
 800cfb8:	f104 0542 	add.w	r5, r4, #66	; 0x42
 800cfbc:	f884 3042 	strb.w	r3, [r4, #66]	; 0x42
 800cfc0:	2301      	movs	r3, #1
 800cfc2:	e08c      	b.n	800d0de <_printf_i+0x1be>
 800cfc4:	681b      	ldr	r3, [r3, #0]
 800cfc6:	6011      	str	r1, [r2, #0]
 800cfc8:	f010 0f40 	tst.w	r0, #64	; 0x40
 800cfcc:	bf18      	it	ne
 800cfce:	b21b      	sxthne	r3, r3
 800cfd0:	e7cf      	b.n	800cf72 <_printf_i+0x52>
 800cfd2:	6813      	ldr	r3, [r2, #0]
 800cfd4:	6825      	ldr	r5, [r4, #0]
 800cfd6:	1d18      	adds	r0, r3, #4
 800cfd8:	6010      	str	r0, [r2, #0]
 800cfda:	0628      	lsls	r0, r5, #24
 800cfdc:	d501      	bpl.n	800cfe2 <_printf_i+0xc2>
 800cfde:	681b      	ldr	r3, [r3, #0]
 800cfe0:	e002      	b.n	800cfe8 <_printf_i+0xc8>
 800cfe2:	0668      	lsls	r0, r5, #25
 800cfe4:	d5fb      	bpl.n	800cfde <_printf_i+0xbe>
 800cfe6:	881b      	ldrh	r3, [r3, #0]
 800cfe8:	4854      	ldr	r0, [pc, #336]	; (800d13c <_printf_i+0x21c>)
 800cfea:	296f      	cmp	r1, #111	; 0x6f
 800cfec:	bf14      	ite	ne
 800cfee:	220a      	movne	r2, #10
 800cff0:	2208      	moveq	r2, #8
 800cff2:	2100      	movs	r1, #0
 800cff4:	f884 1043 	strb.w	r1, [r4, #67]	; 0x43
 800cff8:	6865      	ldr	r5, [r4, #4]
 800cffa:	60a5      	str	r5, [r4, #8]
 800cffc:	2d00      	cmp	r5, #0
 800cffe:	f2c0 8095 	blt.w	800d12c <_printf_i+0x20c>
 800d002:	6821      	ldr	r1, [r4, #0]
 800d004:	f021 0104 	bic.w	r1, r1, #4
 800d008:	6021      	str	r1, [r4, #0]
 800d00a:	2b00      	cmp	r3, #0
 800d00c:	d13d      	bne.n	800d08a <_printf_i+0x16a>
 800d00e:	2d00      	cmp	r5, #0
 800d010:	f040 808e 	bne.w	800d130 <_printf_i+0x210>
 800d014:	4665      	mov	r5, ip
 800d016:	2a08      	cmp	r2, #8
 800d018:	d10b      	bne.n	800d032 <_printf_i+0x112>
 800d01a:	6823      	ldr	r3, [r4, #0]
 800d01c:	07db      	lsls	r3, r3, #31
 800d01e:	d508      	bpl.n	800d032 <_printf_i+0x112>
 800d020:	6923      	ldr	r3, [r4, #16]
 800d022:	6862      	ldr	r2, [r4, #4]
 800d024:	429a      	cmp	r2, r3
 800d026:	bfde      	ittt	le
 800d028:	2330      	movle	r3, #48	; 0x30
 800d02a:	f805 3c01 	strble.w	r3, [r5, #-1]
 800d02e:	f105 35ff 	addle.w	r5, r5, #4294967295
 800d032:	ebac 0305 	sub.w	r3, ip, r5
 800d036:	6123      	str	r3, [r4, #16]
 800d038:	f8cd 8000 	str.w	r8, [sp]
 800d03c:	463b      	mov	r3, r7
 800d03e:	aa03      	add	r2, sp, #12
 800d040:	4621      	mov	r1, r4
 800d042:	4630      	mov	r0, r6
 800d044:	f7ff fef6 	bl	800ce34 <_printf_common>
 800d048:	3001      	adds	r0, #1
 800d04a:	d14d      	bne.n	800d0e8 <_printf_i+0x1c8>
 800d04c:	f04f 30ff 	mov.w	r0, #4294967295
 800d050:	b005      	add	sp, #20
 800d052:	e8bd 83f0 	ldmia.w	sp!, {r4, r5, r6, r7, r8, r9, pc}
 800d056:	4839      	ldr	r0, [pc, #228]	; (800d13c <_printf_i+0x21c>)
 800d058:	f884 1045 	strb.w	r1, [r4, #69]	; 0x45
 800d05c:	6813      	ldr	r3, [r2, #0]
 800d05e:	6821      	ldr	r1, [r4, #0]
 800d060:	1d1d      	adds	r5, r3, #4
 800d062:	681b      	ldr	r3, [r3, #0]
 800d064:	6015      	str	r5, [r2, #0]
 800d066:	060a      	lsls	r2, r1, #24
 800d068:	d50b      	bpl.n	800d082 <_printf_i+0x162>
 800d06a:	07ca      	lsls	r2, r1, #31
 800d06c:	bf44      	itt	mi
 800d06e:	f041 0120 	orrmi.w	r1, r1, #32
 800d072:	6021      	strmi	r1, [r4, #0]
 800d074:	b91b      	cbnz	r3, 800d07e <_printf_i+0x15e>
 800d076:	6822      	ldr	r2, [r4, #0]
 800d078:	f022 0220 	bic.w	r2, r2, #32
 800d07c:	6022      	str	r2, [r4, #0]
 800d07e:	2210      	movs	r2, #16
 800d080:	e7b7      	b.n	800cff2 <_printf_i+0xd2>
 800d082:	064d      	lsls	r5, r1, #25
 800d084:	bf48      	it	mi
 800d086:	b29b      	uxthmi	r3, r3
 800d088:	e7ef      	b.n	800d06a <_printf_i+0x14a>
 800d08a:	4665      	mov	r5, ip
 800d08c:	fbb3 f1f2 	udiv	r1, r3, r2
 800d090:	fb02 3311 	mls	r3, r2, r1, r3
 800d094:	5cc3      	ldrb	r3, [r0, r3]
 800d096:	f805 3d01 	strb.w	r3, [r5, #-1]!
 800d09a:	460b      	mov	r3, r1
 800d09c:	2900      	cmp	r1, #0
 800d09e:	d1f5      	bne.n	800d08c <_printf_i+0x16c>
 800d0a0:	e7b9      	b.n	800d016 <_printf_i+0xf6>
 800d0a2:	6813      	ldr	r3, [r2, #0]
 800d0a4:	6825      	ldr	r5, [r4, #0]
 800d0a6:	6961      	ldr	r1, [r4, #20]
 800d0a8:	1d18      	adds	r0, r3, #4
 800d0aa:	6010      	str	r0, [r2, #0]
 800d0ac:	0628      	lsls	r0, r5, #24
 800d0ae:	681b      	ldr	r3, [r3, #0]
 800d0b0:	d501      	bpl.n	800d0b6 <_printf_i+0x196>
 800d0b2:	6019      	str	r1, [r3, #0]
 800d0b4:	e002      	b.n	800d0bc <_printf_i+0x19c>
 800d0b6:	066a      	lsls	r2, r5, #25
 800d0b8:	d5fb      	bpl.n	800d0b2 <_printf_i+0x192>
 800d0ba:	8019      	strh	r1, [r3, #0]
 800d0bc:	2300      	movs	r3, #0
 800d0be:	6123      	str	r3, [r4, #16]
 800d0c0:	4665      	mov	r5, ip
 800d0c2:	e7b9      	b.n	800d038 <_printf_i+0x118>
 800d0c4:	6813      	ldr	r3, [r2, #0]
 800d0c6:	1d19      	adds	r1, r3, #4
 800d0c8:	6011      	str	r1, [r2, #0]
 800d0ca:	681d      	ldr	r5, [r3, #0]
 800d0cc:	6862      	ldr	r2, [r4, #4]
 800d0ce:	2100      	movs	r1, #0
 800d0d0:	4628      	mov	r0, r5
 800d0d2:	f7f3 f89d 	bl	8000210 <memchr>
 800d0d6:	b108      	cbz	r0, 800d0dc <_printf_i+0x1bc>
 800d0d8:	1b40      	subs	r0, r0, r5
 800d0da:	6060      	str	r0, [r4, #4]
 800d0dc:	6863      	ldr	r3, [r4, #4]
 800d0de:	6123      	str	r3, [r4, #16]
 800d0e0:	2300      	movs	r3, #0
 800d0e2:	f884 3043 	strb.w	r3, [r4, #67]	; 0x43
 800d0e6:	e7a7      	b.n	800d038 <_printf_i+0x118>
 800d0e8:	6923      	ldr	r3, [r4, #16]
 800d0ea:	462a      	mov	r2, r5
 800d0ec:	4639      	mov	r1, r7
 800d0ee:	4630      	mov	r0, r6
 800d0f0:	47c0      	blx	r8
 800d0f2:	3001      	adds	r0, #1
 800d0f4:	d0aa      	beq.n	800d04c <_printf_i+0x12c>
 800d0f6:	6823      	ldr	r3, [r4, #0]
 800d0f8:	079b      	lsls	r3, r3, #30
 800d0fa:	d413      	bmi.n	800d124 <_printf_i+0x204>
 800d0fc:	68e0      	ldr	r0, [r4, #12]
 800d0fe:	9b03      	ldr	r3, [sp, #12]
 800d100:	4298      	cmp	r0, r3
 800d102:	bfb8      	it	lt
 800d104:	4618      	movlt	r0, r3
 800d106:	e7a3      	b.n	800d050 <_printf_i+0x130>
 800d108:	2301      	movs	r3, #1
 800d10a:	464a      	mov	r2, r9
 800d10c:	4639      	mov	r1, r7
 800d10e:	4630      	mov	r0, r6
 800d110:	47c0      	blx	r8
 800d112:	3001      	adds	r0, #1
 800d114:	d09a      	beq.n	800d04c <_printf_i+0x12c>
 800d116:	3501      	adds	r5, #1
 800d118:	68e3      	ldr	r3, [r4, #12]
 800d11a:	9a03      	ldr	r2, [sp, #12]
 800d11c:	1a9b      	subs	r3, r3, r2
 800d11e:	42ab      	cmp	r3, r5
 800d120:	dcf2      	bgt.n	800d108 <_printf_i+0x1e8>
 800d122:	e7eb      	b.n	800d0fc <_printf_i+0x1dc>
 800d124:	2500      	movs	r5, #0
 800d126:	f104 0919 	add.w	r9, r4, #25
 800d12a:	e7f5      	b.n	800d118 <_printf_i+0x1f8>
 800d12c:	2b00      	cmp	r3, #0
 800d12e:	d1ac      	bne.n	800d08a <_printf_i+0x16a>
 800d130:	7803      	ldrb	r3, [r0, #0]
 800d132:	f884 3042 	strb.w	r3, [r4, #66]	; 0x42
 800d136:	f104 0542 	add.w	r5, r4, #66	; 0x42
 800d13a:	e76c      	b.n	800d016 <_printf_i+0xf6>
 800d13c:	0800fae9 	.word	0x0800fae9
 800d140:	0800fafa 	.word	0x0800fafa

0800d144 <_read_r>:
 800d144:	b538      	push	{r3, r4, r5, lr}
 800d146:	4c07      	ldr	r4, [pc, #28]	; (800d164 <_read_r+0x20>)
 800d148:	4605      	mov	r5, r0
 800d14a:	4608      	mov	r0, r1
 800d14c:	4611      	mov	r1, r2
 800d14e:	2200      	movs	r2, #0
 800d150:	6022      	str	r2, [r4, #0]
 800d152:	461a      	mov	r2, r3
 800d154:	f7f3 fbb6 	bl	80008c4 <_read>
 800d158:	1c43      	adds	r3, r0, #1
 800d15a:	d102      	bne.n	800d162 <_read_r+0x1e>
 800d15c:	6823      	ldr	r3, [r4, #0]
 800d15e:	b103      	cbz	r3, 800d162 <_read_r+0x1e>
 800d160:	602b      	str	r3, [r5, #0]
 800d162:	bd38      	pop	{r3, r4, r5, pc}
 800d164:	2000b55c 	.word	0x2000b55c

0800d168 <__swbuf_r>:
 800d168:	b5f8      	push	{r3, r4, r5, r6, r7, lr}
 800d16a:	460e      	mov	r6, r1
 800d16c:	4614      	mov	r4, r2
 800d16e:	4605      	mov	r5, r0
 800d170:	b118      	cbz	r0, 800d17a <__swbuf_r+0x12>
 800d172:	6983      	ldr	r3, [r0, #24]
 800d174:	b90b      	cbnz	r3, 800d17a <__swbuf_r+0x12>
 800d176:	f7ff f991 	bl	800c49c <__sinit>
 800d17a:	4b21      	ldr	r3, [pc, #132]	; (800d200 <__swbuf_r+0x98>)
 800d17c:	429c      	cmp	r4, r3
 800d17e:	d12a      	bne.n	800d1d6 <__swbuf_r+0x6e>
 800d180:	686c      	ldr	r4, [r5, #4]
 800d182:	69a3      	ldr	r3, [r4, #24]
 800d184:	60a3      	str	r3, [r4, #8]
 800d186:	89a3      	ldrh	r3, [r4, #12]
 800d188:	071a      	lsls	r2, r3, #28
 800d18a:	d52e      	bpl.n	800d1ea <__swbuf_r+0x82>
 800d18c:	6923      	ldr	r3, [r4, #16]
 800d18e:	b363      	cbz	r3, 800d1ea <__swbuf_r+0x82>
 800d190:	6923      	ldr	r3, [r4, #16]
 800d192:	6820      	ldr	r0, [r4, #0]
 800d194:	1ac0      	subs	r0, r0, r3
 800d196:	6963      	ldr	r3, [r4, #20]
 800d198:	b2f6      	uxtb	r6, r6
 800d19a:	4283      	cmp	r3, r0
 800d19c:	4637      	mov	r7, r6
 800d19e:	dc04      	bgt.n	800d1aa <__swbuf_r+0x42>
 800d1a0:	4621      	mov	r1, r4
 800d1a2:	4628      	mov	r0, r5
 800d1a4:	f7ff fc72 	bl	800ca8c <_fflush_r>
 800d1a8:	bb28      	cbnz	r0, 800d1f6 <__swbuf_r+0x8e>
 800d1aa:	68a3      	ldr	r3, [r4, #8]
 800d1ac:	3b01      	subs	r3, #1
 800d1ae:	60a3      	str	r3, [r4, #8]
 800d1b0:	6823      	ldr	r3, [r4, #0]
 800d1b2:	1c5a      	adds	r2, r3, #1
 800d1b4:	6022      	str	r2, [r4, #0]
 800d1b6:	701e      	strb	r6, [r3, #0]
 800d1b8:	6963      	ldr	r3, [r4, #20]
 800d1ba:	3001      	adds	r0, #1
 800d1bc:	4283      	cmp	r3, r0
 800d1be:	d004      	beq.n	800d1ca <__swbuf_r+0x62>
 800d1c0:	89a3      	ldrh	r3, [r4, #12]
 800d1c2:	07db      	lsls	r3, r3, #31
 800d1c4:	d519      	bpl.n	800d1fa <__swbuf_r+0x92>
 800d1c6:	2e0a      	cmp	r6, #10
 800d1c8:	d117      	bne.n	800d1fa <__swbuf_r+0x92>
 800d1ca:	4621      	mov	r1, r4
 800d1cc:	4628      	mov	r0, r5
 800d1ce:	f7ff fc5d 	bl	800ca8c <_fflush_r>
 800d1d2:	b190      	cbz	r0, 800d1fa <__swbuf_r+0x92>
 800d1d4:	e00f      	b.n	800d1f6 <__swbuf_r+0x8e>
 800d1d6:	4b0b      	ldr	r3, [pc, #44]	; (800d204 <__swbuf_r+0x9c>)
 800d1d8:	429c      	cmp	r4, r3
 800d1da:	d101      	bne.n	800d1e0 <__swbuf_r+0x78>
 800d1dc:	68ac      	ldr	r4, [r5, #8]
 800d1de:	e7d0      	b.n	800d182 <__swbuf_r+0x1a>
 800d1e0:	4b09      	ldr	r3, [pc, #36]	; (800d208 <__swbuf_r+0xa0>)
 800d1e2:	429c      	cmp	r4, r3
 800d1e4:	bf08      	it	eq
 800d1e6:	68ec      	ldreq	r4, [r5, #12]
 800d1e8:	e7cb      	b.n	800d182 <__swbuf_r+0x1a>
 800d1ea:	4621      	mov	r1, r4
 800d1ec:	4628      	mov	r0, r5
 800d1ee:	f000 f80d 	bl	800d20c <__swsetup_r>
 800d1f2:	2800      	cmp	r0, #0
 800d1f4:	d0cc      	beq.n	800d190 <__swbuf_r+0x28>
 800d1f6:	f04f 37ff 	mov.w	r7, #4294967295
 800d1fa:	4638      	mov	r0, r7
 800d1fc:	bdf8      	pop	{r3, r4, r5, r6, r7, pc}
 800d1fe:	bf00      	nop
 800d200:	0800fa94 	.word	0x0800fa94
 800d204:	0800fab4 	.word	0x0800fab4
 800d208:	0800fa74 	.word	0x0800fa74

0800d20c <__swsetup_r>:
 800d20c:	4b32      	ldr	r3, [pc, #200]	; (800d2d8 <__swsetup_r+0xcc>)
 800d20e:	b570      	push	{r4, r5, r6, lr}
 800d210:	681d      	ldr	r5, [r3, #0]
 800d212:	4606      	mov	r6, r0
 800d214:	460c      	mov	r4, r1
 800d216:	b125      	cbz	r5, 800d222 <__swsetup_r+0x16>
 800d218:	69ab      	ldr	r3, [r5, #24]
 800d21a:	b913      	cbnz	r3, 800d222 <__swsetup_r+0x16>
 800d21c:	4628      	mov	r0, r5
 800d21e:	f7ff f93d 	bl	800c49c <__sinit>
 800d222:	4b2e      	ldr	r3, [pc, #184]	; (800d2dc <__swsetup_r+0xd0>)
 800d224:	429c      	cmp	r4, r3
 800d226:	d10f      	bne.n	800d248 <__swsetup_r+0x3c>
 800d228:	686c      	ldr	r4, [r5, #4]
 800d22a:	f9b4 300c 	ldrsh.w	r3, [r4, #12]
 800d22e:	b29a      	uxth	r2, r3
 800d230:	0715      	lsls	r5, r2, #28
 800d232:	d42c      	bmi.n	800d28e <__swsetup_r+0x82>
 800d234:	06d0      	lsls	r0, r2, #27
 800d236:	d411      	bmi.n	800d25c <__swsetup_r+0x50>
 800d238:	2209      	movs	r2, #9
 800d23a:	6032      	str	r2, [r6, #0]
 800d23c:	f043 0340 	orr.w	r3, r3, #64	; 0x40
 800d240:	81a3      	strh	r3, [r4, #12]
 800d242:	f04f 30ff 	mov.w	r0, #4294967295
 800d246:	e03e      	b.n	800d2c6 <__swsetup_r+0xba>
 800d248:	4b25      	ldr	r3, [pc, #148]	; (800d2e0 <__swsetup_r+0xd4>)
 800d24a:	429c      	cmp	r4, r3
 800d24c:	d101      	bne.n	800d252 <__swsetup_r+0x46>
 800d24e:	68ac      	ldr	r4, [r5, #8]
 800d250:	e7eb      	b.n	800d22a <__swsetup_r+0x1e>
 800d252:	4b24      	ldr	r3, [pc, #144]	; (800d2e4 <__swsetup_r+0xd8>)
 800d254:	429c      	cmp	r4, r3
 800d256:	bf08      	it	eq
 800d258:	68ec      	ldreq	r4, [r5, #12]
 800d25a:	e7e6      	b.n	800d22a <__swsetup_r+0x1e>
 800d25c:	0751      	lsls	r1, r2, #29
 800d25e:	d512      	bpl.n	800d286 <__swsetup_r+0x7a>
 800d260:	6b61      	ldr	r1, [r4, #52]	; 0x34
 800d262:	b141      	cbz	r1, 800d276 <__swsetup_r+0x6a>
 800d264:	f104 0344 	add.w	r3, r4, #68	; 0x44
 800d268:	4299      	cmp	r1, r3
 800d26a:	d002      	beq.n	800d272 <__swsetup_r+0x66>
 800d26c:	4630      	mov	r0, r6
 800d26e:	f7ff fc53 	bl	800cb18 <_free_r>
 800d272:	2300      	movs	r3, #0
 800d274:	6363      	str	r3, [r4, #52]	; 0x34
 800d276:	89a3      	ldrh	r3, [r4, #12]
 800d278:	f023 0324 	bic.w	r3, r3, #36	; 0x24
 800d27c:	81a3      	strh	r3, [r4, #12]
 800d27e:	2300      	movs	r3, #0
 800d280:	6063      	str	r3, [r4, #4]
 800d282:	6923      	ldr	r3, [r4, #16]
 800d284:	6023      	str	r3, [r4, #0]
 800d286:	89a3      	ldrh	r3, [r4, #12]
 800d288:	f043 0308 	orr.w	r3, r3, #8
 800d28c:	81a3      	strh	r3, [r4, #12]
 800d28e:	6923      	ldr	r3, [r4, #16]
 800d290:	b94b      	cbnz	r3, 800d2a6 <__swsetup_r+0x9a>
 800d292:	89a3      	ldrh	r3, [r4, #12]
 800d294:	f403 7320 	and.w	r3, r3, #640	; 0x280
 800d298:	f5b3 7f00 	cmp.w	r3, #512	; 0x200
 800d29c:	d003      	beq.n	800d2a6 <__swsetup_r+0x9a>
 800d29e:	4621      	mov	r1, r4
 800d2a0:	4630      	mov	r0, r6
 800d2a2:	f000 f845 	bl	800d330 <__smakebuf_r>
 800d2a6:	89a2      	ldrh	r2, [r4, #12]
 800d2a8:	f012 0301 	ands.w	r3, r2, #1
 800d2ac:	d00c      	beq.n	800d2c8 <__swsetup_r+0xbc>
 800d2ae:	2300      	movs	r3, #0
 800d2b0:	60a3      	str	r3, [r4, #8]
 800d2b2:	6963      	ldr	r3, [r4, #20]
 800d2b4:	425b      	negs	r3, r3
 800d2b6:	61a3      	str	r3, [r4, #24]
 800d2b8:	6923      	ldr	r3, [r4, #16]
 800d2ba:	b953      	cbnz	r3, 800d2d2 <__swsetup_r+0xc6>
 800d2bc:	f9b4 300c 	ldrsh.w	r3, [r4, #12]
 800d2c0:	f013 0080 	ands.w	r0, r3, #128	; 0x80
 800d2c4:	d1ba      	bne.n	800d23c <__swsetup_r+0x30>
 800d2c6:	bd70      	pop	{r4, r5, r6, pc}
 800d2c8:	0792      	lsls	r2, r2, #30
 800d2ca:	bf58      	it	pl
 800d2cc:	6963      	ldrpl	r3, [r4, #20]
 800d2ce:	60a3      	str	r3, [r4, #8]
 800d2d0:	e7f2      	b.n	800d2b8 <__swsetup_r+0xac>
 800d2d2:	2000      	movs	r0, #0
 800d2d4:	e7f7      	b.n	800d2c6 <__swsetup_r+0xba>
 800d2d6:	bf00      	nop
 800d2d8:	2000001c 	.word	0x2000001c
 800d2dc:	0800fa94 	.word	0x0800fa94
 800d2e0:	0800fab4 	.word	0x0800fab4
 800d2e4:	0800fa74 	.word	0x0800fa74

0800d2e8 <__swhatbuf_r>:
 800d2e8:	b570      	push	{r4, r5, r6, lr}
 800d2ea:	460e      	mov	r6, r1
 800d2ec:	f9b1 100e 	ldrsh.w	r1, [r1, #14]
 800d2f0:	2900      	cmp	r1, #0
 800d2f2:	b096      	sub	sp, #88	; 0x58
 800d2f4:	4614      	mov	r4, r2
 800d2f6:	461d      	mov	r5, r3
 800d2f8:	da07      	bge.n	800d30a <__swhatbuf_r+0x22>
 800d2fa:	2300      	movs	r3, #0
 800d2fc:	602b      	str	r3, [r5, #0]
 800d2fe:	89b3      	ldrh	r3, [r6, #12]
 800d300:	061a      	lsls	r2, r3, #24
 800d302:	d410      	bmi.n	800d326 <__swhatbuf_r+0x3e>
 800d304:	f44f 6380 	mov.w	r3, #1024	; 0x400
 800d308:	e00e      	b.n	800d328 <__swhatbuf_r+0x40>
 800d30a:	466a      	mov	r2, sp
 800d30c:	f000 f850 	bl	800d3b0 <_fstat_r>
 800d310:	2800      	cmp	r0, #0
 800d312:	dbf2      	blt.n	800d2fa <__swhatbuf_r+0x12>
 800d314:	9a01      	ldr	r2, [sp, #4]
 800d316:	f402 4270 	and.w	r2, r2, #61440	; 0xf000
 800d31a:	f5a2 5300 	sub.w	r3, r2, #8192	; 0x2000
 800d31e:	425a      	negs	r2, r3
 800d320:	415a      	adcs	r2, r3
 800d322:	602a      	str	r2, [r5, #0]
 800d324:	e7ee      	b.n	800d304 <__swhatbuf_r+0x1c>
 800d326:	2340      	movs	r3, #64	; 0x40
 800d328:	2000      	movs	r0, #0
 800d32a:	6023      	str	r3, [r4, #0]
 800d32c:	b016      	add	sp, #88	; 0x58
 800d32e:	bd70      	pop	{r4, r5, r6, pc}

0800d330 <__smakebuf_r>:
 800d330:	898b      	ldrh	r3, [r1, #12]
 800d332:	b573      	push	{r0, r1, r4, r5, r6, lr}
 800d334:	079d      	lsls	r5, r3, #30
 800d336:	4606      	mov	r6, r0
 800d338:	460c      	mov	r4, r1
 800d33a:	d507      	bpl.n	800d34c <__smakebuf_r+0x1c>
 800d33c:	f104 0347 	add.w	r3, r4, #71	; 0x47
 800d340:	6023      	str	r3, [r4, #0]
 800d342:	6123      	str	r3, [r4, #16]
 800d344:	2301      	movs	r3, #1
 800d346:	6163      	str	r3, [r4, #20]
 800d348:	b002      	add	sp, #8
 800d34a:	bd70      	pop	{r4, r5, r6, pc}
 800d34c:	ab01      	add	r3, sp, #4
 800d34e:	466a      	mov	r2, sp
 800d350:	f7ff ffca 	bl	800d2e8 <__swhatbuf_r>
 800d354:	9900      	ldr	r1, [sp, #0]
 800d356:	4605      	mov	r5, r0
 800d358:	4630      	mov	r0, r6
 800d35a:	f7ff f96f 	bl	800c63c <_malloc_r>
 800d35e:	b948      	cbnz	r0, 800d374 <__smakebuf_r+0x44>
 800d360:	f9b4 300c 	ldrsh.w	r3, [r4, #12]
 800d364:	059a      	lsls	r2, r3, #22
 800d366:	d4ef      	bmi.n	800d348 <__smakebuf_r+0x18>
 800d368:	f023 0303 	bic.w	r3, r3, #3
 800d36c:	f043 0302 	orr.w	r3, r3, #2
 800d370:	81a3      	strh	r3, [r4, #12]
 800d372:	e7e3      	b.n	800d33c <__smakebuf_r+0xc>
 800d374:	4b0d      	ldr	r3, [pc, #52]	; (800d3ac <__smakebuf_r+0x7c>)
 800d376:	62b3      	str	r3, [r6, #40]	; 0x28
 800d378:	89a3      	ldrh	r3, [r4, #12]
 800d37a:	6020      	str	r0, [r4, #0]
 800d37c:	f043 0380 	orr.w	r3, r3, #128	; 0x80
 800d380:	81a3      	strh	r3, [r4, #12]
 800d382:	9b00      	ldr	r3, [sp, #0]
 800d384:	6163      	str	r3, [r4, #20]
 800d386:	9b01      	ldr	r3, [sp, #4]
 800d388:	6120      	str	r0, [r4, #16]
 800d38a:	b15b      	cbz	r3, 800d3a4 <__smakebuf_r+0x74>
 800d38c:	f9b4 100e 	ldrsh.w	r1, [r4, #14]
 800d390:	4630      	mov	r0, r6
 800d392:	f000 f81f 	bl	800d3d4 <_isatty_r>
 800d396:	b128      	cbz	r0, 800d3a4 <__smakebuf_r+0x74>
 800d398:	89a3      	ldrh	r3, [r4, #12]
 800d39a:	f023 0303 	bic.w	r3, r3, #3
 800d39e:	f043 0301 	orr.w	r3, r3, #1
 800d3a2:	81a3      	strh	r3, [r4, #12]
 800d3a4:	89a3      	ldrh	r3, [r4, #12]
 800d3a6:	431d      	orrs	r5, r3
 800d3a8:	81a5      	strh	r5, [r4, #12]
 800d3aa:	e7cd      	b.n	800d348 <__smakebuf_r+0x18>
 800d3ac:	0800c465 	.word	0x0800c465

0800d3b0 <_fstat_r>:
 800d3b0:	b538      	push	{r3, r4, r5, lr}
 800d3b2:	4c07      	ldr	r4, [pc, #28]	; (800d3d0 <_fstat_r+0x20>)
 800d3b4:	2300      	movs	r3, #0
 800d3b6:	4605      	mov	r5, r0
 800d3b8:	4608      	mov	r0, r1
 800d3ba:	4611      	mov	r1, r2
 800d3bc:	6023      	str	r3, [r4, #0]
 800d3be:	f7f3 faa0 	bl	8000902 <_fstat>
 800d3c2:	1c43      	adds	r3, r0, #1
 800d3c4:	d102      	bne.n	800d3cc <_fstat_r+0x1c>
 800d3c6:	6823      	ldr	r3, [r4, #0]
 800d3c8:	b103      	cbz	r3, 800d3cc <_fstat_r+0x1c>
 800d3ca:	602b      	str	r3, [r5, #0]
 800d3cc:	bd38      	pop	{r3, r4, r5, pc}
 800d3ce:	bf00      	nop
 800d3d0:	2000b55c 	.word	0x2000b55c

0800d3d4 <_isatty_r>:
 800d3d4:	b538      	push	{r3, r4, r5, lr}
 800d3d6:	4c06      	ldr	r4, [pc, #24]	; (800d3f0 <_isatty_r+0x1c>)
 800d3d8:	2300      	movs	r3, #0
 800d3da:	4605      	mov	r5, r0
 800d3dc:	4608      	mov	r0, r1
 800d3de:	6023      	str	r3, [r4, #0]
 800d3e0:	f7f3 fa94 	bl	800090c <_isatty>
 800d3e4:	1c43      	adds	r3, r0, #1
 800d3e6:	d102      	bne.n	800d3ee <_isatty_r+0x1a>
 800d3e8:	6823      	ldr	r3, [r4, #0]
 800d3ea:	b103      	cbz	r3, 800d3ee <_isatty_r+0x1a>
 800d3ec:	602b      	str	r3, [r5, #0]
 800d3ee:	bd38      	pop	{r3, r4, r5, pc}
 800d3f0:	2000b55c 	.word	0x2000b55c

0800d3f4 <_init>:
 800d3f4:	b5f8      	push	{r3, r4, r5, r6, r7, lr}
 800d3f6:	bf00      	nop
 800d3f8:	bcf8      	pop	{r3, r4, r5, r6, r7}
 800d3fa:	bc08      	pop	{r3}
 800d3fc:	469e      	mov	lr, r3
 800d3fe:	4770      	bx	lr

0800d400 <_fini>:
 800d400:	b5f8      	push	{r3, r4, r5, r6, r7, lr}
 800d402:	bf00      	nop
 800d404:	bcf8      	pop	{r3, r4, r5, r6, r7}
 800d406:	bc08      	pop	{r3}
 800d408:	469e      	mov	lr, r3
 800d40a:	4770      	bx	lr
