
TCP-SERVER.elf:     file format elf32-littlearm

Sections:
Idx Name          Size      VMA       LMA       File off  Algn
  0 .isr_vector   000001ac  08000000  08000000  00010000  2**0
                  CONTENTS, ALLOC, LOAD, READONLY, DATA
  1 .text         000093ac  080001b0  080001b0  000101b0  2**4
                  CONTENTS, ALLOC, LOAD, READONLY, CODE
  2 .rodata       000020a4  0800955c  0800955c  0001955c  2**2
                  CONTENTS, ALLOC, LOAD, READONLY, DATA
  3 .ARM.extab    00000000  0800b600  0800b600  00020078  2**0
                  CONTENTS
  4 .ARM          00000008  0800b600  0800b600  0001b600  2**2
                  CONTENTS, ALLOC, LOAD, READONLY, DATA
  5 .preinit_array 00000000  0800b608  0800b608  00020078  2**0
                  CONTENTS, ALLOC, LOAD, DATA
  6 .init_array   00000004  0800b608  0800b608  0001b608  2**2
                  CONTENTS, ALLOC, LOAD, DATA
  7 .fini_array   00000004  0800b60c  0800b60c  0001b60c  2**2
                  CONTENTS, ALLOC, LOAD, DATA
  8 .data         00000078  10000000  0800b610  00020000  2**2
                  CONTENTS, ALLOC, LOAD, DATA
  9 .ccmram       00000000  10000078  10000078  00020078  2**0
                  CONTENTS
 10 .bss          0000a7c0  20000000  20000000  00030000  2**2
                  ALLOC
 11 ._user_heap_stack 00000600  10000078  10000078  00020078  2**0
                  ALLOC
 12 .ARM.attributes 00000030  00000000  00000000  00020078  2**0
                  CONTENTS, READONLY
 13 .comment      00000053  00000000  00000000  000200a8  2**0
                  CONTENTS, READONLY
 14 .debug_frame  00000b28  00000000  00000000  000200fc  2**2
                  CONTENTS, READONLY, DEBUGGING, OCTETS

Disassembly of section .text:

080001b0 <__do_global_dtors_aux>:
 80001b0:	b510      	push	{r4, lr}
 80001b2:	4c05      	ldr	r4, [pc, #20]	; (80001c8 <__do_global_dtors_aux+0x18>)
 80001b4:	7823      	ldrb	r3, [r4, #0]
 80001b6:	b933      	cbnz	r3, 80001c6 <__do_global_dtors_aux+0x16>
 80001b8:	4b04      	ldr	r3, [pc, #16]	; (80001cc <__do_global_dtors_aux+0x1c>)
 80001ba:	b113      	cbz	r3, 80001c2 <__do_global_dtors_aux+0x12>
 80001bc:	4804      	ldr	r0, [pc, #16]	; (80001d0 <__do_global_dtors_aux+0x20>)
 80001be:	f3af 8000 	nop.w
 80001c2:	2301      	movs	r3, #1
 80001c4:	7023      	strb	r3, [r4, #0]
 80001c6:	bd10      	pop	{r4, pc}
 80001c8:	20000000 	.word	0x20000000
 80001cc:	00000000 	.word	0x00000000
 80001d0:	08009544 	.word	0x08009544

080001d4 <frame_dummy>:
 80001d4:	b508      	push	{r3, lr}
 80001d6:	4b03      	ldr	r3, [pc, #12]	; (80001e4 <frame_dummy+0x10>)
 80001d8:	b11b      	cbz	r3, 80001e2 <frame_dummy+0xe>
 80001da:	4903      	ldr	r1, [pc, #12]	; (80001e8 <frame_dummy+0x14>)
 80001dc:	4803      	ldr	r0, [pc, #12]	; (80001ec <frame_dummy+0x18>)
 80001de:	f3af 8000 	nop.w
 80001e2:	bd08      	pop	{r3, pc}
 80001e4:	00000000 	.word	0x00000000
 80001e8:	20000004 	.word	0x20000004
 80001ec:	08009544 	.word	0x08009544

080001f0 <strcmp>:
 80001f0:	f810 2b01 	ldrb.w	r2, [r0], #1
 80001f4:	f811 3b01 	ldrb.w	r3, [r1], #1
 80001f8:	2a01      	cmp	r2, #1
 80001fa:	bf28      	it	cs
 80001fc:	429a      	cmpcs	r2, r3
 80001fe:	d0f7      	beq.n	80001f0 <strcmp>
 8000200:	1ad0      	subs	r0, r2, r3
 8000202:	4770      	bx	lr
	...

08000210 <memchr>:
 8000210:	f001 01ff 	and.w	r1, r1, #255	; 0xff
 8000214:	2a10      	cmp	r2, #16
 8000216:	db2b      	blt.n	8000270 <memchr+0x60>
 8000218:	f010 0f07 	tst.w	r0, #7
 800021c:	d008      	beq.n	8000230 <memchr+0x20>
 800021e:	f810 3b01 	ldrb.w	r3, [r0], #1
 8000222:	3a01      	subs	r2, #1
 8000224:	428b      	cmp	r3, r1
 8000226:	d02d      	beq.n	8000284 <memchr+0x74>
 8000228:	f010 0f07 	tst.w	r0, #7
 800022c:	b342      	cbz	r2, 8000280 <memchr+0x70>
 800022e:	d1f6      	bne.n	800021e <memchr+0xe>
 8000230:	b4f0      	push	{r4, r5, r6, r7}
 8000232:	ea41 2101 	orr.w	r1, r1, r1, lsl #8
 8000236:	ea41 4101 	orr.w	r1, r1, r1, lsl #16
 800023a:	f022 0407 	bic.w	r4, r2, #7
 800023e:	f07f 0700 	mvns.w	r7, #0
 8000242:	2300      	movs	r3, #0
 8000244:	e8f0 5602 	ldrd	r5, r6, [r0], #8
 8000248:	3c08      	subs	r4, #8
 800024a:	ea85 0501 	eor.w	r5, r5, r1
 800024e:	ea86 0601 	eor.w	r6, r6, r1
 8000252:	fa85 f547 	uadd8	r5, r5, r7
 8000256:	faa3 f587 	sel	r5, r3, r7
 800025a:	fa86 f647 	uadd8	r6, r6, r7
 800025e:	faa5 f687 	sel	r6, r5, r7
 8000262:	b98e      	cbnz	r6, 8000288 <memchr+0x78>
 8000264:	d1ee      	bne.n	8000244 <memchr+0x34>
 8000266:	bcf0      	pop	{r4, r5, r6, r7}
 8000268:	f001 01ff 	and.w	r1, r1, #255	; 0xff
 800026c:	f002 0207 	and.w	r2, r2, #7
 8000270:	b132      	cbz	r2, 8000280 <memchr+0x70>
 8000272:	f810 3b01 	ldrb.w	r3, [r0], #1
 8000276:	3a01      	subs	r2, #1
 8000278:	ea83 0301 	eor.w	r3, r3, r1
 800027c:	b113      	cbz	r3, 8000284 <memchr+0x74>
 800027e:	d1f8      	bne.n	8000272 <memchr+0x62>
 8000280:	2000      	movs	r0, #0
 8000282:	4770      	bx	lr
 8000284:	3801      	subs	r0, #1
 8000286:	4770      	bx	lr
 8000288:	2d00      	cmp	r5, #0
 800028a:	bf06      	itte	eq
 800028c:	4635      	moveq	r5, r6
 800028e:	3803      	subeq	r0, #3
 8000290:	3807      	subne	r0, #7
 8000292:	f015 0f01 	tst.w	r5, #1
 8000296:	d107      	bne.n	80002a8 <memchr+0x98>
 8000298:	3001      	adds	r0, #1
 800029a:	f415 7f80 	tst.w	r5, #256	; 0x100
 800029e:	bf02      	ittt	eq
 80002a0:	3001      	addeq	r0, #1
 80002a2:	f415 3fc0 	tsteq.w	r5, #98304	; 0x18000
 80002a6:	3001      	addeq	r0, #1
 80002a8:	bcf0      	pop	{r4, r5, r6, r7}
 80002aa:	3801      	subs	r0, #1
 80002ac:	4770      	bx	lr
 80002ae:	bf00      	nop

080002b0 <__aeabi_uldivmod>:
 80002b0:	b953      	cbnz	r3, 80002c8 <__aeabi_uldivmod+0x18>
 80002b2:	b94a      	cbnz	r2, 80002c8 <__aeabi_uldivmod+0x18>
 80002b4:	2900      	cmp	r1, #0
 80002b6:	bf08      	it	eq
 80002b8:	2800      	cmpeq	r0, #0
 80002ba:	bf1c      	itt	ne
 80002bc:	f04f 31ff 	movne.w	r1, #4294967295
 80002c0:	f04f 30ff 	movne.w	r0, #4294967295
 80002c4:	f000 b96e 	b.w	80005a4 <__aeabi_idiv0>
 80002c8:	f1ad 0c08 	sub.w	ip, sp, #8
 80002cc:	e96d ce04 	strd	ip, lr, [sp, #-16]!
 80002d0:	f000 f806 	bl	80002e0 <__udivmoddi4>
 80002d4:	f8dd e004 	ldr.w	lr, [sp, #4]
 80002d8:	e9dd 2302 	ldrd	r2, r3, [sp, #8]
 80002dc:	b004      	add	sp, #16
 80002de:	4770      	bx	lr

080002e0 <__udivmoddi4>:
 80002e0:	e92d 47f0 	stmdb	sp!, {r4, r5, r6, r7, r8, r9, sl, lr}
 80002e4:	9d08      	ldr	r5, [sp, #32]
 80002e6:	4604      	mov	r4, r0
 80002e8:	468c      	mov	ip, r1
 80002ea:	2b00      	cmp	r3, #0
 80002ec:	f040 8083 	bne.w	80003f6 <__udivmoddi4+0x116>
 80002f0:	428a      	cmp	r2, r1
 80002f2:	4617      	mov	r7, r2
 80002f4:	d947      	bls.n	8000386 <__udivmoddi4+0xa6>
 80002f6:	fab2 f282 	clz	r2, r2
 80002fa:	b142      	cbz	r2, 800030e <__udivmoddi4+0x2e>
 80002fc:	f1c2 0020 	rsb	r0, r2, #32
 8000300:	fa24 f000 	lsr.w	r0, r4, r0
 8000304:	4091      	lsls	r1, r2
 8000306:	4097      	lsls	r7, r2
 8000308:	ea40 0c01 	orr.w	ip, r0, r1
 800030c:	4094      	lsls	r4, r2
 800030e:	ea4f 4817 	mov.w	r8, r7, lsr #16
 8000312:	0c23      	lsrs	r3, r4, #16
 8000314:	fbbc f6f8 	udiv	r6, ip, r8
 8000318:	fa1f fe87 	uxth.w	lr, r7
 800031c:	fb08 c116 	mls	r1, r8, r6, ip
 8000320:	ea43 4301 	orr.w	r3, r3, r1, lsl #16
 8000324:	fb06 f10e 	mul.w	r1, r6, lr
 8000328:	4299      	cmp	r1, r3
 800032a:	d909      	bls.n	8000340 <__udivmoddi4+0x60>
 800032c:	18fb      	adds	r3, r7, r3
 800032e:	f106 30ff 	add.w	r0, r6, #4294967295
 8000332:	f080 8119 	bcs.w	8000568 <__udivmoddi4+0x288>
 8000336:	4299      	cmp	r1, r3
 8000338:	f240 8116 	bls.w	8000568 <__udivmoddi4+0x288>
 800033c:	3e02      	subs	r6, #2
 800033e:	443b      	add	r3, r7
 8000340:	1a5b      	subs	r3, r3, r1
 8000342:	b2a4      	uxth	r4, r4
 8000344:	fbb3 f0f8 	udiv	r0, r3, r8
 8000348:	fb08 3310 	mls	r3, r8, r0, r3
 800034c:	ea44 4403 	orr.w	r4, r4, r3, lsl #16
 8000350:	fb00 fe0e 	mul.w	lr, r0, lr
 8000354:	45a6      	cmp	lr, r4
 8000356:	d909      	bls.n	800036c <__udivmoddi4+0x8c>
 8000358:	193c      	adds	r4, r7, r4
 800035a:	f100 33ff 	add.w	r3, r0, #4294967295
 800035e:	f080 8105 	bcs.w	800056c <__udivmoddi4+0x28c>
 8000362:	45a6      	cmp	lr, r4
 8000364:	f240 8102 	bls.w	800056c <__udivmoddi4+0x28c>
 8000368:	3802      	subs	r0, #2
 800036a:	443c      	add	r4, r7
 800036c:	ea40 4006 	orr.w	r0, r0, r6, lsl #16
 8000370:	eba4 040e 	sub.w	r4, r4, lr
 8000374:	2600      	movs	r6, #0
 8000376:	b11d      	cbz	r5, 8000380 <__udivmoddi4+0xa0>
 8000378:	40d4      	lsrs	r4, r2
 800037a:	2300      	movs	r3, #0
 800037c:	e9c5 4300 	strd	r4, r3, [r5]
 8000380:	4631      	mov	r1, r6
 8000382:	e8bd 87f0 	ldmia.w	sp!, {r4, r5, r6, r7, r8, r9, sl, pc}
 8000386:	b902      	cbnz	r2, 800038a <__udivmoddi4+0xaa>
 8000388:	deff      	udf	#255	; 0xff
 800038a:	fab2 f282 	clz	r2, r2
 800038e:	2a00      	cmp	r2, #0
 8000390:	d150      	bne.n	8000434 <__udivmoddi4+0x154>
 8000392:	1bcb      	subs	r3, r1, r7
 8000394:	ea4f 4e17 	mov.w	lr, r7, lsr #16
 8000398:	fa1f f887 	uxth.w	r8, r7
 800039c:	2601      	movs	r6, #1
 800039e:	fbb3 fcfe 	udiv	ip, r3, lr
 80003a2:	0c21      	lsrs	r1, r4, #16
 80003a4:	fb0e 331c 	mls	r3, lr, ip, r3
 80003a8:	ea41 4103 	orr.w	r1, r1, r3, lsl #16
 80003ac:	fb08 f30c 	mul.w	r3, r8, ip
 80003b0:	428b      	cmp	r3, r1
 80003b2:	d907      	bls.n	80003c4 <__udivmoddi4+0xe4>
 80003b4:	1879      	adds	r1, r7, r1
 80003b6:	f10c 30ff 	add.w	r0, ip, #4294967295
 80003ba:	d202      	bcs.n	80003c2 <__udivmoddi4+0xe2>
 80003bc:	428b      	cmp	r3, r1
 80003be:	f200 80e9 	bhi.w	8000594 <__udivmoddi4+0x2b4>
 80003c2:	4684      	mov	ip, r0
 80003c4:	1ac9      	subs	r1, r1, r3
 80003c6:	b2a3      	uxth	r3, r4
 80003c8:	fbb1 f0fe 	udiv	r0, r1, lr
 80003cc:	fb0e 1110 	mls	r1, lr, r0, r1
 80003d0:	ea43 4401 	orr.w	r4, r3, r1, lsl #16
 80003d4:	fb08 f800 	mul.w	r8, r8, r0
 80003d8:	45a0      	cmp	r8, r4
 80003da:	d907      	bls.n	80003ec <__udivmoddi4+0x10c>
 80003dc:	193c      	adds	r4, r7, r4
 80003de:	f100 33ff 	add.w	r3, r0, #4294967295
 80003e2:	d202      	bcs.n	80003ea <__udivmoddi4+0x10a>
 80003e4:	45a0      	cmp	r8, r4
 80003e6:	f200 80d9 	bhi.w	800059c <__udivmoddi4+0x2bc>
 80003ea:	4618      	mov	r0, r3
 80003ec:	eba4 0408 	sub.w	r4, r4, r8
 80003f0:	ea40 400c 	orr.w	r0, r0, ip, lsl #16
 80003f4:	e7bf      	b.n	8000376 <__udivmoddi4+0x96>
 80003f6:	428b      	cmp	r3, r1
 80003f8:	d909      	bls.n	800040e <__udivmoddi4+0x12e>
 80003fa:	2d00      	cmp	r5, #0
 80003fc:	f000 80b1 	beq.w	8000562 <__udivmoddi4+0x282>
 8000400:	2600      	movs	r6, #0
 8000402:	e9c5 0100 	strd	r0, r1, [r5]
 8000406:	4630      	mov	r0, r6
 8000408:	4631      	mov	r1, r6
 800040a:	e8bd 87f0 	ldmia.w	sp!, {r4, r5, r6, r7, r8, r9, sl, pc}
 800040e:	fab3 f683 	clz	r6, r3
 8000412:	2e00      	cmp	r6, #0
 8000414:	d14a      	bne.n	80004ac <__udivmoddi4+0x1cc>
 8000416:	428b      	cmp	r3, r1
 8000418:	d302      	bcc.n	8000420 <__udivmoddi4+0x140>
 800041a:	4282      	cmp	r2, r0
 800041c:	f200 80b8 	bhi.w	8000590 <__udivmoddi4+0x2b0>
 8000420:	1a84      	subs	r4, r0, r2
 8000422:	eb61 0103 	sbc.w	r1, r1, r3
 8000426:	2001      	movs	r0, #1
 8000428:	468c      	mov	ip, r1
 800042a:	2d00      	cmp	r5, #0
 800042c:	d0a8      	beq.n	8000380 <__udivmoddi4+0xa0>
 800042e:	e9c5 4c00 	strd	r4, ip, [r5]
 8000432:	e7a5      	b.n	8000380 <__udivmoddi4+0xa0>
 8000434:	f1c2 0320 	rsb	r3, r2, #32
 8000438:	fa20 f603 	lsr.w	r6, r0, r3
 800043c:	4097      	lsls	r7, r2
 800043e:	fa01 f002 	lsl.w	r0, r1, r2
 8000442:	ea4f 4e17 	mov.w	lr, r7, lsr #16
 8000446:	40d9      	lsrs	r1, r3
 8000448:	4330      	orrs	r0, r6
 800044a:	0c03      	lsrs	r3, r0, #16
 800044c:	fbb1 f6fe 	udiv	r6, r1, lr
 8000450:	fa1f f887 	uxth.w	r8, r7
 8000454:	fb0e 1116 	mls	r1, lr, r6, r1
 8000458:	ea43 4301 	orr.w	r3, r3, r1, lsl #16
 800045c:	fb06 f108 	mul.w	r1, r6, r8
 8000460:	4299      	cmp	r1, r3
 8000462:	fa04 f402 	lsl.w	r4, r4, r2
 8000466:	d909      	bls.n	800047c <__udivmoddi4+0x19c>
 8000468:	18fb      	adds	r3, r7, r3
 800046a:	f106 3cff 	add.w	ip, r6, #4294967295
 800046e:	f080 808d 	bcs.w	800058c <__udivmoddi4+0x2ac>
 8000472:	4299      	cmp	r1, r3
 8000474:	f240 808a 	bls.w	800058c <__udivmoddi4+0x2ac>
 8000478:	3e02      	subs	r6, #2
 800047a:	443b      	add	r3, r7
 800047c:	1a5b      	subs	r3, r3, r1
 800047e:	b281      	uxth	r1, r0
 8000480:	fbb3 f0fe 	udiv	r0, r3, lr
 8000484:	fb0e 3310 	mls	r3, lr, r0, r3
 8000488:	ea41 4103 	orr.w	r1, r1, r3, lsl #16
 800048c:	fb00 f308 	mul.w	r3, r0, r8
 8000490:	428b      	cmp	r3, r1
 8000492:	d907      	bls.n	80004a4 <__udivmoddi4+0x1c4>
 8000494:	1879      	adds	r1, r7, r1
 8000496:	f100 3cff 	add.w	ip, r0, #4294967295
 800049a:	d273      	bcs.n	8000584 <__udivmoddi4+0x2a4>
 800049c:	428b      	cmp	r3, r1
 800049e:	d971      	bls.n	8000584 <__udivmoddi4+0x2a4>
 80004a0:	3802      	subs	r0, #2
 80004a2:	4439      	add	r1, r7
 80004a4:	1acb      	subs	r3, r1, r3
 80004a6:	ea40 4606 	orr.w	r6, r0, r6, lsl #16
 80004aa:	e778      	b.n	800039e <__udivmoddi4+0xbe>
 80004ac:	f1c6 0c20 	rsb	ip, r6, #32
 80004b0:	fa03 f406 	lsl.w	r4, r3, r6
 80004b4:	fa22 f30c 	lsr.w	r3, r2, ip
 80004b8:	431c      	orrs	r4, r3
 80004ba:	fa20 f70c 	lsr.w	r7, r0, ip
 80004be:	fa01 f306 	lsl.w	r3, r1, r6
 80004c2:	ea4f 4e14 	mov.w	lr, r4, lsr #16
 80004c6:	fa21 f10c 	lsr.w	r1, r1, ip
 80004ca:	431f      	orrs	r7, r3
 80004cc:	0c3b      	lsrs	r3, r7, #16
 80004ce:	fbb1 f9fe 	udiv	r9, r1, lr
 80004d2:	fa1f f884 	uxth.w	r8, r4
 80004d6:	fb0e 1119 	mls	r1, lr, r9, r1
 80004da:	ea43 4101 	orr.w	r1, r3, r1, lsl #16
 80004de:	fb09 fa08 	mul.w	sl, r9, r8
 80004e2:	458a      	cmp	sl, r1
 80004e4:	fa02 f206 	lsl.w	r2, r2, r6
 80004e8:	fa00 f306 	lsl.w	r3, r0, r6
 80004ec:	d908      	bls.n	8000500 <__udivmoddi4+0x220>
 80004ee:	1861      	adds	r1, r4, r1
 80004f0:	f109 30ff 	add.w	r0, r9, #4294967295
 80004f4:	d248      	bcs.n	8000588 <__udivmoddi4+0x2a8>
 80004f6:	458a      	cmp	sl, r1
 80004f8:	d946      	bls.n	8000588 <__udivmoddi4+0x2a8>
 80004fa:	f1a9 0902 	sub.w	r9, r9, #2
 80004fe:	4421      	add	r1, r4
 8000500:	eba1 010a 	sub.w	r1, r1, sl
 8000504:	b2bf      	uxth	r7, r7
 8000506:	fbb1 f0fe 	udiv	r0, r1, lr
 800050a:	fb0e 1110 	mls	r1, lr, r0, r1
 800050e:	ea47 4701 	orr.w	r7, r7, r1, lsl #16
 8000512:	fb00 f808 	mul.w	r8, r0, r8
 8000516:	45b8      	cmp	r8, r7
 8000518:	d907      	bls.n	800052a <__udivmoddi4+0x24a>
 800051a:	19e7      	adds	r7, r4, r7
 800051c:	f100 31ff 	add.w	r1, r0, #4294967295
 8000520:	d22e      	bcs.n	8000580 <__udivmoddi4+0x2a0>
 8000522:	45b8      	cmp	r8, r7
 8000524:	d92c      	bls.n	8000580 <__udivmoddi4+0x2a0>
 8000526:	3802      	subs	r0, #2
 8000528:	4427      	add	r7, r4
 800052a:	ea40 4009 	orr.w	r0, r0, r9, lsl #16
 800052e:	eba7 0708 	sub.w	r7, r7, r8
 8000532:	fba0 8902 	umull	r8, r9, r0, r2
 8000536:	454f      	cmp	r7, r9
 8000538:	46c6      	mov	lr, r8
 800053a:	4649      	mov	r1, r9
 800053c:	d31a      	bcc.n	8000574 <__udivmoddi4+0x294>
 800053e:	d017      	beq.n	8000570 <__udivmoddi4+0x290>
 8000540:	b15d      	cbz	r5, 800055a <__udivmoddi4+0x27a>
 8000542:	ebb3 020e 	subs.w	r2, r3, lr
 8000546:	eb67 0701 	sbc.w	r7, r7, r1
 800054a:	fa07 fc0c 	lsl.w	ip, r7, ip
 800054e:	40f2      	lsrs	r2, r6
 8000550:	ea4c 0202 	orr.w	r2, ip, r2
 8000554:	40f7      	lsrs	r7, r6
 8000556:	e9c5 2700 	strd	r2, r7, [r5]
 800055a:	2600      	movs	r6, #0
 800055c:	4631      	mov	r1, r6
 800055e:	e8bd 87f0 	ldmia.w	sp!, {r4, r5, r6, r7, r8, r9, sl, pc}
 8000562:	462e      	mov	r6, r5
 8000564:	4628      	mov	r0, r5
 8000566:	e70b      	b.n	8000380 <__udivmoddi4+0xa0>
 8000568:	4606      	mov	r6, r0
 800056a:	e6e9      	b.n	8000340 <__udivmoddi4+0x60>
 800056c:	4618      	mov	r0, r3
 800056e:	e6fd      	b.n	800036c <__udivmoddi4+0x8c>
 8000570:	4543      	cmp	r3, r8
 8000572:	d2e5      	bcs.n	8000540 <__udivmoddi4+0x260>
 8000574:	ebb8 0e02 	subs.w	lr, r8, r2
 8000578:	eb69 0104 	sbc.w	r1, r9, r4
 800057c:	3801      	subs	r0, #1
 800057e:	e7df      	b.n	8000540 <__udivmoddi4+0x260>
 8000580:	4608      	mov	r0, r1
 8000582:	e7d2      	b.n	800052a <__udivmoddi4+0x24a>
 8000584:	4660      	mov	r0, ip
 8000586:	e78d      	b.n	80004a4 <__udivmoddi4+0x1c4>
 8000588:	4681      	mov	r9, r0
 800058a:	e7b9      	b.n	8000500 <__udivmoddi4+0x220>
 800058c:	4666      	mov	r6, ip
 800058e:	e775      	b.n	800047c <__udivmoddi4+0x19c>
 8000590:	4630      	mov	r0, r6
 8000592:	e74a      	b.n	800042a <__udivmoddi4+0x14a>
 8000594:	f1ac 0c02 	sub.w	ip, ip, #2
 8000598:	4439      	add	r1, r7
 800059a:	e713      	b.n	80003c4 <__udivmoddi4+0xe4>
 800059c:	3802      	subs	r0, #2
 800059e:	443c      	add	r4, r7
 80005a0:	e724      	b.n	80003ec <__udivmoddi4+0x10c>
 80005a2:	bf00      	nop

080005a4 <__aeabi_idiv0>:
 80005a4:	4770      	bx	lr
 80005a6:	bf00      	nop

080005a8 <random_string>:
 80005a8:	2300      	movs	r3, #0
 80005aa:	2261      	movs	r2, #97	; 0x61
 80005ac:	4299      	cmp	r1, r3
 80005ae:	dc00      	bgt.n	80005b2 <random_string+0xa>
 80005b0:	4770      	bx	lr
 80005b2:	54c2      	strb	r2, [r0, r3]
 80005b4:	3301      	adds	r3, #1
 80005b6:	e7f9      	b.n	80005ac <random_string+0x4>

080005b8 <SystemClock_Config>:
 80005b8:	b510      	push	{r4, lr}
 80005ba:	b094      	sub	sp, #80	; 0x50
 80005bc:	2210      	movs	r2, #16
 80005be:	2100      	movs	r1, #0
 80005c0:	a80a      	add	r0, sp, #40	; 0x28
 80005c2:	f007 ff95 	bl	80084f0 <memset>
 80005c6:	2214      	movs	r2, #20
 80005c8:	2100      	movs	r1, #0
 80005ca:	a803      	add	r0, sp, #12
 80005cc:	f007 ff90 	bl	80084f0 <memset>
 80005d0:	4b20      	ldr	r3, [pc, #128]	; (8000654 <SystemClock_Config+0x9c>)
 80005d2:	2100      	movs	r1, #0
 80005d4:	9101      	str	r1, [sp, #4]
 80005d6:	6c1a      	ldr	r2, [r3, #64]	; 0x40
 80005d8:	f042 5280 	orr.w	r2, r2, #268435456	; 0x10000000
 80005dc:	641a      	str	r2, [r3, #64]	; 0x40
 80005de:	6c1b      	ldr	r3, [r3, #64]	; 0x40
 80005e0:	f003 5380 	and.w	r3, r3, #268435456	; 0x10000000
 80005e4:	9301      	str	r3, [sp, #4]
 80005e6:	9b01      	ldr	r3, [sp, #4]
 80005e8:	4b1b      	ldr	r3, [pc, #108]	; (8000658 <SystemClock_Config+0xa0>)
 80005ea:	9102      	str	r1, [sp, #8]
 80005ec:	681a      	ldr	r2, [r3, #0]
 80005ee:	f442 4240 	orr.w	r2, r2, #49152	; 0xc000
 80005f2:	601a      	str	r2, [r3, #0]
 80005f4:	681b      	ldr	r3, [r3, #0]
 80005f6:	f403 4340 	and.w	r3, r3, #49152	; 0xc000
 80005fa:	9302      	str	r3, [sp, #8]
 80005fc:	9b02      	ldr	r3, [sp, #8]
 80005fe:	2101      	movs	r1, #1
 8000600:	f44f 3380 	mov.w	r3, #65536	; 0x10000
 8000604:	2402      	movs	r4, #2
 8000606:	e9cd 1308 	strd	r1, r3, [sp, #32]
 800060a:	f44f 0380 	mov.w	r3, #4194304	; 0x400000
 800060e:	2004      	movs	r0, #4
 8000610:	e9cd 430e 	strd	r4, r3, [sp, #56]	; 0x38
 8000614:	23a8      	movs	r3, #168	; 0xa8
 8000616:	e9cd 0310 	strd	r0, r3, [sp, #64]	; 0x40
 800061a:	2307      	movs	r3, #7
 800061c:	a808      	add	r0, sp, #32
 800061e:	9412      	str	r4, [sp, #72]	; 0x48
 8000620:	9313      	str	r3, [sp, #76]	; 0x4c
 8000622:	f001 f949 	bl	80018b8 <HAL_RCC_OscConfig>
 8000626:	b108      	cbz	r0, 800062c <SystemClock_Config+0x74>
 8000628:	b672      	cpsid	i
 800062a:	e7fe      	b.n	800062a <SystemClock_Config+0x72>
 800062c:	230f      	movs	r3, #15
 800062e:	e9cd 3403 	strd	r3, r4, [sp, #12]
 8000632:	9005      	str	r0, [sp, #20]
 8000634:	f44f 52a0 	mov.w	r2, #5120	; 0x1400
 8000638:	f44f 5380 	mov.w	r3, #4096	; 0x1000
 800063c:	2105      	movs	r1, #5
 800063e:	a803      	add	r0, sp, #12
 8000640:	e9cd 2306 	strd	r2, r3, [sp, #24]
 8000644:	f001 fb12 	bl	8001c6c <HAL_RCC_ClockConfig>
 8000648:	b108      	cbz	r0, 800064e <SystemClock_Config+0x96>
 800064a:	b672      	cpsid	i
 800064c:	e7fe      	b.n	800064c <SystemClock_Config+0x94>
 800064e:	b014      	add	sp, #80	; 0x50
 8000650:	bd10      	pop	{r4, pc}
 8000652:	bf00      	nop
 8000654:	40023800 	.word	0x40023800
 8000658:	40007000 	.word	0x40007000

0800065c <main>:
 800065c:	b580      	push	{r7, lr}
 800065e:	b08c      	sub	sp, #48	; 0x30
 8000660:	f000 fb1a 	bl	8000c98 <HAL_Init>
 8000664:	f7ff ffa8 	bl	80005b8 <SystemClock_Config>
 8000668:	2214      	movs	r2, #20
 800066a:	2100      	movs	r1, #0
 800066c:	a807      	add	r0, sp, #28
 800066e:	f007 ff3f 	bl	80084f0 <memset>
 8000672:	2400      	movs	r4, #0
 8000674:	4b50      	ldr	r3, [pc, #320]	; (80007b8 <main+0x15c>)
 8000676:	9401      	str	r4, [sp, #4]
 8000678:	6b1a      	ldr	r2, [r3, #48]	; 0x30
 800067a:	4850      	ldr	r0, [pc, #320]	; (80007bc <main+0x160>)
 800067c:	f042 0204 	orr.w	r2, r2, #4
 8000680:	631a      	str	r2, [r3, #48]	; 0x30
 8000682:	6b1a      	ldr	r2, [r3, #48]	; 0x30
 8000684:	f002 0204 	and.w	r2, r2, #4
 8000688:	9201      	str	r2, [sp, #4]
 800068a:	9a01      	ldr	r2, [sp, #4]
 800068c:	9402      	str	r4, [sp, #8]
 800068e:	6b1a      	ldr	r2, [r3, #48]	; 0x30
 8000690:	f042 0280 	orr.w	r2, r2, #128	; 0x80
 8000694:	631a      	str	r2, [r3, #48]	; 0x30
 8000696:	6b1a      	ldr	r2, [r3, #48]	; 0x30
 8000698:	f002 0280 	and.w	r2, r2, #128	; 0x80
 800069c:	9202      	str	r2, [sp, #8]
 800069e:	9a02      	ldr	r2, [sp, #8]
 80006a0:	9403      	str	r4, [sp, #12]
 80006a2:	6b1a      	ldr	r2, [r3, #48]	; 0x30
 80006a4:	f042 0201 	orr.w	r2, r2, #1
 80006a8:	631a      	str	r2, [r3, #48]	; 0x30
 80006aa:	6b1a      	ldr	r2, [r3, #48]	; 0x30
 80006ac:	f002 0201 	and.w	r2, r2, #1
 80006b0:	9203      	str	r2, [sp, #12]
 80006b2:	9a03      	ldr	r2, [sp, #12]
 80006b4:	9404      	str	r4, [sp, #16]
 80006b6:	6b1a      	ldr	r2, [r3, #48]	; 0x30
 80006b8:	f042 0202 	orr.w	r2, r2, #2
 80006bc:	631a      	str	r2, [r3, #48]	; 0x30
 80006be:	6b1a      	ldr	r2, [r3, #48]	; 0x30
 80006c0:	f002 0202 	and.w	r2, r2, #2
 80006c4:	9204      	str	r2, [sp, #16]
 80006c6:	9a04      	ldr	r2, [sp, #16]
 80006c8:	9405      	str	r4, [sp, #20]
 80006ca:	6b1a      	ldr	r2, [r3, #48]	; 0x30
 80006cc:	f042 0208 	orr.w	r2, r2, #8
 80006d0:	631a      	str	r2, [r3, #48]	; 0x30
 80006d2:	6b1a      	ldr	r2, [r3, #48]	; 0x30
 80006d4:	f002 0208 	and.w	r2, r2, #8
 80006d8:	9205      	str	r2, [sp, #20]
 80006da:	9a05      	ldr	r2, [sp, #20]
 80006dc:	9406      	str	r4, [sp, #24]
 80006de:	6b1a      	ldr	r2, [r3, #48]	; 0x30
 80006e0:	f042 0240 	orr.w	r2, r2, #64	; 0x40
 80006e4:	631a      	str	r2, [r3, #48]	; 0x30
 80006e6:	6b1b      	ldr	r3, [r3, #48]	; 0x30
 80006e8:	f003 0340 	and.w	r3, r3, #64	; 0x40
 80006ec:	4622      	mov	r2, r4
 80006ee:	9306      	str	r3, [sp, #24]
 80006f0:	f244 0181 	movw	r1, #16513	; 0x4081
 80006f4:	9b06      	ldr	r3, [sp, #24]
 80006f6:	f001 f8d1 	bl	800189c <HAL_GPIO_WritePin>
 80006fa:	4622      	mov	r2, r4
 80006fc:	4830      	ldr	r0, [pc, #192]	; (80007c0 <main+0x164>)
 80006fe:	2140      	movs	r1, #64	; 0x40
 8000700:	f001 f8cc 	bl	800189c <HAL_GPIO_WritePin>
 8000704:	f44f 5200 	mov.w	r2, #8192	; 0x2000
 8000708:	f44f 1388 	mov.w	r3, #1114112	; 0x110000
 800070c:	482d      	ldr	r0, [pc, #180]	; (80007c4 <main+0x168>)
 800070e:	9409      	str	r4, [sp, #36]	; 0x24
 8000710:	a907      	add	r1, sp, #28
 8000712:	e9cd 2307 	strd	r2, r3, [sp, #28]
 8000716:	2701      	movs	r7, #1
 8000718:	f000 ffda 	bl	80016d0 <HAL_GPIO_Init>
 800071c:	f244 0381 	movw	r3, #16513	; 0x4081
 8000720:	4826      	ldr	r0, [pc, #152]	; (80007bc <main+0x160>)
 8000722:	a907      	add	r1, sp, #28
 8000724:	e9cd 3707 	strd	r3, r7, [sp, #28]
 8000728:	e9cd 4409 	strd	r4, r4, [sp, #36]	; 0x24
 800072c:	2602      	movs	r6, #2
 800072e:	f000 ffcf 	bl	80016d0 <HAL_GPIO_Init>
 8000732:	f44f 7340 	mov.w	r3, #768	; 0x300
 8000736:	e9cd 3607 	strd	r3, r6, [sp, #28]
 800073a:	4823      	ldr	r0, [pc, #140]	; (80007c8 <main+0x16c>)
 800073c:	9409      	str	r4, [sp, #36]	; 0x24
 800073e:	2307      	movs	r3, #7
 8000740:	2503      	movs	r5, #3
 8000742:	a907      	add	r1, sp, #28
 8000744:	e9cd 530a 	strd	r5, r3, [sp, #40]	; 0x28
 8000748:	f000 ffc2 	bl	80016d0 <HAL_GPIO_Init>
 800074c:	2340      	movs	r3, #64	; 0x40
 800074e:	481c      	ldr	r0, [pc, #112]	; (80007c0 <main+0x164>)
 8000750:	a907      	add	r1, sp, #28
 8000752:	e9cd 3707 	strd	r3, r7, [sp, #28]
 8000756:	e9cd 4409 	strd	r4, r4, [sp, #36]	; 0x24
 800075a:	f000 ffb9 	bl	80016d0 <HAL_GPIO_Init>
 800075e:	2380      	movs	r3, #128	; 0x80
 8000760:	4817      	ldr	r0, [pc, #92]	; (80007c0 <main+0x164>)
 8000762:	9409      	str	r4, [sp, #36]	; 0x24
 8000764:	a907      	add	r1, sp, #28
 8000766:	e9cd 3407 	strd	r3, r4, [sp, #28]
 800076a:	f000 ffb1 	bl	80016d0 <HAL_GPIO_Init>
 800076e:	f44f 53e8 	mov.w	r3, #7424	; 0x1d00
 8000772:	e9cd 3607 	strd	r3, r6, [sp, #28]
 8000776:	4815      	ldr	r0, [pc, #84]	; (80007cc <main+0x170>)
 8000778:	230a      	movs	r3, #10
 800077a:	a907      	add	r1, sp, #28
 800077c:	e9cd 4509 	strd	r4, r5, [sp, #36]	; 0x24
 8000780:	930b      	str	r3, [sp, #44]	; 0x2c
 8000782:	f000 ffa5 	bl	80016d0 <HAL_GPIO_Init>
 8000786:	f44f 7300 	mov.w	r3, #512	; 0x200
 800078a:	4810      	ldr	r0, [pc, #64]	; (80007cc <main+0x170>)
 800078c:	9409      	str	r4, [sp, #36]	; 0x24
 800078e:	a907      	add	r1, sp, #28
 8000790:	e9cd 3407 	strd	r3, r4, [sp, #28]
 8000794:	f000 ff9c 	bl	80016d0 <HAL_GPIO_Init>
 8000798:	f001 fb0a 	bl	8001db0 <MX_LWIP_Init>
 800079c:	f000 fa10 	bl	8000bc0 <tcp_server_init>
 80007a0:	480b      	ldr	r0, [pc, #44]	; (80007d0 <main+0x174>)
 80007a2:	4c0c      	ldr	r4, [pc, #48]	; (80007d4 <main+0x178>)
 80007a4:	f241 3188 	movw	r1, #5000	; 0x1388
 80007a8:	f7ff fefe 	bl	80005a8 <random_string>
 80007ac:	4620      	mov	r0, r4
 80007ae:	f001 fc39 	bl	8002024 <ethernetif_input>
 80007b2:	f006 fab5 	bl	8006d20 <sys_check_timeouts>
 80007b6:	e7f9      	b.n	80007ac <main+0x150>
 80007b8:	40023800 	.word	0x40023800
 80007bc:	40020400 	.word	0x40020400
 80007c0:	40021800 	.word	0x40021800
 80007c4:	40020800 	.word	0x40020800
 80007c8:	40020c00 	.word	0x40020c00
 80007cc:	40020000 	.word	0x40020000
 80007d0:	200001a0 	.word	0x200001a0
 80007d4:	20001530 	.word	0x20001530

080007d8 <HAL_MspInit>:
 80007d8:	b082      	sub	sp, #8
 80007da:	4b0c      	ldr	r3, [pc, #48]	; (800080c <HAL_MspInit+0x34>)
 80007dc:	2100      	movs	r1, #0
 80007de:	9100      	str	r1, [sp, #0]
 80007e0:	6c5a      	ldr	r2, [r3, #68]	; 0x44
 80007e2:	f442 4280 	orr.w	r2, r2, #16384	; 0x4000
 80007e6:	645a      	str	r2, [r3, #68]	; 0x44
 80007e8:	6c5a      	ldr	r2, [r3, #68]	; 0x44
 80007ea:	f402 4280 	and.w	r2, r2, #16384	; 0x4000
 80007ee:	9200      	str	r2, [sp, #0]
 80007f0:	9a00      	ldr	r2, [sp, #0]
 80007f2:	9101      	str	r1, [sp, #4]
 80007f4:	6c1a      	ldr	r2, [r3, #64]	; 0x40
 80007f6:	f042 5280 	orr.w	r2, r2, #268435456	; 0x10000000
 80007fa:	641a      	str	r2, [r3, #64]	; 0x40
 80007fc:	6c1b      	ldr	r3, [r3, #64]	; 0x40
 80007fe:	f003 5380 	and.w	r3, r3, #268435456	; 0x10000000
 8000802:	9301      	str	r3, [sp, #4]
 8000804:	9b01      	ldr	r3, [sp, #4]
 8000806:	b002      	add	sp, #8
 8000808:	4770      	bx	lr
 800080a:	bf00      	nop
 800080c:	40023800 	.word	0x40023800

08000810 <NMI_Handler>:
 8000810:	e7fe      	b.n	8000810 <NMI_Handler>

08000812 <HardFault_Handler>:
 8000812:	e7fe      	b.n	8000812 <HardFault_Handler>

08000814 <MemManage_Handler>:
 8000814:	e7fe      	b.n	8000814 <MemManage_Handler>

08000816 <BusFault_Handler>:
 8000816:	e7fe      	b.n	8000816 <BusFault_Handler>

08000818 <UsageFault_Handler>:
 8000818:	e7fe      	b.n	8000818 <UsageFault_Handler>

0800081a <SVC_Handler>:
 800081a:	4770      	bx	lr

0800081c <DebugMon_Handler>:
 800081c:	4770      	bx	lr

0800081e <PendSV_Handler>:
 800081e:	4770      	bx	lr

08000820 <SysTick_Handler>:
 8000820:	f000 ba54 	b.w	8000ccc <HAL_IncTick>

08000824 <ETH_IRQHandler>:
 8000824:	4801      	ldr	r0, [pc, #4]	; (800082c <ETH_IRQHandler+0x8>)
 8000826:	f000 bcab 	b.w	8001180 <HAL_ETH_IRQHandler>
 800082a:	bf00      	nop
 800082c:	20002e48 	.word	0x20002e48

08000830 <_getpid>:
 8000830:	2001      	movs	r0, #1
 8000832:	4770      	bx	lr

08000834 <_kill>:
 8000834:	4b02      	ldr	r3, [pc, #8]	; (8000840 <_kill+0xc>)
 8000836:	2216      	movs	r2, #22
 8000838:	601a      	str	r2, [r3, #0]
 800083a:	f04f 30ff 	mov.w	r0, #4294967295
 800083e:	4770      	bx	lr
 8000840:	2000a7b0 	.word	0x2000a7b0

08000844 <_exit>:
 8000844:	4b01      	ldr	r3, [pc, #4]	; (800084c <_exit+0x8>)
 8000846:	2216      	movs	r2, #22
 8000848:	601a      	str	r2, [r3, #0]
 800084a:	e7fe      	b.n	800084a <_exit+0x6>
 800084c:	2000a7b0 	.word	0x2000a7b0

08000850 <_read>:
 8000850:	b570      	push	{r4, r5, r6, lr}
 8000852:	460e      	mov	r6, r1
 8000854:	4614      	mov	r4, r2
 8000856:	2500      	movs	r5, #0
 8000858:	42a5      	cmp	r5, r4
 800085a:	db01      	blt.n	8000860 <_read+0x10>
 800085c:	4620      	mov	r0, r4
 800085e:	bd70      	pop	{r4, r5, r6, pc}
 8000860:	f3af 8000 	nop.w
 8000864:	5570      	strb	r0, [r6, r5]
 8000866:	3501      	adds	r5, #1
 8000868:	e7f6      	b.n	8000858 <_read+0x8>

0800086a <_write>:
 800086a:	b570      	push	{r4, r5, r6, lr}
 800086c:	460e      	mov	r6, r1
 800086e:	4614      	mov	r4, r2
 8000870:	2500      	movs	r5, #0
 8000872:	42a5      	cmp	r5, r4
 8000874:	db01      	blt.n	800087a <_write+0x10>
 8000876:	4620      	mov	r0, r4
 8000878:	bd70      	pop	{r4, r5, r6, pc}
 800087a:	5d70      	ldrb	r0, [r6, r5]
 800087c:	f3af 8000 	nop.w
 8000880:	3501      	adds	r5, #1
 8000882:	e7f6      	b.n	8000872 <_write+0x8>

08000884 <_close>:
 8000884:	f04f 30ff 	mov.w	r0, #4294967295
 8000888:	4770      	bx	lr

0800088a <_fstat>:
 800088a:	f44f 5300 	mov.w	r3, #8192	; 0x2000
 800088e:	604b      	str	r3, [r1, #4]
 8000890:	2000      	movs	r0, #0
 8000892:	4770      	bx	lr

08000894 <_isatty>:
 8000894:	2001      	movs	r0, #1
 8000896:	4770      	bx	lr

08000898 <_lseek>:
 8000898:	2000      	movs	r0, #0
 800089a:	4770      	bx	lr

0800089c <_sbrk>:
 800089c:	4b0a      	ldr	r3, [pc, #40]	; (80008c8 <_sbrk+0x2c>)
 800089e:	6819      	ldr	r1, [r3, #0]
 80008a0:	b510      	push	{r4, lr}
 80008a2:	4602      	mov	r2, r0
 80008a4:	b909      	cbnz	r1, 80008aa <_sbrk+0xe>
 80008a6:	4909      	ldr	r1, [pc, #36]	; (80008cc <_sbrk+0x30>)
 80008a8:	6019      	str	r1, [r3, #0]
 80008aa:	6818      	ldr	r0, [r3, #0]
 80008ac:	4c08      	ldr	r4, [pc, #32]	; (80008d0 <_sbrk+0x34>)
 80008ae:	4909      	ldr	r1, [pc, #36]	; (80008d4 <_sbrk+0x38>)
 80008b0:	4402      	add	r2, r0
 80008b2:	1b09      	subs	r1, r1, r4
 80008b4:	428a      	cmp	r2, r1
 80008b6:	bf89      	itett	hi
 80008b8:	4b07      	ldrhi	r3, [pc, #28]	; (80008d8 <_sbrk+0x3c>)
 80008ba:	601a      	strls	r2, [r3, #0]
 80008bc:	220c      	movhi	r2, #12
 80008be:	601a      	strhi	r2, [r3, #0]
 80008c0:	bf88      	it	hi
 80008c2:	f04f 30ff 	movhi.w	r0, #4294967295
 80008c6:	bd10      	pop	{r4, pc}
 80008c8:	2000001c 	.word	0x2000001c
 80008cc:	10000078 	.word	0x10000078
 80008d0:	00000400 	.word	0x00000400
 80008d4:	20030000 	.word	0x20030000
 80008d8:	2000a7b0 	.word	0x2000a7b0

080008dc <SystemInit>:
 80008dc:	4a03      	ldr	r2, [pc, #12]	; (80008ec <SystemInit+0x10>)
 80008de:	f8d2 3088 	ldr.w	r3, [r2, #136]	; 0x88
 80008e2:	f443 0370 	orr.w	r3, r3, #15728640	; 0xf00000
 80008e6:	f8c2 3088 	str.w	r3, [r2, #136]	; 0x88
 80008ea:	4770      	bx	lr
 80008ec:	e000ed00 	.word	0xe000ed00

080008f0 <tcp_server_error>:
 80008f0:	4770      	bx	lr

080008f2 <tcp_server_connection_close>:
 80008f2:	b538      	push	{r3, r4, r5, lr}
 80008f4:	4604      	mov	r4, r0
 80008f6:	460d      	mov	r5, r1
 80008f8:	2100      	movs	r1, #0
 80008fa:	f002 fe9f 	bl	800363c <tcp_arg>
 80008fe:	2100      	movs	r1, #0
 8000900:	4620      	mov	r0, r4
 8000902:	f002 feb7 	bl	8003674 <tcp_sent>
 8000906:	2100      	movs	r1, #0
 8000908:	4620      	mov	r0, r4
 800090a:	f002 fe9b 	bl	8003644 <tcp_recv>
 800090e:	2100      	movs	r1, #0
 8000910:	4620      	mov	r0, r4
 8000912:	f002 fec7 	bl	80036a4 <tcp_err>
 8000916:	2100      	movs	r1, #0
 8000918:	4620      	mov	r0, r4
 800091a:	f002 fedb 	bl	80036d4 <tcp_accept>
 800091e:	2200      	movs	r2, #0
 8000920:	4611      	mov	r1, r2
 8000922:	4620      	mov	r0, r4
 8000924:	f002 fedc 	bl	80036e0 <tcp_poll>
 8000928:	b115      	cbz	r5, 8000930 <tcp_server_connection_close+0x3e>
 800092a:	4628      	mov	r0, r5
 800092c:	f001 fd04 	bl	8002338 <mem_free>
 8000930:	4620      	mov	r0, r4
 8000932:	e8bd 4038 	ldmia.w	sp!, {r3, r4, r5, lr}
 8000936:	f003 ba1d 	b.w	8003d74 <tcp_close>
	...

0800093c <tcp_server_accept>:
 800093c:	b538      	push	{r3, r4, r5, lr}
 800093e:	460c      	mov	r4, r1
 8000940:	4620      	mov	r0, r4
 8000942:	2101      	movs	r1, #1
 8000944:	f002 fe46 	bl	80035d4 <tcp_setprio>
 8000948:	200c      	movs	r0, #12
 800094a:	f001 fe51 	bl	80025f0 <mem_malloc>
 800094e:	4601      	mov	r1, r0
 8000950:	b1b0      	cbz	r0, 8000980 <tcp_server_accept+0x44>
 8000952:	2301      	movs	r3, #1
 8000954:	2500      	movs	r5, #0
 8000956:	8003      	strh	r3, [r0, #0]
 8000958:	6044      	str	r4, [r0, #4]
 800095a:	6085      	str	r5, [r0, #8]
 800095c:	4620      	mov	r0, r4
 800095e:	f002 fe6d 	bl	800363c <tcp_arg>
 8000962:	490a      	ldr	r1, [pc, #40]	; (800098c <tcp_server_accept+0x50>)
 8000964:	4620      	mov	r0, r4
 8000966:	f002 fe6d 	bl	8003644 <tcp_recv>
 800096a:	4909      	ldr	r1, [pc, #36]	; (8000990 <tcp_server_accept+0x54>)
 800096c:	4620      	mov	r0, r4
 800096e:	f002 fe99 	bl	80036a4 <tcp_err>
 8000972:	4620      	mov	r0, r4
 8000974:	4907      	ldr	r1, [pc, #28]	; (8000994 <tcp_server_accept+0x58>)
 8000976:	462a      	mov	r2, r5
 8000978:	f002 feb2 	bl	80036e0 <tcp_poll>
 800097c:	4628      	mov	r0, r5
 800097e:	bd38      	pop	{r3, r4, r5, pc}
 8000980:	4620      	mov	r0, r4
 8000982:	f7ff ffb6 	bl	80008f2 <tcp_server_connection_close>
 8000986:	f04f 30ff 	mov.w	r0, #4294967295
 800098a:	e7f8      	b.n	800097e <tcp_server_accept+0x42>
 800098c:	08000af9 	.word	0x08000af9
 8000990:	080008f1 	.word	0x080008f1
 8000994:	08000acd 	.word	0x08000acd

08000998 <tcp_server_send.isra.0>:
 8000998:	b5f8      	push	{r3, r4, r5, r6, r7, lr}
 800099a:	4605      	mov	r5, r0
 800099c:	460e      	mov	r6, r1
 800099e:	6834      	ldr	r4, [r6, #0]
 80009a0:	b1ec      	cbz	r4, 80009de <tcp_server_send.isra.0+0x46>
 80009a2:	8962      	ldrh	r2, [r4, #10]
 80009a4:	f8b5 3064 	ldrh.w	r3, [r5, #100]	; 0x64
 80009a8:	4293      	cmp	r3, r2
 80009aa:	d318      	bcc.n	80009de <tcp_server_send.isra.0+0x46>
 80009ac:	6861      	ldr	r1, [r4, #4]
 80009ae:	2301      	movs	r3, #1
 80009b0:	4628      	mov	r0, r5
 80009b2:	f005 f931 	bl	8005c18 <tcp_write>
 80009b6:	b978      	cbnz	r0, 80009d8 <tcp_server_send.isra.0+0x40>
 80009b8:	6820      	ldr	r0, [r4, #0]
 80009ba:	8967      	ldrh	r7, [r4, #10]
 80009bc:	6030      	str	r0, [r6, #0]
 80009be:	b108      	cbz	r0, 80009c4 <tcp_server_send.isra.0+0x2c>
 80009c0:	f002 faa8 	bl	8002f14 <pbuf_ref>
 80009c4:	4620      	mov	r0, r4
 80009c6:	f002 f95d 	bl	8002c84 <pbuf_free>
 80009ca:	2800      	cmp	r0, #0
 80009cc:	d0fa      	beq.n	80009c4 <tcp_server_send.isra.0+0x2c>
 80009ce:	4639      	mov	r1, r7
 80009d0:	4628      	mov	r0, r5
 80009d2:	f002 fdad 	bl	8003530 <tcp_recved>
 80009d6:	e7e2      	b.n	800099e <tcp_server_send.isra.0+0x6>
 80009d8:	3001      	adds	r0, #1
 80009da:	d100      	bne.n	80009de <tcp_server_send.isra.0+0x46>
 80009dc:	6034      	str	r4, [r6, #0]
 80009de:	bdf8      	pop	{r3, r4, r5, r6, r7, pc}

080009e0 <tcp_server_handle>:
 80009e0:	e92d 41f0 	stmdb	sp!, {r4, r5, r6, r7, r8, lr}
 80009e4:	4606      	mov	r6, r0
 80009e6:	6888      	ldr	r0, [r1, #8]
 80009e8:	b09a      	sub	sp, #104	; 0x68
 80009ea:	460c      	mov	r4, r1
 80009ec:	6845      	ldr	r5, [r0, #4]
 80009ee:	f002 f949 	bl	8002c84 <pbuf_free>
 80009f2:	4930      	ldr	r1, [pc, #192]	; (8000ab4 <tcp_server_handle+0xd4>)
 80009f4:	a801      	add	r0, sp, #4
 80009f6:	f007 fddb 	bl	80085b0 <strcpy>
 80009fa:	f44f 7220 	mov.w	r2, #640	; 0x280
 80009fe:	2113      	movs	r1, #19
 8000a00:	2036      	movs	r0, #54	; 0x36
 8000a02:	f002 f9a3 	bl	8002d4c <pbuf_alloc>
 8000a06:	4627      	mov	r7, r4
 8000a08:	2213      	movs	r2, #19
 8000a0a:	4680      	mov	r8, r0
 8000a0c:	a901      	add	r1, sp, #4
 8000a0e:	f002 fba1 	bl	8003154 <pbuf_take>
 8000a12:	f847 8f08 	str.w	r8, [r7, #8]!
 8000a16:	4630      	mov	r0, r6
 8000a18:	4639      	mov	r1, r7
 8000a1a:	f7ff ffbd 	bl	8000998 <tcp_server_send.isra.0>
 8000a1e:	4640      	mov	r0, r8
 8000a20:	f002 f930 	bl	8002c84 <pbuf_free>
 8000a24:	68a0      	ldr	r0, [r4, #8]
 8000a26:	f002 f92d 	bl	8002c84 <pbuf_free>
 8000a2a:	4923      	ldr	r1, [pc, #140]	; (8000ab8 <tcp_server_handle+0xd8>)
 8000a2c:	4628      	mov	r0, r5
 8000a2e:	f7ff fbdf 	bl	80001f0 <strcmp>
 8000a32:	b938      	cbnz	r0, 8000a44 <tcp_server_handle+0x64>
 8000a34:	f100 4080 	add.w	r0, r0, #1073741824	; 0x40000000
 8000a38:	f44f 4180 	mov.w	r1, #16384	; 0x4000
 8000a3c:	f500 3001 	add.w	r0, r0, #132096	; 0x20400
 8000a40:	f000 ff31 	bl	80018a6 <HAL_GPIO_TogglePin>
 8000a44:	491d      	ldr	r1, [pc, #116]	; (8000abc <tcp_server_handle+0xdc>)
 8000a46:	4628      	mov	r0, r5
 8000a48:	f7ff fbd2 	bl	80001f0 <strcmp>
 8000a4c:	b930      	cbnz	r0, 8000a5c <tcp_server_handle+0x7c>
 8000a4e:	f100 4080 	add.w	r0, r0, #1073741824	; 0x40000000
 8000a52:	2180      	movs	r1, #128	; 0x80
 8000a54:	f500 3001 	add.w	r0, r0, #132096	; 0x20400
 8000a58:	f000 ff25 	bl	80018a6 <HAL_GPIO_TogglePin>
 8000a5c:	4918      	ldr	r1, [pc, #96]	; (8000ac0 <tcp_server_handle+0xe0>)
 8000a5e:	4628      	mov	r0, r5
 8000a60:	f7ff fbc6 	bl	80001f0 <strcmp>
 8000a64:	b930      	cbnz	r0, 8000a74 <tcp_server_handle+0x94>
 8000a66:	f100 4080 	add.w	r0, r0, #1073741824	; 0x40000000
 8000a6a:	2101      	movs	r1, #1
 8000a6c:	f500 3001 	add.w	r0, r0, #132096	; 0x20400
 8000a70:	f000 ff19 	bl	80018a6 <HAL_GPIO_TogglePin>
 8000a74:	4913      	ldr	r1, [pc, #76]	; (8000ac4 <tcp_server_handle+0xe4>)
 8000a76:	4628      	mov	r0, r5
 8000a78:	f7ff fbba 	bl	80001f0 <strcmp>
 8000a7c:	b9b8      	cbnz	r0, 8000aae <tcp_server_handle+0xce>
 8000a7e:	f44f 7220 	mov.w	r2, #640	; 0x280
 8000a82:	f241 3188 	movw	r1, #5000	; 0x1388
 8000a86:	2036      	movs	r0, #54	; 0x36
 8000a88:	f002 f960 	bl	8002d4c <pbuf_alloc>
 8000a8c:	f241 3288 	movw	r2, #5000	; 0x1388
 8000a90:	4605      	mov	r5, r0
 8000a92:	490d      	ldr	r1, [pc, #52]	; (8000ac8 <tcp_server_handle+0xe8>)
 8000a94:	f002 fb5e 	bl	8003154 <pbuf_take>
 8000a98:	4639      	mov	r1, r7
 8000a9a:	4630      	mov	r0, r6
 8000a9c:	60a5      	str	r5, [r4, #8]
 8000a9e:	f7ff ff7b 	bl	8000998 <tcp_server_send.isra.0>
 8000aa2:	4628      	mov	r0, r5
 8000aa4:	f002 f8ee 	bl	8002c84 <pbuf_free>
 8000aa8:	68a0      	ldr	r0, [r4, #8]
 8000aaa:	f002 f8eb 	bl	8002c84 <pbuf_free>
 8000aae:	b01a      	add	sp, #104	; 0x68
 8000ab0:	e8bd 81f0 	ldmia.w	sp!, {r4, r5, r6, r7, r8, pc}
 8000ab4:	0800956c 	.word	0x0800956c
 8000ab8:	08009580 	.word	0x08009580
 8000abc:	08009584 	.word	0x08009584
 8000ac0:	08009589 	.word	0x08009589
 8000ac4:	08009d4d 	.word	0x08009d4d
 8000ac8:	200001a0 	.word	0x200001a0

08000acc <tcp_server_poll>:
 8000acc:	4603      	mov	r3, r0
 8000ace:	b510      	push	{r4, lr}
 8000ad0:	4608      	mov	r0, r1
 8000ad2:	4619      	mov	r1, r3
 8000ad4:	b143      	cbz	r3, 8000ae8 <tcp_server_poll+0x1c>
 8000ad6:	689c      	ldr	r4, [r3, #8]
 8000ad8:	b95c      	cbnz	r4, 8000af2 <tcp_server_poll+0x26>
 8000ada:	781b      	ldrb	r3, [r3, #0]
 8000adc:	2b03      	cmp	r3, #3
 8000ade:	d101      	bne.n	8000ae4 <tcp_server_poll+0x18>
 8000ae0:	f7ff ff07 	bl	80008f2 <tcp_server_connection_close>
 8000ae4:	4620      	mov	r0, r4
 8000ae6:	e003      	b.n	8000af0 <tcp_server_poll+0x24>
 8000ae8:	f002 ff7a 	bl	80039e0 <tcp_abort>
 8000aec:	f06f 000c 	mvn.w	r0, #12
 8000af0:	bd10      	pop	{r4, pc}
 8000af2:	2000      	movs	r0, #0
 8000af4:	e7fc      	b.n	8000af0 <tcp_server_poll+0x24>
	...

08000af8 <tcp_server_recv>:
 8000af8:	b5f8      	push	{r3, r4, r5, r6, r7, lr}
 8000afa:	460e      	mov	r6, r1
 8000afc:	4615      	mov	r5, r2
 8000afe:	461f      	mov	r7, r3
 8000b00:	4604      	mov	r4, r0
 8000b02:	b928      	cbnz	r0, 8000b10 <tcp_server_recv+0x18>
 8000b04:	4b20      	ldr	r3, [pc, #128]	; (8000b88 <tcp_server_recv+0x90>)
 8000b06:	4921      	ldr	r1, [pc, #132]	; (8000b8c <tcp_server_recv+0x94>)
 8000b08:	4821      	ldr	r0, [pc, #132]	; (8000b90 <tcp_server_recv+0x98>)
 8000b0a:	227a      	movs	r2, #122	; 0x7a
 8000b0c:	f007 fcf8 	bl	8008500 <iprintf>
 8000b10:	b9a5      	cbnz	r5, 8000b3c <tcp_server_recv+0x44>
 8000b12:	2303      	movs	r3, #3
 8000b14:	7023      	strb	r3, [r4, #0]
 8000b16:	68a3      	ldr	r3, [r4, #8]
 8000b18:	b933      	cbnz	r3, 8000b28 <tcp_server_recv+0x30>
 8000b1a:	4621      	mov	r1, r4
 8000b1c:	4630      	mov	r0, r6
 8000b1e:	f7ff fee8 	bl	80008f2 <tcp_server_connection_close>
 8000b22:	462f      	mov	r7, r5
 8000b24:	4638      	mov	r0, r7
 8000b26:	bdf8      	pop	{r3, r4, r5, r6, r7, pc}
 8000b28:	4630      	mov	r0, r6
 8000b2a:	491a      	ldr	r1, [pc, #104]	; (8000b94 <tcp_server_recv+0x9c>)
 8000b2c:	f002 fda2 	bl	8003674 <tcp_sent>
 8000b30:	f104 0108 	add.w	r1, r4, #8
 8000b34:	4630      	mov	r0, r6
 8000b36:	f7ff ff2f 	bl	8000998 <tcp_server_send.isra.0>
 8000b3a:	e7f2      	b.n	8000b22 <tcp_server_recv+0x2a>
 8000b3c:	b12f      	cbz	r7, 8000b4a <tcp_server_recv+0x52>
 8000b3e:	2300      	movs	r3, #0
 8000b40:	60a3      	str	r3, [r4, #8]
 8000b42:	4628      	mov	r0, r5
 8000b44:	f002 f89e 	bl	8002c84 <pbuf_free>
 8000b48:	e7ec      	b.n	8000b24 <tcp_server_recv+0x2c>
 8000b4a:	7823      	ldrb	r3, [r4, #0]
 8000b4c:	2b01      	cmp	r3, #1
 8000b4e:	d10b      	bne.n	8000b68 <tcp_server_recv+0x70>
 8000b50:	2302      	movs	r3, #2
 8000b52:	4910      	ldr	r1, [pc, #64]	; (8000b94 <tcp_server_recv+0x9c>)
 8000b54:	7023      	strb	r3, [r4, #0]
 8000b56:	60a5      	str	r5, [r4, #8]
 8000b58:	4630      	mov	r0, r6
 8000b5a:	f002 fd8b 	bl	8003674 <tcp_sent>
 8000b5e:	4621      	mov	r1, r4
 8000b60:	4630      	mov	r0, r6
 8000b62:	f7ff ff3d 	bl	80009e0 <tcp_server_handle>
 8000b66:	e7dd      	b.n	8000b24 <tcp_server_recv+0x2c>
 8000b68:	2b02      	cmp	r3, #2
 8000b6a:	d107      	bne.n	8000b7c <tcp_server_recv+0x84>
 8000b6c:	68a0      	ldr	r0, [r4, #8]
 8000b6e:	b908      	cbnz	r0, 8000b74 <tcp_server_recv+0x7c>
 8000b70:	60a5      	str	r5, [r4, #8]
 8000b72:	e7f4      	b.n	8000b5e <tcp_server_recv+0x66>
 8000b74:	4629      	mov	r1, r5
 8000b76:	f002 fa1b 	bl	8002fb0 <pbuf_chain>
 8000b7a:	e7d3      	b.n	8000b24 <tcp_server_recv+0x2c>
 8000b7c:	8929      	ldrh	r1, [r5, #8]
 8000b7e:	4630      	mov	r0, r6
 8000b80:	f002 fcd6 	bl	8003530 <tcp_recved>
 8000b84:	60a7      	str	r7, [r4, #8]
 8000b86:	e7dc      	b.n	8000b42 <tcp_server_recv+0x4a>
 8000b88:	08009590 	.word	0x08009590
 8000b8c:	080095a9 	.word	0x080095a9
 8000b90:	080095b5 	.word	0x080095b5
 8000b94:	08000b99 	.word	0x08000b99

08000b98 <tcp_server_sent>:
 8000b98:	b508      	push	{r3, lr}
 8000b9a:	4603      	mov	r3, r0
 8000b9c:	2200      	movs	r2, #0
 8000b9e:	705a      	strb	r2, [r3, #1]
 8000ba0:	689a      	ldr	r2, [r3, #8]
 8000ba2:	4608      	mov	r0, r1
 8000ba4:	b12a      	cbz	r2, 8000bb2 <tcp_server_sent+0x1a>
 8000ba6:	f103 0108 	add.w	r1, r3, #8
 8000baa:	f7ff fef5 	bl	8000998 <tcp_server_send.isra.0>
 8000bae:	2000      	movs	r0, #0
 8000bb0:	bd08      	pop	{r3, pc}
 8000bb2:	781a      	ldrb	r2, [r3, #0]
 8000bb4:	2a03      	cmp	r2, #3
 8000bb6:	d1fa      	bne.n	8000bae <tcp_server_sent+0x16>
 8000bb8:	4619      	mov	r1, r3
 8000bba:	f7ff fe9a 	bl	80008f2 <tcp_server_connection_close>
 8000bbe:	e7f6      	b.n	8000bae <tcp_server_sent+0x16>

08000bc0 <tcp_server_init>:
 8000bc0:	b513      	push	{r0, r1, r4, lr}
 8000bc2:	f003 f821 	bl	8003c08 <tcp_new>
 8000bc6:	4b0b      	ldr	r3, [pc, #44]	; (8000bf4 <tcp_server_init+0x34>)
 8000bc8:	9301      	str	r3, [sp, #4]
 8000bca:	2207      	movs	r2, #7
 8000bcc:	a901      	add	r1, sp, #4
 8000bce:	4604      	mov	r4, r0
 8000bd0:	f002 fbb8 	bl	8003344 <tcp_bind>
 8000bd4:	b940      	cbnz	r0, 8000be8 <tcp_server_init+0x28>
 8000bd6:	21ff      	movs	r1, #255	; 0xff
 8000bd8:	4620      	mov	r0, r4
 8000bda:	f002 fc6f 	bl	80034bc <tcp_listen_with_backlog>
 8000bde:	4906      	ldr	r1, [pc, #24]	; (8000bf8 <tcp_server_init+0x38>)
 8000be0:	f002 fd78 	bl	80036d4 <tcp_accept>
 8000be4:	b002      	add	sp, #8
 8000be6:	bd10      	pop	{r4, pc}
 8000be8:	4621      	mov	r1, r4
 8000bea:	2001      	movs	r0, #1
 8000bec:	f001 fe0c 	bl	8002808 <memp_free>
 8000bf0:	e7f8      	b.n	8000be4 <tcp_server_init+0x24>
 8000bf2:	bf00      	nop
 8000bf4:	0701a8c0 	.word	0x0701a8c0
 8000bf8:	0800093d 	.word	0x0800093d

08000bfc <Reset_Handler>:
 8000bfc:	f8df d034 	ldr.w	sp, [pc, #52]	; 8000c34 <LoopFillZerobss+0x12>
 8000c00:	480d      	ldr	r0, [pc, #52]	; (8000c38 <LoopFillZerobss+0x16>)
 8000c02:	490e      	ldr	r1, [pc, #56]	; (8000c3c <LoopFillZerobss+0x1a>)
 8000c04:	4a0e      	ldr	r2, [pc, #56]	; (8000c40 <LoopFillZerobss+0x1e>)
 8000c06:	2300      	movs	r3, #0
 8000c08:	e002      	b.n	8000c10 <LoopCopyDataInit>

08000c0a <CopyDataInit>:
 8000c0a:	58d4      	ldr	r4, [r2, r3]
 8000c0c:	50c4      	str	r4, [r0, r3]
 8000c0e:	3304      	adds	r3, #4

08000c10 <LoopCopyDataInit>:
 8000c10:	18c4      	adds	r4, r0, r3
 8000c12:	428c      	cmp	r4, r1
 8000c14:	d3f9      	bcc.n	8000c0a <CopyDataInit>
 8000c16:	4a0b      	ldr	r2, [pc, #44]	; (8000c44 <LoopFillZerobss+0x22>)
 8000c18:	4c0b      	ldr	r4, [pc, #44]	; (8000c48 <LoopFillZerobss+0x26>)
 8000c1a:	2300      	movs	r3, #0
 8000c1c:	e001      	b.n	8000c22 <LoopFillZerobss>

08000c1e <FillZerobss>:
 8000c1e:	6013      	str	r3, [r2, #0]
 8000c20:	3204      	adds	r2, #4

08000c22 <LoopFillZerobss>:
 8000c22:	42a2      	cmp	r2, r4
 8000c24:	d3fb      	bcc.n	8000c1e <FillZerobss>
 8000c26:	f7ff fe59 	bl	80008dc <SystemInit>
 8000c2a:	f007 fc21 	bl	8008470 <__libc_init_array>
 8000c2e:	f7ff fd15 	bl	800065c <main>
 8000c32:	4770      	bx	lr
 8000c34:	20030000 	.word	0x20030000
 8000c38:	10000000 	.word	0x10000000
 8000c3c:	10000078 	.word	0x10000078
 8000c40:	0800b610 	.word	0x0800b610
 8000c44:	20000000 	.word	0x20000000
 8000c48:	2000a7c0 	.word	0x2000a7c0

08000c4c <ADC_IRQHandler>:
 8000c4c:	e7fe      	b.n	8000c4c <ADC_IRQHandler>
	...

08000c50 <HAL_InitTick>:
 8000c50:	b538      	push	{r3, r4, r5, lr}
 8000c52:	4a0e      	ldr	r2, [pc, #56]	; (8000c8c <HAL_InitTick+0x3c>)
 8000c54:	4b0e      	ldr	r3, [pc, #56]	; (8000c90 <HAL_InitTick+0x40>)
 8000c56:	4605      	mov	r5, r0
 8000c58:	7818      	ldrb	r0, [r3, #0]
 8000c5a:	f44f 737a 	mov.w	r3, #1000	; 0x3e8
 8000c5e:	fbb3 f3f0 	udiv	r3, r3, r0
 8000c62:	6810      	ldr	r0, [r2, #0]
 8000c64:	fbb0 f0f3 	udiv	r0, r0, r3
 8000c68:	f000 f8a8 	bl	8000dbc <HAL_SYSTICK_Config>
 8000c6c:	4604      	mov	r4, r0
 8000c6e:	b958      	cbnz	r0, 8000c88 <HAL_InitTick+0x38>
 8000c70:	2d0f      	cmp	r5, #15
 8000c72:	d809      	bhi.n	8000c88 <HAL_InitTick+0x38>
 8000c74:	4602      	mov	r2, r0
 8000c76:	4629      	mov	r1, r5
 8000c78:	f04f 30ff 	mov.w	r0, #4294967295
 8000c7c:	f000 f85e 	bl	8000d3c <HAL_NVIC_SetPriority>
 8000c80:	4b04      	ldr	r3, [pc, #16]	; (8000c94 <HAL_InitTick+0x44>)
 8000c82:	4620      	mov	r0, r4
 8000c84:	601d      	str	r5, [r3, #0]
 8000c86:	bd38      	pop	{r3, r4, r5, pc}
 8000c88:	2001      	movs	r0, #1
 8000c8a:	e7fc      	b.n	8000c86 <HAL_InitTick+0x36>
 8000c8c:	10000000 	.word	0x10000000
 8000c90:	10000004 	.word	0x10000004
 8000c94:	10000008 	.word	0x10000008

08000c98 <HAL_Init>:
 8000c98:	b508      	push	{r3, lr}
 8000c9a:	4b0b      	ldr	r3, [pc, #44]	; (8000cc8 <HAL_Init+0x30>)
 8000c9c:	681a      	ldr	r2, [r3, #0]
 8000c9e:	f442 7200 	orr.w	r2, r2, #512	; 0x200
 8000ca2:	601a      	str	r2, [r3, #0]
 8000ca4:	681a      	ldr	r2, [r3, #0]
 8000ca6:	f442 6280 	orr.w	r2, r2, #1024	; 0x400
 8000caa:	601a      	str	r2, [r3, #0]
 8000cac:	681a      	ldr	r2, [r3, #0]
 8000cae:	f442 7280 	orr.w	r2, r2, #256	; 0x100
 8000cb2:	601a      	str	r2, [r3, #0]
 8000cb4:	2003      	movs	r0, #3
 8000cb6:	f000 f82f 	bl	8000d18 <HAL_NVIC_SetPriorityGrouping>
 8000cba:	2000      	movs	r0, #0
 8000cbc:	f7ff ffc8 	bl	8000c50 <HAL_InitTick>
 8000cc0:	f7ff fd8a 	bl	80007d8 <HAL_MspInit>
 8000cc4:	2000      	movs	r0, #0
 8000cc6:	bd08      	pop	{r3, pc}
 8000cc8:	40023c00 	.word	0x40023c00

08000ccc <HAL_IncTick>:
 8000ccc:	4a03      	ldr	r2, [pc, #12]	; (8000cdc <HAL_IncTick+0x10>)
 8000cce:	4b04      	ldr	r3, [pc, #16]	; (8000ce0 <HAL_IncTick+0x14>)
 8000cd0:	6811      	ldr	r1, [r2, #0]
 8000cd2:	781b      	ldrb	r3, [r3, #0]
 8000cd4:	440b      	add	r3, r1
 8000cd6:	6013      	str	r3, [r2, #0]
 8000cd8:	4770      	bx	lr
 8000cda:	bf00      	nop
 8000cdc:	20001528 	.word	0x20001528
 8000ce0:	10000004 	.word	0x10000004

08000ce4 <HAL_GetTick>:
 8000ce4:	4b01      	ldr	r3, [pc, #4]	; (8000cec <HAL_GetTick+0x8>)
 8000ce6:	6818      	ldr	r0, [r3, #0]
 8000ce8:	4770      	bx	lr
 8000cea:	bf00      	nop
 8000cec:	20001528 	.word	0x20001528

08000cf0 <HAL_Delay>:
 8000cf0:	b538      	push	{r3, r4, r5, lr}
 8000cf2:	4604      	mov	r4, r0
 8000cf4:	f7ff fff6 	bl	8000ce4 <HAL_GetTick>
 8000cf8:	1c63      	adds	r3, r4, #1
 8000cfa:	bf1c      	itt	ne
 8000cfc:	4b05      	ldrne	r3, [pc, #20]	; (8000d14 <HAL_Delay+0x24>)
 8000cfe:	781b      	ldrbne	r3, [r3, #0]
 8000d00:	4605      	mov	r5, r0
 8000d02:	bf18      	it	ne
 8000d04:	18e4      	addne	r4, r4, r3
 8000d06:	f7ff ffed 	bl	8000ce4 <HAL_GetTick>
 8000d0a:	1b43      	subs	r3, r0, r5
 8000d0c:	42a3      	cmp	r3, r4
 8000d0e:	d3fa      	bcc.n	8000d06 <HAL_Delay+0x16>
 8000d10:	bd38      	pop	{r3, r4, r5, pc}
 8000d12:	bf00      	nop
 8000d14:	10000004 	.word	0x10000004

08000d18 <HAL_NVIC_SetPriorityGrouping>:
 8000d18:	4907      	ldr	r1, [pc, #28]	; (8000d38 <HAL_NVIC_SetPriorityGrouping+0x20>)
 8000d1a:	68ca      	ldr	r2, [r1, #12]
 8000d1c:	f422 62e0 	bic.w	r2, r2, #1792	; 0x700
 8000d20:	0203      	lsls	r3, r0, #8
 8000d22:	0412      	lsls	r2, r2, #16
 8000d24:	f403 63e0 	and.w	r3, r3, #1792	; 0x700
 8000d28:	0c12      	lsrs	r2, r2, #16
 8000d2a:	4313      	orrs	r3, r2
 8000d2c:	f043 63bf 	orr.w	r3, r3, #100139008	; 0x5f80000
 8000d30:	f443 3300 	orr.w	r3, r3, #131072	; 0x20000
 8000d34:	60cb      	str	r3, [r1, #12]
 8000d36:	4770      	bx	lr
 8000d38:	e000ed00 	.word	0xe000ed00

08000d3c <HAL_NVIC_SetPriority>:
 8000d3c:	4b16      	ldr	r3, [pc, #88]	; (8000d98 <HAL_NVIC_SetPriority+0x5c>)
 8000d3e:	b530      	push	{r4, r5, lr}
 8000d40:	68dc      	ldr	r4, [r3, #12]
 8000d42:	f3c4 2402 	ubfx	r4, r4, #8, #3
 8000d46:	f1c4 0507 	rsb	r5, r4, #7
 8000d4a:	1d23      	adds	r3, r4, #4
 8000d4c:	2d04      	cmp	r5, #4
 8000d4e:	bf28      	it	cs
 8000d50:	2504      	movcs	r5, #4
 8000d52:	2b06      	cmp	r3, #6
 8000d54:	f04f 33ff 	mov.w	r3, #4294967295
 8000d58:	bf8c      	ite	hi
 8000d5a:	3c03      	subhi	r4, #3
 8000d5c:	2400      	movls	r4, #0
 8000d5e:	fa03 f505 	lsl.w	r5, r3, r5
 8000d62:	ea21 0105 	bic.w	r1, r1, r5
 8000d66:	40a3      	lsls	r3, r4
 8000d68:	ea22 0203 	bic.w	r2, r2, r3
 8000d6c:	40a1      	lsls	r1, r4
 8000d6e:	2800      	cmp	r0, #0
 8000d70:	ea41 0302 	orr.w	r3, r1, r2
 8000d74:	bfac      	ite	ge
 8000d76:	f100 4060 	addge.w	r0, r0, #3758096384	; 0xe0000000
 8000d7a:	4a08      	ldrlt	r2, [pc, #32]	; (8000d9c <HAL_NVIC_SetPriority+0x60>)
 8000d7c:	ea4f 1303 	mov.w	r3, r3, lsl #4
 8000d80:	bfb8      	it	lt
 8000d82:	f000 000f 	andlt.w	r0, r0, #15
 8000d86:	b2db      	uxtb	r3, r3
 8000d88:	bfaa      	itet	ge
 8000d8a:	f500 4061 	addge.w	r0, r0, #57600	; 0xe100
 8000d8e:	5413      	strblt	r3, [r2, r0]
 8000d90:	f880 3300 	strbge.w	r3, [r0, #768]	; 0x300
 8000d94:	bd30      	pop	{r4, r5, pc}
 8000d96:	bf00      	nop
 8000d98:	e000ed00 	.word	0xe000ed00
 8000d9c:	e000ed14 	.word	0xe000ed14

08000da0 <HAL_NVIC_EnableIRQ>:
 8000da0:	2800      	cmp	r0, #0
 8000da2:	db08      	blt.n	8000db6 <HAL_NVIC_EnableIRQ+0x16>
 8000da4:	0942      	lsrs	r2, r0, #5
 8000da6:	2301      	movs	r3, #1
 8000da8:	f000 001f 	and.w	r0, r0, #31
 8000dac:	fa03 f000 	lsl.w	r0, r3, r0
 8000db0:	4b01      	ldr	r3, [pc, #4]	; (8000db8 <HAL_NVIC_EnableIRQ+0x18>)
 8000db2:	f843 0022 	str.w	r0, [r3, r2, lsl #2]
 8000db6:	4770      	bx	lr
 8000db8:	e000e100 	.word	0xe000e100

08000dbc <HAL_SYSTICK_Config>:
 8000dbc:	3801      	subs	r0, #1
 8000dbe:	f1b0 7f80 	cmp.w	r0, #16777216	; 0x1000000
 8000dc2:	d20a      	bcs.n	8000dda <HAL_SYSTICK_Config+0x1e>
 8000dc4:	4b06      	ldr	r3, [pc, #24]	; (8000de0 <HAL_SYSTICK_Config+0x24>)
 8000dc6:	4a07      	ldr	r2, [pc, #28]	; (8000de4 <HAL_SYSTICK_Config+0x28>)
 8000dc8:	6058      	str	r0, [r3, #4]
 8000dca:	21f0      	movs	r1, #240	; 0xf0
 8000dcc:	f882 1023 	strb.w	r1, [r2, #35]	; 0x23
 8000dd0:	2000      	movs	r0, #0
 8000dd2:	2207      	movs	r2, #7
 8000dd4:	6098      	str	r0, [r3, #8]
 8000dd6:	601a      	str	r2, [r3, #0]
 8000dd8:	4770      	bx	lr
 8000dda:	2001      	movs	r0, #1
 8000ddc:	4770      	bx	lr
 8000dde:	bf00      	nop
 8000de0:	e000e010 	.word	0xe000e010
 8000de4:	e000ed00 	.word	0xe000ed00

08000de8 <ETH_Delay.constprop.0>:
 8000de8:	4b07      	ldr	r3, [pc, #28]	; (8000e08 <ETH_Delay.constprop.0+0x20>)
 8000dea:	b082      	sub	sp, #8
 8000dec:	681b      	ldr	r3, [r3, #0]
 8000dee:	f44f 52fa 	mov.w	r2, #8000	; 0x1f40
 8000df2:	fbb3 f3f2 	udiv	r3, r3, r2
 8000df6:	9301      	str	r3, [sp, #4]
 8000df8:	bf00      	nop
 8000dfa:	9b01      	ldr	r3, [sp, #4]
 8000dfc:	1e5a      	subs	r2, r3, #1
 8000dfe:	9201      	str	r2, [sp, #4]
 8000e00:	2b00      	cmp	r3, #0
 8000e02:	d1f9      	bne.n	8000df8 <ETH_Delay.constprop.0+0x10>
 8000e04:	b002      	add	sp, #8
 8000e06:	4770      	bx	lr
 8000e08:	10000000 	.word	0x10000000

08000e0c <ETH_FlushTransmitFIFO>:
 8000e0c:	b507      	push	{r0, r1, r2, lr}
 8000e0e:	2300      	movs	r3, #0
 8000e10:	9301      	str	r3, [sp, #4]
 8000e12:	f241 0118 	movw	r1, #4120	; 0x1018
 8000e16:	6803      	ldr	r3, [r0, #0]
 8000e18:	585a      	ldr	r2, [r3, r1]
 8000e1a:	f442 1280 	orr.w	r2, r2, #1048576	; 0x100000
 8000e1e:	505a      	str	r2, [r3, r1]
 8000e20:	585b      	ldr	r3, [r3, r1]
 8000e22:	9301      	str	r3, [sp, #4]
 8000e24:	f7ff ffe0 	bl	8000de8 <ETH_Delay.constprop.0>
 8000e28:	9a01      	ldr	r2, [sp, #4]
 8000e2a:	6803      	ldr	r3, [r0, #0]
 8000e2c:	505a      	str	r2, [r3, r1]
 8000e2e:	b003      	add	sp, #12
 8000e30:	f85d fb04 	ldr.w	pc, [sp], #4

08000e34 <ETH_MACDMAConfig>:
 8000e34:	b570      	push	{r4, r5, r6, lr}
 8000e36:	4604      	mov	r4, r0
 8000e38:	b129      	cbz	r1, 8000e46 <ETH_MACDMAConfig+0x12>
 8000e3a:	f44f 4380 	mov.w	r3, #16384	; 0x4000
 8000e3e:	f44f 6200 	mov.w	r2, #2048	; 0x800
 8000e42:	e9c0 3202 	strd	r3, r2, [r0, #8]
 8000e46:	69e3      	ldr	r3, [r4, #28]
 8000e48:	6822      	ldr	r2, [r4, #0]
 8000e4a:	2b00      	cmp	r3, #0
 8000e4c:	e9d4 3502 	ldrd	r3, r5, [r4, #8]
 8000e50:	bf0c      	ite	eq
 8000e52:	f44f 6180 	moveq.w	r1, #1024	; 0x400
 8000e56:	2100      	movne	r1, #0
 8000e58:	432b      	orrs	r3, r5
 8000e5a:	6810      	ldr	r0, [r2, #0]
 8000e5c:	430b      	orrs	r3, r1
 8000e5e:	492d      	ldr	r1, [pc, #180]	; (8000f14 <ETH_MACDMAConfig+0xe0>)
 8000e60:	4001      	ands	r1, r0
 8000e62:	430b      	orrs	r3, r1
 8000e64:	f443 7300 	orr.w	r3, r3, #512	; 0x200
 8000e68:	6013      	str	r3, [r2, #0]
 8000e6a:	2001      	movs	r0, #1
 8000e6c:	6815      	ldr	r5, [r2, #0]
 8000e6e:	f7ff ff3f 	bl	8000cf0 <HAL_Delay>
 8000e72:	6823      	ldr	r3, [r4, #0]
 8000e74:	2240      	movs	r2, #64	; 0x40
 8000e76:	601d      	str	r5, [r3, #0]
 8000e78:	2001      	movs	r0, #1
 8000e7a:	605a      	str	r2, [r3, #4]
 8000e7c:	685d      	ldr	r5, [r3, #4]
 8000e7e:	f7ff ff37 	bl	8000cf0 <HAL_Delay>
 8000e82:	6823      	ldr	r3, [r4, #0]
 8000e84:	605d      	str	r5, [r3, #4]
 8000e86:	2500      	movs	r5, #0
 8000e88:	609d      	str	r5, [r3, #8]
 8000e8a:	60dd      	str	r5, [r3, #12]
 8000e8c:	699a      	ldr	r2, [r3, #24]
 8000e8e:	f022 02be 	bic.w	r2, r2, #190	; 0xbe
 8000e92:	0412      	lsls	r2, r2, #16
 8000e94:	0c12      	lsrs	r2, r2, #16
 8000e96:	f042 0280 	orr.w	r2, r2, #128	; 0x80
 8000e9a:	619a      	str	r2, [r3, #24]
 8000e9c:	2001      	movs	r0, #1
 8000e9e:	699e      	ldr	r6, [r3, #24]
 8000ea0:	f7ff ff26 	bl	8000cf0 <HAL_Delay>
 8000ea4:	6823      	ldr	r3, [r4, #0]
 8000ea6:	2001      	movs	r0, #1
 8000ea8:	619e      	str	r6, [r3, #24]
 8000eaa:	61dd      	str	r5, [r3, #28]
 8000eac:	69dd      	ldr	r5, [r3, #28]
 8000eae:	f7ff ff1f 	bl	8000cf0 <HAL_Delay>
 8000eb2:	6822      	ldr	r2, [r4, #0]
 8000eb4:	4b18      	ldr	r3, [pc, #96]	; (8000f18 <ETH_MACDMAConfig+0xe4>)
 8000eb6:	61d5      	str	r5, [r2, #28]
 8000eb8:	f241 0518 	movw	r5, #4120	; 0x1018
 8000ebc:	2001      	movs	r0, #1
 8000ebe:	5951      	ldr	r1, [r2, r5]
 8000ec0:	400b      	ands	r3, r1
 8000ec2:	f043 7308 	orr.w	r3, r3, #35651584	; 0x2200000
 8000ec6:	f043 0304 	orr.w	r3, r3, #4
 8000eca:	5153      	str	r3, [r2, r5]
 8000ecc:	5956      	ldr	r6, [r2, r5]
 8000ece:	f7ff ff0f 	bl	8000cf0 <HAL_Delay>
 8000ed2:	6823      	ldr	r3, [r4, #0]
 8000ed4:	4a11      	ldr	r2, [pc, #68]	; (8000f1c <ETH_MACDMAConfig+0xe8>)
 8000ed6:	515e      	str	r6, [r3, r5]
 8000ed8:	f503 5380 	add.w	r3, r3, #4096	; 0x1000
 8000edc:	2001      	movs	r0, #1
 8000ede:	601a      	str	r2, [r3, #0]
 8000ee0:	681d      	ldr	r5, [r3, #0]
 8000ee2:	f7ff ff05 	bl	8000cf0 <HAL_Delay>
 8000ee6:	6822      	ldr	r2, [r4, #0]
 8000ee8:	f502 5380 	add.w	r3, r2, #4096	; 0x1000
 8000eec:	601d      	str	r5, [r3, #0]
 8000eee:	69a3      	ldr	r3, [r4, #24]
 8000ef0:	2b01      	cmp	r3, #1
 8000ef2:	d107      	bne.n	8000f04 <ETH_MACDMAConfig+0xd0>
 8000ef4:	f241 011c 	movw	r1, #4124	; 0x101c
 8000ef8:	5853      	ldr	r3, [r2, r1]
 8000efa:	f443 3380 	orr.w	r3, r3, #65536	; 0x10000
 8000efe:	f043 0340 	orr.w	r3, r3, #64	; 0x40
 8000f02:	5053      	str	r3, [r2, r1]
 8000f04:	6963      	ldr	r3, [r4, #20]
 8000f06:	4a06      	ldr	r2, [pc, #24]	; (8000f20 <ETH_MACDMAConfig+0xec>)
 8000f08:	8899      	ldrh	r1, [r3, #4]
 8000f0a:	6011      	str	r1, [r2, #0]
 8000f0c:	681a      	ldr	r2, [r3, #0]
 8000f0e:	4b05      	ldr	r3, [pc, #20]	; (8000f24 <ETH_MACDMAConfig+0xf0>)
 8000f10:	601a      	str	r2, [r3, #0]
 8000f12:	bd70      	pop	{r4, r5, r6, pc}
 8000f14:	ff20810f 	.word	0xff20810f
 8000f18:	f8de3f23 	.word	0xf8de3f23
 8000f1c:	02c12080 	.word	0x02c12080
 8000f20:	40028040 	.word	0x40028040
 8000f24:	40028044 	.word	0x40028044

08000f28 <HAL_ETH_DMATxDescListInit>:
 8000f28:	e92d 41f0 	stmdb	sp!, {r4, r5, r6, r7, r8, lr}
 8000f2c:	f890 4045 	ldrb.w	r4, [r0, #69]	; 0x45
 8000f30:	2c01      	cmp	r4, #1
 8000f32:	f04f 0402 	mov.w	r4, #2
 8000f36:	d031      	beq.n	8000f9c <HAL_ETH_DMATxDescListInit+0x74>
 8000f38:	2501      	movs	r5, #1
 8000f3a:	f880 5045 	strb.w	r5, [r0, #69]	; 0x45
 8000f3e:	f880 4044 	strb.w	r4, [r0, #68]	; 0x44
 8000f42:	62c1      	str	r1, [r0, #44]	; 0x2c
 8000f44:	460c      	mov	r4, r1
 8000f46:	2500      	movs	r5, #0
 8000f48:	f44f 1780 	mov.w	r7, #1048576	; 0x100000
 8000f4c:	f240 5cf4 	movw	ip, #1524	; 0x5f4
 8000f50:	f103 3eff 	add.w	lr, r3, #4294967295
 8000f54:	429d      	cmp	r5, r3
 8000f56:	d10c      	bne.n	8000f72 <HAL_ETH_DMATxDescListInit+0x4a>
 8000f58:	6802      	ldr	r2, [r0, #0]
 8000f5a:	f241 0310 	movw	r3, #4112	; 0x1010
 8000f5e:	50d1      	str	r1, [r2, r3]
 8000f60:	2301      	movs	r3, #1
 8000f62:	f880 3044 	strb.w	r3, [r0, #68]	; 0x44
 8000f66:	2300      	movs	r3, #0
 8000f68:	f880 3045 	strb.w	r3, [r0, #69]	; 0x45
 8000f6c:	4618      	mov	r0, r3
 8000f6e:	e8bd 81f0 	ldmia.w	sp!, {r4, r5, r6, r7, r8, pc}
 8000f72:	fb0c 2605 	mla	r6, ip, r5, r2
 8000f76:	60a6      	str	r6, [r4, #8]
 8000f78:	69c6      	ldr	r6, [r0, #28]
 8000f7a:	6027      	str	r7, [r4, #0]
 8000f7c:	b91e      	cbnz	r6, 8000f86 <HAL_ETH_DMATxDescListInit+0x5e>
 8000f7e:	6826      	ldr	r6, [r4, #0]
 8000f80:	f446 0640 	orr.w	r6, r6, #12582912	; 0xc00000
 8000f84:	6026      	str	r6, [r4, #0]
 8000f86:	f104 0620 	add.w	r6, r4, #32
 8000f8a:	45ae      	cmp	lr, r5
 8000f8c:	bf94      	ite	ls
 8000f8e:	4688      	movls	r8, r1
 8000f90:	46b0      	movhi	r8, r6
 8000f92:	f8c4 800c 	str.w	r8, [r4, #12]
 8000f96:	3501      	adds	r5, #1
 8000f98:	4634      	mov	r4, r6
 8000f9a:	e7db      	b.n	8000f54 <HAL_ETH_DMATxDescListInit+0x2c>
 8000f9c:	4620      	mov	r0, r4
 8000f9e:	e7e6      	b.n	8000f6e <HAL_ETH_DMATxDescListInit+0x46>

08000fa0 <HAL_ETH_DMARxDescListInit>:
 8000fa0:	e92d 43f0 	stmdb	sp!, {r4, r5, r6, r7, r8, r9, lr}
 8000fa4:	f890 4045 	ldrb.w	r4, [r0, #69]	; 0x45
 8000fa8:	2c01      	cmp	r4, #1
 8000faa:	f04f 0402 	mov.w	r4, #2
 8000fae:	d02f      	beq.n	8001010 <HAL_ETH_DMARxDescListInit+0x70>
 8000fb0:	2501      	movs	r5, #1
 8000fb2:	f880 5045 	strb.w	r5, [r0, #69]	; 0x45
 8000fb6:	f880 4044 	strb.w	r4, [r0, #68]	; 0x44
 8000fba:	6281      	str	r1, [r0, #40]	; 0x28
 8000fbc:	460c      	mov	r4, r1
 8000fbe:	2500      	movs	r5, #0
 8000fc0:	f04f 4700 	mov.w	r7, #2147483648	; 0x80000000
 8000fc4:	f244 5cf4 	movw	ip, #17908	; 0x45f4
 8000fc8:	f240 5ef4 	movw	lr, #1524	; 0x5f4
 8000fcc:	f103 38ff 	add.w	r8, r3, #4294967295
 8000fd0:	42ab      	cmp	r3, r5
 8000fd2:	d10c      	bne.n	8000fee <HAL_ETH_DMARxDescListInit+0x4e>
 8000fd4:	6802      	ldr	r2, [r0, #0]
 8000fd6:	f241 030c 	movw	r3, #4108	; 0x100c
 8000fda:	50d1      	str	r1, [r2, r3]
 8000fdc:	2301      	movs	r3, #1
 8000fde:	f880 3044 	strb.w	r3, [r0, #68]	; 0x44
 8000fe2:	2300      	movs	r3, #0
 8000fe4:	f880 3045 	strb.w	r3, [r0, #69]	; 0x45
 8000fe8:	4618      	mov	r0, r3
 8000fea:	e8bd 83f0 	ldmia.w	sp!, {r4, r5, r6, r7, r8, r9, pc}
 8000fee:	fb0e 2605 	mla	r6, lr, r5, r2
 8000ff2:	60a6      	str	r6, [r4, #8]
 8000ff4:	f104 0620 	add.w	r6, r4, #32
 8000ff8:	45a8      	cmp	r8, r5
 8000ffa:	bf94      	ite	ls
 8000ffc:	4689      	movls	r9, r1
 8000ffe:	46b1      	movhi	r9, r6
 8001000:	6027      	str	r7, [r4, #0]
 8001002:	f8c4 c004 	str.w	ip, [r4, #4]
 8001006:	f8c4 900c 	str.w	r9, [r4, #12]
 800100a:	3501      	adds	r5, #1
 800100c:	4634      	mov	r4, r6
 800100e:	e7df      	b.n	8000fd0 <HAL_ETH_DMARxDescListInit+0x30>
 8001010:	4620      	mov	r0, r4
 8001012:	e7ea      	b.n	8000fea <HAL_ETH_DMARxDescListInit+0x4a>

08001014 <HAL_ETH_TransmitFrame>:
 8001014:	b5f0      	push	{r4, r5, r6, r7, lr}
 8001016:	f890 3045 	ldrb.w	r3, [r0, #69]	; 0x45
 800101a:	2b01      	cmp	r3, #1
 800101c:	f04f 0302 	mov.w	r3, #2
 8001020:	d068      	beq.n	80010f4 <HAL_ETH_TransmitFrame+0xe0>
 8001022:	2201      	movs	r2, #1
 8001024:	f880 2045 	strb.w	r2, [r0, #69]	; 0x45
 8001028:	f880 3044 	strb.w	r3, [r0, #68]	; 0x44
 800102c:	b929      	cbnz	r1, 800103a <HAL_ETH_TransmitFrame+0x26>
 800102e:	f880 2044 	strb.w	r2, [r0, #68]	; 0x44
 8001032:	f880 1045 	strb.w	r1, [r0, #69]	; 0x45
 8001036:	4610      	mov	r0, r2
 8001038:	bdf0      	pop	{r4, r5, r6, r7, pc}
 800103a:	6ac3      	ldr	r3, [r0, #44]	; 0x2c
 800103c:	681c      	ldr	r4, [r3, #0]
 800103e:	2c00      	cmp	r4, #0
 8001040:	da06      	bge.n	8001050 <HAL_ETH_TransmitFrame+0x3c>
 8001042:	2312      	movs	r3, #18
 8001044:	f880 3044 	strb.w	r3, [r0, #68]	; 0x44
 8001048:	2300      	movs	r3, #0
 800104a:	f880 3045 	strb.w	r3, [r0, #69]	; 0x45
 800104e:	e7f2      	b.n	8001036 <HAL_ETH_TransmitFrame+0x22>
 8001050:	f240 54f4 	movw	r4, #1524	; 0x5f4
 8001054:	42a1      	cmp	r1, r4
 8001056:	d92e      	bls.n	80010b6 <HAL_ETH_TransmitFrame+0xa2>
 8001058:	fbb1 f2f4 	udiv	r2, r1, r4
 800105c:	fb04 1412 	mls	r4, r4, r2, r1
 8001060:	b33c      	cbz	r4, 80010b2 <HAL_ETH_TransmitFrame+0x9e>
 8001062:	3201      	adds	r2, #1
 8001064:	4c24      	ldr	r4, [pc, #144]	; (80010f8 <HAL_ETH_TransmitFrame+0xe4>)
 8001066:	f201 51f4 	addw	r1, r1, #1524	; 0x5f4
 800106a:	fb04 1102 	mla	r1, r4, r2, r1
 800106e:	f3c1 010c 	ubfx	r1, r1, #0, #13
 8001072:	2400      	movs	r4, #0
 8001074:	f240 56f4 	movw	r6, #1524	; 0x5f4
 8001078:	1e57      	subs	r7, r2, #1
 800107a:	681d      	ldr	r5, [r3, #0]
 800107c:	f025 5540 	bic.w	r5, r5, #805306368	; 0x30000000
 8001080:	601d      	str	r5, [r3, #0]
 8001082:	b91c      	cbnz	r4, 800108c <HAL_ETH_TransmitFrame+0x78>
 8001084:	681d      	ldr	r5, [r3, #0]
 8001086:	f045 5580 	orr.w	r5, r5, #268435456	; 0x10000000
 800108a:	601d      	str	r5, [r3, #0]
 800108c:	42a7      	cmp	r7, r4
 800108e:	bf08      	it	eq
 8001090:	681d      	ldreq	r5, [r3, #0]
 8001092:	605e      	str	r6, [r3, #4]
 8001094:	bf04      	itt	eq
 8001096:	f045 5500 	orreq.w	r5, r5, #536870912	; 0x20000000
 800109a:	601d      	streq	r5, [r3, #0]
 800109c:	681d      	ldr	r5, [r3, #0]
 800109e:	bf08      	it	eq
 80010a0:	6059      	streq	r1, [r3, #4]
 80010a2:	3401      	adds	r4, #1
 80010a4:	f045 4500 	orr.w	r5, r5, #2147483648	; 0x80000000
 80010a8:	4294      	cmp	r4, r2
 80010aa:	601d      	str	r5, [r3, #0]
 80010ac:	68db      	ldr	r3, [r3, #12]
 80010ae:	d1e4      	bne.n	800107a <HAL_ETH_TransmitFrame+0x66>
 80010b0:	e00d      	b.n	80010ce <HAL_ETH_TransmitFrame+0xba>
 80010b2:	2a01      	cmp	r2, #1
 80010b4:	d1d6      	bne.n	8001064 <HAL_ETH_TransmitFrame+0x50>
 80010b6:	681a      	ldr	r2, [r3, #0]
 80010b8:	f042 5240 	orr.w	r2, r2, #805306368	; 0x30000000
 80010bc:	601a      	str	r2, [r3, #0]
 80010be:	681a      	ldr	r2, [r3, #0]
 80010c0:	f3c1 010c 	ubfx	r1, r1, #0, #13
 80010c4:	f042 4200 	orr.w	r2, r2, #2147483648	; 0x80000000
 80010c8:	6059      	str	r1, [r3, #4]
 80010ca:	601a      	str	r2, [r3, #0]
 80010cc:	68db      	ldr	r3, [r3, #12]
 80010ce:	62c3      	str	r3, [r0, #44]	; 0x2c
 80010d0:	f241 0214 	movw	r2, #4116	; 0x1014
 80010d4:	6803      	ldr	r3, [r0, #0]
 80010d6:	5899      	ldr	r1, [r3, r2]
 80010d8:	0749      	lsls	r1, r1, #29
 80010da:	d505      	bpl.n	80010e8 <HAL_ETH_TransmitFrame+0xd4>
 80010dc:	2104      	movs	r1, #4
 80010de:	5099      	str	r1, [r3, r2]
 80010e0:	f241 0204 	movw	r2, #4100	; 0x1004
 80010e4:	2100      	movs	r1, #0
 80010e6:	5099      	str	r1, [r3, r2]
 80010e8:	2301      	movs	r3, #1
 80010ea:	f880 3044 	strb.w	r3, [r0, #68]	; 0x44
 80010ee:	2300      	movs	r3, #0
 80010f0:	f880 3045 	strb.w	r3, [r0, #69]	; 0x45
 80010f4:	4618      	mov	r0, r3
 80010f6:	e79f      	b.n	8001038 <HAL_ETH_TransmitFrame+0x24>
 80010f8:	fffffa0c 	.word	0xfffffa0c

080010fc <HAL_ETH_GetReceivedFrame>:
 80010fc:	b530      	push	{r4, r5, lr}
 80010fe:	f890 3045 	ldrb.w	r3, [r0, #69]	; 0x45
 8001102:	2b01      	cmp	r3, #1
 8001104:	f04f 0302 	mov.w	r3, #2
 8001108:	d023      	beq.n	8001152 <HAL_ETH_GetReceivedFrame+0x56>
 800110a:	f880 3044 	strb.w	r3, [r0, #68]	; 0x44
 800110e:	2401      	movs	r4, #1
 8001110:	6a83      	ldr	r3, [r0, #40]	; 0x28
 8001112:	f880 4045 	strb.w	r4, [r0, #69]	; 0x45
 8001116:	681a      	ldr	r2, [r3, #0]
 8001118:	2a00      	cmp	r2, #0
 800111a:	db27      	blt.n	800116c <HAL_ETH_GetReceivedFrame+0x70>
 800111c:	681a      	ldr	r2, [r3, #0]
 800111e:	68d9      	ldr	r1, [r3, #12]
 8001120:	f412 7280 	ands.w	r2, r2, #256	; 0x100
 8001124:	d017      	beq.n	8001156 <HAL_ETH_GetReceivedFrame+0x5a>
 8001126:	6b82      	ldr	r2, [r0, #56]	; 0x38
 8001128:	6343      	str	r3, [r0, #52]	; 0x34
 800112a:	4422      	add	r2, r4
 800112c:	42a2      	cmp	r2, r4
 800112e:	bf08      	it	eq
 8001130:	6303      	streq	r3, [r0, #48]	; 0x30
 8001132:	681b      	ldr	r3, [r3, #0]
 8001134:	6382      	str	r2, [r0, #56]	; 0x38
 8001136:	f3c3 430d 	ubfx	r3, r3, #16, #14
 800113a:	3b04      	subs	r3, #4
 800113c:	63c3      	str	r3, [r0, #60]	; 0x3c
 800113e:	6b03      	ldr	r3, [r0, #48]	; 0x30
 8001140:	689b      	ldr	r3, [r3, #8]
 8001142:	6403      	str	r3, [r0, #64]	; 0x40
 8001144:	2301      	movs	r3, #1
 8001146:	f880 3044 	strb.w	r3, [r0, #68]	; 0x44
 800114a:	2300      	movs	r3, #0
 800114c:	6281      	str	r1, [r0, #40]	; 0x28
 800114e:	f880 3045 	strb.w	r3, [r0, #69]	; 0x45
 8001152:	4618      	mov	r0, r3
 8001154:	bd30      	pop	{r4, r5, pc}
 8001156:	681d      	ldr	r5, [r3, #0]
 8001158:	6281      	str	r1, [r0, #40]	; 0x28
 800115a:	05ad      	lsls	r5, r5, #22
 800115c:	bf53      	iteet	pl
 800115e:	6b83      	ldrpl	r3, [r0, #56]	; 0x38
 8001160:	6384      	strmi	r4, [r0, #56]	; 0x38
 8001162:	e9c0 320c 	strdmi	r3, r2, [r0, #48]	; 0x30
 8001166:	3301      	addpl	r3, #1
 8001168:	bf58      	it	pl
 800116a:	6383      	strpl	r3, [r0, #56]	; 0x38
 800116c:	2301      	movs	r3, #1
 800116e:	2200      	movs	r2, #0
 8001170:	f880 3044 	strb.w	r3, [r0, #68]	; 0x44
 8001174:	f880 2045 	strb.w	r2, [r0, #69]	; 0x45
 8001178:	e7eb      	b.n	8001152 <HAL_ETH_GetReceivedFrame+0x56>

0800117a <HAL_ETH_TxCpltCallback>:
 800117a:	4770      	bx	lr

0800117c <HAL_ETH_RxCpltCallback>:
 800117c:	4770      	bx	lr

0800117e <HAL_ETH_ErrorCallback>:
 800117e:	4770      	bx	lr

08001180 <HAL_ETH_IRQHandler>:
 8001180:	b570      	push	{r4, r5, r6, lr}
 8001182:	6802      	ldr	r2, [r0, #0]
 8001184:	f241 0614 	movw	r6, #4116	; 0x1014
 8001188:	4604      	mov	r4, r0
 800118a:	5995      	ldr	r5, [r2, r6]
 800118c:	f015 0540 	ands.w	r5, r5, #64	; 0x40
 8001190:	d021      	beq.n	80011d6 <HAL_ETH_IRQHandler+0x56>
 8001192:	f7ff fff3 	bl	800117c <HAL_ETH_RxCpltCallback>
 8001196:	6823      	ldr	r3, [r4, #0]
 8001198:	2240      	movs	r2, #64	; 0x40
 800119a:	519a      	str	r2, [r3, r6]
 800119c:	2301      	movs	r3, #1
 800119e:	f884 3044 	strb.w	r3, [r4, #68]	; 0x44
 80011a2:	2300      	movs	r3, #0
 80011a4:	f884 3045 	strb.w	r3, [r4, #69]	; 0x45
 80011a8:	6823      	ldr	r3, [r4, #0]
 80011aa:	f241 0514 	movw	r5, #4116	; 0x1014
 80011ae:	f44f 3280 	mov.w	r2, #65536	; 0x10000
 80011b2:	515a      	str	r2, [r3, r5]
 80011b4:	595b      	ldr	r3, [r3, r5]
 80011b6:	041b      	lsls	r3, r3, #16
 80011b8:	d50c      	bpl.n	80011d4 <HAL_ETH_IRQHandler+0x54>
 80011ba:	4620      	mov	r0, r4
 80011bc:	f7ff ffdf 	bl	800117e <HAL_ETH_ErrorCallback>
 80011c0:	6823      	ldr	r3, [r4, #0]
 80011c2:	f44f 4200 	mov.w	r2, #32768	; 0x8000
 80011c6:	515a      	str	r2, [r3, r5]
 80011c8:	2301      	movs	r3, #1
 80011ca:	f884 3044 	strb.w	r3, [r4, #68]	; 0x44
 80011ce:	2300      	movs	r3, #0
 80011d0:	f884 3045 	strb.w	r3, [r4, #69]	; 0x45
 80011d4:	bd70      	pop	{r4, r5, r6, pc}
 80011d6:	5993      	ldr	r3, [r2, r6]
 80011d8:	07da      	lsls	r2, r3, #31
 80011da:	d5e5      	bpl.n	80011a8 <HAL_ETH_IRQHandler+0x28>
 80011dc:	f7ff ffcd 	bl	800117a <HAL_ETH_TxCpltCallback>
 80011e0:	6822      	ldr	r2, [r4, #0]
 80011e2:	2301      	movs	r3, #1
 80011e4:	5193      	str	r3, [r2, r6]
 80011e6:	f884 3044 	strb.w	r3, [r4, #68]	; 0x44
 80011ea:	f884 5045 	strb.w	r5, [r4, #69]	; 0x45
 80011ee:	e7db      	b.n	80011a8 <HAL_ETH_IRQHandler+0x28>

080011f0 <HAL_ETH_ReadPHYRegister>:
 80011f0:	b5f8      	push	{r3, r4, r5, r6, r7, lr}
 80011f2:	f890 3044 	ldrb.w	r3, [r0, #68]	; 0x44
 80011f6:	2b82      	cmp	r3, #130	; 0x82
 80011f8:	4606      	mov	r6, r0
 80011fa:	4615      	mov	r5, r2
 80011fc:	d031      	beq.n	8001262 <HAL_ETH_ReadPHYRegister+0x72>
 80011fe:	2382      	movs	r3, #130	; 0x82
 8001200:	f880 3044 	strb.w	r3, [r0, #68]	; 0x44
 8001204:	8a34      	ldrh	r4, [r6, #16]
 8001206:	6803      	ldr	r3, [r0, #0]
 8001208:	02e4      	lsls	r4, r4, #11
 800120a:	6918      	ldr	r0, [r3, #16]
 800120c:	0189      	lsls	r1, r1, #6
 800120e:	f401 61f8 	and.w	r1, r1, #1984	; 0x7c0
 8001212:	b2a4      	uxth	r4, r4
 8001214:	f000 001c 	and.w	r0, r0, #28
 8001218:	430c      	orrs	r4, r1
 800121a:	4304      	orrs	r4, r0
 800121c:	f044 0401 	orr.w	r4, r4, #1
 8001220:	611c      	str	r4, [r3, #16]
 8001222:	f7ff fd5f 	bl	8000ce4 <HAL_GetTick>
 8001226:	4607      	mov	r7, r0
 8001228:	f014 0401 	ands.w	r4, r4, #1
 800122c:	d108      	bne.n	8001240 <HAL_ETH_ReadPHYRegister+0x50>
 800122e:	6833      	ldr	r3, [r6, #0]
 8001230:	695b      	ldr	r3, [r3, #20]
 8001232:	b29b      	uxth	r3, r3
 8001234:	602b      	str	r3, [r5, #0]
 8001236:	2301      	movs	r3, #1
 8001238:	f886 3044 	strb.w	r3, [r6, #68]	; 0x44
 800123c:	4620      	mov	r0, r4
 800123e:	e00c      	b.n	800125a <HAL_ETH_ReadPHYRegister+0x6a>
 8001240:	f7ff fd50 	bl	8000ce4 <HAL_GetTick>
 8001244:	1bc0      	subs	r0, r0, r7
 8001246:	f5b0 3f80 	cmp.w	r0, #65536	; 0x10000
 800124a:	d307      	bcc.n	800125c <HAL_ETH_ReadPHYRegister+0x6c>
 800124c:	2301      	movs	r3, #1
 800124e:	f886 3044 	strb.w	r3, [r6, #68]	; 0x44
 8001252:	2300      	movs	r3, #0
 8001254:	f886 3045 	strb.w	r3, [r6, #69]	; 0x45
 8001258:	2003      	movs	r0, #3
 800125a:	bdf8      	pop	{r3, r4, r5, r6, r7, pc}
 800125c:	6833      	ldr	r3, [r6, #0]
 800125e:	691c      	ldr	r4, [r3, #16]
 8001260:	e7e2      	b.n	8001228 <HAL_ETH_ReadPHYRegister+0x38>
 8001262:	2002      	movs	r0, #2
 8001264:	e7f9      	b.n	800125a <HAL_ETH_ReadPHYRegister+0x6a>

08001266 <HAL_ETH_WritePHYRegister>:
 8001266:	b570      	push	{r4, r5, r6, lr}
 8001268:	f890 3044 	ldrb.w	r3, [r0, #68]	; 0x44
 800126c:	2b42      	cmp	r3, #66	; 0x42
 800126e:	4605      	mov	r5, r0
 8001270:	d02f      	beq.n	80012d2 <HAL_ETH_WritePHYRegister+0x6c>
 8001272:	2342      	movs	r3, #66	; 0x42
 8001274:	f880 3044 	strb.w	r3, [r0, #68]	; 0x44
 8001278:	8a2c      	ldrh	r4, [r5, #16]
 800127a:	6803      	ldr	r3, [r0, #0]
 800127c:	02e4      	lsls	r4, r4, #11
 800127e:	6918      	ldr	r0, [r3, #16]
 8001280:	0189      	lsls	r1, r1, #6
 8001282:	f401 61f8 	and.w	r1, r1, #1984	; 0x7c0
 8001286:	b2a4      	uxth	r4, r4
 8001288:	f000 001c 	and.w	r0, r0, #28
 800128c:	430c      	orrs	r4, r1
 800128e:	4304      	orrs	r4, r0
 8001290:	b292      	uxth	r2, r2
 8001292:	f044 0403 	orr.w	r4, r4, #3
 8001296:	615a      	str	r2, [r3, #20]
 8001298:	611c      	str	r4, [r3, #16]
 800129a:	f7ff fd23 	bl	8000ce4 <HAL_GetTick>
 800129e:	4606      	mov	r6, r0
 80012a0:	f014 0401 	ands.w	r4, r4, #1
 80012a4:	d104      	bne.n	80012b0 <HAL_ETH_WritePHYRegister+0x4a>
 80012a6:	2301      	movs	r3, #1
 80012a8:	f885 3044 	strb.w	r3, [r5, #68]	; 0x44
 80012ac:	4620      	mov	r0, r4
 80012ae:	e00c      	b.n	80012ca <HAL_ETH_WritePHYRegister+0x64>
 80012b0:	f7ff fd18 	bl	8000ce4 <HAL_GetTick>
 80012b4:	1b80      	subs	r0, r0, r6
 80012b6:	f5b0 3f80 	cmp.w	r0, #65536	; 0x10000
 80012ba:	d307      	bcc.n	80012cc <HAL_ETH_WritePHYRegister+0x66>
 80012bc:	2301      	movs	r3, #1
 80012be:	f885 3044 	strb.w	r3, [r5, #68]	; 0x44
 80012c2:	2300      	movs	r3, #0
 80012c4:	f885 3045 	strb.w	r3, [r5, #69]	; 0x45
 80012c8:	2003      	movs	r0, #3
 80012ca:	bd70      	pop	{r4, r5, r6, pc}
 80012cc:	682b      	ldr	r3, [r5, #0]
 80012ce:	691c      	ldr	r4, [r3, #16]
 80012d0:	e7e6      	b.n	80012a0 <HAL_ETH_WritePHYRegister+0x3a>
 80012d2:	2002      	movs	r0, #2
 80012d4:	e7f9      	b.n	80012ca <HAL_ETH_WritePHYRegister+0x64>
	...

080012d8 <HAL_ETH_Init>:
 80012d8:	b5f7      	push	{r0, r1, r2, r4, r5, r6, r7, lr}
 80012da:	2300      	movs	r3, #0
 80012dc:	9300      	str	r3, [sp, #0]
 80012de:	4604      	mov	r4, r0
 80012e0:	2800      	cmp	r0, #0
 80012e2:	f000 80df 	beq.w	80014a4 <HAL_ETH_Init+0x1cc>
 80012e6:	f890 3044 	ldrb.w	r3, [r0, #68]	; 0x44
 80012ea:	f003 02ff 	and.w	r2, r3, #255	; 0xff
 80012ee:	b91b      	cbnz	r3, 80012f8 <HAL_ETH_Init+0x20>
 80012f0:	f880 2045 	strb.w	r2, [r0, #69]	; 0x45
 80012f4:	f000 fe00 	bl	8001ef8 <HAL_ETH_MspInit>
 80012f8:	2300      	movs	r3, #0
 80012fa:	9301      	str	r3, [sp, #4]
 80012fc:	4b6a      	ldr	r3, [pc, #424]	; (80014a8 <HAL_ETH_Init+0x1d0>)
 80012fe:	6c5a      	ldr	r2, [r3, #68]	; 0x44
 8001300:	f442 4280 	orr.w	r2, r2, #16384	; 0x4000
 8001304:	645a      	str	r2, [r3, #68]	; 0x44
 8001306:	6c5b      	ldr	r3, [r3, #68]	; 0x44
 8001308:	f403 4380 	and.w	r3, r3, #16384	; 0x4000
 800130c:	9301      	str	r3, [sp, #4]
 800130e:	9b01      	ldr	r3, [sp, #4]
 8001310:	4b66      	ldr	r3, [pc, #408]	; (80014ac <HAL_ETH_Init+0x1d4>)
 8001312:	685a      	ldr	r2, [r3, #4]
 8001314:	f422 0200 	bic.w	r2, r2, #8388608	; 0x800000
 8001318:	605a      	str	r2, [r3, #4]
 800131a:	685a      	ldr	r2, [r3, #4]
 800131c:	6a21      	ldr	r1, [r4, #32]
 800131e:	430a      	orrs	r2, r1
 8001320:	605a      	str	r2, [r3, #4]
 8001322:	6823      	ldr	r3, [r4, #0]
 8001324:	f503 5380 	add.w	r3, r3, #4096	; 0x1000
 8001328:	681a      	ldr	r2, [r3, #0]
 800132a:	f042 0201 	orr.w	r2, r2, #1
 800132e:	601a      	str	r2, [r3, #0]
 8001330:	f7ff fcd8 	bl	8000ce4 <HAL_GetTick>
 8001334:	4605      	mov	r5, r0
 8001336:	6823      	ldr	r3, [r4, #0]
 8001338:	f503 5280 	add.w	r2, r3, #4096	; 0x1000
 800133c:	6812      	ldr	r2, [r2, #0]
 800133e:	07d0      	lsls	r0, r2, #31
 8001340:	d41d      	bmi.n	800137e <HAL_ETH_Init+0xa6>
 8001342:	691d      	ldr	r5, [r3, #16]
 8001344:	f000 fd2e 	bl	8001da4 <HAL_RCC_GetHCLKFreq>
 8001348:	4b59      	ldr	r3, [pc, #356]	; (80014b0 <HAL_ETH_Init+0x1d8>)
 800134a:	4a5a      	ldr	r2, [pc, #360]	; (80014b4 <HAL_ETH_Init+0x1dc>)
 800134c:	4403      	add	r3, r0
 800134e:	4293      	cmp	r3, r2
 8001350:	f025 051c 	bic.w	r5, r5, #28
 8001354:	d222      	bcs.n	800139c <HAL_ETH_Init+0xc4>
 8001356:	f045 0508 	orr.w	r5, r5, #8
 800135a:	6823      	ldr	r3, [r4, #0]
 800135c:	f44f 4200 	mov.w	r2, #32768	; 0x8000
 8001360:	611d      	str	r5, [r3, #16]
 8001362:	2100      	movs	r1, #0
 8001364:	4620      	mov	r0, r4
 8001366:	f7ff ff7e 	bl	8001266 <HAL_ETH_WritePHYRegister>
 800136a:	4605      	mov	r5, r0
 800136c:	b368      	cbz	r0, 80013ca <HAL_ETH_Init+0xf2>
 800136e:	2101      	movs	r1, #1
 8001370:	4620      	mov	r0, r4
 8001372:	2501      	movs	r5, #1
 8001374:	f7ff fd5e 	bl	8000e34 <ETH_MACDMAConfig>
 8001378:	f884 5044 	strb.w	r5, [r4, #68]	; 0x44
 800137c:	e00b      	b.n	8001396 <HAL_ETH_Init+0xbe>
 800137e:	f7ff fcb1 	bl	8000ce4 <HAL_GetTick>
 8001382:	1b40      	subs	r0, r0, r5
 8001384:	f5b0 7ffa 	cmp.w	r0, #500	; 0x1f4
 8001388:	d9d5      	bls.n	8001336 <HAL_ETH_Init+0x5e>
 800138a:	2503      	movs	r5, #3
 800138c:	2300      	movs	r3, #0
 800138e:	f884 5044 	strb.w	r5, [r4, #68]	; 0x44
 8001392:	f884 3045 	strb.w	r3, [r4, #69]	; 0x45
 8001396:	4628      	mov	r0, r5
 8001398:	b003      	add	sp, #12
 800139a:	bdf0      	pop	{r4, r5, r6, r7, pc}
 800139c:	4b46      	ldr	r3, [pc, #280]	; (80014b8 <HAL_ETH_Init+0x1e0>)
 800139e:	4a47      	ldr	r2, [pc, #284]	; (80014bc <HAL_ETH_Init+0x1e4>)
 80013a0:	4403      	add	r3, r0
 80013a2:	4293      	cmp	r3, r2
 80013a4:	d802      	bhi.n	80013ac <HAL_ETH_Init+0xd4>
 80013a6:	f045 050c 	orr.w	r5, r5, #12
 80013aa:	e7d6      	b.n	800135a <HAL_ETH_Init+0x82>
 80013ac:	4b44      	ldr	r3, [pc, #272]	; (80014c0 <HAL_ETH_Init+0x1e8>)
 80013ae:	4a45      	ldr	r2, [pc, #276]	; (80014c4 <HAL_ETH_Init+0x1ec>)
 80013b0:	4403      	add	r3, r0
 80013b2:	4293      	cmp	r3, r2
 80013b4:	d3d1      	bcc.n	800135a <HAL_ETH_Init+0x82>
 80013b6:	4b44      	ldr	r3, [pc, #272]	; (80014c8 <HAL_ETH_Init+0x1f0>)
 80013b8:	4a44      	ldr	r2, [pc, #272]	; (80014cc <HAL_ETH_Init+0x1f4>)
 80013ba:	4403      	add	r3, r0
 80013bc:	4293      	cmp	r3, r2
 80013be:	bf94      	ite	ls
 80013c0:	f045 0504 	orrls.w	r5, r5, #4
 80013c4:	f045 0510 	orrhi.w	r5, r5, #16
 80013c8:	e7c7      	b.n	800135a <HAL_ETH_Init+0x82>
 80013ca:	20ff      	movs	r0, #255	; 0xff
 80013cc:	f7ff fc90 	bl	8000cf0 <HAL_Delay>
 80013d0:	6863      	ldr	r3, [r4, #4]
 80013d2:	2b00      	cmp	r3, #0
 80013d4:	d054      	beq.n	8001480 <HAL_ETH_Init+0x1a8>
 80013d6:	f7ff fc85 	bl	8000ce4 <HAL_GetTick>
 80013da:	f241 3788 	movw	r7, #5000	; 0x1388
 80013de:	4606      	mov	r6, r0
 80013e0:	466a      	mov	r2, sp
 80013e2:	2101      	movs	r1, #1
 80013e4:	4620      	mov	r0, r4
 80013e6:	f7ff ff03 	bl	80011f0 <HAL_ETH_ReadPHYRegister>
 80013ea:	f7ff fc7b 	bl	8000ce4 <HAL_GetTick>
 80013ee:	1b80      	subs	r0, r0, r6
 80013f0:	42b8      	cmp	r0, r7
 80013f2:	d90b      	bls.n	800140c <HAL_ETH_Init+0x134>
 80013f4:	2101      	movs	r1, #1
 80013f6:	4620      	mov	r0, r4
 80013f8:	f7ff fd1c 	bl	8000e34 <ETH_MACDMAConfig>
 80013fc:	2301      	movs	r3, #1
 80013fe:	f884 3044 	strb.w	r3, [r4, #68]	; 0x44
 8001402:	2300      	movs	r3, #0
 8001404:	f884 3045 	strb.w	r3, [r4, #69]	; 0x45
 8001408:	2503      	movs	r5, #3
 800140a:	e7c4      	b.n	8001396 <HAL_ETH_Init+0xbe>
 800140c:	9b00      	ldr	r3, [sp, #0]
 800140e:	0759      	lsls	r1, r3, #29
 8001410:	d5e6      	bpl.n	80013e0 <HAL_ETH_Init+0x108>
 8001412:	f44f 5280 	mov.w	r2, #4096	; 0x1000
 8001416:	2100      	movs	r1, #0
 8001418:	4620      	mov	r0, r4
 800141a:	f7ff ff24 	bl	8001266 <HAL_ETH_WritePHYRegister>
 800141e:	2800      	cmp	r0, #0
 8001420:	d1a5      	bne.n	800136e <HAL_ETH_Init+0x96>
 8001422:	f7ff fc5f 	bl	8000ce4 <HAL_GetTick>
 8001426:	f241 3788 	movw	r7, #5000	; 0x1388
 800142a:	4606      	mov	r6, r0
 800142c:	466a      	mov	r2, sp
 800142e:	2101      	movs	r1, #1
 8001430:	4620      	mov	r0, r4
 8001432:	f7ff fedd 	bl	80011f0 <HAL_ETH_ReadPHYRegister>
 8001436:	f7ff fc55 	bl	8000ce4 <HAL_GetTick>
 800143a:	1b80      	subs	r0, r0, r6
 800143c:	42b8      	cmp	r0, r7
 800143e:	d8d9      	bhi.n	80013f4 <HAL_ETH_Init+0x11c>
 8001440:	9b00      	ldr	r3, [sp, #0]
 8001442:	069a      	lsls	r2, r3, #26
 8001444:	d5f2      	bpl.n	800142c <HAL_ETH_Init+0x154>
 8001446:	466a      	mov	r2, sp
 8001448:	2110      	movs	r1, #16
 800144a:	4620      	mov	r0, r4
 800144c:	f7ff fed0 	bl	80011f0 <HAL_ETH_ReadPHYRegister>
 8001450:	2800      	cmp	r0, #0
 8001452:	d18c      	bne.n	800136e <HAL_ETH_Init+0x96>
 8001454:	9b00      	ldr	r3, [sp, #0]
 8001456:	f013 0204 	ands.w	r2, r3, #4
 800145a:	bf18      	it	ne
 800145c:	f44f 6200 	movne.w	r2, #2048	; 0x800
 8001460:	079b      	lsls	r3, r3, #30
 8001462:	bf58      	it	pl
 8001464:	f44f 4380 	movpl.w	r3, #16384	; 0x4000
 8001468:	60e2      	str	r2, [r4, #12]
 800146a:	bf4c      	ite	mi
 800146c:	60a0      	strmi	r0, [r4, #8]
 800146e:	60a3      	strpl	r3, [r4, #8]
 8001470:	2100      	movs	r1, #0
 8001472:	4620      	mov	r0, r4
 8001474:	f7ff fcde 	bl	8000e34 <ETH_MACDMAConfig>
 8001478:	2301      	movs	r3, #1
 800147a:	f884 3044 	strb.w	r3, [r4, #68]	; 0x44
 800147e:	e78a      	b.n	8001396 <HAL_ETH_Init+0xbe>
 8001480:	e9d4 3202 	ldrd	r3, r2, [r4, #8]
 8001484:	085b      	lsrs	r3, r3, #1
 8001486:	ea43 02d2 	orr.w	r2, r3, r2, lsr #3
 800148a:	b292      	uxth	r2, r2
 800148c:	4629      	mov	r1, r5
 800148e:	4620      	mov	r0, r4
 8001490:	f7ff fee9 	bl	8001266 <HAL_ETH_WritePHYRegister>
 8001494:	2800      	cmp	r0, #0
 8001496:	f47f af6a 	bne.w	800136e <HAL_ETH_Init+0x96>
 800149a:	f640 70ff 	movw	r0, #4095	; 0xfff
 800149e:	f7ff fc27 	bl	8000cf0 <HAL_Delay>
 80014a2:	e7e5      	b.n	8001470 <HAL_ETH_Init+0x198>
 80014a4:	2501      	movs	r5, #1
 80014a6:	e776      	b.n	8001396 <HAL_ETH_Init+0xbe>
 80014a8:	40023800 	.word	0x40023800
 80014ac:	40013800 	.word	0x40013800
 80014b0:	feced300 	.word	0xfeced300
 80014b4:	00e4e1c0 	.word	0x00e4e1c0
 80014b8:	fde9f140 	.word	0xfde9f140
 80014bc:	017d783f 	.word	0x017d783f
 80014c0:	fc6c7900 	.word	0xfc6c7900
 80014c4:	02625a00 	.word	0x02625a00
 80014c8:	fa0a1f00 	.word	0xfa0a1f00
 80014cc:	02faf07f 	.word	0x02faf07f

080014d0 <HAL_ETH_Start>:
 80014d0:	b537      	push	{r0, r1, r2, r4, r5, lr}
 80014d2:	f890 3045 	ldrb.w	r3, [r0, #69]	; 0x45
 80014d6:	2b01      	cmp	r3, #1
 80014d8:	f04f 0402 	mov.w	r4, #2
 80014dc:	d02f      	beq.n	800153e <HAL_ETH_Start+0x6e>
 80014de:	f880 4044 	strb.w	r4, [r0, #68]	; 0x44
 80014e2:	6803      	ldr	r3, [r0, #0]
 80014e4:	2400      	movs	r4, #0
 80014e6:	2501      	movs	r5, #1
 80014e8:	f880 5045 	strb.w	r5, [r0, #69]	; 0x45
 80014ec:	9401      	str	r4, [sp, #4]
 80014ee:	681a      	ldr	r2, [r3, #0]
 80014f0:	f042 0208 	orr.w	r2, r2, #8
 80014f4:	601a      	str	r2, [r3, #0]
 80014f6:	681b      	ldr	r3, [r3, #0]
 80014f8:	9301      	str	r3, [sp, #4]
 80014fa:	f7ff fc75 	bl	8000de8 <ETH_Delay.constprop.0>
 80014fe:	6803      	ldr	r3, [r0, #0]
 8001500:	9a01      	ldr	r2, [sp, #4]
 8001502:	601a      	str	r2, [r3, #0]
 8001504:	9400      	str	r4, [sp, #0]
 8001506:	681a      	ldr	r2, [r3, #0]
 8001508:	f042 0204 	orr.w	r2, r2, #4
 800150c:	601a      	str	r2, [r3, #0]
 800150e:	681b      	ldr	r3, [r3, #0]
 8001510:	9300      	str	r3, [sp, #0]
 8001512:	f7ff fc69 	bl	8000de8 <ETH_Delay.constprop.0>
 8001516:	6803      	ldr	r3, [r0, #0]
 8001518:	9a00      	ldr	r2, [sp, #0]
 800151a:	601a      	str	r2, [r3, #0]
 800151c:	f7ff fc76 	bl	8000e0c <ETH_FlushTransmitFIFO>
 8001520:	f241 0318 	movw	r3, #4120	; 0x1018
 8001524:	6802      	ldr	r2, [r0, #0]
 8001526:	58d1      	ldr	r1, [r2, r3]
 8001528:	f441 5100 	orr.w	r1, r1, #8192	; 0x2000
 800152c:	50d1      	str	r1, [r2, r3]
 800152e:	58d1      	ldr	r1, [r2, r3]
 8001530:	f041 0102 	orr.w	r1, r1, #2
 8001534:	50d1      	str	r1, [r2, r3]
 8001536:	f880 5044 	strb.w	r5, [r0, #68]	; 0x44
 800153a:	f880 4045 	strb.w	r4, [r0, #69]	; 0x45
 800153e:	4620      	mov	r0, r4
 8001540:	b003      	add	sp, #12
 8001542:	bd30      	pop	{r4, r5, pc}

08001544 <HAL_ETH_Stop>:
 8001544:	b537      	push	{r0, r1, r2, r4, r5, lr}
 8001546:	f890 3045 	ldrb.w	r3, [r0, #69]	; 0x45
 800154a:	2b01      	cmp	r3, #1
 800154c:	f04f 0402 	mov.w	r4, #2
 8001550:	d02f      	beq.n	80015b2 <HAL_ETH_Stop+0x6e>
 8001552:	6803      	ldr	r3, [r0, #0]
 8001554:	f880 4044 	strb.w	r4, [r0, #68]	; 0x44
 8001558:	f241 0218 	movw	r2, #4120	; 0x1018
 800155c:	2501      	movs	r5, #1
 800155e:	f880 5045 	strb.w	r5, [r0, #69]	; 0x45
 8001562:	5899      	ldr	r1, [r3, r2]
 8001564:	f421 5100 	bic.w	r1, r1, #8192	; 0x2000
 8001568:	5099      	str	r1, [r3, r2]
 800156a:	5899      	ldr	r1, [r3, r2]
 800156c:	f021 0102 	bic.w	r1, r1, #2
 8001570:	5099      	str	r1, [r3, r2]
 8001572:	2400      	movs	r4, #0
 8001574:	9401      	str	r4, [sp, #4]
 8001576:	681a      	ldr	r2, [r3, #0]
 8001578:	f022 0204 	bic.w	r2, r2, #4
 800157c:	601a      	str	r2, [r3, #0]
 800157e:	681b      	ldr	r3, [r3, #0]
 8001580:	9301      	str	r3, [sp, #4]
 8001582:	f7ff fc31 	bl	8000de8 <ETH_Delay.constprop.0>
 8001586:	6803      	ldr	r3, [r0, #0]
 8001588:	9a01      	ldr	r2, [sp, #4]
 800158a:	601a      	str	r2, [r3, #0]
 800158c:	f7ff fc3e 	bl	8000e0c <ETH_FlushTransmitFIFO>
 8001590:	6803      	ldr	r3, [r0, #0]
 8001592:	9400      	str	r4, [sp, #0]
 8001594:	681a      	ldr	r2, [r3, #0]
 8001596:	f022 0208 	bic.w	r2, r2, #8
 800159a:	601a      	str	r2, [r3, #0]
 800159c:	681b      	ldr	r3, [r3, #0]
 800159e:	9300      	str	r3, [sp, #0]
 80015a0:	f7ff fc22 	bl	8000de8 <ETH_Delay.constprop.0>
 80015a4:	6803      	ldr	r3, [r0, #0]
 80015a6:	9a00      	ldr	r2, [sp, #0]
 80015a8:	601a      	str	r2, [r3, #0]
 80015aa:	f880 5044 	strb.w	r5, [r0, #68]	; 0x44
 80015ae:	f880 4045 	strb.w	r4, [r0, #69]	; 0x45
 80015b2:	4620      	mov	r0, r4
 80015b4:	b003      	add	sp, #12
 80015b6:	bd30      	pop	{r4, r5, pc}

080015b8 <HAL_ETH_ConfigMAC>:
 80015b8:	b5f8      	push	{r3, r4, r5, r6, r7, lr}
 80015ba:	f890 3045 	ldrb.w	r3, [r0, #69]	; 0x45
 80015be:	2b01      	cmp	r3, #1
 80015c0:	4605      	mov	r5, r0
 80015c2:	460c      	mov	r4, r1
 80015c4:	f04f 0002 	mov.w	r0, #2
 80015c8:	d071      	beq.n	80016ae <HAL_ETH_ConfigMAC+0xf6>
 80015ca:	2601      	movs	r6, #1
 80015cc:	f885 0044 	strb.w	r0, [r5, #68]	; 0x44
 80015d0:	682a      	ldr	r2, [r5, #0]
 80015d2:	f885 6045 	strb.w	r6, [r5, #69]	; 0x45
 80015d6:	e9d5 7002 	ldrd	r7, r0, [r5, #8]
 80015da:	2900      	cmp	r1, #0
 80015dc:	d068      	beq.n	80016b0 <HAL_ETH_ConfigMAC+0xf8>
 80015de:	6813      	ldr	r3, [r2, #0]
 80015e0:	f8df c0e8 	ldr.w	ip, [pc, #232]	; 80016cc <HAL_ETH_ConfigMAC+0x114>
 80015e4:	ea0c 0c03 	and.w	ip, ip, r3
 80015e8:	e9d1 3100 	ldrd	r3, r1, [r1]
 80015ec:	430b      	orrs	r3, r1
 80015ee:	68a1      	ldr	r1, [r4, #8]
 80015f0:	430b      	orrs	r3, r1
 80015f2:	68e1      	ldr	r1, [r4, #12]
 80015f4:	430b      	orrs	r3, r1
 80015f6:	6921      	ldr	r1, [r4, #16]
 80015f8:	430b      	orrs	r3, r1
 80015fa:	6961      	ldr	r1, [r4, #20]
 80015fc:	430b      	orrs	r3, r1
 80015fe:	69a1      	ldr	r1, [r4, #24]
 8001600:	430b      	orrs	r3, r1
 8001602:	69e1      	ldr	r1, [r4, #28]
 8001604:	430b      	orrs	r3, r1
 8001606:	6a21      	ldr	r1, [r4, #32]
 8001608:	430b      	orrs	r3, r1
 800160a:	6a61      	ldr	r1, [r4, #36]	; 0x24
 800160c:	430b      	orrs	r3, r1
 800160e:	6aa1      	ldr	r1, [r4, #40]	; 0x28
 8001610:	430b      	orrs	r3, r1
 8001612:	433b      	orrs	r3, r7
 8001614:	4303      	orrs	r3, r0
 8001616:	ea43 030c 	orr.w	r3, r3, ip
 800161a:	6013      	str	r3, [r2, #0]
 800161c:	4630      	mov	r0, r6
 800161e:	6817      	ldr	r7, [r2, #0]
 8001620:	f7ff fb66 	bl	8000cf0 <HAL_Delay>
 8001624:	e9d4 310b 	ldrd	r3, r1, [r4, #44]	; 0x2c
 8001628:	430b      	orrs	r3, r1
 800162a:	6b61      	ldr	r1, [r4, #52]	; 0x34
 800162c:	682a      	ldr	r2, [r5, #0]
 800162e:	430b      	orrs	r3, r1
 8001630:	6ba1      	ldr	r1, [r4, #56]	; 0x38
 8001632:	6017      	str	r7, [r2, #0]
 8001634:	430b      	orrs	r3, r1
 8001636:	6be1      	ldr	r1, [r4, #60]	; 0x3c
 8001638:	430b      	orrs	r3, r1
 800163a:	6c21      	ldr	r1, [r4, #64]	; 0x40
 800163c:	430b      	orrs	r3, r1
 800163e:	6c61      	ldr	r1, [r4, #68]	; 0x44
 8001640:	430b      	orrs	r3, r1
 8001642:	6ca1      	ldr	r1, [r4, #72]	; 0x48
 8001644:	430b      	orrs	r3, r1
 8001646:	6053      	str	r3, [r2, #4]
 8001648:	4630      	mov	r0, r6
 800164a:	6857      	ldr	r7, [r2, #4]
 800164c:	f7ff fb50 	bl	8000cf0 <HAL_Delay>
 8001650:	682a      	ldr	r2, [r5, #0]
 8001652:	6ce3      	ldr	r3, [r4, #76]	; 0x4c
 8001654:	6057      	str	r7, [r2, #4]
 8001656:	6093      	str	r3, [r2, #8]
 8001658:	6d23      	ldr	r3, [r4, #80]	; 0x50
 800165a:	60d3      	str	r3, [r2, #12]
 800165c:	e9d4 3016 	ldrd	r3, r0, [r4, #88]	; 0x58
 8001660:	4303      	orrs	r3, r0
 8001662:	6e20      	ldr	r0, [r4, #96]	; 0x60
 8001664:	6991      	ldr	r1, [r2, #24]
 8001666:	4303      	orrs	r3, r0
 8001668:	6e60      	ldr	r0, [r4, #100]	; 0x64
 800166a:	4303      	orrs	r3, r0
 800166c:	6ea0      	ldr	r0, [r4, #104]	; 0x68
 800166e:	f021 01be 	bic.w	r1, r1, #190	; 0xbe
 8001672:	4303      	orrs	r3, r0
 8001674:	6d60      	ldr	r0, [r4, #84]	; 0x54
 8001676:	0409      	lsls	r1, r1, #16
 8001678:	0c09      	lsrs	r1, r1, #16
 800167a:	ea43 4300 	orr.w	r3, r3, r0, lsl #16
 800167e:	430b      	orrs	r3, r1
 8001680:	6193      	str	r3, [r2, #24]
 8001682:	4630      	mov	r0, r6
 8001684:	6997      	ldr	r7, [r2, #24]
 8001686:	f7ff fb33 	bl	8000cf0 <HAL_Delay>
 800168a:	e9d4 211b 	ldrd	r2, r1, [r4, #108]	; 0x6c
 800168e:	682b      	ldr	r3, [r5, #0]
 8001690:	430a      	orrs	r2, r1
 8001692:	619f      	str	r7, [r3, #24]
 8001694:	4630      	mov	r0, r6
 8001696:	61da      	str	r2, [r3, #28]
 8001698:	69dc      	ldr	r4, [r3, #28]
 800169a:	f7ff fb29 	bl	8000cf0 <HAL_Delay>
 800169e:	682b      	ldr	r3, [r5, #0]
 80016a0:	61dc      	str	r4, [r3, #28]
 80016a2:	2301      	movs	r3, #1
 80016a4:	2000      	movs	r0, #0
 80016a6:	f885 3044 	strb.w	r3, [r5, #68]	; 0x44
 80016aa:	f885 0045 	strb.w	r0, [r5, #69]	; 0x45
 80016ae:	bdf8      	pop	{r3, r4, r5, r6, r7, pc}
 80016b0:	6811      	ldr	r1, [r2, #0]
 80016b2:	ea47 0300 	orr.w	r3, r7, r0
 80016b6:	f421 4190 	bic.w	r1, r1, #18432	; 0x4800
 80016ba:	430b      	orrs	r3, r1
 80016bc:	6013      	str	r3, [r2, #0]
 80016be:	4630      	mov	r0, r6
 80016c0:	6814      	ldr	r4, [r2, #0]
 80016c2:	f7ff fb15 	bl	8000cf0 <HAL_Delay>
 80016c6:	682b      	ldr	r3, [r5, #0]
 80016c8:	601c      	str	r4, [r3, #0]
 80016ca:	e7ea      	b.n	80016a2 <HAL_ETH_ConfigMAC+0xea>
 80016cc:	ff20810f 	.word	0xff20810f

080016d0 <HAL_GPIO_Init>:
 80016d0:	e92d 4ff7 	stmdb	sp!, {r0, r1, r2, r4, r5, r6, r7, r8, r9, sl, fp, lr}
 80016d4:	f8df 91c0 	ldr.w	r9, [pc, #448]	; 8001898 <HAL_GPIO_Init+0x1c8>
 80016d8:	4a6d      	ldr	r2, [pc, #436]	; (8001890 <HAL_GPIO_Init+0x1c0>)
 80016da:	2300      	movs	r3, #0
 80016dc:	680d      	ldr	r5, [r1, #0]
 80016de:	2401      	movs	r4, #1
 80016e0:	409c      	lsls	r4, r3
 80016e2:	ea04 0c05 	and.w	ip, r4, r5
 80016e6:	43ac      	bics	r4, r5
 80016e8:	f040 80b9 	bne.w	800185e <HAL_GPIO_Init+0x18e>
 80016ec:	684d      	ldr	r5, [r1, #4]
 80016ee:	f005 0403 	and.w	r4, r5, #3
 80016f2:	ea4f 0843 	mov.w	r8, r3, lsl #1
 80016f6:	2603      	movs	r6, #3
 80016f8:	1e67      	subs	r7, r4, #1
 80016fa:	fa06 f608 	lsl.w	r6, r6, r8
 80016fe:	2f01      	cmp	r7, #1
 8001700:	ea6f 0606 	mvn.w	r6, r6
 8001704:	d834      	bhi.n	8001770 <HAL_GPIO_Init+0xa0>
 8001706:	6887      	ldr	r7, [r0, #8]
 8001708:	ea07 0e06 	and.w	lr, r7, r6
 800170c:	68cf      	ldr	r7, [r1, #12]
 800170e:	fa07 f708 	lsl.w	r7, r7, r8
 8001712:	ea47 070e 	orr.w	r7, r7, lr
 8001716:	6087      	str	r7, [r0, #8]
 8001718:	6847      	ldr	r7, [r0, #4]
 800171a:	ea27 0e0c 	bic.w	lr, r7, ip
 800171e:	f3c5 1700 	ubfx	r7, r5, #4, #1
 8001722:	409f      	lsls	r7, r3
 8001724:	ea47 070e 	orr.w	r7, r7, lr
 8001728:	6047      	str	r7, [r0, #4]
 800172a:	68c7      	ldr	r7, [r0, #12]
 800172c:	ea07 0e06 	and.w	lr, r7, r6
 8001730:	688f      	ldr	r7, [r1, #8]
 8001732:	fa07 f708 	lsl.w	r7, r7, r8
 8001736:	ea47 070e 	orr.w	r7, r7, lr
 800173a:	2c02      	cmp	r4, #2
 800173c:	60c7      	str	r7, [r0, #12]
 800173e:	d119      	bne.n	8001774 <HAL_GPIO_Init+0xa4>
 8001740:	ea4f 0ad3 	mov.w	sl, r3, lsr #3
 8001744:	eb00 0a8a 	add.w	sl, r0, sl, lsl #2
 8001748:	f003 0b07 	and.w	fp, r3, #7
 800174c:	f8da 7020 	ldr.w	r7, [sl, #32]
 8001750:	ea4f 0b8b 	mov.w	fp, fp, lsl #2
 8001754:	f04f 0e0f 	mov.w	lr, #15
 8001758:	fa0e fe0b 	lsl.w	lr, lr, fp
 800175c:	ea27 0e0e 	bic.w	lr, r7, lr
 8001760:	690f      	ldr	r7, [r1, #16]
 8001762:	fa07 f70b 	lsl.w	r7, r7, fp
 8001766:	ea47 070e 	orr.w	r7, r7, lr
 800176a:	f8ca 7020 	str.w	r7, [sl, #32]
 800176e:	e001      	b.n	8001774 <HAL_GPIO_Init+0xa4>
 8001770:	2c03      	cmp	r4, #3
 8001772:	d1da      	bne.n	800172a <HAL_GPIO_Init+0x5a>
 8001774:	6807      	ldr	r7, [r0, #0]
 8001776:	fa04 f408 	lsl.w	r4, r4, r8
 800177a:	403e      	ands	r6, r7
 800177c:	4326      	orrs	r6, r4
 800177e:	f415 3f40 	tst.w	r5, #196608	; 0x30000
 8001782:	6006      	str	r6, [r0, #0]
 8001784:	d06b      	beq.n	800185e <HAL_GPIO_Init+0x18e>
 8001786:	f04f 0a00 	mov.w	sl, #0
 800178a:	f8cd a004 	str.w	sl, [sp, #4]
 800178e:	f8d9 6044 	ldr.w	r6, [r9, #68]	; 0x44
 8001792:	4c40      	ldr	r4, [pc, #256]	; (8001894 <HAL_GPIO_Init+0x1c4>)
 8001794:	f446 4680 	orr.w	r6, r6, #16384	; 0x4000
 8001798:	f8c9 6044 	str.w	r6, [r9, #68]	; 0x44
 800179c:	f8d9 6044 	ldr.w	r6, [r9, #68]	; 0x44
 80017a0:	f406 4680 	and.w	r6, r6, #16384	; 0x4000
 80017a4:	9601      	str	r6, [sp, #4]
 80017a6:	9e01      	ldr	r6, [sp, #4]
 80017a8:	f023 0603 	bic.w	r6, r3, #3
 80017ac:	f106 4680 	add.w	r6, r6, #1073741824	; 0x40000000
 80017b0:	f506 369c 	add.w	r6, r6, #79872	; 0x13800
 80017b4:	f003 0e03 	and.w	lr, r3, #3
 80017b8:	f8d6 8008 	ldr.w	r8, [r6, #8]
 80017bc:	ea4f 0e8e 	mov.w	lr, lr, lsl #2
 80017c0:	270f      	movs	r7, #15
 80017c2:	fa07 f70e 	lsl.w	r7, r7, lr
 80017c6:	42a0      	cmp	r0, r4
 80017c8:	ea28 0707 	bic.w	r7, r8, r7
 80017cc:	d04e      	beq.n	800186c <HAL_GPIO_Init+0x19c>
 80017ce:	f504 6480 	add.w	r4, r4, #1024	; 0x400
 80017d2:	42a0      	cmp	r0, r4
 80017d4:	d04c      	beq.n	8001870 <HAL_GPIO_Init+0x1a0>
 80017d6:	f504 6480 	add.w	r4, r4, #1024	; 0x400
 80017da:	42a0      	cmp	r0, r4
 80017dc:	d04a      	beq.n	8001874 <HAL_GPIO_Init+0x1a4>
 80017de:	f504 6480 	add.w	r4, r4, #1024	; 0x400
 80017e2:	42a0      	cmp	r0, r4
 80017e4:	d048      	beq.n	8001878 <HAL_GPIO_Init+0x1a8>
 80017e6:	f504 6480 	add.w	r4, r4, #1024	; 0x400
 80017ea:	42a0      	cmp	r0, r4
 80017ec:	d046      	beq.n	800187c <HAL_GPIO_Init+0x1ac>
 80017ee:	f504 6480 	add.w	r4, r4, #1024	; 0x400
 80017f2:	42a0      	cmp	r0, r4
 80017f4:	d044      	beq.n	8001880 <HAL_GPIO_Init+0x1b0>
 80017f6:	f504 6480 	add.w	r4, r4, #1024	; 0x400
 80017fa:	42a0      	cmp	r0, r4
 80017fc:	d042      	beq.n	8001884 <HAL_GPIO_Init+0x1b4>
 80017fe:	f504 6480 	add.w	r4, r4, #1024	; 0x400
 8001802:	42a0      	cmp	r0, r4
 8001804:	d040      	beq.n	8001888 <HAL_GPIO_Init+0x1b8>
 8001806:	f504 6480 	add.w	r4, r4, #1024	; 0x400
 800180a:	42a0      	cmp	r0, r4
 800180c:	d03e      	beq.n	800188c <HAL_GPIO_Init+0x1bc>
 800180e:	f504 6480 	add.w	r4, r4, #1024	; 0x400
 8001812:	42a0      	cmp	r0, r4
 8001814:	bf0c      	ite	eq
 8001816:	2409      	moveq	r4, #9
 8001818:	240a      	movne	r4, #10
 800181a:	fa04 f40e 	lsl.w	r4, r4, lr
 800181e:	433c      	orrs	r4, r7
 8001820:	60b4      	str	r4, [r6, #8]
 8001822:	6814      	ldr	r4, [r2, #0]
 8001824:	ea6f 060c 	mvn.w	r6, ip
 8001828:	03ef      	lsls	r7, r5, #15
 800182a:	bf54      	ite	pl
 800182c:	4034      	andpl	r4, r6
 800182e:	ea4c 0404 	orrmi.w	r4, ip, r4
 8001832:	6014      	str	r4, [r2, #0]
 8001834:	6854      	ldr	r4, [r2, #4]
 8001836:	03af      	lsls	r7, r5, #14
 8001838:	bf54      	ite	pl
 800183a:	4034      	andpl	r4, r6
 800183c:	ea4c 0404 	orrmi.w	r4, ip, r4
 8001840:	6054      	str	r4, [r2, #4]
 8001842:	6894      	ldr	r4, [r2, #8]
 8001844:	02ef      	lsls	r7, r5, #11
 8001846:	bf54      	ite	pl
 8001848:	4034      	andpl	r4, r6
 800184a:	ea4c 0404 	orrmi.w	r4, ip, r4
 800184e:	6094      	str	r4, [r2, #8]
 8001850:	68d4      	ldr	r4, [r2, #12]
 8001852:	02ad      	lsls	r5, r5, #10
 8001854:	bf54      	ite	pl
 8001856:	4034      	andpl	r4, r6
 8001858:	ea4c 0404 	orrmi.w	r4, ip, r4
 800185c:	60d4      	str	r4, [r2, #12]
 800185e:	3301      	adds	r3, #1
 8001860:	2b10      	cmp	r3, #16
 8001862:	f47f af3b 	bne.w	80016dc <HAL_GPIO_Init+0xc>
 8001866:	b003      	add	sp, #12
 8001868:	e8bd 8ff0 	ldmia.w	sp!, {r4, r5, r6, r7, r8, r9, sl, fp, pc}
 800186c:	4654      	mov	r4, sl
 800186e:	e7d4      	b.n	800181a <HAL_GPIO_Init+0x14a>
 8001870:	2401      	movs	r4, #1
 8001872:	e7d2      	b.n	800181a <HAL_GPIO_Init+0x14a>
 8001874:	2402      	movs	r4, #2
 8001876:	e7d0      	b.n	800181a <HAL_GPIO_Init+0x14a>
 8001878:	2403      	movs	r4, #3
 800187a:	e7ce      	b.n	800181a <HAL_GPIO_Init+0x14a>
 800187c:	2404      	movs	r4, #4
 800187e:	e7cc      	b.n	800181a <HAL_GPIO_Init+0x14a>
 8001880:	2405      	movs	r4, #5
 8001882:	e7ca      	b.n	800181a <HAL_GPIO_Init+0x14a>
 8001884:	2406      	movs	r4, #6
 8001886:	e7c8      	b.n	800181a <HAL_GPIO_Init+0x14a>
 8001888:	2407      	movs	r4, #7
 800188a:	e7c6      	b.n	800181a <HAL_GPIO_Init+0x14a>
 800188c:	2408      	movs	r4, #8
 800188e:	e7c4      	b.n	800181a <HAL_GPIO_Init+0x14a>
 8001890:	40013c00 	.word	0x40013c00
 8001894:	40020000 	.word	0x40020000
 8001898:	40023800 	.word	0x40023800

0800189c <HAL_GPIO_WritePin>:
 800189c:	b10a      	cbz	r2, 80018a2 <HAL_GPIO_WritePin+0x6>
 800189e:	6181      	str	r1, [r0, #24]
 80018a0:	4770      	bx	lr
 80018a2:	0409      	lsls	r1, r1, #16
 80018a4:	e7fb      	b.n	800189e <HAL_GPIO_WritePin+0x2>

080018a6 <HAL_GPIO_TogglePin>:
 80018a6:	6943      	ldr	r3, [r0, #20]
 80018a8:	ea01 0203 	and.w	r2, r1, r3
 80018ac:	ea21 0103 	bic.w	r1, r1, r3
 80018b0:	ea41 4102 	orr.w	r1, r1, r2, lsl #16
 80018b4:	6181      	str	r1, [r0, #24]
 80018b6:	4770      	bx	lr

080018b8 <HAL_RCC_OscConfig>:
 80018b8:	e92d 41f3 	stmdb	sp!, {r0, r1, r4, r5, r6, r7, r8, lr}
 80018bc:	4604      	mov	r4, r0
 80018be:	b340      	cbz	r0, 8001912 <HAL_RCC_OscConfig+0x5a>
 80018c0:	6803      	ldr	r3, [r0, #0]
 80018c2:	07dd      	lsls	r5, r3, #31
 80018c4:	d410      	bmi.n	80018e8 <HAL_RCC_OscConfig+0x30>
 80018c6:	6823      	ldr	r3, [r4, #0]
 80018c8:	0798      	lsls	r0, r3, #30
 80018ca:	d45e      	bmi.n	800198a <HAL_RCC_OscConfig+0xd2>
 80018cc:	6823      	ldr	r3, [r4, #0]
 80018ce:	071a      	lsls	r2, r3, #28
 80018d0:	f100 80a0 	bmi.w	8001a14 <HAL_RCC_OscConfig+0x15c>
 80018d4:	6823      	ldr	r3, [r4, #0]
 80018d6:	075b      	lsls	r3, r3, #29
 80018d8:	f100 80be 	bmi.w	8001a58 <HAL_RCC_OscConfig+0x1a0>
 80018dc:	69a0      	ldr	r0, [r4, #24]
 80018de:	2800      	cmp	r0, #0
 80018e0:	f040 811f 	bne.w	8001b22 <HAL_RCC_OscConfig+0x26a>
 80018e4:	2000      	movs	r0, #0
 80018e6:	e02b      	b.n	8001940 <HAL_RCC_OscConfig+0x88>
 80018e8:	4ba6      	ldr	r3, [pc, #664]	; (8001b84 <HAL_RCC_OscConfig+0x2cc>)
 80018ea:	689a      	ldr	r2, [r3, #8]
 80018ec:	f002 020c 	and.w	r2, r2, #12
 80018f0:	2a04      	cmp	r2, #4
 80018f2:	d007      	beq.n	8001904 <HAL_RCC_OscConfig+0x4c>
 80018f4:	689a      	ldr	r2, [r3, #8]
 80018f6:	f002 020c 	and.w	r2, r2, #12
 80018fa:	2a08      	cmp	r2, #8
 80018fc:	d10b      	bne.n	8001916 <HAL_RCC_OscConfig+0x5e>
 80018fe:	685a      	ldr	r2, [r3, #4]
 8001900:	0251      	lsls	r1, r2, #9
 8001902:	d508      	bpl.n	8001916 <HAL_RCC_OscConfig+0x5e>
 8001904:	4b9f      	ldr	r3, [pc, #636]	; (8001b84 <HAL_RCC_OscConfig+0x2cc>)
 8001906:	681b      	ldr	r3, [r3, #0]
 8001908:	039a      	lsls	r2, r3, #14
 800190a:	d5dc      	bpl.n	80018c6 <HAL_RCC_OscConfig+0xe>
 800190c:	6863      	ldr	r3, [r4, #4]
 800190e:	2b00      	cmp	r3, #0
 8001910:	d1d9      	bne.n	80018c6 <HAL_RCC_OscConfig+0xe>
 8001912:	2001      	movs	r0, #1
 8001914:	e014      	b.n	8001940 <HAL_RCC_OscConfig+0x88>
 8001916:	6862      	ldr	r2, [r4, #4]
 8001918:	f5b2 3f80 	cmp.w	r2, #65536	; 0x10000
 800191c:	d113      	bne.n	8001946 <HAL_RCC_OscConfig+0x8e>
 800191e:	681a      	ldr	r2, [r3, #0]
 8001920:	f442 3280 	orr.w	r2, r2, #65536	; 0x10000
 8001924:	601a      	str	r2, [r3, #0]
 8001926:	f7ff f9dd 	bl	8000ce4 <HAL_GetTick>
 800192a:	4e96      	ldr	r6, [pc, #600]	; (8001b84 <HAL_RCC_OscConfig+0x2cc>)
 800192c:	4605      	mov	r5, r0
 800192e:	6833      	ldr	r3, [r6, #0]
 8001930:	039b      	lsls	r3, r3, #14
 8001932:	d4c8      	bmi.n	80018c6 <HAL_RCC_OscConfig+0xe>
 8001934:	f7ff f9d6 	bl	8000ce4 <HAL_GetTick>
 8001938:	1b40      	subs	r0, r0, r5
 800193a:	2864      	cmp	r0, #100	; 0x64
 800193c:	d9f7      	bls.n	800192e <HAL_RCC_OscConfig+0x76>
 800193e:	2003      	movs	r0, #3
 8001940:	b002      	add	sp, #8
 8001942:	e8bd 81f0 	ldmia.w	sp!, {r4, r5, r6, r7, r8, pc}
 8001946:	4d8f      	ldr	r5, [pc, #572]	; (8001b84 <HAL_RCC_OscConfig+0x2cc>)
 8001948:	f5b2 2fa0 	cmp.w	r2, #327680	; 0x50000
 800194c:	682b      	ldr	r3, [r5, #0]
 800194e:	d107      	bne.n	8001960 <HAL_RCC_OscConfig+0xa8>
 8001950:	f443 2380 	orr.w	r3, r3, #262144	; 0x40000
 8001954:	602b      	str	r3, [r5, #0]
 8001956:	682b      	ldr	r3, [r5, #0]
 8001958:	f443 3380 	orr.w	r3, r3, #65536	; 0x10000
 800195c:	602b      	str	r3, [r5, #0]
 800195e:	e7e2      	b.n	8001926 <HAL_RCC_OscConfig+0x6e>
 8001960:	f423 3380 	bic.w	r3, r3, #65536	; 0x10000
 8001964:	602b      	str	r3, [r5, #0]
 8001966:	682b      	ldr	r3, [r5, #0]
 8001968:	f423 2380 	bic.w	r3, r3, #262144	; 0x40000
 800196c:	602b      	str	r3, [r5, #0]
 800196e:	2a00      	cmp	r2, #0
 8001970:	d1d9      	bne.n	8001926 <HAL_RCC_OscConfig+0x6e>
 8001972:	f7ff f9b7 	bl	8000ce4 <HAL_GetTick>
 8001976:	4606      	mov	r6, r0
 8001978:	682b      	ldr	r3, [r5, #0]
 800197a:	039f      	lsls	r7, r3, #14
 800197c:	d5a3      	bpl.n	80018c6 <HAL_RCC_OscConfig+0xe>
 800197e:	f7ff f9b1 	bl	8000ce4 <HAL_GetTick>
 8001982:	1b80      	subs	r0, r0, r6
 8001984:	2864      	cmp	r0, #100	; 0x64
 8001986:	d9f7      	bls.n	8001978 <HAL_RCC_OscConfig+0xc0>
 8001988:	e7d9      	b.n	800193e <HAL_RCC_OscConfig+0x86>
 800198a:	4b7e      	ldr	r3, [pc, #504]	; (8001b84 <HAL_RCC_OscConfig+0x2cc>)
 800198c:	689a      	ldr	r2, [r3, #8]
 800198e:	f012 0f0c 	tst.w	r2, #12
 8001992:	d007      	beq.n	80019a4 <HAL_RCC_OscConfig+0xec>
 8001994:	689a      	ldr	r2, [r3, #8]
 8001996:	f002 020c 	and.w	r2, r2, #12
 800199a:	2a08      	cmp	r2, #8
 800199c:	d111      	bne.n	80019c2 <HAL_RCC_OscConfig+0x10a>
 800199e:	685b      	ldr	r3, [r3, #4]
 80019a0:	025e      	lsls	r6, r3, #9
 80019a2:	d40e      	bmi.n	80019c2 <HAL_RCC_OscConfig+0x10a>
 80019a4:	4b77      	ldr	r3, [pc, #476]	; (8001b84 <HAL_RCC_OscConfig+0x2cc>)
 80019a6:	681a      	ldr	r2, [r3, #0]
 80019a8:	0795      	lsls	r5, r2, #30
 80019aa:	d502      	bpl.n	80019b2 <HAL_RCC_OscConfig+0xfa>
 80019ac:	68e2      	ldr	r2, [r4, #12]
 80019ae:	2a01      	cmp	r2, #1
 80019b0:	d1af      	bne.n	8001912 <HAL_RCC_OscConfig+0x5a>
 80019b2:	681a      	ldr	r2, [r3, #0]
 80019b4:	6921      	ldr	r1, [r4, #16]
 80019b6:	f022 02f8 	bic.w	r2, r2, #248	; 0xf8
 80019ba:	ea42 02c1 	orr.w	r2, r2, r1, lsl #3
 80019be:	601a      	str	r2, [r3, #0]
 80019c0:	e784      	b.n	80018cc <HAL_RCC_OscConfig+0x14>
 80019c2:	68e2      	ldr	r2, [r4, #12]
 80019c4:	4b70      	ldr	r3, [pc, #448]	; (8001b88 <HAL_RCC_OscConfig+0x2d0>)
 80019c6:	b1b2      	cbz	r2, 80019f6 <HAL_RCC_OscConfig+0x13e>
 80019c8:	2201      	movs	r2, #1
 80019ca:	601a      	str	r2, [r3, #0]
 80019cc:	f7ff f98a 	bl	8000ce4 <HAL_GetTick>
 80019d0:	4d6c      	ldr	r5, [pc, #432]	; (8001b84 <HAL_RCC_OscConfig+0x2cc>)
 80019d2:	4606      	mov	r6, r0
 80019d4:	682b      	ldr	r3, [r5, #0]
 80019d6:	0798      	lsls	r0, r3, #30
 80019d8:	d507      	bpl.n	80019ea <HAL_RCC_OscConfig+0x132>
 80019da:	682b      	ldr	r3, [r5, #0]
 80019dc:	6922      	ldr	r2, [r4, #16]
 80019de:	f023 03f8 	bic.w	r3, r3, #248	; 0xf8
 80019e2:	ea43 03c2 	orr.w	r3, r3, r2, lsl #3
 80019e6:	602b      	str	r3, [r5, #0]
 80019e8:	e770      	b.n	80018cc <HAL_RCC_OscConfig+0x14>
 80019ea:	f7ff f97b 	bl	8000ce4 <HAL_GetTick>
 80019ee:	1b80      	subs	r0, r0, r6
 80019f0:	2802      	cmp	r0, #2
 80019f2:	d9ef      	bls.n	80019d4 <HAL_RCC_OscConfig+0x11c>
 80019f4:	e7a3      	b.n	800193e <HAL_RCC_OscConfig+0x86>
 80019f6:	601a      	str	r2, [r3, #0]
 80019f8:	f7ff f974 	bl	8000ce4 <HAL_GetTick>
 80019fc:	4e61      	ldr	r6, [pc, #388]	; (8001b84 <HAL_RCC_OscConfig+0x2cc>)
 80019fe:	4605      	mov	r5, r0
 8001a00:	6833      	ldr	r3, [r6, #0]
 8001a02:	0799      	lsls	r1, r3, #30
 8001a04:	f57f af62 	bpl.w	80018cc <HAL_RCC_OscConfig+0x14>
 8001a08:	f7ff f96c 	bl	8000ce4 <HAL_GetTick>
 8001a0c:	1b40      	subs	r0, r0, r5
 8001a0e:	2802      	cmp	r0, #2
 8001a10:	d9f6      	bls.n	8001a00 <HAL_RCC_OscConfig+0x148>
 8001a12:	e794      	b.n	800193e <HAL_RCC_OscConfig+0x86>
 8001a14:	6962      	ldr	r2, [r4, #20]
 8001a16:	4b5d      	ldr	r3, [pc, #372]	; (8001b8c <HAL_RCC_OscConfig+0x2d4>)
 8001a18:	b17a      	cbz	r2, 8001a3a <HAL_RCC_OscConfig+0x182>
 8001a1a:	2201      	movs	r2, #1
 8001a1c:	601a      	str	r2, [r3, #0]
 8001a1e:	f7ff f961 	bl	8000ce4 <HAL_GetTick>
 8001a22:	4e58      	ldr	r6, [pc, #352]	; (8001b84 <HAL_RCC_OscConfig+0x2cc>)
 8001a24:	4605      	mov	r5, r0
 8001a26:	6f73      	ldr	r3, [r6, #116]	; 0x74
 8001a28:	079f      	lsls	r7, r3, #30
 8001a2a:	f53f af53 	bmi.w	80018d4 <HAL_RCC_OscConfig+0x1c>
 8001a2e:	f7ff f959 	bl	8000ce4 <HAL_GetTick>
 8001a32:	1b40      	subs	r0, r0, r5
 8001a34:	2802      	cmp	r0, #2
 8001a36:	d9f6      	bls.n	8001a26 <HAL_RCC_OscConfig+0x16e>
 8001a38:	e781      	b.n	800193e <HAL_RCC_OscConfig+0x86>
 8001a3a:	601a      	str	r2, [r3, #0]
 8001a3c:	f7ff f952 	bl	8000ce4 <HAL_GetTick>
 8001a40:	4e50      	ldr	r6, [pc, #320]	; (8001b84 <HAL_RCC_OscConfig+0x2cc>)
 8001a42:	4605      	mov	r5, r0
 8001a44:	6f73      	ldr	r3, [r6, #116]	; 0x74
 8001a46:	0798      	lsls	r0, r3, #30
 8001a48:	f57f af44 	bpl.w	80018d4 <HAL_RCC_OscConfig+0x1c>
 8001a4c:	f7ff f94a 	bl	8000ce4 <HAL_GetTick>
 8001a50:	1b40      	subs	r0, r0, r5
 8001a52:	2802      	cmp	r0, #2
 8001a54:	d9f6      	bls.n	8001a44 <HAL_RCC_OscConfig+0x18c>
 8001a56:	e772      	b.n	800193e <HAL_RCC_OscConfig+0x86>
 8001a58:	4b4a      	ldr	r3, [pc, #296]	; (8001b84 <HAL_RCC_OscConfig+0x2cc>)
 8001a5a:	6c1a      	ldr	r2, [r3, #64]	; 0x40
 8001a5c:	f012 5280 	ands.w	r2, r2, #268435456	; 0x10000000
 8001a60:	d128      	bne.n	8001ab4 <HAL_RCC_OscConfig+0x1fc>
 8001a62:	9201      	str	r2, [sp, #4]
 8001a64:	6c1a      	ldr	r2, [r3, #64]	; 0x40
 8001a66:	f042 5280 	orr.w	r2, r2, #268435456	; 0x10000000
 8001a6a:	641a      	str	r2, [r3, #64]	; 0x40
 8001a6c:	6c1b      	ldr	r3, [r3, #64]	; 0x40
 8001a6e:	f003 5380 	and.w	r3, r3, #268435456	; 0x10000000
 8001a72:	9301      	str	r3, [sp, #4]
 8001a74:	9b01      	ldr	r3, [sp, #4]
 8001a76:	2701      	movs	r7, #1
 8001a78:	4d45      	ldr	r5, [pc, #276]	; (8001b90 <HAL_RCC_OscConfig+0x2d8>)
 8001a7a:	682b      	ldr	r3, [r5, #0]
 8001a7c:	05d9      	lsls	r1, r3, #23
 8001a7e:	d51b      	bpl.n	8001ab8 <HAL_RCC_OscConfig+0x200>
 8001a80:	68a3      	ldr	r3, [r4, #8]
 8001a82:	4d40      	ldr	r5, [pc, #256]	; (8001b84 <HAL_RCC_OscConfig+0x2cc>)
 8001a84:	2b01      	cmp	r3, #1
 8001a86:	d127      	bne.n	8001ad8 <HAL_RCC_OscConfig+0x220>
 8001a88:	6f2b      	ldr	r3, [r5, #112]	; 0x70
 8001a8a:	f043 0301 	orr.w	r3, r3, #1
 8001a8e:	672b      	str	r3, [r5, #112]	; 0x70
 8001a90:	f7ff f928 	bl	8000ce4 <HAL_GetTick>
 8001a94:	4e3b      	ldr	r6, [pc, #236]	; (8001b84 <HAL_RCC_OscConfig+0x2cc>)
 8001a96:	4605      	mov	r5, r0
 8001a98:	f241 3888 	movw	r8, #5000	; 0x1388
 8001a9c:	6f33      	ldr	r3, [r6, #112]	; 0x70
 8001a9e:	079b      	lsls	r3, r3, #30
 8001aa0:	d539      	bpl.n	8001b16 <HAL_RCC_OscConfig+0x25e>
 8001aa2:	2f00      	cmp	r7, #0
 8001aa4:	f43f af1a 	beq.w	80018dc <HAL_RCC_OscConfig+0x24>
 8001aa8:	4a36      	ldr	r2, [pc, #216]	; (8001b84 <HAL_RCC_OscConfig+0x2cc>)
 8001aaa:	6c13      	ldr	r3, [r2, #64]	; 0x40
 8001aac:	f023 5380 	bic.w	r3, r3, #268435456	; 0x10000000
 8001ab0:	6413      	str	r3, [r2, #64]	; 0x40
 8001ab2:	e713      	b.n	80018dc <HAL_RCC_OscConfig+0x24>
 8001ab4:	2700      	movs	r7, #0
 8001ab6:	e7df      	b.n	8001a78 <HAL_RCC_OscConfig+0x1c0>
 8001ab8:	682b      	ldr	r3, [r5, #0]
 8001aba:	f443 7380 	orr.w	r3, r3, #256	; 0x100
 8001abe:	602b      	str	r3, [r5, #0]
 8001ac0:	f7ff f910 	bl	8000ce4 <HAL_GetTick>
 8001ac4:	4606      	mov	r6, r0
 8001ac6:	682b      	ldr	r3, [r5, #0]
 8001ac8:	05da      	lsls	r2, r3, #23
 8001aca:	d4d9      	bmi.n	8001a80 <HAL_RCC_OscConfig+0x1c8>
 8001acc:	f7ff f90a 	bl	8000ce4 <HAL_GetTick>
 8001ad0:	1b80      	subs	r0, r0, r6
 8001ad2:	2802      	cmp	r0, #2
 8001ad4:	d9f7      	bls.n	8001ac6 <HAL_RCC_OscConfig+0x20e>
 8001ad6:	e732      	b.n	800193e <HAL_RCC_OscConfig+0x86>
 8001ad8:	2b05      	cmp	r3, #5
 8001ada:	d104      	bne.n	8001ae6 <HAL_RCC_OscConfig+0x22e>
 8001adc:	6f2b      	ldr	r3, [r5, #112]	; 0x70
 8001ade:	f043 0304 	orr.w	r3, r3, #4
 8001ae2:	672b      	str	r3, [r5, #112]	; 0x70
 8001ae4:	e7d0      	b.n	8001a88 <HAL_RCC_OscConfig+0x1d0>
 8001ae6:	6f2a      	ldr	r2, [r5, #112]	; 0x70
 8001ae8:	f022 0201 	bic.w	r2, r2, #1
 8001aec:	672a      	str	r2, [r5, #112]	; 0x70
 8001aee:	6f2a      	ldr	r2, [r5, #112]	; 0x70
 8001af0:	f022 0204 	bic.w	r2, r2, #4
 8001af4:	672a      	str	r2, [r5, #112]	; 0x70
 8001af6:	2b00      	cmp	r3, #0
 8001af8:	d1ca      	bne.n	8001a90 <HAL_RCC_OscConfig+0x1d8>
 8001afa:	f7ff f8f3 	bl	8000ce4 <HAL_GetTick>
 8001afe:	f241 3888 	movw	r8, #5000	; 0x1388
 8001b02:	4606      	mov	r6, r0
 8001b04:	6f2b      	ldr	r3, [r5, #112]	; 0x70
 8001b06:	0798      	lsls	r0, r3, #30
 8001b08:	d5cb      	bpl.n	8001aa2 <HAL_RCC_OscConfig+0x1ea>
 8001b0a:	f7ff f8eb 	bl	8000ce4 <HAL_GetTick>
 8001b0e:	1b80      	subs	r0, r0, r6
 8001b10:	4540      	cmp	r0, r8
 8001b12:	d9f7      	bls.n	8001b04 <HAL_RCC_OscConfig+0x24c>
 8001b14:	e713      	b.n	800193e <HAL_RCC_OscConfig+0x86>
 8001b16:	f7ff f8e5 	bl	8000ce4 <HAL_GetTick>
 8001b1a:	1b40      	subs	r0, r0, r5
 8001b1c:	4540      	cmp	r0, r8
 8001b1e:	d9bd      	bls.n	8001a9c <HAL_RCC_OscConfig+0x1e4>
 8001b20:	e70d      	b.n	800193e <HAL_RCC_OscConfig+0x86>
 8001b22:	4d18      	ldr	r5, [pc, #96]	; (8001b84 <HAL_RCC_OscConfig+0x2cc>)
 8001b24:	68ab      	ldr	r3, [r5, #8]
 8001b26:	f003 030c 	and.w	r3, r3, #12
 8001b2a:	2b08      	cmp	r3, #8
 8001b2c:	d047      	beq.n	8001bbe <HAL_RCC_OscConfig+0x306>
 8001b2e:	4e19      	ldr	r6, [pc, #100]	; (8001b94 <HAL_RCC_OscConfig+0x2dc>)
 8001b30:	2300      	movs	r3, #0
 8001b32:	2802      	cmp	r0, #2
 8001b34:	6033      	str	r3, [r6, #0]
 8001b36:	d135      	bne.n	8001ba4 <HAL_RCC_OscConfig+0x2ec>
 8001b38:	f7ff f8d4 	bl	8000ce4 <HAL_GetTick>
 8001b3c:	4607      	mov	r7, r0
 8001b3e:	682b      	ldr	r3, [r5, #0]
 8001b40:	0199      	lsls	r1, r3, #6
 8001b42:	d429      	bmi.n	8001b98 <HAL_RCC_OscConfig+0x2e0>
 8001b44:	e9d4 3207 	ldrd	r3, r2, [r4, #28]
 8001b48:	4313      	orrs	r3, r2
 8001b4a:	6a62      	ldr	r2, [r4, #36]	; 0x24
 8001b4c:	ea43 1382 	orr.w	r3, r3, r2, lsl #6
 8001b50:	6ae2      	ldr	r2, [r4, #44]	; 0x2c
 8001b52:	ea43 6302 	orr.w	r3, r3, r2, lsl #24
 8001b56:	6aa2      	ldr	r2, [r4, #40]	; 0x28
 8001b58:	0852      	lsrs	r2, r2, #1
 8001b5a:	3a01      	subs	r2, #1
 8001b5c:	ea43 4302 	orr.w	r3, r3, r2, lsl #16
 8001b60:	606b      	str	r3, [r5, #4]
 8001b62:	2301      	movs	r3, #1
 8001b64:	6033      	str	r3, [r6, #0]
 8001b66:	f7ff f8bd 	bl	8000ce4 <HAL_GetTick>
 8001b6a:	4d06      	ldr	r5, [pc, #24]	; (8001b84 <HAL_RCC_OscConfig+0x2cc>)
 8001b6c:	4604      	mov	r4, r0
 8001b6e:	682b      	ldr	r3, [r5, #0]
 8001b70:	019a      	lsls	r2, r3, #6
 8001b72:	f53f aeb7 	bmi.w	80018e4 <HAL_RCC_OscConfig+0x2c>
 8001b76:	f7ff f8b5 	bl	8000ce4 <HAL_GetTick>
 8001b7a:	1b00      	subs	r0, r0, r4
 8001b7c:	2802      	cmp	r0, #2
 8001b7e:	d9f6      	bls.n	8001b6e <HAL_RCC_OscConfig+0x2b6>
 8001b80:	e6dd      	b.n	800193e <HAL_RCC_OscConfig+0x86>
 8001b82:	bf00      	nop
 8001b84:	40023800 	.word	0x40023800
 8001b88:	42470000 	.word	0x42470000
 8001b8c:	42470e80 	.word	0x42470e80
 8001b90:	40007000 	.word	0x40007000
 8001b94:	42470060 	.word	0x42470060
 8001b98:	f7ff f8a4 	bl	8000ce4 <HAL_GetTick>
 8001b9c:	1bc0      	subs	r0, r0, r7
 8001b9e:	2802      	cmp	r0, #2
 8001ba0:	d9cd      	bls.n	8001b3e <HAL_RCC_OscConfig+0x286>
 8001ba2:	e6cc      	b.n	800193e <HAL_RCC_OscConfig+0x86>
 8001ba4:	f7ff f89e 	bl	8000ce4 <HAL_GetTick>
 8001ba8:	4604      	mov	r4, r0
 8001baa:	682b      	ldr	r3, [r5, #0]
 8001bac:	019b      	lsls	r3, r3, #6
 8001bae:	f57f ae99 	bpl.w	80018e4 <HAL_RCC_OscConfig+0x2c>
 8001bb2:	f7ff f897 	bl	8000ce4 <HAL_GetTick>
 8001bb6:	1b00      	subs	r0, r0, r4
 8001bb8:	2802      	cmp	r0, #2
 8001bba:	d9f6      	bls.n	8001baa <HAL_RCC_OscConfig+0x2f2>
 8001bbc:	e6bf      	b.n	800193e <HAL_RCC_OscConfig+0x86>
 8001bbe:	2801      	cmp	r0, #1
 8001bc0:	f43f aebe 	beq.w	8001940 <HAL_RCC_OscConfig+0x88>
 8001bc4:	686b      	ldr	r3, [r5, #4]
 8001bc6:	69e2      	ldr	r2, [r4, #28]
 8001bc8:	f403 0180 	and.w	r1, r3, #4194304	; 0x400000
 8001bcc:	4291      	cmp	r1, r2
 8001bce:	f47f aea0 	bne.w	8001912 <HAL_RCC_OscConfig+0x5a>
 8001bd2:	6a21      	ldr	r1, [r4, #32]
 8001bd4:	f003 023f 	and.w	r2, r3, #63	; 0x3f
 8001bd8:	428a      	cmp	r2, r1
 8001bda:	f47f ae9a 	bne.w	8001912 <HAL_RCC_OscConfig+0x5a>
 8001bde:	6a61      	ldr	r1, [r4, #36]	; 0x24
 8001be0:	f647 72c0 	movw	r2, #32704	; 0x7fc0
 8001be4:	401a      	ands	r2, r3
 8001be6:	ebb2 1f81 	cmp.w	r2, r1, lsl #6
 8001bea:	f47f ae92 	bne.w	8001912 <HAL_RCC_OscConfig+0x5a>
 8001bee:	6aa2      	ldr	r2, [r4, #40]	; 0x28
 8001bf0:	0852      	lsrs	r2, r2, #1
 8001bf2:	f403 3140 	and.w	r1, r3, #196608	; 0x30000
 8001bf6:	3a01      	subs	r2, #1
 8001bf8:	ebb1 4f02 	cmp.w	r1, r2, lsl #16
 8001bfc:	f47f ae89 	bne.w	8001912 <HAL_RCC_OscConfig+0x5a>
 8001c00:	6ae2      	ldr	r2, [r4, #44]	; 0x2c
 8001c02:	f003 6370 	and.w	r3, r3, #251658240	; 0xf000000
 8001c06:	ebb3 6f02 	cmp.w	r3, r2, lsl #24
 8001c0a:	f43f ae6b 	beq.w	80018e4 <HAL_RCC_OscConfig+0x2c>
 8001c0e:	e680      	b.n	8001912 <HAL_RCC_OscConfig+0x5a>

08001c10 <HAL_RCC_GetSysClockFreq>:
 8001c10:	4913      	ldr	r1, [pc, #76]	; (8001c60 <HAL_RCC_GetSysClockFreq+0x50>)
 8001c12:	b508      	push	{r3, lr}
 8001c14:	688b      	ldr	r3, [r1, #8]
 8001c16:	f003 030c 	and.w	r3, r3, #12
 8001c1a:	2b04      	cmp	r3, #4
 8001c1c:	d01c      	beq.n	8001c58 <HAL_RCC_GetSysClockFreq+0x48>
 8001c1e:	2b08      	cmp	r3, #8
 8001c20:	d11c      	bne.n	8001c5c <HAL_RCC_GetSysClockFreq+0x4c>
 8001c22:	684a      	ldr	r2, [r1, #4]
 8001c24:	684b      	ldr	r3, [r1, #4]
 8001c26:	6849      	ldr	r1, [r1, #4]
 8001c28:	f413 0380 	ands.w	r3, r3, #4194304	; 0x400000
 8001c2c:	bf14      	ite	ne
 8001c2e:	480d      	ldrne	r0, [pc, #52]	; (8001c64 <HAL_RCC_GetSysClockFreq+0x54>)
 8001c30:	480d      	ldreq	r0, [pc, #52]	; (8001c68 <HAL_RCC_GetSysClockFreq+0x58>)
 8001c32:	f3c1 1188 	ubfx	r1, r1, #6, #9
 8001c36:	bf18      	it	ne
 8001c38:	2300      	movne	r3, #0
 8001c3a:	f002 023f 	and.w	r2, r2, #63	; 0x3f
 8001c3e:	fba1 0100 	umull	r0, r1, r1, r0
 8001c42:	f7fe fb35 	bl	80002b0 <__aeabi_uldivmod>
 8001c46:	4b06      	ldr	r3, [pc, #24]	; (8001c60 <HAL_RCC_GetSysClockFreq+0x50>)
 8001c48:	685b      	ldr	r3, [r3, #4]
 8001c4a:	f3c3 4301 	ubfx	r3, r3, #16, #2
 8001c4e:	3301      	adds	r3, #1
 8001c50:	005b      	lsls	r3, r3, #1
 8001c52:	fbb0 f0f3 	udiv	r0, r0, r3
 8001c56:	bd08      	pop	{r3, pc}
 8001c58:	4802      	ldr	r0, [pc, #8]	; (8001c64 <HAL_RCC_GetSysClockFreq+0x54>)
 8001c5a:	e7fc      	b.n	8001c56 <HAL_RCC_GetSysClockFreq+0x46>
 8001c5c:	4802      	ldr	r0, [pc, #8]	; (8001c68 <HAL_RCC_GetSysClockFreq+0x58>)
 8001c5e:	e7fa      	b.n	8001c56 <HAL_RCC_GetSysClockFreq+0x46>
 8001c60:	40023800 	.word	0x40023800
 8001c64:	007a1200 	.word	0x007a1200
 8001c68:	00f42400 	.word	0x00f42400

08001c6c <HAL_RCC_ClockConfig>:
 8001c6c:	e92d 41f0 	stmdb	sp!, {r4, r5, r6, r7, r8, lr}
 8001c70:	460d      	mov	r5, r1
 8001c72:	4604      	mov	r4, r0
 8001c74:	b910      	cbnz	r0, 8001c7c <HAL_RCC_ClockConfig+0x10>
 8001c76:	2001      	movs	r0, #1
 8001c78:	e8bd 81f0 	ldmia.w	sp!, {r4, r5, r6, r7, r8, pc}
 8001c7c:	4b44      	ldr	r3, [pc, #272]	; (8001d90 <HAL_RCC_ClockConfig+0x124>)
 8001c7e:	681a      	ldr	r2, [r3, #0]
 8001c80:	f002 020f 	and.w	r2, r2, #15
 8001c84:	428a      	cmp	r2, r1
 8001c86:	d328      	bcc.n	8001cda <HAL_RCC_ClockConfig+0x6e>
 8001c88:	6822      	ldr	r2, [r4, #0]
 8001c8a:	0797      	lsls	r7, r2, #30
 8001c8c:	d42d      	bmi.n	8001cea <HAL_RCC_ClockConfig+0x7e>
 8001c8e:	07d0      	lsls	r0, r2, #31
 8001c90:	d441      	bmi.n	8001d16 <HAL_RCC_ClockConfig+0xaa>
 8001c92:	4b3f      	ldr	r3, [pc, #252]	; (8001d90 <HAL_RCC_ClockConfig+0x124>)
 8001c94:	681a      	ldr	r2, [r3, #0]
 8001c96:	f002 020f 	and.w	r2, r2, #15
 8001c9a:	42aa      	cmp	r2, r5
 8001c9c:	d866      	bhi.n	8001d6c <HAL_RCC_ClockConfig+0x100>
 8001c9e:	6822      	ldr	r2, [r4, #0]
 8001ca0:	0751      	lsls	r1, r2, #29
 8001ca2:	d46c      	bmi.n	8001d7e <HAL_RCC_ClockConfig+0x112>
 8001ca4:	0713      	lsls	r3, r2, #28
 8001ca6:	d507      	bpl.n	8001cb8 <HAL_RCC_ClockConfig+0x4c>
 8001ca8:	4a3a      	ldr	r2, [pc, #232]	; (8001d94 <HAL_RCC_ClockConfig+0x128>)
 8001caa:	6921      	ldr	r1, [r4, #16]
 8001cac:	6893      	ldr	r3, [r2, #8]
 8001cae:	f423 4360 	bic.w	r3, r3, #57344	; 0xe000
 8001cb2:	ea43 03c1 	orr.w	r3, r3, r1, lsl #3
 8001cb6:	6093      	str	r3, [r2, #8]
 8001cb8:	f7ff ffaa 	bl	8001c10 <HAL_RCC_GetSysClockFreq>
 8001cbc:	4b35      	ldr	r3, [pc, #212]	; (8001d94 <HAL_RCC_ClockConfig+0x128>)
 8001cbe:	4a36      	ldr	r2, [pc, #216]	; (8001d98 <HAL_RCC_ClockConfig+0x12c>)
 8001cc0:	689b      	ldr	r3, [r3, #8]
 8001cc2:	f3c3 1303 	ubfx	r3, r3, #4, #4
 8001cc6:	5cd3      	ldrb	r3, [r2, r3]
 8001cc8:	40d8      	lsrs	r0, r3
 8001cca:	4b34      	ldr	r3, [pc, #208]	; (8001d9c <HAL_RCC_ClockConfig+0x130>)
 8001ccc:	6018      	str	r0, [r3, #0]
 8001cce:	4b34      	ldr	r3, [pc, #208]	; (8001da0 <HAL_RCC_ClockConfig+0x134>)
 8001cd0:	6818      	ldr	r0, [r3, #0]
 8001cd2:	f7fe ffbd 	bl	8000c50 <HAL_InitTick>
 8001cd6:	2000      	movs	r0, #0
 8001cd8:	e7ce      	b.n	8001c78 <HAL_RCC_ClockConfig+0xc>
 8001cda:	b2ca      	uxtb	r2, r1
 8001cdc:	701a      	strb	r2, [r3, #0]
 8001cde:	681b      	ldr	r3, [r3, #0]
 8001ce0:	f003 030f 	and.w	r3, r3, #15
 8001ce4:	428b      	cmp	r3, r1
 8001ce6:	d1c6      	bne.n	8001c76 <HAL_RCC_ClockConfig+0xa>
 8001ce8:	e7ce      	b.n	8001c88 <HAL_RCC_ClockConfig+0x1c>
 8001cea:	4b2a      	ldr	r3, [pc, #168]	; (8001d94 <HAL_RCC_ClockConfig+0x128>)
 8001cec:	f012 0f04 	tst.w	r2, #4
 8001cf0:	bf1e      	ittt	ne
 8001cf2:	6899      	ldrne	r1, [r3, #8]
 8001cf4:	f441 51e0 	orrne.w	r1, r1, #7168	; 0x1c00
 8001cf8:	6099      	strne	r1, [r3, #8]
 8001cfa:	0716      	lsls	r6, r2, #28
 8001cfc:	bf42      	ittt	mi
 8001cfe:	6899      	ldrmi	r1, [r3, #8]
 8001d00:	f441 4160 	orrmi.w	r1, r1, #57344	; 0xe000
 8001d04:	6099      	strmi	r1, [r3, #8]
 8001d06:	4923      	ldr	r1, [pc, #140]	; (8001d94 <HAL_RCC_ClockConfig+0x128>)
 8001d08:	68a0      	ldr	r0, [r4, #8]
 8001d0a:	688b      	ldr	r3, [r1, #8]
 8001d0c:	f023 03f0 	bic.w	r3, r3, #240	; 0xf0
 8001d10:	4303      	orrs	r3, r0
 8001d12:	608b      	str	r3, [r1, #8]
 8001d14:	e7bb      	b.n	8001c8e <HAL_RCC_ClockConfig+0x22>
 8001d16:	6862      	ldr	r2, [r4, #4]
 8001d18:	4b1e      	ldr	r3, [pc, #120]	; (8001d94 <HAL_RCC_ClockConfig+0x128>)
 8001d1a:	2a01      	cmp	r2, #1
 8001d1c:	d11c      	bne.n	8001d58 <HAL_RCC_ClockConfig+0xec>
 8001d1e:	681b      	ldr	r3, [r3, #0]
 8001d20:	f413 3f00 	tst.w	r3, #131072	; 0x20000
 8001d24:	d0a7      	beq.n	8001c76 <HAL_RCC_ClockConfig+0xa>
 8001d26:	4e1b      	ldr	r6, [pc, #108]	; (8001d94 <HAL_RCC_ClockConfig+0x128>)
 8001d28:	68b3      	ldr	r3, [r6, #8]
 8001d2a:	f023 0303 	bic.w	r3, r3, #3
 8001d2e:	4313      	orrs	r3, r2
 8001d30:	60b3      	str	r3, [r6, #8]
 8001d32:	f7fe ffd7 	bl	8000ce4 <HAL_GetTick>
 8001d36:	f241 3888 	movw	r8, #5000	; 0x1388
 8001d3a:	4607      	mov	r7, r0
 8001d3c:	68b3      	ldr	r3, [r6, #8]
 8001d3e:	6862      	ldr	r2, [r4, #4]
 8001d40:	f003 030c 	and.w	r3, r3, #12
 8001d44:	ebb3 0f82 	cmp.w	r3, r2, lsl #2
 8001d48:	d0a3      	beq.n	8001c92 <HAL_RCC_ClockConfig+0x26>
 8001d4a:	f7fe ffcb 	bl	8000ce4 <HAL_GetTick>
 8001d4e:	1bc0      	subs	r0, r0, r7
 8001d50:	4540      	cmp	r0, r8
 8001d52:	d9f3      	bls.n	8001d3c <HAL_RCC_ClockConfig+0xd0>
 8001d54:	2003      	movs	r0, #3
 8001d56:	e78f      	b.n	8001c78 <HAL_RCC_ClockConfig+0xc>
 8001d58:	1e91      	subs	r1, r2, #2
 8001d5a:	2901      	cmp	r1, #1
 8001d5c:	681b      	ldr	r3, [r3, #0]
 8001d5e:	d802      	bhi.n	8001d66 <HAL_RCC_ClockConfig+0xfa>
 8001d60:	f013 7f00 	tst.w	r3, #33554432	; 0x2000000
 8001d64:	e7de      	b.n	8001d24 <HAL_RCC_ClockConfig+0xb8>
 8001d66:	f013 0f02 	tst.w	r3, #2
 8001d6a:	e7db      	b.n	8001d24 <HAL_RCC_ClockConfig+0xb8>
 8001d6c:	b2ea      	uxtb	r2, r5
 8001d6e:	701a      	strb	r2, [r3, #0]
 8001d70:	681b      	ldr	r3, [r3, #0]
 8001d72:	f003 030f 	and.w	r3, r3, #15
 8001d76:	42ab      	cmp	r3, r5
 8001d78:	f47f af7d 	bne.w	8001c76 <HAL_RCC_ClockConfig+0xa>
 8001d7c:	e78f      	b.n	8001c9e <HAL_RCC_ClockConfig+0x32>
 8001d7e:	4905      	ldr	r1, [pc, #20]	; (8001d94 <HAL_RCC_ClockConfig+0x128>)
 8001d80:	68e0      	ldr	r0, [r4, #12]
 8001d82:	688b      	ldr	r3, [r1, #8]
 8001d84:	f423 53e0 	bic.w	r3, r3, #7168	; 0x1c00
 8001d88:	4303      	orrs	r3, r0
 8001d8a:	608b      	str	r3, [r1, #8]
 8001d8c:	e78a      	b.n	8001ca4 <HAL_RCC_ClockConfig+0x38>
 8001d8e:	bf00      	nop
 8001d90:	40023c00 	.word	0x40023c00
 8001d94:	40023800 	.word	0x40023800
 8001d98:	0800955c 	.word	0x0800955c
 8001d9c:	10000000 	.word	0x10000000
 8001da0:	10000008 	.word	0x10000008

08001da4 <HAL_RCC_GetHCLKFreq>:
 8001da4:	4b01      	ldr	r3, [pc, #4]	; (8001dac <HAL_RCC_GetHCLKFreq+0x8>)
 8001da6:	6818      	ldr	r0, [r3, #0]
 8001da8:	4770      	bx	lr
 8001daa:	bf00      	nop
 8001dac:	10000000 	.word	0x10000000

08001db0 <MX_LWIP_Init>:
 8001db0:	b5f0      	push	{r4, r5, r6, r7, lr}
 8001db2:	4e1f      	ldr	r6, [pc, #124]	; (8001e30 <MX_LWIP_Init+0x80>)
 8001db4:	4d1f      	ldr	r5, [pc, #124]	; (8001e34 <MX_LWIP_Init+0x84>)
 8001db6:	4c20      	ldr	r4, [pc, #128]	; (8001e38 <MX_LWIP_Init+0x88>)
 8001db8:	2307      	movs	r3, #7
 8001dba:	70f3      	strb	r3, [r6, #3]
 8001dbc:	23ff      	movs	r3, #255	; 0xff
 8001dbe:	b085      	sub	sp, #20
 8001dc0:	20c0      	movs	r0, #192	; 0xc0
 8001dc2:	21a8      	movs	r1, #168	; 0xa8
 8001dc4:	2201      	movs	r2, #1
 8001dc6:	702b      	strb	r3, [r5, #0]
 8001dc8:	706b      	strb	r3, [r5, #1]
 8001dca:	70ab      	strb	r3, [r5, #2]
 8001dcc:	2700      	movs	r7, #0
 8001dce:	2308      	movs	r3, #8
 8001dd0:	7020      	strb	r0, [r4, #0]
 8001dd2:	7061      	strb	r1, [r4, #1]
 8001dd4:	70a2      	strb	r2, [r4, #2]
 8001dd6:	70e3      	strb	r3, [r4, #3]
 8001dd8:	7030      	strb	r0, [r6, #0]
 8001dda:	7071      	strb	r1, [r6, #1]
 8001ddc:	70b2      	strb	r2, [r6, #2]
 8001dde:	70ef      	strb	r7, [r5, #3]
 8001de0:	f000 fa7d 	bl	80022de <lwip_init>
 8001de4:	4915      	ldr	r1, [pc, #84]	; (8001e3c <MX_LWIP_Init+0x8c>)
 8001de6:	6833      	ldr	r3, [r6, #0]
 8001de8:	4a15      	ldr	r2, [pc, #84]	; (8001e40 <MX_LWIP_Init+0x90>)
 8001dea:	600b      	str	r3, [r1, #0]
 8001dec:	682b      	ldr	r3, [r5, #0]
 8001dee:	6013      	str	r3, [r2, #0]
 8001df0:	4b14      	ldr	r3, [pc, #80]	; (8001e44 <MX_LWIP_Init+0x94>)
 8001df2:	6820      	ldr	r0, [r4, #0]
 8001df4:	6018      	str	r0, [r3, #0]
 8001df6:	4814      	ldr	r0, [pc, #80]	; (8001e48 <MX_LWIP_Init+0x98>)
 8001df8:	4c14      	ldr	r4, [pc, #80]	; (8001e4c <MX_LWIP_Init+0x9c>)
 8001dfa:	9002      	str	r0, [sp, #8]
 8001dfc:	4814      	ldr	r0, [pc, #80]	; (8001e50 <MX_LWIP_Init+0xa0>)
 8001dfe:	e9cd 7000 	strd	r7, r0, [sp]
 8001e02:	4620      	mov	r0, r4
 8001e04:	f000 fd9c 	bl	8002940 <netif_add>
 8001e08:	4620      	mov	r0, r4
 8001e0a:	f000 fe2f 	bl	8002a6c <netif_set_default>
 8001e0e:	f894 302d 	ldrb.w	r3, [r4, #45]	; 0x2d
 8001e12:	075b      	lsls	r3, r3, #29
 8001e14:	4620      	mov	r0, r4
 8001e16:	d508      	bpl.n	8001e2a <MX_LWIP_Init+0x7a>
 8001e18:	f000 fe2e 	bl	8002a78 <netif_set_up>
 8001e1c:	490d      	ldr	r1, [pc, #52]	; (8001e54 <MX_LWIP_Init+0xa4>)
 8001e1e:	480b      	ldr	r0, [pc, #44]	; (8001e4c <MX_LWIP_Init+0x9c>)
 8001e20:	b005      	add	sp, #20
 8001e22:	e8bd 40f0 	ldmia.w	sp!, {r4, r5, r6, r7, lr}
 8001e26:	f000 be5d 	b.w	8002ae4 <netif_set_link_callback>
 8001e2a:	f000 fe3f 	bl	8002aac <netif_set_down>
 8001e2e:	e7f5      	b.n	8001e1c <MX_LWIP_Init+0x6c>
 8001e30:	2000156c 	.word	0x2000156c
 8001e34:	20001568 	.word	0x20001568
 8001e38:	2000152c 	.word	0x2000152c
 8001e3c:	20001564 	.word	0x20001564
 8001e40:	20001570 	.word	0x20001570
 8001e44:	20001574 	.word	0x20001574
 8001e48:	08008361 	.word	0x08008361
 8001e4c:	20001530 	.word	0x20001530
 8001e50:	08002105 	.word	0x08002105
 8001e54:	0800222d 	.word	0x0800222d

08001e58 <low_level_output>:
 8001e58:	e92d 4ff7 	stmdb	sp!, {r0, r1, r2, r4, r5, r6, r7, r8, r9, sl, fp, lr}
 8001e5c:	4a25      	ldr	r2, [pc, #148]	; (8001ef4 <low_level_output+0x9c>)
 8001e5e:	6ad6      	ldr	r6, [r2, #44]	; 0x2c
 8001e60:	f04f 0800 	mov.w	r8, #0
 8001e64:	68b3      	ldr	r3, [r6, #8]
 8001e66:	460c      	mov	r4, r1
 8001e68:	4647      	mov	r7, r8
 8001e6a:	4691      	mov	r9, r2
 8001e6c:	f240 5bf4 	movw	fp, #1524	; 0x5f4
 8001e70:	b92c      	cbnz	r4, 8001e7e <low_level_output+0x26>
 8001e72:	4820      	ldr	r0, [pc, #128]	; (8001ef4 <low_level_output+0x9c>)
 8001e74:	4639      	mov	r1, r7
 8001e76:	f7ff f8cd 	bl	8001014 <HAL_ETH_TransmitFrame>
 8001e7a:	4620      	mov	r0, r4
 8001e7c:	e004      	b.n	8001e88 <low_level_output+0x30>
 8001e7e:	6832      	ldr	r2, [r6, #0]
 8001e80:	2a00      	cmp	r2, #0
 8001e82:	da11      	bge.n	8001ea8 <low_level_output+0x50>
 8001e84:	f06f 0007 	mvn.w	r0, #7
 8001e88:	f8d9 3000 	ldr.w	r3, [r9]
 8001e8c:	f241 0214 	movw	r2, #4116	; 0x1014
 8001e90:	5899      	ldr	r1, [r3, r2]
 8001e92:	0689      	lsls	r1, r1, #26
 8001e94:	d505      	bpl.n	8001ea2 <low_level_output+0x4a>
 8001e96:	2120      	movs	r1, #32
 8001e98:	5099      	str	r1, [r3, r2]
 8001e9a:	f241 0204 	movw	r2, #4100	; 0x1004
 8001e9e:	2100      	movs	r1, #0
 8001ea0:	5099      	str	r1, [r3, r2]
 8001ea2:	b003      	add	sp, #12
 8001ea4:	e8bd 8ff0 	ldmia.w	sp!, {r4, r5, r6, r7, r8, r9, sl, fp, pc}
 8001ea8:	8962      	ldrh	r2, [r4, #10]
 8001eaa:	4645      	mov	r5, r8
 8001eac:	f04f 0a00 	mov.w	sl, #0
 8001eb0:	6861      	ldr	r1, [r4, #4]
 8001eb2:	eb05 0802 	add.w	r8, r5, r2
 8001eb6:	45d8      	cmp	r8, fp
 8001eb8:	eb03 0005 	add.w	r0, r3, r5
 8001ebc:	4451      	add	r1, sl
 8001ebe:	d808      	bhi.n	8001ed2 <low_level_output+0x7a>
 8001ec0:	e9cd 2300 	strd	r2, r3, [sp]
 8001ec4:	f006 fb06 	bl	80084d4 <memcpy>
 8001ec8:	9a00      	ldr	r2, [sp, #0]
 8001eca:	6824      	ldr	r4, [r4, #0]
 8001ecc:	9b01      	ldr	r3, [sp, #4]
 8001ece:	4417      	add	r7, r2
 8001ed0:	e7ce      	b.n	8001e70 <low_level_output+0x18>
 8001ed2:	ebab 0505 	sub.w	r5, fp, r5
 8001ed6:	462a      	mov	r2, r5
 8001ed8:	f006 fafc 	bl	80084d4 <memcpy>
 8001edc:	68f6      	ldr	r6, [r6, #12]
 8001ede:	6833      	ldr	r3, [r6, #0]
 8001ee0:	2b00      	cmp	r3, #0
 8001ee2:	dbcf      	blt.n	8001e84 <low_level_output+0x2c>
 8001ee4:	44aa      	add	sl, r5
 8001ee6:	442f      	add	r7, r5
 8001ee8:	68b3      	ldr	r3, [r6, #8]
 8001eea:	f2a8 52f4 	subw	r2, r8, #1524	; 0x5f4
 8001eee:	2500      	movs	r5, #0
 8001ef0:	e7de      	b.n	8001eb0 <low_level_output+0x58>
 8001ef2:	bf00      	nop
 8001ef4:	20002e48 	.word	0x20002e48

08001ef8 <HAL_ETH_MspInit>:
 8001ef8:	b5f0      	push	{r4, r5, r6, r7, lr}
 8001efa:	4604      	mov	r4, r0
 8001efc:	b08d      	sub	sp, #52	; 0x34
 8001efe:	2214      	movs	r2, #20
 8001f00:	2100      	movs	r1, #0
 8001f02:	a807      	add	r0, sp, #28
 8001f04:	f006 faf4 	bl	80084f0 <memset>
 8001f08:	6822      	ldr	r2, [r4, #0]
 8001f0a:	4b41      	ldr	r3, [pc, #260]	; (8002010 <HAL_ETH_MspInit+0x118>)
 8001f0c:	429a      	cmp	r2, r3
 8001f0e:	d17d      	bne.n	800200c <HAL_ETH_MspInit+0x114>
 8001f10:	f5a3 4390 	sub.w	r3, r3, #18432	; 0x4800
 8001f14:	2400      	movs	r4, #0
 8001f16:	9400      	str	r4, [sp, #0]
 8001f18:	6b1a      	ldr	r2, [r3, #48]	; 0x30
 8001f1a:	483e      	ldr	r0, [pc, #248]	; (8002014 <HAL_ETH_MspInit+0x11c>)
 8001f1c:	f042 7200 	orr.w	r2, r2, #33554432	; 0x2000000
 8001f20:	631a      	str	r2, [r3, #48]	; 0x30
 8001f22:	6b1a      	ldr	r2, [r3, #48]	; 0x30
 8001f24:	f002 7200 	and.w	r2, r2, #33554432	; 0x2000000
 8001f28:	9200      	str	r2, [sp, #0]
 8001f2a:	9a00      	ldr	r2, [sp, #0]
 8001f2c:	9401      	str	r4, [sp, #4]
 8001f2e:	6b1a      	ldr	r2, [r3, #48]	; 0x30
 8001f30:	f042 6280 	orr.w	r2, r2, #67108864	; 0x4000000
 8001f34:	631a      	str	r2, [r3, #48]	; 0x30
 8001f36:	6b1a      	ldr	r2, [r3, #48]	; 0x30
 8001f38:	f002 6280 	and.w	r2, r2, #67108864	; 0x4000000
 8001f3c:	9201      	str	r2, [sp, #4]
 8001f3e:	9a01      	ldr	r2, [sp, #4]
 8001f40:	9402      	str	r4, [sp, #8]
 8001f42:	6b1a      	ldr	r2, [r3, #48]	; 0x30
 8001f44:	f042 6200 	orr.w	r2, r2, #134217728	; 0x8000000
 8001f48:	631a      	str	r2, [r3, #48]	; 0x30
 8001f4a:	6b1a      	ldr	r2, [r3, #48]	; 0x30
 8001f4c:	f002 6200 	and.w	r2, r2, #134217728	; 0x8000000
 8001f50:	9202      	str	r2, [sp, #8]
 8001f52:	9a02      	ldr	r2, [sp, #8]
 8001f54:	9403      	str	r4, [sp, #12]
 8001f56:	6b1a      	ldr	r2, [r3, #48]	; 0x30
 8001f58:	f042 0204 	orr.w	r2, r2, #4
 8001f5c:	631a      	str	r2, [r3, #48]	; 0x30
 8001f5e:	6b1a      	ldr	r2, [r3, #48]	; 0x30
 8001f60:	f002 0204 	and.w	r2, r2, #4
 8001f64:	9203      	str	r2, [sp, #12]
 8001f66:	9a03      	ldr	r2, [sp, #12]
 8001f68:	9404      	str	r4, [sp, #16]
 8001f6a:	6b1a      	ldr	r2, [r3, #48]	; 0x30
 8001f6c:	f042 0201 	orr.w	r2, r2, #1
 8001f70:	631a      	str	r2, [r3, #48]	; 0x30
 8001f72:	6b1a      	ldr	r2, [r3, #48]	; 0x30
 8001f74:	f002 0201 	and.w	r2, r2, #1
 8001f78:	9204      	str	r2, [sp, #16]
 8001f7a:	9a04      	ldr	r2, [sp, #16]
 8001f7c:	9405      	str	r4, [sp, #20]
 8001f7e:	6b1a      	ldr	r2, [r3, #48]	; 0x30
 8001f80:	f042 0202 	orr.w	r2, r2, #2
 8001f84:	631a      	str	r2, [r3, #48]	; 0x30
 8001f86:	6b1a      	ldr	r2, [r3, #48]	; 0x30
 8001f88:	f002 0202 	and.w	r2, r2, #2
 8001f8c:	9205      	str	r2, [sp, #20]
 8001f8e:	9a05      	ldr	r2, [sp, #20]
 8001f90:	9406      	str	r4, [sp, #24]
 8001f92:	6b1a      	ldr	r2, [r3, #48]	; 0x30
 8001f94:	f042 0240 	orr.w	r2, r2, #64	; 0x40
 8001f98:	631a      	str	r2, [r3, #48]	; 0x30
 8001f9a:	6b1b      	ldr	r3, [r3, #48]	; 0x30
 8001f9c:	9409      	str	r4, [sp, #36]	; 0x24
 8001f9e:	f003 0340 	and.w	r3, r3, #64	; 0x40
 8001fa2:	9306      	str	r3, [sp, #24]
 8001fa4:	2702      	movs	r7, #2
 8001fa6:	2603      	movs	r6, #3
 8001fa8:	250b      	movs	r5, #11
 8001faa:	9b06      	ldr	r3, [sp, #24]
 8001fac:	a907      	add	r1, sp, #28
 8001fae:	2332      	movs	r3, #50	; 0x32
 8001fb0:	e9cd 3707 	strd	r3, r7, [sp, #28]
 8001fb4:	e9cd 650a 	strd	r6, r5, [sp, #40]	; 0x28
 8001fb8:	f7ff fb8a 	bl	80016d0 <HAL_GPIO_Init>
 8001fbc:	2386      	movs	r3, #134	; 0x86
 8001fbe:	4816      	ldr	r0, [pc, #88]	; (8002018 <HAL_ETH_MspInit+0x120>)
 8001fc0:	950b      	str	r5, [sp, #44]	; 0x2c
 8001fc2:	a907      	add	r1, sp, #28
 8001fc4:	e9cd 3707 	strd	r3, r7, [sp, #28]
 8001fc8:	e9cd 4609 	strd	r4, r6, [sp, #36]	; 0x24
 8001fcc:	f7ff fb80 	bl	80016d0 <HAL_GPIO_Init>
 8001fd0:	f44f 5300 	mov.w	r3, #8192	; 0x2000
 8001fd4:	4811      	ldr	r0, [pc, #68]	; (800201c <HAL_ETH_MspInit+0x124>)
 8001fd6:	950b      	str	r5, [sp, #44]	; 0x2c
 8001fd8:	a907      	add	r1, sp, #28
 8001fda:	e9cd 3707 	strd	r3, r7, [sp, #28]
 8001fde:	e9cd 4609 	strd	r4, r6, [sp, #36]	; 0x24
 8001fe2:	f7ff fb75 	bl	80016d0 <HAL_GPIO_Init>
 8001fe6:	f44f 5320 	mov.w	r3, #10240	; 0x2800
 8001fea:	480d      	ldr	r0, [pc, #52]	; (8002020 <HAL_ETH_MspInit+0x128>)
 8001fec:	950b      	str	r5, [sp, #44]	; 0x2c
 8001fee:	a907      	add	r1, sp, #28
 8001ff0:	e9cd 3707 	strd	r3, r7, [sp, #28]
 8001ff4:	e9cd 4609 	strd	r4, r6, [sp, #36]	; 0x24
 8001ff8:	f7ff fb6a 	bl	80016d0 <HAL_GPIO_Init>
 8001ffc:	203d      	movs	r0, #61	; 0x3d
 8001ffe:	4622      	mov	r2, r4
 8002000:	4621      	mov	r1, r4
 8002002:	f7fe fe9b 	bl	8000d3c <HAL_NVIC_SetPriority>
 8002006:	203d      	movs	r0, #61	; 0x3d
 8002008:	f7fe feca 	bl	8000da0 <HAL_NVIC_EnableIRQ>
 800200c:	b00d      	add	sp, #52	; 0x34
 800200e:	bdf0      	pop	{r4, r5, r6, r7, pc}
 8002010:	40028000 	.word	0x40028000
 8002014:	40020800 	.word	0x40020800
 8002018:	40020000 	.word	0x40020000
 800201c:	40020400 	.word	0x40020400
 8002020:	40021800 	.word	0x40021800

08002024 <ethernetif_input>:
 8002024:	e92d 4ff7 	stmdb	sp!, {r0, r1, r2, r4, r5, r6, r7, r8, r9, sl, fp, lr}
 8002028:	4c35      	ldr	r4, [pc, #212]	; (8002100 <ethernetif_input+0xdc>)
 800202a:	4680      	mov	r8, r0
 800202c:	4620      	mov	r0, r4
 800202e:	f7ff f865 	bl	80010fc <HAL_ETH_GetReceivedFrame>
 8002032:	4605      	mov	r5, r0
 8002034:	2800      	cmp	r0, #0
 8002036:	d15f      	bne.n	80020f8 <ethernetif_input+0xd4>
 8002038:	8fa1      	ldrh	r1, [r4, #60]	; 0x3c
 800203a:	bb19      	cbnz	r1, 8002084 <ethernetif_input+0x60>
 800203c:	2600      	movs	r6, #0
 800203e:	6b23      	ldr	r3, [r4, #48]	; 0x30
 8002040:	6ba0      	ldr	r0, [r4, #56]	; 0x38
 8002042:	2200      	movs	r2, #0
 8002044:	4282      	cmp	r2, r0
 8002046:	d150      	bne.n	80020ea <ethernetif_input+0xc6>
 8002048:	f241 0114 	movw	r1, #4116	; 0x1014
 800204c:	6823      	ldr	r3, [r4, #0]
 800204e:	5858      	ldr	r0, [r3, r1]
 8002050:	0600      	lsls	r0, r0, #24
 8002052:	bf42      	ittt	mi
 8002054:	2080      	movmi	r0, #128	; 0x80
 8002056:	5058      	strmi	r0, [r3, r1]
 8002058:	f241 0108 	movwmi	r1, #4104	; 0x1008
 800205c:	f04f 0200 	mov.w	r2, #0
 8002060:	bf48      	it	mi
 8002062:	505a      	strmi	r2, [r3, r1]
 8002064:	63a2      	str	r2, [r4, #56]	; 0x38
 8002066:	2e00      	cmp	r6, #0
 8002068:	d046      	beq.n	80020f8 <ethernetif_input+0xd4>
 800206a:	f8d8 3010 	ldr.w	r3, [r8, #16]
 800206e:	4641      	mov	r1, r8
 8002070:	4630      	mov	r0, r6
 8002072:	4798      	blx	r3
 8002074:	2800      	cmp	r0, #0
 8002076:	d03f      	beq.n	80020f8 <ethernetif_input+0xd4>
 8002078:	4630      	mov	r0, r6
 800207a:	b003      	add	sp, #12
 800207c:	e8bd 4ff0 	ldmia.w	sp!, {r4, r5, r6, r7, r8, r9, sl, fp, lr}
 8002080:	f000 be00 	b.w	8002c84 <pbuf_free>
 8002084:	f44f 72c1 	mov.w	r2, #386	; 0x182
 8002088:	6c27      	ldr	r7, [r4, #64]	; 0x40
 800208a:	f000 fe5f 	bl	8002d4c <pbuf_alloc>
 800208e:	4606      	mov	r6, r0
 8002090:	2800      	cmp	r0, #0
 8002092:	d0d3      	beq.n	800203c <ethernetif_input+0x18>
 8002094:	f8d4 a030 	ldr.w	sl, [r4, #48]	; 0x30
 8002098:	46b9      	mov	r9, r7
 800209a:	f240 5bf4 	movw	fp, #1524	; 0x5f4
 800209e:	4607      	mov	r7, r0
 80020a0:	f8b7 e00a 	ldrh.w	lr, [r7, #10]
 80020a4:	46ac      	mov	ip, r5
 80020a6:	2300      	movs	r3, #0
 80020a8:	6878      	ldr	r0, [r7, #4]
 80020aa:	eb0c 050e 	add.w	r5, ip, lr
 80020ae:	455d      	cmp	r5, fp
 80020b0:	4418      	add	r0, r3
 80020b2:	eb09 010c 	add.w	r1, r9, ip
 80020b6:	d806      	bhi.n	80020c6 <ethernetif_input+0xa2>
 80020b8:	4672      	mov	r2, lr
 80020ba:	f006 fa0b 	bl	80084d4 <memcpy>
 80020be:	683f      	ldr	r7, [r7, #0]
 80020c0:	2f00      	cmp	r7, #0
 80020c2:	d1ed      	bne.n	80020a0 <ethernetif_input+0x7c>
 80020c4:	e7bb      	b.n	800203e <ethernetif_input+0x1a>
 80020c6:	ebab 020c 	sub.w	r2, fp, ip
 80020ca:	9301      	str	r3, [sp, #4]
 80020cc:	9200      	str	r2, [sp, #0]
 80020ce:	f006 fa01 	bl	80084d4 <memcpy>
 80020d2:	e9dd 2300 	ldrd	r2, r3, [sp]
 80020d6:	f8da a00c 	ldr.w	sl, [sl, #12]
 80020da:	f2a5 5ef4 	subw	lr, r5, #1524	; 0x5f4
 80020de:	f8da 9008 	ldr.w	r9, [sl, #8]
 80020e2:	4413      	add	r3, r2
 80020e4:	f04f 0c00 	mov.w	ip, #0
 80020e8:	e7de      	b.n	80020a8 <ethernetif_input+0x84>
 80020ea:	6819      	ldr	r1, [r3, #0]
 80020ec:	f041 4100 	orr.w	r1, r1, #2147483648	; 0x80000000
 80020f0:	6019      	str	r1, [r3, #0]
 80020f2:	68db      	ldr	r3, [r3, #12]
 80020f4:	3201      	adds	r2, #1
 80020f6:	e7a5      	b.n	8002044 <ethernetif_input+0x20>
 80020f8:	b003      	add	sp, #12
 80020fa:	e8bd 8ff0 	ldmia.w	sp!, {r4, r5, r6, r7, r8, r9, sl, fp, pc}
 80020fe:	bf00      	nop
 8002100:	20002e48 	.word	0x20002e48

08002104 <ethernetif_init>:
 8002104:	b530      	push	{r4, r5, lr}
 8002106:	4604      	mov	r4, r0
 8002108:	b085      	sub	sp, #20
 800210a:	b930      	cbnz	r0, 800211a <ethernetif_init+0x16>
 800210c:	4b39      	ldr	r3, [pc, #228]	; (80021f4 <ethernetif_init+0xf0>)
 800210e:	493a      	ldr	r1, [pc, #232]	; (80021f8 <ethernetif_init+0xf4>)
 8002110:	483a      	ldr	r0, [pc, #232]	; (80021fc <ethernetif_init+0xf8>)
 8002112:	f44f 7206 	mov.w	r2, #536	; 0x218
 8002116:	f006 f9f3 	bl	8008500 <iprintf>
 800211a:	4d39      	ldr	r5, [pc, #228]	; (8002200 <ethernetif_init+0xfc>)
 800211c:	4939      	ldr	r1, [pc, #228]	; (8002204 <ethernetif_init+0x100>)
 800211e:	f247 4373 	movw	r3, #29811	; 0x7473
 8002122:	2201      	movs	r2, #1
 8002124:	f44f 4080 	mov.w	r0, #16384	; 0x4000
 8002128:	e9c5 1200 	strd	r1, r2, [r5]
 800212c:	85e3      	strh	r3, [r4, #46]	; 0x2e
 800212e:	f44f 6200 	mov.w	r2, #2048	; 0x800
 8002132:	4b35      	ldr	r3, [pc, #212]	; (8002208 <ethernetif_init+0x104>)
 8002134:	6163      	str	r3, [r4, #20]
 8002136:	e9c5 0202 	strd	r0, r2, [r5, #8]
 800213a:	4b34      	ldr	r3, [pc, #208]	; (800220c <ethernetif_init+0x108>)
 800213c:	4a34      	ldr	r2, [pc, #208]	; (8002210 <ethernetif_init+0x10c>)
 800213e:	61a3      	str	r3, [r4, #24]
 8002140:	9202      	str	r2, [sp, #8]
 8002142:	2300      	movs	r3, #0
 8002144:	aa02      	add	r2, sp, #8
 8002146:	e9c5 2305 	strd	r2, r3, [r5, #20]
 800214a:	9301      	str	r3, [sp, #4]
 800214c:	822b      	strh	r3, [r5, #16]
 800214e:	f8ad 300c 	strh.w	r3, [sp, #12]
 8002152:	61eb      	str	r3, [r5, #28]
 8002154:	4628      	mov	r0, r5
 8002156:	f44f 0300 	mov.w	r3, #8388608	; 0x800000
 800215a:	622b      	str	r3, [r5, #32]
 800215c:	f7ff f8bc 	bl	80012d8 <HAL_ETH_Init>
 8002160:	b928      	cbnz	r0, 800216e <ethernetif_init+0x6a>
 8002162:	f894 302d 	ldrb.w	r3, [r4, #45]	; 0x2d
 8002166:	f043 0304 	orr.w	r3, r3, #4
 800216a:	f884 302d 	strb.w	r3, [r4, #45]	; 0x2d
 800216e:	4a29      	ldr	r2, [pc, #164]	; (8002214 <ethernetif_init+0x110>)
 8002170:	4929      	ldr	r1, [pc, #164]	; (8002218 <ethernetif_init+0x114>)
 8002172:	4823      	ldr	r0, [pc, #140]	; (8002200 <ethernetif_init+0xfc>)
 8002174:	2304      	movs	r3, #4
 8002176:	f7fe fed7 	bl	8000f28 <HAL_ETH_DMATxDescListInit>
 800217a:	4928      	ldr	r1, [pc, #160]	; (800221c <ethernetif_init+0x118>)
 800217c:	4a28      	ldr	r2, [pc, #160]	; (8002220 <ethernetif_init+0x11c>)
 800217e:	4820      	ldr	r0, [pc, #128]	; (8002200 <ethernetif_init+0xfc>)
 8002180:	2304      	movs	r3, #4
 8002182:	f7fe ff0d 	bl	8000fa0 <HAL_ETH_DMARxDescListInit>
 8002186:	2306      	movs	r3, #6
 8002188:	f884 302c 	strb.w	r3, [r4, #44]	; 0x2c
 800218c:	696b      	ldr	r3, [r5, #20]
 800218e:	481c      	ldr	r0, [pc, #112]	; (8002200 <ethernetif_init+0xfc>)
 8002190:	781a      	ldrb	r2, [r3, #0]
 8002192:	f884 2026 	strb.w	r2, [r4, #38]	; 0x26
 8002196:	785a      	ldrb	r2, [r3, #1]
 8002198:	f884 2027 	strb.w	r2, [r4, #39]	; 0x27
 800219c:	789a      	ldrb	r2, [r3, #2]
 800219e:	f884 2028 	strb.w	r2, [r4, #40]	; 0x28
 80021a2:	78da      	ldrb	r2, [r3, #3]
 80021a4:	f884 2029 	strb.w	r2, [r4, #41]	; 0x29
 80021a8:	791a      	ldrb	r2, [r3, #4]
 80021aa:	f884 202a 	strb.w	r2, [r4, #42]	; 0x2a
 80021ae:	795b      	ldrb	r3, [r3, #5]
 80021b0:	f884 302b 	strb.w	r3, [r4, #43]	; 0x2b
 80021b4:	f240 53dc 	movw	r3, #1500	; 0x5dc
 80021b8:	84a3      	strh	r3, [r4, #36]	; 0x24
 80021ba:	f894 302d 	ldrb.w	r3, [r4, #45]	; 0x2d
 80021be:	f043 030a 	orr.w	r3, r3, #10
 80021c2:	f884 302d 	strb.w	r3, [r4, #45]	; 0x2d
 80021c6:	f7ff f983 	bl	80014d0 <HAL_ETH_Start>
 80021ca:	aa01      	add	r2, sp, #4
 80021cc:	211d      	movs	r1, #29
 80021ce:	480c      	ldr	r0, [pc, #48]	; (8002200 <ethernetif_init+0xfc>)
 80021d0:	f7ff f80e 	bl	80011f0 <HAL_ETH_ReadPHYRegister>
 80021d4:	9a01      	ldr	r2, [sp, #4]
 80021d6:	480a      	ldr	r0, [pc, #40]	; (8002200 <ethernetif_init+0xfc>)
 80021d8:	f042 020b 	orr.w	r2, r2, #11
 80021dc:	211d      	movs	r1, #29
 80021de:	9201      	str	r2, [sp, #4]
 80021e0:	f7ff f841 	bl	8001266 <HAL_ETH_WritePHYRegister>
 80021e4:	aa01      	add	r2, sp, #4
 80021e6:	211d      	movs	r1, #29
 80021e8:	4805      	ldr	r0, [pc, #20]	; (8002200 <ethernetif_init+0xfc>)
 80021ea:	f7ff f801 	bl	80011f0 <HAL_ETH_ReadPHYRegister>
 80021ee:	2000      	movs	r0, #0
 80021f0:	b005      	add	sp, #20
 80021f2:	bd30      	pop	{r4, r5, pc}
 80021f4:	080095dd 	.word	0x080095dd
 80021f8:	080095f9 	.word	0x080095f9
 80021fc:	080095b5 	.word	0x080095b5
 8002200:	20002e48 	.word	0x20002e48
 8002204:	40028000 	.word	0x40028000
 8002208:	08007559 	.word	0x08007559
 800220c:	08001e59 	.word	0x08001e59
 8002210:	00e18000 	.word	0x00e18000
 8002214:	20002e90 	.word	0x20002e90
 8002218:	20001578 	.word	0x20001578
 800221c:	20002dc8 	.word	0x20002dc8
 8002220:	200015f8 	.word	0x200015f8

08002224 <sys_now>:
 8002224:	f7fe bd5e 	b.w	8000ce4 <HAL_GetTick>

08002228 <ethernetif_notify_conn_changed>:
 8002228:	4770      	bx	lr
	...

0800222c <ethernetif_update_config>:
 800222c:	b573      	push	{r0, r1, r4, r5, r6, lr}
 800222e:	f890 302d 	ldrb.w	r3, [r0, #45]	; 0x2d
 8002232:	2100      	movs	r1, #0
 8002234:	4605      	mov	r5, r0
 8002236:	0758      	lsls	r0, r3, #29
 8002238:	9100      	str	r1, [sp, #0]
 800223a:	9101      	str	r1, [sp, #4]
 800223c:	d544      	bpl.n	80022c8 <ethernetif_update_config+0x9c>
 800223e:	4c24      	ldr	r4, [pc, #144]	; (80022d0 <ethernetif_update_config+0xa4>)
 8002240:	6863      	ldr	r3, [r4, #4]
 8002242:	2b00      	cmp	r3, #0
 8002244:	d035      	beq.n	80022b2 <ethernetif_update_config+0x86>
 8002246:	f44f 5280 	mov.w	r2, #4096	; 0x1000
 800224a:	4620      	mov	r0, r4
 800224c:	f7ff f80b 	bl	8001266 <HAL_ETH_WritePHYRegister>
 8002250:	f7fe fd48 	bl	8000ce4 <HAL_GetTick>
 8002254:	4626      	mov	r6, r4
 8002256:	9000      	str	r0, [sp, #0]
 8002258:	aa01      	add	r2, sp, #4
 800225a:	2101      	movs	r1, #1
 800225c:	4630      	mov	r0, r6
 800225e:	f7fe ffc7 	bl	80011f0 <HAL_ETH_ReadPHYRegister>
 8002262:	f7fe fd3f 	bl	8000ce4 <HAL_GetTick>
 8002266:	9b00      	ldr	r3, [sp, #0]
 8002268:	1ac0      	subs	r0, r0, r3
 800226a:	f5b0 7f7a 	cmp.w	r0, #1000	; 0x3e8
 800226e:	d820      	bhi.n	80022b2 <ethernetif_update_config+0x86>
 8002270:	9b01      	ldr	r3, [sp, #4]
 8002272:	069a      	lsls	r2, r3, #26
 8002274:	d5f0      	bpl.n	8002258 <ethernetif_update_config+0x2c>
 8002276:	aa01      	add	r2, sp, #4
 8002278:	4815      	ldr	r0, [pc, #84]	; (80022d0 <ethernetif_update_config+0xa4>)
 800227a:	2110      	movs	r1, #16
 800227c:	f7fe ffb8 	bl	80011f0 <HAL_ETH_ReadPHYRegister>
 8002280:	9b01      	ldr	r3, [sp, #4]
 8002282:	f013 0204 	ands.w	r2, r3, #4
 8002286:	bf18      	it	ne
 8002288:	f44f 6200 	movne.w	r2, #2048	; 0x800
 800228c:	079b      	lsls	r3, r3, #30
 800228e:	bf4c      	ite	mi
 8002290:	2300      	movmi	r3, #0
 8002292:	f44f 4380 	movpl.w	r3, #16384	; 0x4000
 8002296:	60e2      	str	r2, [r4, #12]
 8002298:	60a3      	str	r3, [r4, #8]
 800229a:	480d      	ldr	r0, [pc, #52]	; (80022d0 <ethernetif_update_config+0xa4>)
 800229c:	2100      	movs	r1, #0
 800229e:	f7ff f98b 	bl	80015b8 <HAL_ETH_ConfigMAC>
 80022a2:	480b      	ldr	r0, [pc, #44]	; (80022d0 <ethernetif_update_config+0xa4>)
 80022a4:	f7ff f914 	bl	80014d0 <HAL_ETH_Start>
 80022a8:	4628      	mov	r0, r5
 80022aa:	f7ff ffbd 	bl	8002228 <ethernetif_notify_conn_changed>
 80022ae:	b002      	add	sp, #8
 80022b0:	bd70      	pop	{r4, r5, r6, pc}
 80022b2:	e9d4 2302 	ldrd	r2, r3, [r4, #8]
 80022b6:	0852      	lsrs	r2, r2, #1
 80022b8:	ea42 02d3 	orr.w	r2, r2, r3, lsr #3
 80022bc:	b292      	uxth	r2, r2
 80022be:	2100      	movs	r1, #0
 80022c0:	4803      	ldr	r0, [pc, #12]	; (80022d0 <ethernetif_update_config+0xa4>)
 80022c2:	f7fe ffd0 	bl	8001266 <HAL_ETH_WritePHYRegister>
 80022c6:	e7e8      	b.n	800229a <ethernetif_update_config+0x6e>
 80022c8:	4801      	ldr	r0, [pc, #4]	; (80022d0 <ethernetif_update_config+0xa4>)
 80022ca:	f7ff f93b 	bl	8001544 <HAL_ETH_Stop>
 80022ce:	e7eb      	b.n	80022a8 <ethernetif_update_config+0x7c>
 80022d0:	20002e48 	.word	0x20002e48

080022d4 <lwip_htons>:
 80022d4:	ba40      	rev16	r0, r0
 80022d6:	b280      	uxth	r0, r0
 80022d8:	4770      	bx	lr

080022da <lwip_htonl>:
 80022da:	ba00      	rev	r0, r0
 80022dc:	4770      	bx	lr

080022de <lwip_init>:
 80022de:	b508      	push	{r3, lr}
 80022e0:	f000 f80c 	bl	80022fc <mem_init>
 80022e4:	f000 fa66 	bl	80027b4 <memp_init>
 80022e8:	f000 fafc 	bl	80028e4 <netif_init>
 80022ec:	f004 fd44 	bl	8006d78 <udp_init>
 80022f0:	f001 f804 	bl	80032fc <tcp_init>
 80022f4:	e8bd 4008 	ldmia.w	sp!, {r3, lr}
 80022f8:	f004 bcfc 	b.w	8006cf4 <sys_timeouts_init>

080022fc <mem_init>:
 80022fc:	4b0a      	ldr	r3, [pc, #40]	; (8002328 <mem_init+0x2c>)
 80022fe:	4a0b      	ldr	r2, [pc, #44]	; (800232c <mem_init+0x30>)
 8002300:	490b      	ldr	r1, [pc, #44]	; (8002330 <mem_init+0x34>)
 8002302:	f023 0303 	bic.w	r3, r3, #3
 8002306:	6013      	str	r3, [r2, #0]
 8002308:	f44f 5270 	mov.w	r2, #15360	; 0x3c00
 800230c:	601a      	str	r2, [r3, #0]
 800230e:	2200      	movs	r2, #0
 8002310:	711a      	strb	r2, [r3, #4]
 8002312:	f503 5270 	add.w	r2, r3, #15360	; 0x3c00
 8002316:	600a      	str	r2, [r1, #0]
 8002318:	f04f 213c 	mov.w	r1, #1006648320	; 0x3c003c00
 800231c:	6011      	str	r1, [r2, #0]
 800231e:	2101      	movs	r1, #1
 8002320:	7111      	strb	r1, [r2, #4]
 8002322:	4a04      	ldr	r2, [pc, #16]	; (8002334 <mem_init+0x38>)
 8002324:	6013      	str	r3, [r2, #0]
 8002326:	4770      	bx	lr
 8002328:	2000467b 	.word	0x2000467b
 800232c:	20000024 	.word	0x20000024
 8002330:	20000028 	.word	0x20000028
 8002334:	20000020 	.word	0x20000020

08002338 <mem_free>:
 8002338:	e92d 41f0 	stmdb	sp!, {r4, r5, r6, r7, r8, lr}
 800233c:	4604      	mov	r4, r0
 800233e:	2800      	cmp	r0, #0
 8002340:	f000 8097 	beq.w	8002472 <mem_free+0x13a>
 8002344:	0783      	lsls	r3, r0, #30
 8002346:	d008      	beq.n	800235a <mem_free+0x22>
 8002348:	4b4b      	ldr	r3, [pc, #300]	; (8002478 <mem_free+0x140>)
 800234a:	494c      	ldr	r1, [pc, #304]	; (800247c <mem_free+0x144>)
 800234c:	f240 2273 	movw	r2, #627	; 0x273
 8002350:	e8bd 41f0 	ldmia.w	sp!, {r4, r5, r6, r7, r8, lr}
 8002354:	484a      	ldr	r0, [pc, #296]	; (8002480 <mem_free+0x148>)
 8002356:	f006 b8d3 	b.w	8008500 <iprintf>
 800235a:	4a4a      	ldr	r2, [pc, #296]	; (8002484 <mem_free+0x14c>)
 800235c:	6813      	ldr	r3, [r2, #0]
 800235e:	f1a0 0508 	sub.w	r5, r0, #8
 8002362:	42ab      	cmp	r3, r5
 8002364:	4690      	mov	r8, r2
 8002366:	d805      	bhi.n	8002374 <mem_free+0x3c>
 8002368:	4f47      	ldr	r7, [pc, #284]	; (8002488 <mem_free+0x150>)
 800236a:	6839      	ldr	r1, [r7, #0]
 800236c:	f100 020c 	add.w	r2, r0, #12
 8002370:	4291      	cmp	r1, r2
 8002372:	d204      	bcs.n	800237e <mem_free+0x46>
 8002374:	4b40      	ldr	r3, [pc, #256]	; (8002478 <mem_free+0x140>)
 8002376:	4945      	ldr	r1, [pc, #276]	; (800248c <mem_free+0x154>)
 8002378:	f240 227f 	movw	r2, #639	; 0x27f
 800237c:	e7e8      	b.n	8002350 <mem_free+0x18>
 800237e:	f810 2c04 	ldrb.w	r2, [r0, #-4]
 8002382:	b922      	cbnz	r2, 800238e <mem_free+0x56>
 8002384:	4b3c      	ldr	r3, [pc, #240]	; (8002478 <mem_free+0x140>)
 8002386:	4942      	ldr	r1, [pc, #264]	; (8002490 <mem_free+0x158>)
 8002388:	f44f 7223 	mov.w	r2, #652	; 0x28c
 800238c:	e7e0      	b.n	8002350 <mem_free+0x18>
 800238e:	f830 6c08 	ldrh.w	r6, [r0, #-8]
 8002392:	f5b6 5f70 	cmp.w	r6, #15360	; 0x3c00
 8002396:	d811      	bhi.n	80023bc <mem_free+0x84>
 8002398:	f830 0c06 	ldrh.w	r0, [r0, #-6]
 800239c:	f5b0 5f70 	cmp.w	r0, #15360	; 0x3c00
 80023a0:	d80c      	bhi.n	80023bc <mem_free+0x84>
 80023a2:	1aea      	subs	r2, r5, r3
 80023a4:	b292      	uxth	r2, r2
 80023a6:	4282      	cmp	r2, r0
 80023a8:	d002      	beq.n	80023b0 <mem_free+0x78>
 80023aa:	5a18      	ldrh	r0, [r3, r0]
 80023ac:	4290      	cmp	r0, r2
 80023ae:	d105      	bne.n	80023bc <mem_free+0x84>
 80023b0:	4433      	add	r3, r6
 80023b2:	4299      	cmp	r1, r3
 80023b4:	d007      	beq.n	80023c6 <mem_free+0x8e>
 80023b6:	885b      	ldrh	r3, [r3, #2]
 80023b8:	4293      	cmp	r3, r2
 80023ba:	d004      	beq.n	80023c6 <mem_free+0x8e>
 80023bc:	4b2e      	ldr	r3, [pc, #184]	; (8002478 <mem_free+0x140>)
 80023be:	4935      	ldr	r1, [pc, #212]	; (8002494 <mem_free+0x15c>)
 80023c0:	f240 2295 	movw	r2, #661	; 0x295
 80023c4:	e7c4      	b.n	8002350 <mem_free+0x18>
 80023c6:	4e34      	ldr	r6, [pc, #208]	; (8002498 <mem_free+0x160>)
 80023c8:	2300      	movs	r3, #0
 80023ca:	f804 3c04 	strb.w	r3, [r4, #-4]
 80023ce:	6833      	ldr	r3, [r6, #0]
 80023d0:	42ab      	cmp	r3, r5
 80023d2:	bf88      	it	hi
 80023d4:	6035      	strhi	r5, [r6, #0]
 80023d6:	42a9      	cmp	r1, r5
 80023d8:	d81c      	bhi.n	8002414 <mem_free+0xdc>
 80023da:	4b27      	ldr	r3, [pc, #156]	; (8002478 <mem_free+0x140>)
 80023dc:	492f      	ldr	r1, [pc, #188]	; (800249c <mem_free+0x164>)
 80023de:	4828      	ldr	r0, [pc, #160]	; (8002480 <mem_free+0x148>)
 80023e0:	f44f 72f0 	mov.w	r2, #480	; 0x1e0
 80023e4:	f006 f88c 	bl	8008500 <iprintf>
 80023e8:	f814 3c04 	ldrb.w	r3, [r4, #-4]
 80023ec:	b133      	cbz	r3, 80023fc <mem_free+0xc4>
 80023ee:	4b22      	ldr	r3, [pc, #136]	; (8002478 <mem_free+0x140>)
 80023f0:	492b      	ldr	r1, [pc, #172]	; (80024a0 <mem_free+0x168>)
 80023f2:	4823      	ldr	r0, [pc, #140]	; (8002480 <mem_free+0x148>)
 80023f4:	f240 12e1 	movw	r2, #481	; 0x1e1
 80023f8:	f006 f882 	bl	8008500 <iprintf>
 80023fc:	f834 3c08 	ldrh.w	r3, [r4, #-8]
 8002400:	f5b3 5f70 	cmp.w	r3, #15360	; 0x3c00
 8002404:	d906      	bls.n	8002414 <mem_free+0xdc>
 8002406:	4b1c      	ldr	r3, [pc, #112]	; (8002478 <mem_free+0x140>)
 8002408:	4926      	ldr	r1, [pc, #152]	; (80024a4 <mem_free+0x16c>)
 800240a:	481d      	ldr	r0, [pc, #116]	; (8002480 <mem_free+0x148>)
 800240c:	f44f 72f2 	mov.w	r2, #484	; 0x1e4
 8002410:	f006 f876 	bl	8008500 <iprintf>
 8002414:	f8d8 3000 	ldr.w	r3, [r8]
 8002418:	f834 1c08 	ldrh.w	r1, [r4, #-8]
 800241c:	185a      	adds	r2, r3, r1
 800241e:	4295      	cmp	r5, r2
 8002420:	d012      	beq.n	8002448 <mem_free+0x110>
 8002422:	7910      	ldrb	r0, [r2, #4]
 8002424:	b980      	cbnz	r0, 8002448 <mem_free+0x110>
 8002426:	6838      	ldr	r0, [r7, #0]
 8002428:	4282      	cmp	r2, r0
 800242a:	d00d      	beq.n	8002448 <mem_free+0x110>
 800242c:	6830      	ldr	r0, [r6, #0]
 800242e:	4282      	cmp	r2, r0
 8002430:	5a5a      	ldrh	r2, [r3, r1]
 8002432:	f824 2c08 	strh.w	r2, [r4, #-8]
 8002436:	5a5a      	ldrh	r2, [r3, r1]
 8002438:	bf08      	it	eq
 800243a:	6035      	streq	r5, [r6, #0]
 800243c:	f5b2 5f70 	cmp.w	r2, #15360	; 0x3c00
 8002440:	bf1e      	ittt	ne
 8002442:	18d2      	addne	r2, r2, r3
 8002444:	1ae9      	subne	r1, r5, r3
 8002446:	8051      	strhne	r1, [r2, #2]
 8002448:	f834 2c06 	ldrh.w	r2, [r4, #-6]
 800244c:	1899      	adds	r1, r3, r2
 800244e:	428d      	cmp	r5, r1
 8002450:	d00f      	beq.n	8002472 <mem_free+0x13a>
 8002452:	7908      	ldrb	r0, [r1, #4]
 8002454:	b968      	cbnz	r0, 8002472 <mem_free+0x13a>
 8002456:	6830      	ldr	r0, [r6, #0]
 8002458:	4285      	cmp	r5, r0
 800245a:	bf08      	it	eq
 800245c:	6031      	streq	r1, [r6, #0]
 800245e:	f834 1c08 	ldrh.w	r1, [r4, #-8]
 8002462:	5299      	strh	r1, [r3, r2]
 8002464:	f834 1c08 	ldrh.w	r1, [r4, #-8]
 8002468:	f5b1 5f70 	cmp.w	r1, #15360	; 0x3c00
 800246c:	bf1c      	itt	ne
 800246e:	185b      	addne	r3, r3, r1
 8002470:	805a      	strhne	r2, [r3, #2]
 8002472:	e8bd 81f0 	ldmia.w	sp!, {r4, r5, r6, r7, r8, pc}
 8002476:	bf00      	nop
 8002478:	08009607 	.word	0x08009607
 800247c:	08009636 	.word	0x08009636
 8002480:	080095b5 	.word	0x080095b5
 8002484:	20000024 	.word	0x20000024
 8002488:	20000028 	.word	0x20000028
 800248c:	08009657 	.word	0x08009657
 8002490:	08009670 	.word	0x08009670
 8002494:	08009696 	.word	0x08009696
 8002498:	20000020 	.word	0x20000020
 800249c:	080096c8 	.word	0x080096c8
 80024a0:	080096e2 	.word	0x080096e2
 80024a4:	080096fd 	.word	0x080096fd

080024a8 <mem_trim>:
 80024a8:	e92d 47f0 	stmdb	sp!, {r4, r5, r6, r7, r8, r9, sl, lr}
 80024ac:	1ccc      	adds	r4, r1, #3
 80024ae:	f024 0403 	bic.w	r4, r4, #3
 80024b2:	b2a4      	uxth	r4, r4
 80024b4:	2c0b      	cmp	r4, #11
 80024b6:	4605      	mov	r5, r0
 80024b8:	d904      	bls.n	80024c4 <mem_trim+0x1c>
 80024ba:	f5b4 5f70 	cmp.w	r4, #15360	; 0x3c00
 80024be:	d902      	bls.n	80024c6 <mem_trim+0x1e>
 80024c0:	2500      	movs	r5, #0
 80024c2:	e059      	b.n	8002578 <mem_trim+0xd0>
 80024c4:	240c      	movs	r4, #12
 80024c6:	42a1      	cmp	r1, r4
 80024c8:	d8fa      	bhi.n	80024c0 <mem_trim+0x18>
 80024ca:	4f41      	ldr	r7, [pc, #260]	; (80025d0 <mem_trim+0x128>)
 80024cc:	683b      	ldr	r3, [r7, #0]
 80024ce:	42ab      	cmp	r3, r5
 80024d0:	d803      	bhi.n	80024da <mem_trim+0x32>
 80024d2:	4b40      	ldr	r3, [pc, #256]	; (80025d4 <mem_trim+0x12c>)
 80024d4:	681b      	ldr	r3, [r3, #0]
 80024d6:	42ab      	cmp	r3, r5
 80024d8:	d806      	bhi.n	80024e8 <mem_trim+0x40>
 80024da:	4b3f      	ldr	r3, [pc, #252]	; (80025d8 <mem_trim+0x130>)
 80024dc:	493f      	ldr	r1, [pc, #252]	; (80025dc <mem_trim+0x134>)
 80024de:	4840      	ldr	r0, [pc, #256]	; (80025e0 <mem_trim+0x138>)
 80024e0:	f240 22d1 	movw	r2, #721	; 0x2d1
 80024e4:	f006 f80c 	bl	8008500 <iprintf>
 80024e8:	f8d7 a000 	ldr.w	sl, [r7]
 80024ec:	45aa      	cmp	sl, r5
 80024ee:	d843      	bhi.n	8002578 <mem_trim+0xd0>
 80024f0:	4b38      	ldr	r3, [pc, #224]	; (80025d4 <mem_trim+0x12c>)
 80024f2:	681b      	ldr	r3, [r3, #0]
 80024f4:	42ab      	cmp	r3, r5
 80024f6:	d93f      	bls.n	8002578 <mem_trim+0xd0>
 80024f8:	f835 9c08 	ldrh.w	r9, [r5, #-8]
 80024fc:	f1a5 0608 	sub.w	r6, r5, #8
 8002500:	eba6 060a 	sub.w	r6, r6, sl
 8002504:	b2b6      	uxth	r6, r6
 8002506:	f1a9 0308 	sub.w	r3, r9, #8
 800250a:	1b9b      	subs	r3, r3, r6
 800250c:	b29b      	uxth	r3, r3
 800250e:	42a3      	cmp	r3, r4
 8002510:	d207      	bcs.n	8002522 <mem_trim+0x7a>
 8002512:	4b31      	ldr	r3, [pc, #196]	; (80025d8 <mem_trim+0x130>)
 8002514:	4933      	ldr	r1, [pc, #204]	; (80025e4 <mem_trim+0x13c>)
 8002516:	4832      	ldr	r0, [pc, #200]	; (80025e0 <mem_trim+0x138>)
 8002518:	f44f 7239 	mov.w	r2, #740	; 0x2e4
 800251c:	f005 fff0 	bl	8008500 <iprintf>
 8002520:	e7ce      	b.n	80024c0 <mem_trim+0x18>
 8002522:	d029      	beq.n	8002578 <mem_trim+0xd0>
 8002524:	eb0a 0809 	add.w	r8, sl, r9
 8002528:	f898 2004 	ldrb.w	r2, [r8, #4]
 800252c:	bb3a      	cbnz	r2, 800257e <mem_trim+0xd6>
 800252e:	f5b9 5f70 	cmp.w	r9, #15360	; 0x3c00
 8002532:	d106      	bne.n	8002542 <mem_trim+0x9a>
 8002534:	4b28      	ldr	r3, [pc, #160]	; (80025d8 <mem_trim+0x130>)
 8002536:	492c      	ldr	r1, [pc, #176]	; (80025e8 <mem_trim+0x140>)
 8002538:	4829      	ldr	r0, [pc, #164]	; (80025e0 <mem_trim+0x138>)
 800253a:	f240 22f5 	movw	r2, #757	; 0x2f5
 800253e:	f005 ffdf 	bl	8008500 <iprintf>
 8002542:	492a      	ldr	r1, [pc, #168]	; (80025ec <mem_trim+0x144>)
 8002544:	f83a c009 	ldrh.w	ip, [sl, r9]
 8002548:	6808      	ldr	r0, [r1, #0]
 800254a:	f106 0308 	add.w	r3, r6, #8
 800254e:	441c      	add	r4, r3
 8002550:	683b      	ldr	r3, [r7, #0]
 8002552:	b2a2      	uxth	r2, r4
 8002554:	4540      	cmp	r0, r8
 8002556:	fa13 f484 	uxtah	r4, r3, r4
 800255a:	bf08      	it	eq
 800255c:	600c      	streq	r4, [r1, #0]
 800255e:	2100      	movs	r1, #0
 8002560:	7121      	strb	r1, [r4, #4]
 8002562:	f823 c002 	strh.w	ip, [r3, r2]
 8002566:	8066      	strh	r6, [r4, #2]
 8002568:	f825 2c08 	strh.w	r2, [r5, #-8]
 800256c:	5a99      	ldrh	r1, [r3, r2]
 800256e:	f5b1 5f70 	cmp.w	r1, #15360	; 0x3c00
 8002572:	d001      	beq.n	8002578 <mem_trim+0xd0>
 8002574:	440b      	add	r3, r1
 8002576:	805a      	strh	r2, [r3, #2]
 8002578:	4628      	mov	r0, r5
 800257a:	e8bd 87f0 	ldmia.w	sp!, {r4, r5, r6, r7, r8, r9, sl, pc}
 800257e:	f104 0214 	add.w	r2, r4, #20
 8002582:	429a      	cmp	r2, r3
 8002584:	d8f8      	bhi.n	8002578 <mem_trim+0xd0>
 8002586:	f106 0308 	add.w	r3, r6, #8
 800258a:	441c      	add	r4, r3
 800258c:	f5b9 5f70 	cmp.w	r9, #15360	; 0x3c00
 8002590:	b2a4      	uxth	r4, r4
 8002592:	d106      	bne.n	80025a2 <mem_trim+0xfa>
 8002594:	4b10      	ldr	r3, [pc, #64]	; (80025d8 <mem_trim+0x130>)
 8002596:	4914      	ldr	r1, [pc, #80]	; (80025e8 <mem_trim+0x140>)
 8002598:	4811      	ldr	r0, [pc, #68]	; (80025e0 <mem_trim+0x138>)
 800259a:	f240 3216 	movw	r2, #790	; 0x316
 800259e:	f005 ffaf 	bl	8008500 <iprintf>
 80025a2:	4912      	ldr	r1, [pc, #72]	; (80025ec <mem_trim+0x144>)
 80025a4:	683b      	ldr	r3, [r7, #0]
 80025a6:	6808      	ldr	r0, [r1, #0]
 80025a8:	191a      	adds	r2, r3, r4
 80025aa:	4290      	cmp	r0, r2
 80025ac:	bf88      	it	hi
 80025ae:	600a      	strhi	r2, [r1, #0]
 80025b0:	2100      	movs	r1, #0
 80025b2:	7111      	strb	r1, [r2, #4]
 80025b4:	f835 1c08 	ldrh.w	r1, [r5, #-8]
 80025b8:	5319      	strh	r1, [r3, r4]
 80025ba:	8056      	strh	r6, [r2, #2]
 80025bc:	f825 4c08 	strh.w	r4, [r5, #-8]
 80025c0:	5b1a      	ldrh	r2, [r3, r4]
 80025c2:	f5b2 5f70 	cmp.w	r2, #15360	; 0x3c00
 80025c6:	d0d7      	beq.n	8002578 <mem_trim+0xd0>
 80025c8:	4413      	add	r3, r2
 80025ca:	805c      	strh	r4, [r3, #2]
 80025cc:	e7d4      	b.n	8002578 <mem_trim+0xd0>
 80025ce:	bf00      	nop
 80025d0:	20000024 	.word	0x20000024
 80025d4:	20000028 	.word	0x20000028
 80025d8:	08009607 	.word	0x08009607
 80025dc:	08009727 	.word	0x08009727
 80025e0:	080095b5 	.word	0x080095b5
 80025e4:	0800973e 	.word	0x0800973e
 80025e8:	0800975e 	.word	0x0800975e
 80025ec:	20000020 	.word	0x20000020

080025f0 <mem_malloc>:
 80025f0:	e92d 43f8 	stmdb	sp!, {r3, r4, r5, r6, r7, r8, r9, lr}
 80025f4:	2800      	cmp	r0, #0
 80025f6:	d07d      	beq.n	80026f4 <mem_malloc+0x104>
 80025f8:	1cc5      	adds	r5, r0, #3
 80025fa:	f025 0503 	bic.w	r5, r5, #3
 80025fe:	b2ad      	uxth	r5, r5
 8002600:	2d0b      	cmp	r5, #11
 8002602:	d904      	bls.n	800260e <mem_malloc+0x1e>
 8002604:	f5b5 5f70 	cmp.w	r5, #15360	; 0x3c00
 8002608:	d902      	bls.n	8002610 <mem_malloc+0x20>
 800260a:	2000      	movs	r0, #0
 800260c:	e072      	b.n	80026f4 <mem_malloc+0x104>
 800260e:	250c      	movs	r5, #12
 8002610:	42a8      	cmp	r0, r5
 8002612:	d8fa      	bhi.n	800260a <mem_malloc+0x1a>
 8002614:	493c      	ldr	r1, [pc, #240]	; (8002708 <mem_malloc+0x118>)
 8002616:	4b3d      	ldr	r3, [pc, #244]	; (800270c <mem_malloc+0x11c>)
 8002618:	680a      	ldr	r2, [r1, #0]
 800261a:	681e      	ldr	r6, [r3, #0]
 800261c:	1ab6      	subs	r6, r6, r2
 800261e:	b2b6      	uxth	r6, r6
 8002620:	4689      	mov	r9, r1
 8002622:	4698      	mov	r8, r3
 8002624:	f5c5 5070 	rsb	r0, r5, #15360	; 0x3c00
 8002628:	f06f 0707 	mvn.w	r7, #7
 800262c:	4286      	cmp	r6, r0
 800262e:	d2ec      	bcs.n	800260a <mem_malloc+0x1a>
 8002630:	1994      	adds	r4, r2, r6
 8002632:	5b91      	ldrh	r1, [r2, r6]
 8002634:	7923      	ldrb	r3, [r4, #4]
 8002636:	2b00      	cmp	r3, #0
 8002638:	d164      	bne.n	8002704 <mem_malloc+0x114>
 800263a:	1bbb      	subs	r3, r7, r6
 800263c:	440b      	add	r3, r1
 800263e:	42ab      	cmp	r3, r5
 8002640:	d360      	bcc.n	8002704 <mem_malloc+0x114>
 8002642:	f105 0214 	add.w	r2, r5, #20
 8002646:	4293      	cmp	r3, r2
 8002648:	d356      	bcc.n	80026f8 <mem_malloc+0x108>
 800264a:	f105 0708 	add.w	r7, r5, #8
 800264e:	4437      	add	r7, r6
 8002650:	b2bf      	uxth	r7, r7
 8002652:	f5b7 5f70 	cmp.w	r7, #15360	; 0x3c00
 8002656:	d106      	bne.n	8002666 <mem_malloc+0x76>
 8002658:	4b2d      	ldr	r3, [pc, #180]	; (8002710 <mem_malloc+0x120>)
 800265a:	492e      	ldr	r1, [pc, #184]	; (8002714 <mem_malloc+0x124>)
 800265c:	482e      	ldr	r0, [pc, #184]	; (8002718 <mem_malloc+0x128>)
 800265e:	f240 3287 	movw	r2, #903	; 0x387
 8002662:	f005 ff4d 	bl	8008500 <iprintf>
 8002666:	f8d9 3000 	ldr.w	r3, [r9]
 800266a:	19da      	adds	r2, r3, r7
 800266c:	2100      	movs	r1, #0
 800266e:	7111      	strb	r1, [r2, #4]
 8002670:	8821      	ldrh	r1, [r4, #0]
 8002672:	53d9      	strh	r1, [r3, r7]
 8002674:	8056      	strh	r6, [r2, #2]
 8002676:	2201      	movs	r2, #1
 8002678:	8027      	strh	r7, [r4, #0]
 800267a:	7122      	strb	r2, [r4, #4]
 800267c:	5bda      	ldrh	r2, [r3, r7]
 800267e:	f5b2 5f70 	cmp.w	r2, #15360	; 0x3c00
 8002682:	d001      	beq.n	8002688 <mem_malloc+0x98>
 8002684:	4413      	add	r3, r2
 8002686:	805f      	strh	r7, [r3, #2]
 8002688:	f8d8 3000 	ldr.w	r3, [r8]
 800268c:	4e23      	ldr	r6, [pc, #140]	; (800271c <mem_malloc+0x12c>)
 800268e:	42a3      	cmp	r3, r4
 8002690:	d112      	bne.n	80026b8 <mem_malloc+0xc8>
 8002692:	6831      	ldr	r1, [r6, #0]
 8002694:	f8d9 0000 	ldr.w	r0, [r9]
 8002698:	791a      	ldrb	r2, [r3, #4]
 800269a:	b10a      	cbz	r2, 80026a0 <mem_malloc+0xb0>
 800269c:	428b      	cmp	r3, r1
 800269e:	d12e      	bne.n	80026fe <mem_malloc+0x10e>
 80026a0:	4299      	cmp	r1, r3
 80026a2:	f8c8 3000 	str.w	r3, [r8]
 80026a6:	d007      	beq.n	80026b8 <mem_malloc+0xc8>
 80026a8:	b132      	cbz	r2, 80026b8 <mem_malloc+0xc8>
 80026aa:	4b19      	ldr	r3, [pc, #100]	; (8002710 <mem_malloc+0x120>)
 80026ac:	491c      	ldr	r1, [pc, #112]	; (8002720 <mem_malloc+0x130>)
 80026ae:	481a      	ldr	r0, [pc, #104]	; (8002718 <mem_malloc+0x128>)
 80026b0:	f240 32b5 	movw	r2, #949	; 0x3b5
 80026b4:	f005 ff24 	bl	8008500 <iprintf>
 80026b8:	6833      	ldr	r3, [r6, #0]
 80026ba:	3508      	adds	r5, #8
 80026bc:	4425      	add	r5, r4
 80026be:	42ab      	cmp	r3, r5
 80026c0:	d206      	bcs.n	80026d0 <mem_malloc+0xe0>
 80026c2:	4b13      	ldr	r3, [pc, #76]	; (8002710 <mem_malloc+0x120>)
 80026c4:	4917      	ldr	r1, [pc, #92]	; (8002724 <mem_malloc+0x134>)
 80026c6:	4814      	ldr	r0, [pc, #80]	; (8002718 <mem_malloc+0x128>)
 80026c8:	f240 32b9 	movw	r2, #953	; 0x3b9
 80026cc:	f005 ff18 	bl	8008500 <iprintf>
 80026d0:	07a3      	lsls	r3, r4, #30
 80026d2:	d00d      	beq.n	80026f0 <mem_malloc+0x100>
 80026d4:	4b0e      	ldr	r3, [pc, #56]	; (8002710 <mem_malloc+0x120>)
 80026d6:	4914      	ldr	r1, [pc, #80]	; (8002728 <mem_malloc+0x138>)
 80026d8:	480f      	ldr	r0, [pc, #60]	; (8002718 <mem_malloc+0x128>)
 80026da:	f240 32bb 	movw	r2, #955	; 0x3bb
 80026de:	f005 ff0f 	bl	8008500 <iprintf>
 80026e2:	4b0b      	ldr	r3, [pc, #44]	; (8002710 <mem_malloc+0x120>)
 80026e4:	4911      	ldr	r1, [pc, #68]	; (800272c <mem_malloc+0x13c>)
 80026e6:	480c      	ldr	r0, [pc, #48]	; (8002718 <mem_malloc+0x128>)
 80026e8:	f240 32bd 	movw	r2, #957	; 0x3bd
 80026ec:	f005 ff08 	bl	8008500 <iprintf>
 80026f0:	f104 0008 	add.w	r0, r4, #8
 80026f4:	e8bd 83f8 	ldmia.w	sp!, {r3, r4, r5, r6, r7, r8, r9, pc}
 80026f8:	2301      	movs	r3, #1
 80026fa:	7123      	strb	r3, [r4, #4]
 80026fc:	e7c4      	b.n	8002688 <mem_malloc+0x98>
 80026fe:	881b      	ldrh	r3, [r3, #0]
 8002700:	4403      	add	r3, r0
 8002702:	e7c9      	b.n	8002698 <mem_malloc+0xa8>
 8002704:	460e      	mov	r6, r1
 8002706:	e791      	b.n	800262c <mem_malloc+0x3c>
 8002708:	20000024 	.word	0x20000024
 800270c:	20000020 	.word	0x20000020
 8002710:	08009607 	.word	0x08009607
 8002714:	0800975e 	.word	0x0800975e
 8002718:	080095b5 	.word	0x080095b5
 800271c:	20000028 	.word	0x20000028
 8002720:	0800976f 	.word	0x0800976f
 8002724:	08009788 	.word	0x08009788
 8002728:	080097b8 	.word	0x080097b8
 800272c:	080097e7 	.word	0x080097e7

08002730 <do_memp_malloc_pool.isra.0>:
 8002730:	b510      	push	{r4, lr}
 8002732:	6804      	ldr	r4, [r0, #0]
 8002734:	b154      	cbz	r4, 800274c <do_memp_malloc_pool.isra.0+0x1c>
 8002736:	6823      	ldr	r3, [r4, #0]
 8002738:	6003      	str	r3, [r0, #0]
 800273a:	07a3      	lsls	r3, r4, #30
 800273c:	d006      	beq.n	800274c <do_memp_malloc_pool.isra.0+0x1c>
 800273e:	4b04      	ldr	r3, [pc, #16]	; (8002750 <do_memp_malloc_pool.isra.0+0x20>)
 8002740:	4904      	ldr	r1, [pc, #16]	; (8002754 <do_memp_malloc_pool.isra.0+0x24>)
 8002742:	4805      	ldr	r0, [pc, #20]	; (8002758 <do_memp_malloc_pool.isra.0+0x28>)
 8002744:	f44f 728c 	mov.w	r2, #280	; 0x118
 8002748:	f005 feda 	bl	8008500 <iprintf>
 800274c:	4620      	mov	r0, r4
 800274e:	bd10      	pop	{r4, pc}
 8002750:	0800980a 	.word	0x0800980a
 8002754:	0800983a 	.word	0x0800983a
 8002758:	080095b5 	.word	0x080095b5

0800275c <do_memp_free_pool.isra.0>:
 800275c:	b538      	push	{r3, r4, r5, lr}
 800275e:	078b      	lsls	r3, r1, #30
 8002760:	4605      	mov	r5, r0
 8002762:	460c      	mov	r4, r1
 8002764:	d006      	beq.n	8002774 <do_memp_free_pool.isra.0+0x18>
 8002766:	4b06      	ldr	r3, [pc, #24]	; (8002780 <do_memp_free_pool.isra.0+0x24>)
 8002768:	4906      	ldr	r1, [pc, #24]	; (8002784 <do_memp_free_pool.isra.0+0x28>)
 800276a:	4807      	ldr	r0, [pc, #28]	; (8002788 <do_memp_free_pool.isra.0+0x2c>)
 800276c:	f44f 72b6 	mov.w	r2, #364	; 0x16c
 8002770:	f005 fec6 	bl	8008500 <iprintf>
 8002774:	682b      	ldr	r3, [r5, #0]
 8002776:	681a      	ldr	r2, [r3, #0]
 8002778:	6022      	str	r2, [r4, #0]
 800277a:	601c      	str	r4, [r3, #0]
 800277c:	bd38      	pop	{r3, r4, r5, pc}
 800277e:	bf00      	nop
 8002780:	0800980a 	.word	0x0800980a
 8002784:	0800985d 	.word	0x0800985d
 8002788:	080095b5 	.word	0x080095b5

0800278c <memp_init_pool>:
 800278c:	6843      	ldr	r3, [r0, #4]
 800278e:	6881      	ldr	r1, [r0, #8]
 8002790:	b530      	push	{r4, r5, lr}
 8002792:	2200      	movs	r2, #0
 8002794:	3303      	adds	r3, #3
 8002796:	8844      	ldrh	r4, [r0, #2]
 8002798:	600a      	str	r2, [r1, #0]
 800279a:	f023 0303 	bic.w	r3, r3, #3
 800279e:	4294      	cmp	r4, r2
 80027a0:	dc00      	bgt.n	80027a4 <memp_init_pool+0x18>
 80027a2:	bd30      	pop	{r4, r5, pc}
 80027a4:	680d      	ldr	r5, [r1, #0]
 80027a6:	601d      	str	r5, [r3, #0]
 80027a8:	8805      	ldrh	r5, [r0, #0]
 80027aa:	600b      	str	r3, [r1, #0]
 80027ac:	3201      	adds	r2, #1
 80027ae:	442b      	add	r3, r5
 80027b0:	e7f5      	b.n	800279e <memp_init_pool+0x12>
	...

080027b4 <memp_init>:
 80027b4:	b538      	push	{r3, r4, r5, lr}
 80027b6:	4d05      	ldr	r5, [pc, #20]	; (80027cc <memp_init+0x18>)
 80027b8:	2409      	movs	r4, #9
 80027ba:	3c01      	subs	r4, #1
 80027bc:	f855 0b04 	ldr.w	r0, [r5], #4
 80027c0:	b2a4      	uxth	r4, r4
 80027c2:	f7ff ffe3 	bl	800278c <memp_init_pool>
 80027c6:	2c00      	cmp	r4, #0
 80027c8:	d1f7      	bne.n	80027ba <memp_init+0x6>
 80027ca:	bd38      	pop	{r3, r4, r5, pc}
 80027cc:	08009924 	.word	0x08009924

080027d0 <memp_malloc>:
 80027d0:	2808      	cmp	r0, #8
 80027d2:	b508      	push	{r3, lr}
 80027d4:	d807      	bhi.n	80027e6 <memp_malloc+0x16>
 80027d6:	4b08      	ldr	r3, [pc, #32]	; (80027f8 <memp_malloc+0x28>)
 80027d8:	f853 3020 	ldr.w	r3, [r3, r0, lsl #2]
 80027dc:	6898      	ldr	r0, [r3, #8]
 80027de:	e8bd 4008 	ldmia.w	sp!, {r3, lr}
 80027e2:	f7ff bfa5 	b.w	8002730 <do_memp_malloc_pool.isra.0>
 80027e6:	4b05      	ldr	r3, [pc, #20]	; (80027fc <memp_malloc+0x2c>)
 80027e8:	4905      	ldr	r1, [pc, #20]	; (8002800 <memp_malloc+0x30>)
 80027ea:	4806      	ldr	r0, [pc, #24]	; (8002804 <memp_malloc+0x34>)
 80027ec:	f240 1257 	movw	r2, #343	; 0x157
 80027f0:	f005 fe86 	bl	8008500 <iprintf>
 80027f4:	2000      	movs	r0, #0
 80027f6:	bd08      	pop	{r3, pc}
 80027f8:	08009924 	.word	0x08009924
 80027fc:	0800980a 	.word	0x0800980a
 8002800:	0800987d 	.word	0x0800987d
 8002804:	080095b5 	.word	0x080095b5

08002808 <memp_free>:
 8002808:	2808      	cmp	r0, #8
 800280a:	d906      	bls.n	800281a <memp_free+0x12>
 800280c:	4b07      	ldr	r3, [pc, #28]	; (800282c <memp_free+0x24>)
 800280e:	4908      	ldr	r1, [pc, #32]	; (8002830 <memp_free+0x28>)
 8002810:	4808      	ldr	r0, [pc, #32]	; (8002834 <memp_free+0x2c>)
 8002812:	f44f 72d5 	mov.w	r2, #426	; 0x1aa
 8002816:	f005 be73 	b.w	8008500 <iprintf>
 800281a:	b129      	cbz	r1, 8002828 <memp_free+0x20>
 800281c:	4b06      	ldr	r3, [pc, #24]	; (8002838 <memp_free+0x30>)
 800281e:	f853 0020 	ldr.w	r0, [r3, r0, lsl #2]
 8002822:	3008      	adds	r0, #8
 8002824:	f7ff bf9a 	b.w	800275c <do_memp_free_pool.isra.0>
 8002828:	4770      	bx	lr
 800282a:	bf00      	nop
 800282c:	0800980a 	.word	0x0800980a
 8002830:	0800989a 	.word	0x0800989a
 8002834:	080095b5 	.word	0x080095b5
 8002838:	08009924 	.word	0x08009924

0800283c <netif_null_output_ip4>:
 800283c:	f06f 000b 	mvn.w	r0, #11
 8002840:	4770      	bx	lr
	...

08002844 <netif_issue_reports>:
 8002844:	b538      	push	{r3, r4, r5, lr}
 8002846:	460d      	mov	r5, r1
 8002848:	4604      	mov	r4, r0
 800284a:	b930      	cbnz	r0, 800285a <netif_issue_reports+0x16>
 800284c:	4b0c      	ldr	r3, [pc, #48]	; (8002880 <netif_issue_reports+0x3c>)
 800284e:	490d      	ldr	r1, [pc, #52]	; (8002884 <netif_issue_reports+0x40>)
 8002850:	480d      	ldr	r0, [pc, #52]	; (8002888 <netif_issue_reports+0x44>)
 8002852:	f240 326d 	movw	r2, #877	; 0x36d
 8002856:	f005 fe53 	bl	8008500 <iprintf>
 800285a:	f894 302d 	ldrb.w	r3, [r4, #45]	; 0x2d
 800285e:	f003 0205 	and.w	r2, r3, #5
 8002862:	2a05      	cmp	r2, #5
 8002864:	d10b      	bne.n	800287e <netif_issue_reports+0x3a>
 8002866:	07ea      	lsls	r2, r5, #31
 8002868:	d509      	bpl.n	800287e <netif_issue_reports+0x3a>
 800286a:	6862      	ldr	r2, [r4, #4]
 800286c:	b13a      	cbz	r2, 800287e <netif_issue_reports+0x3a>
 800286e:	071b      	lsls	r3, r3, #28
 8002870:	d505      	bpl.n	800287e <netif_issue_reports+0x3a>
 8002872:	1d21      	adds	r1, r4, #4
 8002874:	4620      	mov	r0, r4
 8002876:	e8bd 4038 	ldmia.w	sp!, {r3, r4, r5, lr}
 800287a:	f004 bd3f 	b.w	80072fc <etharp_request>
 800287e:	bd38      	pop	{r3, r4, r5, pc}
 8002880:	08009948 	.word	0x08009948
 8002884:	08009979 	.word	0x08009979
 8002888:	080095b5 	.word	0x080095b5

0800288c <netif_do_set_ipaddr>:
 800288c:	b573      	push	{r0, r1, r4, r5, r6, lr}
 800288e:	4605      	mov	r5, r0
 8002890:	4616      	mov	r6, r2
 8002892:	460c      	mov	r4, r1
 8002894:	b931      	cbnz	r1, 80028a4 <netif_do_set_ipaddr+0x18>
 8002896:	4b10      	ldr	r3, [pc, #64]	; (80028d8 <netif_do_set_ipaddr+0x4c>)
 8002898:	4910      	ldr	r1, [pc, #64]	; (80028dc <netif_do_set_ipaddr+0x50>)
 800289a:	4811      	ldr	r0, [pc, #68]	; (80028e0 <netif_do_set_ipaddr+0x54>)
 800289c:	f240 12cb 	movw	r2, #459	; 0x1cb
 80028a0:	f005 fe2e 	bl	8008500 <iprintf>
 80028a4:	686b      	ldr	r3, [r5, #4]
 80028a6:	6822      	ldr	r2, [r4, #0]
 80028a8:	429a      	cmp	r2, r3
 80028aa:	d101      	bne.n	80028b0 <netif_do_set_ipaddr+0x24>
 80028ac:	2000      	movs	r0, #0
 80028ae:	e010      	b.n	80028d2 <netif_do_set_ipaddr+0x46>
 80028b0:	6033      	str	r3, [r6, #0]
 80028b2:	a901      	add	r1, sp, #4
 80028b4:	4630      	mov	r0, r6
 80028b6:	9201      	str	r2, [sp, #4]
 80028b8:	f001 f8ca 	bl	8003a50 <tcp_netif_ip_addr_changed>
 80028bc:	a901      	add	r1, sp, #4
 80028be:	4630      	mov	r0, r6
 80028c0:	f004 fb3e 	bl	8006f40 <udp_netif_ip_addr_changed>
 80028c4:	6823      	ldr	r3, [r4, #0]
 80028c6:	606b      	str	r3, [r5, #4]
 80028c8:	4628      	mov	r0, r5
 80028ca:	2101      	movs	r1, #1
 80028cc:	f7ff ffba 	bl	8002844 <netif_issue_reports>
 80028d0:	2001      	movs	r0, #1
 80028d2:	b002      	add	sp, #8
 80028d4:	bd70      	pop	{r4, r5, r6, pc}
 80028d6:	bf00      	nop
 80028d8:	08009948 	.word	0x08009948
 80028dc:	0800999c 	.word	0x0800999c
 80028e0:	080095b5 	.word	0x080095b5

080028e4 <netif_init>:
 80028e4:	4770      	bx	lr
	...

080028e8 <netif_set_addr>:
 80028e8:	b5f7      	push	{r0, r1, r2, r4, r5, r6, r7, lr}
 80028ea:	4f14      	ldr	r7, [pc, #80]	; (800293c <netif_set_addr+0x54>)
 80028ec:	2900      	cmp	r1, #0
 80028ee:	bf14      	ite	ne
 80028f0:	460d      	movne	r5, r1
 80028f2:	463d      	moveq	r5, r7
 80028f4:	2a00      	cmp	r2, #0
 80028f6:	bf14      	ite	ne
 80028f8:	4616      	movne	r6, r2
 80028fa:	463e      	moveq	r6, r7
 80028fc:	2b00      	cmp	r3, #0
 80028fe:	bf18      	it	ne
 8002900:	461f      	movne	r7, r3
 8002902:	682b      	ldr	r3, [r5, #0]
 8002904:	4604      	mov	r4, r0
 8002906:	b9b3      	cbnz	r3, 8002936 <netif_set_addr+0x4e>
 8002908:	aa01      	add	r2, sp, #4
 800290a:	4629      	mov	r1, r5
 800290c:	f7ff ffbe 	bl	800288c <netif_do_set_ipaddr>
 8002910:	2301      	movs	r3, #1
 8002912:	6832      	ldr	r2, [r6, #0]
 8002914:	68a1      	ldr	r1, [r4, #8]
 8002916:	428a      	cmp	r2, r1
 8002918:	bf18      	it	ne
 800291a:	60a2      	strne	r2, [r4, #8]
 800291c:	683a      	ldr	r2, [r7, #0]
 800291e:	68e1      	ldr	r1, [r4, #12]
 8002920:	428a      	cmp	r2, r1
 8002922:	bf18      	it	ne
 8002924:	60e2      	strne	r2, [r4, #12]
 8002926:	b923      	cbnz	r3, 8002932 <netif_set_addr+0x4a>
 8002928:	aa01      	add	r2, sp, #4
 800292a:	4629      	mov	r1, r5
 800292c:	4620      	mov	r0, r4
 800292e:	f7ff ffad 	bl	800288c <netif_do_set_ipaddr>
 8002932:	b003      	add	sp, #12
 8002934:	bdf0      	pop	{r4, r5, r6, r7, pc}
 8002936:	2300      	movs	r3, #0
 8002938:	e7eb      	b.n	8002912 <netif_set_addr+0x2a>
 800293a:	bf00      	nop
 800293c:	0800b278 	.word	0x0800b278

08002940 <netif_add>:
 8002940:	e92d 4ff8 	stmdb	sp!, {r3, r4, r5, r6, r7, r8, r9, sl, fp, lr}
 8002944:	9f0b      	ldr	r7, [sp, #44]	; 0x2c
 8002946:	4698      	mov	r8, r3
 8002948:	4604      	mov	r4, r0
 800294a:	b948      	cbnz	r0, 8002960 <netif_add+0x20>
 800294c:	4b3d      	ldr	r3, [pc, #244]	; (8002a44 <netif_add+0x104>)
 800294e:	493e      	ldr	r1, [pc, #248]	; (8002a48 <netif_add+0x108>)
 8002950:	483e      	ldr	r0, [pc, #248]	; (8002a4c <netif_add+0x10c>)
 8002952:	f240 1227 	movw	r2, #295	; 0x127
 8002956:	f005 fdd3 	bl	8008500 <iprintf>
 800295a:	4620      	mov	r0, r4
 800295c:	e8bd 8ff8 	ldmia.w	sp!, {r3, r4, r5, r6, r7, r8, r9, sl, fp, pc}
 8002960:	b947      	cbnz	r7, 8002974 <netif_add+0x34>
 8002962:	4b38      	ldr	r3, [pc, #224]	; (8002a44 <netif_add+0x104>)
 8002964:	493a      	ldr	r1, [pc, #232]	; (8002a50 <netif_add+0x110>)
 8002966:	4839      	ldr	r0, [pc, #228]	; (8002a4c <netif_add+0x10c>)
 8002968:	f44f 7294 	mov.w	r2, #296	; 0x128
 800296c:	f005 fdc8 	bl	8008500 <iprintf>
 8002970:	463c      	mov	r4, r7
 8002972:	e7f2      	b.n	800295a <netif_add+0x1a>
 8002974:	4e37      	ldr	r6, [pc, #220]	; (8002a54 <netif_add+0x114>)
 8002976:	6146      	str	r6, [r0, #20]
 8002978:	9e0a      	ldr	r6, [sp, #40]	; 0x28
 800297a:	6206      	str	r6, [r0, #32]
 800297c:	4e36      	ldr	r6, [pc, #216]	; (8002a58 <netif_add+0x118>)
 800297e:	f8df c0e0 	ldr.w	ip, [pc, #224]	; 8002a60 <netif_add+0x120>
 8002982:	9b0c      	ldr	r3, [sp, #48]	; 0x30
 8002984:	f896 e000 	ldrb.w	lr, [r6]
 8002988:	6103      	str	r3, [r0, #16]
 800298a:	2500      	movs	r5, #0
 800298c:	e9c0 5501 	strd	r5, r5, [r0, #4]
 8002990:	60c5      	str	r5, [r0, #12]
 8002992:	8485      	strh	r5, [r0, #36]	; 0x24
 8002994:	f880 502d 	strb.w	r5, [r0, #45]	; 0x2d
 8002998:	61c5      	str	r5, [r0, #28]
 800299a:	f880 e030 	strb.w	lr, [r0, #48]	; 0x30
 800299e:	45a8      	cmp	r8, r5
 80029a0:	bf14      	ite	ne
 80029a2:	4643      	movne	r3, r8
 80029a4:	4663      	moveq	r3, ip
 80029a6:	42aa      	cmp	r2, r5
 80029a8:	bf08      	it	eq
 80029aa:	4662      	moveq	r2, ip
 80029ac:	42a9      	cmp	r1, r5
 80029ae:	bf08      	it	eq
 80029b0:	4661      	moveq	r1, ip
 80029b2:	f7ff ff99 	bl	80028e8 <netif_set_addr>
 80029b6:	4620      	mov	r0, r4
 80029b8:	47b8      	blx	r7
 80029ba:	2800      	cmp	r0, #0
 80029bc:	d140      	bne.n	8002a40 <netif_add+0x100>
 80029be:	f8df 90a4 	ldr.w	r9, [pc, #164]	; 8002a64 <netif_add+0x124>
 80029c2:	4b20      	ldr	r3, [pc, #128]	; (8002a44 <netif_add+0x104>)
 80029c4:	46c8      	mov	r8, r9
 80029c6:	f894 2030 	ldrb.w	r2, [r4, #48]	; 0x30
 80029ca:	f8d9 5000 	ldr.w	r5, [r9]
 80029ce:	f8df b098 	ldr.w	fp, [pc, #152]	; 8002a68 <netif_add+0x128>
 80029d2:	f8df a078 	ldr.w	sl, [pc, #120]	; 8002a4c <netif_add+0x10c>
 80029d6:	2aff      	cmp	r2, #255	; 0xff
 80029d8:	bf04      	itt	eq
 80029da:	2200      	moveq	r2, #0
 80029dc:	f884 2030 	strbeq.w	r2, [r4, #48]	; 0x30
 80029e0:	2700      	movs	r7, #0
 80029e2:	b92d      	cbnz	r5, 80029f0 <netif_add+0xb0>
 80029e4:	f894 3030 	ldrb.w	r3, [r4, #48]	; 0x30
 80029e8:	2bfe      	cmp	r3, #254	; 0xfe
 80029ea:	d120      	bne.n	8002a2e <netif_add+0xee>
 80029ec:	462b      	mov	r3, r5
 80029ee:	e020      	b.n	8002a32 <netif_add+0xf2>
 80029f0:	42a5      	cmp	r5, r4
 80029f2:	d106      	bne.n	8002a02 <netif_add+0xc2>
 80029f4:	f240 128b 	movw	r2, #395	; 0x18b
 80029f8:	4659      	mov	r1, fp
 80029fa:	4650      	mov	r0, sl
 80029fc:	f005 fd80 	bl	8008500 <iprintf>
 8002a00:	4b10      	ldr	r3, [pc, #64]	; (8002a44 <netif_add+0x104>)
 8002a02:	3701      	adds	r7, #1
 8002a04:	2fff      	cmp	r7, #255	; 0xff
 8002a06:	dd06      	ble.n	8002a16 <netif_add+0xd6>
 8002a08:	4914      	ldr	r1, [pc, #80]	; (8002a5c <netif_add+0x11c>)
 8002a0a:	f240 128d 	movw	r2, #397	; 0x18d
 8002a0e:	4650      	mov	r0, sl
 8002a10:	f005 fd76 	bl	8008500 <iprintf>
 8002a14:	4b0b      	ldr	r3, [pc, #44]	; (8002a44 <netif_add+0x104>)
 8002a16:	f894 1030 	ldrb.w	r1, [r4, #48]	; 0x30
 8002a1a:	f895 2030 	ldrb.w	r2, [r5, #48]	; 0x30
 8002a1e:	428a      	cmp	r2, r1
 8002a20:	d103      	bne.n	8002a2a <netif_add+0xea>
 8002a22:	3201      	adds	r2, #1
 8002a24:	f884 2030 	strb.w	r2, [r4, #48]	; 0x30
 8002a28:	e7cd      	b.n	80029c6 <netif_add+0x86>
 8002a2a:	682d      	ldr	r5, [r5, #0]
 8002a2c:	e7d9      	b.n	80029e2 <netif_add+0xa2>
 8002a2e:	3301      	adds	r3, #1
 8002a30:	b2db      	uxtb	r3, r3
 8002a32:	7033      	strb	r3, [r6, #0]
 8002a34:	f8d8 3000 	ldr.w	r3, [r8]
 8002a38:	6023      	str	r3, [r4, #0]
 8002a3a:	f8c8 4000 	str.w	r4, [r8]
 8002a3e:	e78c      	b.n	800295a <netif_add+0x1a>
 8002a40:	462c      	mov	r4, r5
 8002a42:	e78a      	b.n	800295a <netif_add+0x1a>
 8002a44:	08009948 	.word	0x08009948
 8002a48:	080099ac 	.word	0x080099ac
 8002a4c:	080095b5 	.word	0x080095b5
 8002a50:	080099c5 	.word	0x080099c5
 8002a54:	0800283d 	.word	0x0800283d
 8002a58:	20000050 	.word	0x20000050
 8002a5c:	080099fb 	.word	0x080099fb
 8002a60:	0800b278 	.word	0x0800b278
 8002a64:	2000a784 	.word	0x2000a784
 8002a68:	080099e7 	.word	0x080099e7

08002a6c <netif_set_default>:
 8002a6c:	4b01      	ldr	r3, [pc, #4]	; (8002a74 <netif_set_default+0x8>)
 8002a6e:	6018      	str	r0, [r3, #0]
 8002a70:	4770      	bx	lr
 8002a72:	bf00      	nop
 8002a74:	2000a788 	.word	0x2000a788

08002a78 <netif_set_up>:
 8002a78:	b930      	cbnz	r0, 8002a88 <netif_set_up+0x10>
 8002a7a:	4b09      	ldr	r3, [pc, #36]	; (8002aa0 <netif_set_up+0x28>)
 8002a7c:	4909      	ldr	r1, [pc, #36]	; (8002aa4 <netif_set_up+0x2c>)
 8002a7e:	480a      	ldr	r0, [pc, #40]	; (8002aa8 <netif_set_up+0x30>)
 8002a80:	f44f 7254 	mov.w	r2, #848	; 0x350
 8002a84:	f005 bd3c 	b.w	8008500 <iprintf>
 8002a88:	f890 202d 	ldrb.w	r2, [r0, #45]	; 0x2d
 8002a8c:	07d1      	lsls	r1, r2, #31
 8002a8e:	d406      	bmi.n	8002a9e <netif_set_up+0x26>
 8002a90:	f042 0201 	orr.w	r2, r2, #1
 8002a94:	f880 202d 	strb.w	r2, [r0, #45]	; 0x2d
 8002a98:	2103      	movs	r1, #3
 8002a9a:	f7ff bed3 	b.w	8002844 <netif_issue_reports>
 8002a9e:	4770      	bx	lr
 8002aa0:	08009948 	.word	0x08009948
 8002aa4:	08009a29 	.word	0x08009a29
 8002aa8:	080095b5 	.word	0x080095b5

08002aac <netif_set_down>:
 8002aac:	b930      	cbnz	r0, 8002abc <netif_set_down+0x10>
 8002aae:	4b0a      	ldr	r3, [pc, #40]	; (8002ad8 <netif_set_down+0x2c>)
 8002ab0:	490a      	ldr	r1, [pc, #40]	; (8002adc <netif_set_down+0x30>)
 8002ab2:	480b      	ldr	r0, [pc, #44]	; (8002ae0 <netif_set_down+0x34>)
 8002ab4:	f240 329b 	movw	r2, #923	; 0x39b
 8002ab8:	f005 bd22 	b.w	8008500 <iprintf>
 8002abc:	f890 202d 	ldrb.w	r2, [r0, #45]	; 0x2d
 8002ac0:	07d1      	lsls	r1, r2, #31
 8002ac2:	d507      	bpl.n	8002ad4 <netif_set_down+0x28>
 8002ac4:	f022 0101 	bic.w	r1, r2, #1
 8002ac8:	0713      	lsls	r3, r2, #28
 8002aca:	f880 102d 	strb.w	r1, [r0, #45]	; 0x2d
 8002ace:	d501      	bpl.n	8002ad4 <netif_set_down+0x28>
 8002ad0:	f004 bb5e 	b.w	8007190 <etharp_cleanup_netif>
 8002ad4:	4770      	bx	lr
 8002ad6:	bf00      	nop
 8002ad8:	08009948 	.word	0x08009948
 8002adc:	08009a45 	.word	0x08009a45
 8002ae0:	080095b5 	.word	0x080095b5

08002ae4 <netif_set_link_callback>:
 8002ae4:	b100      	cbz	r0, 8002ae8 <netif_set_link_callback+0x4>
 8002ae6:	61c1      	str	r1, [r0, #28]
 8002ae8:	4770      	bx	lr
	...

08002aec <netif_get_by_index>:
 8002aec:	4603      	mov	r3, r0
 8002aee:	b158      	cbz	r0, 8002b08 <netif_get_by_index+0x1c>
 8002af0:	4a06      	ldr	r2, [pc, #24]	; (8002b0c <netif_get_by_index+0x20>)
 8002af2:	6810      	ldr	r0, [r2, #0]
 8002af4:	b900      	cbnz	r0, 8002af8 <netif_get_by_index+0xc>
 8002af6:	4770      	bx	lr
 8002af8:	f890 2030 	ldrb.w	r2, [r0, #48]	; 0x30
 8002afc:	3201      	adds	r2, #1
 8002afe:	b2d2      	uxtb	r2, r2
 8002b00:	429a      	cmp	r2, r3
 8002b02:	d001      	beq.n	8002b08 <netif_get_by_index+0x1c>
 8002b04:	6800      	ldr	r0, [r0, #0]
 8002b06:	e7f5      	b.n	8002af4 <netif_get_by_index+0x8>
 8002b08:	4770      	bx	lr
 8002b0a:	bf00      	nop
 8002b0c:	2000a784 	.word	0x2000a784

08002b10 <pbuf_add_header_impl>:
 8002b10:	b538      	push	{r3, r4, r5, lr}
 8002b12:	b968      	cbnz	r0, 8002b30 <pbuf_add_header_impl+0x20>
 8002b14:	4b14      	ldr	r3, [pc, #80]	; (8002b68 <pbuf_add_header_impl+0x58>)
 8002b16:	4915      	ldr	r1, [pc, #84]	; (8002b6c <pbuf_add_header_impl+0x5c>)
 8002b18:	4815      	ldr	r0, [pc, #84]	; (8002b70 <pbuf_add_header_impl+0x60>)
 8002b1a:	f240 12df 	movw	r2, #479	; 0x1df
 8002b1e:	f005 fcef 	bl	8008500 <iprintf>
 8002b22:	2001      	movs	r0, #1
 8002b24:	e01f      	b.n	8002b66 <pbuf_add_header_impl+0x56>
 8002b26:	2a00      	cmp	r2, #0
 8002b28:	d0fb      	beq.n	8002b22 <pbuf_add_header_impl+0x12>
 8002b2a:	6842      	ldr	r2, [r0, #4]
 8002b2c:	1a51      	subs	r1, r2, r1
 8002b2e:	e014      	b.n	8002b5a <pbuf_add_header_impl+0x4a>
 8002b30:	f5b1 3f80 	cmp.w	r1, #65536	; 0x10000
 8002b34:	d2f5      	bcs.n	8002b22 <pbuf_add_header_impl+0x12>
 8002b36:	b1a9      	cbz	r1, 8002b64 <pbuf_add_header_impl+0x54>
 8002b38:	8903      	ldrh	r3, [r0, #8]
 8002b3a:	fa13 f381 	uxtah	r3, r3, r1
 8002b3e:	b28c      	uxth	r4, r1
 8002b40:	b29b      	uxth	r3, r3
 8002b42:	429c      	cmp	r4, r3
 8002b44:	d8ed      	bhi.n	8002b22 <pbuf_add_header_impl+0x12>
 8002b46:	f990 500c 	ldrsb.w	r5, [r0, #12]
 8002b4a:	2d00      	cmp	r5, #0
 8002b4c:	daeb      	bge.n	8002b26 <pbuf_add_header_impl+0x16>
 8002b4e:	6842      	ldr	r2, [r0, #4]
 8002b50:	1a51      	subs	r1, r2, r1
 8002b52:	f100 0214 	add.w	r2, r0, #20
 8002b56:	4291      	cmp	r1, r2
 8002b58:	d3e3      	bcc.n	8002b22 <pbuf_add_header_impl+0x12>
 8002b5a:	8942      	ldrh	r2, [r0, #10]
 8002b5c:	6041      	str	r1, [r0, #4]
 8002b5e:	4414      	add	r4, r2
 8002b60:	8144      	strh	r4, [r0, #10]
 8002b62:	8103      	strh	r3, [r0, #8]
 8002b64:	2000      	movs	r0, #0
 8002b66:	bd38      	pop	{r3, r4, r5, pc}
 8002b68:	08009a63 	.word	0x08009a63
 8002b6c:	08009b35 	.word	0x08009b35
 8002b70:	080095b5 	.word	0x080095b5

08002b74 <pbuf_free_ooseq>:
 8002b74:	4b06      	ldr	r3, [pc, #24]	; (8002b90 <pbuf_free_ooseq+0x1c>)
 8002b76:	2200      	movs	r2, #0
 8002b78:	701a      	strb	r2, [r3, #0]
 8002b7a:	4b06      	ldr	r3, [pc, #24]	; (8002b94 <pbuf_free_ooseq+0x20>)
 8002b7c:	6818      	ldr	r0, [r3, #0]
 8002b7e:	b900      	cbnz	r0, 8002b82 <pbuf_free_ooseq+0xe>
 8002b80:	4770      	bx	lr
 8002b82:	6f43      	ldr	r3, [r0, #116]	; 0x74
 8002b84:	b10b      	cbz	r3, 8002b8a <pbuf_free_ooseq+0x16>
 8002b86:	f000 be07 	b.w	8003798 <tcp_free_ooseq>
 8002b8a:	68c0      	ldr	r0, [r0, #12]
 8002b8c:	e7f7      	b.n	8002b7e <pbuf_free_ooseq+0xa>
 8002b8e:	bf00      	nop
 8002b90:	2000a78c 	.word	0x2000a78c
 8002b94:	2000a794 	.word	0x2000a794

08002b98 <pbuf_alloc_reference>:
 8002b98:	f022 0340 	bic.w	r3, r2, #64	; 0x40
 8002b9c:	2b01      	cmp	r3, #1
 8002b9e:	b570      	push	{r4, r5, r6, lr}
 8002ba0:	4606      	mov	r6, r0
 8002ba2:	460d      	mov	r5, r1
 8002ba4:	4614      	mov	r4, r2
 8002ba6:	d006      	beq.n	8002bb6 <pbuf_alloc_reference+0x1e>
 8002ba8:	4b0a      	ldr	r3, [pc, #40]	; (8002bd4 <pbuf_alloc_reference+0x3c>)
 8002baa:	490b      	ldr	r1, [pc, #44]	; (8002bd8 <pbuf_alloc_reference+0x40>)
 8002bac:	480b      	ldr	r0, [pc, #44]	; (8002bdc <pbuf_alloc_reference+0x44>)
 8002bae:	f44f 72a5 	mov.w	r2, #330	; 0x14a
 8002bb2:	f005 fca5 	bl	8008500 <iprintf>
 8002bb6:	2007      	movs	r0, #7
 8002bb8:	f7ff fe0a 	bl	80027d0 <memp_malloc>
 8002bbc:	b148      	cbz	r0, 8002bd2 <pbuf_alloc_reference+0x3a>
 8002bbe:	2300      	movs	r3, #0
 8002bc0:	e9c0 3600 	strd	r3, r6, [r0]
 8002bc4:	2201      	movs	r2, #1
 8002bc6:	8105      	strh	r5, [r0, #8]
 8002bc8:	8145      	strh	r5, [r0, #10]
 8002bca:	7304      	strb	r4, [r0, #12]
 8002bcc:	7343      	strb	r3, [r0, #13]
 8002bce:	81c2      	strh	r2, [r0, #14]
 8002bd0:	7403      	strb	r3, [r0, #16]
 8002bd2:	bd70      	pop	{r4, r5, r6, pc}
 8002bd4:	08009a63 	.word	0x08009a63
 8002bd8:	08009a93 	.word	0x08009a93
 8002bdc:	080095b5 	.word	0x080095b5

08002be0 <pbuf_alloced_custom>:
 8002be0:	b570      	push	{r4, r5, r6, lr}
 8002be2:	3003      	adds	r0, #3
 8002be4:	f8bd 5014 	ldrh.w	r5, [sp, #20]
 8002be8:	9c04      	ldr	r4, [sp, #16]
 8002bea:	f020 0003 	bic.w	r0, r0, #3
 8002bee:	180e      	adds	r6, r1, r0
 8002bf0:	42ae      	cmp	r6, r5
 8002bf2:	d80e      	bhi.n	8002c12 <pbuf_alloced_custom+0x32>
 8002bf4:	b104      	cbz	r4, 8002bf8 <pbuf_alloced_custom+0x18>
 8002bf6:	4404      	add	r4, r0
 8002bf8:	4618      	mov	r0, r3
 8002bfa:	2300      	movs	r3, #0
 8002bfc:	7302      	strb	r2, [r0, #12]
 8002bfe:	e9c0 3400 	strd	r3, r4, [r0]
 8002c02:	2202      	movs	r2, #2
 8002c04:	7342      	strb	r2, [r0, #13]
 8002c06:	2201      	movs	r2, #1
 8002c08:	8101      	strh	r1, [r0, #8]
 8002c0a:	8141      	strh	r1, [r0, #10]
 8002c0c:	81c2      	strh	r2, [r0, #14]
 8002c0e:	7403      	strb	r3, [r0, #16]
 8002c10:	bd70      	pop	{r4, r5, r6, pc}
 8002c12:	2000      	movs	r0, #0
 8002c14:	e7fc      	b.n	8002c10 <pbuf_alloced_custom+0x30>

08002c16 <pbuf_add_header>:
 8002c16:	2200      	movs	r2, #0
 8002c18:	f7ff bf7a 	b.w	8002b10 <pbuf_add_header_impl>

08002c1c <pbuf_remove_header>:
 8002c1c:	b510      	push	{r4, lr}
 8002c1e:	b990      	cbnz	r0, 8002c46 <pbuf_remove_header+0x2a>
 8002c20:	4b10      	ldr	r3, [pc, #64]	; (8002c64 <pbuf_remove_header+0x48>)
 8002c22:	4911      	ldr	r1, [pc, #68]	; (8002c68 <pbuf_remove_header+0x4c>)
 8002c24:	f240 224b 	movw	r2, #587	; 0x24b
 8002c28:	4810      	ldr	r0, [pc, #64]	; (8002c6c <pbuf_remove_header+0x50>)
 8002c2a:	f005 fc69 	bl	8008500 <iprintf>
 8002c2e:	2001      	movs	r0, #1
 8002c30:	e008      	b.n	8002c44 <pbuf_remove_header+0x28>
 8002c32:	1a9b      	subs	r3, r3, r2
 8002c34:	6844      	ldr	r4, [r0, #4]
 8002c36:	8143      	strh	r3, [r0, #10]
 8002c38:	8903      	ldrh	r3, [r0, #8]
 8002c3a:	4421      	add	r1, r4
 8002c3c:	1a9b      	subs	r3, r3, r2
 8002c3e:	6041      	str	r1, [r0, #4]
 8002c40:	8103      	strh	r3, [r0, #8]
 8002c42:	2000      	movs	r0, #0
 8002c44:	bd10      	pop	{r4, pc}
 8002c46:	f5b1 3f80 	cmp.w	r1, #65536	; 0x10000
 8002c4a:	d2f0      	bcs.n	8002c2e <pbuf_remove_header+0x12>
 8002c4c:	2900      	cmp	r1, #0
 8002c4e:	d0f8      	beq.n	8002c42 <pbuf_remove_header+0x26>
 8002c50:	8943      	ldrh	r3, [r0, #10]
 8002c52:	b28a      	uxth	r2, r1
 8002c54:	4293      	cmp	r3, r2
 8002c56:	d2ec      	bcs.n	8002c32 <pbuf_remove_header+0x16>
 8002c58:	4b02      	ldr	r3, [pc, #8]	; (8002c64 <pbuf_remove_header+0x48>)
 8002c5a:	4905      	ldr	r1, [pc, #20]	; (8002c70 <pbuf_remove_header+0x54>)
 8002c5c:	f240 2255 	movw	r2, #597	; 0x255
 8002c60:	e7e2      	b.n	8002c28 <pbuf_remove_header+0xc>
 8002c62:	bf00      	nop
 8002c64:	08009a63 	.word	0x08009a63
 8002c68:	08009b35 	.word	0x08009b35
 8002c6c:	080095b5 	.word	0x080095b5
 8002c70:	08009aa5 	.word	0x08009aa5

08002c74 <pbuf_header_force>:
 8002c74:	1e0b      	subs	r3, r1, #0
 8002c76:	da02      	bge.n	8002c7e <pbuf_header_force+0xa>
 8002c78:	4259      	negs	r1, r3
 8002c7a:	f7ff bfcf 	b.w	8002c1c <pbuf_remove_header>
 8002c7e:	2201      	movs	r2, #1
 8002c80:	f7ff bf46 	b.w	8002b10 <pbuf_add_header_impl>

08002c84 <pbuf_free>:
 8002c84:	e92d 43f8 	stmdb	sp!, {r3, r4, r5, r6, r7, r8, r9, lr}
 8002c88:	4604      	mov	r4, r0
 8002c8a:	b950      	cbnz	r0, 8002ca2 <pbuf_free+0x1e>
 8002c8c:	4b29      	ldr	r3, [pc, #164]	; (8002d34 <pbuf_free+0xb0>)
 8002c8e:	492a      	ldr	r1, [pc, #168]	; (8002d38 <pbuf_free+0xb4>)
 8002c90:	482a      	ldr	r0, [pc, #168]	; (8002d3c <pbuf_free+0xb8>)
 8002c92:	f44f 7237 	mov.w	r2, #732	; 0x2dc
 8002c96:	f005 fc33 	bl	8008500 <iprintf>
 8002c9a:	4625      	mov	r5, r4
 8002c9c:	4628      	mov	r0, r5
 8002c9e:	e8bd 83f8 	ldmia.w	sp!, {r3, r4, r5, r6, r7, r8, r9, pc}
 8002ca2:	4e24      	ldr	r6, [pc, #144]	; (8002d34 <pbuf_free+0xb0>)
 8002ca4:	f8df 80a0 	ldr.w	r8, [pc, #160]	; 8002d48 <pbuf_free+0xc4>
 8002ca8:	4f24      	ldr	r7, [pc, #144]	; (8002d3c <pbuf_free+0xb8>)
 8002caa:	2500      	movs	r5, #0
 8002cac:	89e3      	ldrh	r3, [r4, #14]
 8002cae:	b933      	cbnz	r3, 8002cbe <pbuf_free+0x3a>
 8002cb0:	4633      	mov	r3, r6
 8002cb2:	f240 22f1 	movw	r2, #753	; 0x2f1
 8002cb6:	4641      	mov	r1, r8
 8002cb8:	4638      	mov	r0, r7
 8002cba:	f005 fc21 	bl	8008500 <iprintf>
 8002cbe:	89e3      	ldrh	r3, [r4, #14]
 8002cc0:	3b01      	subs	r3, #1
 8002cc2:	b29b      	uxth	r3, r3
 8002cc4:	81e3      	strh	r3, [r4, #14]
 8002cc6:	2b00      	cmp	r3, #0
 8002cc8:	d1e8      	bne.n	8002c9c <pbuf_free+0x18>
 8002cca:	7b63      	ldrb	r3, [r4, #13]
 8002ccc:	f8d4 9000 	ldr.w	r9, [r4]
 8002cd0:	079b      	lsls	r3, r3, #30
 8002cd2:	d512      	bpl.n	8002cfa <pbuf_free+0x76>
 8002cd4:	6963      	ldr	r3, [r4, #20]
 8002cd6:	b933      	cbnz	r3, 8002ce6 <pbuf_free+0x62>
 8002cd8:	4919      	ldr	r1, [pc, #100]	; (8002d40 <pbuf_free+0xbc>)
 8002cda:	4633      	mov	r3, r6
 8002cdc:	f240 22ff 	movw	r2, #767	; 0x2ff
 8002ce0:	4638      	mov	r0, r7
 8002ce2:	f005 fc0d 	bl	8008500 <iprintf>
 8002ce6:	6963      	ldr	r3, [r4, #20]
 8002ce8:	4620      	mov	r0, r4
 8002cea:	4798      	blx	r3
 8002cec:	3501      	adds	r5, #1
 8002cee:	b2ed      	uxtb	r5, r5
 8002cf0:	f1b9 0f00 	cmp.w	r9, #0
 8002cf4:	d0d2      	beq.n	8002c9c <pbuf_free+0x18>
 8002cf6:	464c      	mov	r4, r9
 8002cf8:	e7d8      	b.n	8002cac <pbuf_free+0x28>
 8002cfa:	7b23      	ldrb	r3, [r4, #12]
 8002cfc:	f003 030f 	and.w	r3, r3, #15
 8002d00:	2b02      	cmp	r3, #2
 8002d02:	d104      	bne.n	8002d0e <pbuf_free+0x8a>
 8002d04:	4621      	mov	r1, r4
 8002d06:	2008      	movs	r0, #8
 8002d08:	f7ff fd7e 	bl	8002808 <memp_free>
 8002d0c:	e7ee      	b.n	8002cec <pbuf_free+0x68>
 8002d0e:	2b01      	cmp	r3, #1
 8002d10:	d102      	bne.n	8002d18 <pbuf_free+0x94>
 8002d12:	4621      	mov	r1, r4
 8002d14:	2007      	movs	r0, #7
 8002d16:	e7f7      	b.n	8002d08 <pbuf_free+0x84>
 8002d18:	b91b      	cbnz	r3, 8002d22 <pbuf_free+0x9e>
 8002d1a:	4620      	mov	r0, r4
 8002d1c:	f7ff fb0c 	bl	8002338 <mem_free>
 8002d20:	e7e4      	b.n	8002cec <pbuf_free+0x68>
 8002d22:	4908      	ldr	r1, [pc, #32]	; (8002d44 <pbuf_free+0xc0>)
 8002d24:	4633      	mov	r3, r6
 8002d26:	f240 320f 	movw	r2, #783	; 0x30f
 8002d2a:	4638      	mov	r0, r7
 8002d2c:	f005 fbe8 	bl	8008500 <iprintf>
 8002d30:	e7dc      	b.n	8002cec <pbuf_free+0x68>
 8002d32:	bf00      	nop
 8002d34:	08009a63 	.word	0x08009a63
 8002d38:	08009b35 	.word	0x08009b35
 8002d3c:	080095b5 	.word	0x080095b5
 8002d40:	08009ad9 	.word	0x08009ad9
 8002d44:	08009afa 	.word	0x08009afa
 8002d48:	08009ac3 	.word	0x08009ac3

08002d4c <pbuf_alloc>:
 8002d4c:	f5b2 7fc1 	cmp.w	r2, #386	; 0x182
 8002d50:	e92d 47f0 	stmdb	sp!, {r4, r5, r6, r7, r8, r9, sl, lr}
 8002d54:	4606      	mov	r6, r0
 8002d56:	460f      	mov	r7, r1
 8002d58:	b285      	uxth	r5, r0
 8002d5a:	d014      	beq.n	8002d86 <pbuf_alloc+0x3a>
 8002d5c:	d808      	bhi.n	8002d70 <pbuf_alloc+0x24>
 8002d5e:	f022 0340 	bic.w	r3, r2, #64	; 0x40
 8002d62:	2b01      	cmp	r3, #1
 8002d64:	d107      	bne.n	8002d76 <pbuf_alloc+0x2a>
 8002d66:	e8bd 47f0 	ldmia.w	sp!, {r4, r5, r6, r7, r8, r9, sl, lr}
 8002d6a:	2000      	movs	r0, #0
 8002d6c:	f7ff bf14 	b.w	8002b98 <pbuf_alloc_reference>
 8002d70:	f5b2 7f20 	cmp.w	r2, #640	; 0x280
 8002d74:	d040      	beq.n	8002df8 <pbuf_alloc+0xac>
 8002d76:	4b31      	ldr	r3, [pc, #196]	; (8002e3c <pbuf_alloc+0xf0>)
 8002d78:	4931      	ldr	r1, [pc, #196]	; (8002e40 <pbuf_alloc+0xf4>)
 8002d7a:	4832      	ldr	r0, [pc, #200]	; (8002e44 <pbuf_alloc+0xf8>)
 8002d7c:	f240 1227 	movw	r2, #295	; 0x127
 8002d80:	f005 fbbe 	bl	8008500 <iprintf>
 8002d84:	e00e      	b.n	8002da4 <pbuf_alloc+0x58>
 8002d86:	2600      	movs	r6, #0
 8002d88:	f8df 90c4 	ldr.w	r9, [pc, #196]	; 8002e50 <pbuf_alloc+0x104>
 8002d8c:	4634      	mov	r4, r6
 8002d8e:	46b0      	mov	r8, r6
 8002d90:	2008      	movs	r0, #8
 8002d92:	f7ff fd1d 	bl	80027d0 <memp_malloc>
 8002d96:	46b2      	mov	sl, r6
 8002d98:	4606      	mov	r6, r0
 8002d9a:	b948      	cbnz	r0, 8002db0 <pbuf_alloc+0x64>
 8002d9c:	4b2a      	ldr	r3, [pc, #168]	; (8002e48 <pbuf_alloc+0xfc>)
 8002d9e:	2201      	movs	r2, #1
 8002da0:	701a      	strb	r2, [r3, #0]
 8002da2:	b90c      	cbnz	r4, 8002da8 <pbuf_alloc+0x5c>
 8002da4:	2400      	movs	r4, #0
 8002da6:	e022      	b.n	8002dee <pbuf_alloc+0xa2>
 8002da8:	4620      	mov	r0, r4
 8002daa:	f7ff ff6b 	bl	8002c84 <pbuf_free>
 8002dae:	e7f9      	b.n	8002da4 <pbuf_alloc+0x58>
 8002db0:	1ceb      	adds	r3, r5, #3
 8002db2:	f023 0303 	bic.w	r3, r3, #3
 8002db6:	f5c3 7314 	rsb	r3, r3, #592	; 0x250
 8002dba:	b29b      	uxth	r3, r3
 8002dbc:	4405      	add	r5, r0
 8002dbe:	42bb      	cmp	r3, r7
 8002dc0:	f105 0517 	add.w	r5, r5, #23
 8002dc4:	bf28      	it	cs
 8002dc6:	463b      	movcs	r3, r7
 8002dc8:	f025 0503 	bic.w	r5, r5, #3
 8002dcc:	f8c0 8000 	str.w	r8, [r0]
 8002dd0:	6045      	str	r5, [r0, #4]
 8002dd2:	8107      	strh	r7, [r0, #8]
 8002dd4:	8143      	strh	r3, [r0, #10]
 8002dd6:	f8c0 900c 	str.w	r9, [r0, #12]
 8002dda:	f880 8010 	strb.w	r8, [r0, #16]
 8002dde:	b14c      	cbz	r4, 8002df4 <pbuf_alloc+0xa8>
 8002de0:	f8ca 0000 	str.w	r0, [sl]
 8002de4:	1afb      	subs	r3, r7, r3
 8002de6:	b29f      	uxth	r7, r3
 8002de8:	2500      	movs	r5, #0
 8002dea:	2f00      	cmp	r7, #0
 8002dec:	d1d0      	bne.n	8002d90 <pbuf_alloc+0x44>
 8002dee:	4620      	mov	r0, r4
 8002df0:	e8bd 87f0 	ldmia.w	sp!, {r4, r5, r6, r7, r8, r9, sl, pc}
 8002df4:	4604      	mov	r4, r0
 8002df6:	e7f5      	b.n	8002de4 <pbuf_alloc+0x98>
 8002df8:	3503      	adds	r5, #3
 8002dfa:	1ccb      	adds	r3, r1, #3
 8002dfc:	f023 0303 	bic.w	r3, r3, #3
 8002e00:	f025 0503 	bic.w	r5, r5, #3
 8002e04:	441d      	add	r5, r3
 8002e06:	b2ad      	uxth	r5, r5
 8002e08:	f105 0014 	add.w	r0, r5, #20
 8002e0c:	429d      	cmp	r5, r3
 8002e0e:	b280      	uxth	r0, r0
 8002e10:	d3c8      	bcc.n	8002da4 <pbuf_alloc+0x58>
 8002e12:	4283      	cmp	r3, r0
 8002e14:	d8c6      	bhi.n	8002da4 <pbuf_alloc+0x58>
 8002e16:	f7ff fbeb 	bl	80025f0 <mem_malloc>
 8002e1a:	4604      	mov	r4, r0
 8002e1c:	2800      	cmp	r0, #0
 8002e1e:	d0e6      	beq.n	8002dee <pbuf_alloc+0xa2>
 8002e20:	4406      	add	r6, r0
 8002e22:	3617      	adds	r6, #23
 8002e24:	2300      	movs	r3, #0
 8002e26:	4a09      	ldr	r2, [pc, #36]	; (8002e4c <pbuf_alloc+0x100>)
 8002e28:	6003      	str	r3, [r0, #0]
 8002e2a:	f026 0603 	bic.w	r6, r6, #3
 8002e2e:	6046      	str	r6, [r0, #4]
 8002e30:	8107      	strh	r7, [r0, #8]
 8002e32:	8147      	strh	r7, [r0, #10]
 8002e34:	60c2      	str	r2, [r0, #12]
 8002e36:	7403      	strb	r3, [r0, #16]
 8002e38:	e7d9      	b.n	8002dee <pbuf_alloc+0xa2>
 8002e3a:	bf00      	nop
 8002e3c:	08009a63 	.word	0x08009a63
 8002e40:	08009b0c 	.word	0x08009b0c
 8002e44:	080095b5 	.word	0x080095b5
 8002e48:	2000a78c 	.word	0x2000a78c
 8002e4c:	00010080 	.word	0x00010080
 8002e50:	00010082 	.word	0x00010082

08002e54 <pbuf_realloc>:
 8002e54:	e92d 47f0 	stmdb	sp!, {r4, r5, r6, r7, r8, r9, sl, lr}
 8002e58:	460e      	mov	r6, r1
 8002e5a:	4604      	mov	r4, r0
 8002e5c:	b930      	cbnz	r0, 8002e6c <pbuf_realloc+0x18>
 8002e5e:	4b24      	ldr	r3, [pc, #144]	; (8002ef0 <pbuf_realloc+0x9c>)
 8002e60:	4924      	ldr	r1, [pc, #144]	; (8002ef4 <pbuf_realloc+0xa0>)
 8002e62:	4825      	ldr	r0, [pc, #148]	; (8002ef8 <pbuf_realloc+0xa4>)
 8002e64:	f44f 72cc 	mov.w	r2, #408	; 0x198
 8002e68:	f005 fb4a 	bl	8008500 <iprintf>
 8002e6c:	8927      	ldrh	r7, [r4, #8]
 8002e6e:	42b7      	cmp	r7, r6
 8002e70:	d93c      	bls.n	8002eec <pbuf_realloc+0x98>
 8002e72:	f8df 807c 	ldr.w	r8, [pc, #124]	; 8002ef0 <pbuf_realloc+0x9c>
 8002e76:	f8df a088 	ldr.w	sl, [pc, #136]	; 8002f00 <pbuf_realloc+0xac>
 8002e7a:	f8df 907c 	ldr.w	r9, [pc, #124]	; 8002ef8 <pbuf_realloc+0xa4>
 8002e7e:	4635      	mov	r5, r6
 8002e80:	8962      	ldrh	r2, [r4, #10]
 8002e82:	42aa      	cmp	r2, r5
 8002e84:	d319      	bcc.n	8002eba <pbuf_realloc+0x66>
 8002e86:	7b23      	ldrb	r3, [r4, #12]
 8002e88:	0719      	lsls	r1, r3, #28
 8002e8a:	d127      	bne.n	8002edc <pbuf_realloc+0x88>
 8002e8c:	42aa      	cmp	r2, r5
 8002e8e:	d025      	beq.n	8002edc <pbuf_realloc+0x88>
 8002e90:	7b63      	ldrb	r3, [r4, #13]
 8002e92:	079b      	lsls	r3, r3, #30
 8002e94:	d422      	bmi.n	8002edc <pbuf_realloc+0x88>
 8002e96:	6861      	ldr	r1, [r4, #4]
 8002e98:	1b09      	subs	r1, r1, r4
 8002e9a:	4429      	add	r1, r5
 8002e9c:	4620      	mov	r0, r4
 8002e9e:	b289      	uxth	r1, r1
 8002ea0:	f7ff fb02 	bl	80024a8 <mem_trim>
 8002ea4:	4604      	mov	r4, r0
 8002ea6:	b9c8      	cbnz	r0, 8002edc <pbuf_realloc+0x88>
 8002ea8:	4b11      	ldr	r3, [pc, #68]	; (8002ef0 <pbuf_realloc+0x9c>)
 8002eaa:	4914      	ldr	r1, [pc, #80]	; (8002efc <pbuf_realloc+0xa8>)
 8002eac:	4812      	ldr	r0, [pc, #72]	; (8002ef8 <pbuf_realloc+0xa4>)
 8002eae:	f240 12bd 	movw	r2, #445	; 0x1bd
 8002eb2:	f005 fb25 	bl	8008500 <iprintf>
 8002eb6:	8164      	strh	r4, [r4, #10]
 8002eb8:	deff      	udf	#255	; 0xff
 8002eba:	1aad      	subs	r5, r5, r2
 8002ebc:	8922      	ldrh	r2, [r4, #8]
 8002ebe:	1bf3      	subs	r3, r6, r7
 8002ec0:	4413      	add	r3, r2
 8002ec2:	8123      	strh	r3, [r4, #8]
 8002ec4:	6824      	ldr	r4, [r4, #0]
 8002ec6:	b2ad      	uxth	r5, r5
 8002ec8:	2c00      	cmp	r4, #0
 8002eca:	d1d9      	bne.n	8002e80 <pbuf_realloc+0x2c>
 8002ecc:	4643      	mov	r3, r8
 8002ece:	f240 12af 	movw	r2, #431	; 0x1af
 8002ed2:	4651      	mov	r1, sl
 8002ed4:	4648      	mov	r0, r9
 8002ed6:	f005 fb13 	bl	8008500 <iprintf>
 8002eda:	e7d1      	b.n	8002e80 <pbuf_realloc+0x2c>
 8002edc:	6820      	ldr	r0, [r4, #0]
 8002ede:	8165      	strh	r5, [r4, #10]
 8002ee0:	8125      	strh	r5, [r4, #8]
 8002ee2:	b108      	cbz	r0, 8002ee8 <pbuf_realloc+0x94>
 8002ee4:	f7ff fece 	bl	8002c84 <pbuf_free>
 8002ee8:	2300      	movs	r3, #0
 8002eea:	6023      	str	r3, [r4, #0]
 8002eec:	e8bd 87f0 	ldmia.w	sp!, {r4, r5, r6, r7, r8, r9, sl, pc}
 8002ef0:	08009a63 	.word	0x08009a63
 8002ef4:	08009b27 	.word	0x08009b27
 8002ef8:	080095b5 	.word	0x080095b5
 8002efc:	08009b57 	.word	0x08009b57
 8002f00:	08009b3f 	.word	0x08009b3f

08002f04 <pbuf_clen>:
 8002f04:	4603      	mov	r3, r0
 8002f06:	2200      	movs	r2, #0
 8002f08:	b290      	uxth	r0, r2
 8002f0a:	3201      	adds	r2, #1
 8002f0c:	b903      	cbnz	r3, 8002f10 <pbuf_clen+0xc>
 8002f0e:	4770      	bx	lr
 8002f10:	681b      	ldr	r3, [r3, #0]
 8002f12:	e7f9      	b.n	8002f08 <pbuf_clen+0x4>

08002f14 <pbuf_ref>:
 8002f14:	b158      	cbz	r0, 8002f2e <pbuf_ref+0x1a>
 8002f16:	89c3      	ldrh	r3, [r0, #14]
 8002f18:	3301      	adds	r3, #1
 8002f1a:	b29b      	uxth	r3, r3
 8002f1c:	81c3      	strh	r3, [r0, #14]
 8002f1e:	b933      	cbnz	r3, 8002f2e <pbuf_ref+0x1a>
 8002f20:	4b03      	ldr	r3, [pc, #12]	; (8002f30 <pbuf_ref+0x1c>)
 8002f22:	4904      	ldr	r1, [pc, #16]	; (8002f34 <pbuf_ref+0x20>)
 8002f24:	4804      	ldr	r0, [pc, #16]	; (8002f38 <pbuf_ref+0x24>)
 8002f26:	f240 3242 	movw	r2, #834	; 0x342
 8002f2a:	f005 bae9 	b.w	8008500 <iprintf>
 8002f2e:	4770      	bx	lr
 8002f30:	08009a63 	.word	0x08009a63
 8002f34:	08009b73 	.word	0x08009b73
 8002f38:	080095b5 	.word	0x080095b5

08002f3c <pbuf_cat>:
 8002f3c:	b570      	push	{r4, r5, r6, lr}
 8002f3e:	460d      	mov	r5, r1
 8002f40:	4604      	mov	r4, r0
 8002f42:	b100      	cbz	r0, 8002f46 <pbuf_cat+0xa>
 8002f44:	b961      	cbnz	r1, 8002f60 <pbuf_cat+0x24>
 8002f46:	e8bd 4070 	ldmia.w	sp!, {r4, r5, r6, lr}
 8002f4a:	4b14      	ldr	r3, [pc, #80]	; (8002f9c <pbuf_cat+0x60>)
 8002f4c:	4914      	ldr	r1, [pc, #80]	; (8002fa0 <pbuf_cat+0x64>)
 8002f4e:	4815      	ldr	r0, [pc, #84]	; (8002fa4 <pbuf_cat+0x68>)
 8002f50:	f240 3259 	movw	r2, #857	; 0x359
 8002f54:	f005 bad4 	b.w	8008500 <iprintf>
 8002f58:	8929      	ldrh	r1, [r5, #8]
 8002f5a:	440b      	add	r3, r1
 8002f5c:	8123      	strh	r3, [r4, #8]
 8002f5e:	4614      	mov	r4, r2
 8002f60:	6822      	ldr	r2, [r4, #0]
 8002f62:	8923      	ldrh	r3, [r4, #8]
 8002f64:	2a00      	cmp	r2, #0
 8002f66:	d1f7      	bne.n	8002f58 <pbuf_cat+0x1c>
 8002f68:	8962      	ldrh	r2, [r4, #10]
 8002f6a:	429a      	cmp	r2, r3
 8002f6c:	d00f      	beq.n	8002f8e <pbuf_cat+0x52>
 8002f6e:	4b0b      	ldr	r3, [pc, #44]	; (8002f9c <pbuf_cat+0x60>)
 8002f70:	490d      	ldr	r1, [pc, #52]	; (8002fa8 <pbuf_cat+0x6c>)
 8002f72:	480c      	ldr	r0, [pc, #48]	; (8002fa4 <pbuf_cat+0x68>)
 8002f74:	f240 3262 	movw	r2, #866	; 0x362
 8002f78:	f005 fac2 	bl	8008500 <iprintf>
 8002f7c:	6823      	ldr	r3, [r4, #0]
 8002f7e:	b133      	cbz	r3, 8002f8e <pbuf_cat+0x52>
 8002f80:	4b06      	ldr	r3, [pc, #24]	; (8002f9c <pbuf_cat+0x60>)
 8002f82:	490a      	ldr	r1, [pc, #40]	; (8002fac <pbuf_cat+0x70>)
 8002f84:	4807      	ldr	r0, [pc, #28]	; (8002fa4 <pbuf_cat+0x68>)
 8002f86:	f240 3263 	movw	r2, #867	; 0x363
 8002f8a:	f005 fab9 	bl	8008500 <iprintf>
 8002f8e:	892a      	ldrh	r2, [r5, #8]
 8002f90:	8923      	ldrh	r3, [r4, #8]
 8002f92:	6025      	str	r5, [r4, #0]
 8002f94:	4413      	add	r3, r2
 8002f96:	8123      	strh	r3, [r4, #8]
 8002f98:	bd70      	pop	{r4, r5, r6, pc}
 8002f9a:	bf00      	nop
 8002f9c:	08009a63 	.word	0x08009a63
 8002fa0:	08009b85 	.word	0x08009b85
 8002fa4:	080095b5 	.word	0x080095b5
 8002fa8:	08009bba 	.word	0x08009bba
 8002fac:	08009be7 	.word	0x08009be7

08002fb0 <pbuf_chain>:
 8002fb0:	b510      	push	{r4, lr}
 8002fb2:	460c      	mov	r4, r1
 8002fb4:	f7ff ffc2 	bl	8002f3c <pbuf_cat>
 8002fb8:	4620      	mov	r0, r4
 8002fba:	e8bd 4010 	ldmia.w	sp!, {r4, lr}
 8002fbe:	f7ff bfa9 	b.w	8002f14 <pbuf_ref>
	...

08002fc4 <pbuf_copy>:
 8002fc4:	e92d 4ff8 	stmdb	sp!, {r3, r4, r5, r6, r7, r8, r9, sl, fp, lr}
 8002fc8:	460c      	mov	r4, r1
 8002fca:	4605      	mov	r5, r0
 8002fcc:	b120      	cbz	r0, 8002fd8 <pbuf_copy+0x14>
 8002fce:	b119      	cbz	r1, 8002fd8 <pbuf_copy+0x14>
 8002fd0:	8902      	ldrh	r2, [r0, #8]
 8002fd2:	890b      	ldrh	r3, [r1, #8]
 8002fd4:	429a      	cmp	r2, r3
 8002fd6:	d20a      	bcs.n	8002fee <pbuf_copy+0x2a>
 8002fd8:	4b34      	ldr	r3, [pc, #208]	; (80030ac <pbuf_copy+0xe8>)
 8002fda:	4935      	ldr	r1, [pc, #212]	; (80030b0 <pbuf_copy+0xec>)
 8002fdc:	f240 32c9 	movw	r2, #969	; 0x3c9
 8002fe0:	4834      	ldr	r0, [pc, #208]	; (80030b4 <pbuf_copy+0xf0>)
 8002fe2:	f005 fa8d 	bl	8008500 <iprintf>
 8002fe6:	f06f 000f 	mvn.w	r0, #15
 8002fea:	e8bd 8ff8 	ldmia.w	sp!, {r3, r4, r5, r6, r7, r8, r9, sl, fp, pc}
 8002fee:	2600      	movs	r6, #0
 8002ff0:	f8df b0b8 	ldr.w	fp, [pc, #184]	; 80030ac <pbuf_copy+0xe8>
 8002ff4:	f8df a0cc 	ldr.w	sl, [pc, #204]	; 80030c4 <pbuf_copy+0x100>
 8002ff8:	f8df 90b8 	ldr.w	r9, [pc, #184]	; 80030b4 <pbuf_copy+0xf0>
 8002ffc:	4637      	mov	r7, r6
 8002ffe:	f8b5 800a 	ldrh.w	r8, [r5, #10]
 8003002:	8962      	ldrh	r2, [r4, #10]
 8003004:	6868      	ldr	r0, [r5, #4]
 8003006:	6861      	ldr	r1, [r4, #4]
 8003008:	eba8 0807 	sub.w	r8, r8, r7
 800300c:	1b92      	subs	r2, r2, r6
 800300e:	4590      	cmp	r8, r2
 8003010:	bf28      	it	cs
 8003012:	4690      	movcs	r8, r2
 8003014:	4431      	add	r1, r6
 8003016:	4438      	add	r0, r7
 8003018:	4642      	mov	r2, r8
 800301a:	f005 fa5b 	bl	80084d4 <memcpy>
 800301e:	896b      	ldrh	r3, [r5, #10]
 8003020:	4447      	add	r7, r8
 8003022:	429f      	cmp	r7, r3
 8003024:	4446      	add	r6, r8
 8003026:	d906      	bls.n	8003036 <pbuf_copy+0x72>
 8003028:	465b      	mov	r3, fp
 800302a:	f240 32d9 	movw	r2, #985	; 0x3d9
 800302e:	4651      	mov	r1, sl
 8003030:	4648      	mov	r0, r9
 8003032:	f005 fa65 	bl	8008500 <iprintf>
 8003036:	8963      	ldrh	r3, [r4, #10]
 8003038:	429e      	cmp	r6, r3
 800303a:	d906      	bls.n	800304a <pbuf_copy+0x86>
 800303c:	491e      	ldr	r1, [pc, #120]	; (80030b8 <pbuf_copy+0xf4>)
 800303e:	465b      	mov	r3, fp
 8003040:	f240 32da 	movw	r2, #986	; 0x3da
 8003044:	4648      	mov	r0, r9
 8003046:	f005 fa5b 	bl	8008500 <iprintf>
 800304a:	8963      	ldrh	r3, [r4, #10]
 800304c:	429e      	cmp	r6, r3
 800304e:	896b      	ldrh	r3, [r5, #10]
 8003050:	bf24      	itt	cs
 8003052:	6824      	ldrcs	r4, [r4, #0]
 8003054:	2600      	movcs	r6, #0
 8003056:	429f      	cmp	r7, r3
 8003058:	d108      	bne.n	800306c <pbuf_copy+0xa8>
 800305a:	682d      	ldr	r5, [r5, #0]
 800305c:	b92d      	cbnz	r5, 800306a <pbuf_copy+0xa6>
 800305e:	b314      	cbz	r4, 80030a6 <pbuf_copy+0xe2>
 8003060:	4b12      	ldr	r3, [pc, #72]	; (80030ac <pbuf_copy+0xe8>)
 8003062:	4916      	ldr	r1, [pc, #88]	; (80030bc <pbuf_copy+0xf8>)
 8003064:	f44f 7279 	mov.w	r2, #996	; 0x3e4
 8003068:	e7ba      	b.n	8002fe0 <pbuf_copy+0x1c>
 800306a:	2700      	movs	r7, #0
 800306c:	b17c      	cbz	r4, 800308e <pbuf_copy+0xca>
 800306e:	8962      	ldrh	r2, [r4, #10]
 8003070:	8923      	ldrh	r3, [r4, #8]
 8003072:	429a      	cmp	r2, r3
 8003074:	d10b      	bne.n	800308e <pbuf_copy+0xca>
 8003076:	6823      	ldr	r3, [r4, #0]
 8003078:	b14b      	cbz	r3, 800308e <pbuf_copy+0xca>
 800307a:	4b0c      	ldr	r3, [pc, #48]	; (80030ac <pbuf_copy+0xe8>)
 800307c:	f240 32e9 	movw	r2, #1001	; 0x3e9
 8003080:	490f      	ldr	r1, [pc, #60]	; (80030c0 <pbuf_copy+0xfc>)
 8003082:	480c      	ldr	r0, [pc, #48]	; (80030b4 <pbuf_copy+0xf0>)
 8003084:	f005 fa3c 	bl	8008500 <iprintf>
 8003088:	f06f 0005 	mvn.w	r0, #5
 800308c:	e7ad      	b.n	8002fea <pbuf_copy+0x26>
 800308e:	896a      	ldrh	r2, [r5, #10]
 8003090:	892b      	ldrh	r3, [r5, #8]
 8003092:	429a      	cmp	r2, r3
 8003094:	d105      	bne.n	80030a2 <pbuf_copy+0xde>
 8003096:	682b      	ldr	r3, [r5, #0]
 8003098:	b11b      	cbz	r3, 80030a2 <pbuf_copy+0xde>
 800309a:	4b04      	ldr	r3, [pc, #16]	; (80030ac <pbuf_copy+0xe8>)
 800309c:	f240 32ee 	movw	r2, #1006	; 0x3ee
 80030a0:	e7ee      	b.n	8003080 <pbuf_copy+0xbc>
 80030a2:	2c00      	cmp	r4, #0
 80030a4:	d1ab      	bne.n	8002ffe <pbuf_copy+0x3a>
 80030a6:	4620      	mov	r0, r4
 80030a8:	e79f      	b.n	8002fea <pbuf_copy+0x26>
 80030aa:	bf00      	nop
 80030ac:	08009a63 	.word	0x08009a63
 80030b0:	08009bf7 	.word	0x08009bf7
 80030b4:	080095b5 	.word	0x080095b5
 80030b8:	08009c3e 	.word	0x08009c3e
 80030bc:	08009c59 	.word	0x08009c59
 80030c0:	08009c66 	.word	0x08009c66
 80030c4:	08009c27 	.word	0x08009c27

080030c8 <pbuf_copy_partial>:
 80030c8:	e92d 43f8 	stmdb	sp!, {r3, r4, r5, r6, r7, r8, r9, lr}
 80030cc:	4688      	mov	r8, r1
 80030ce:	4691      	mov	r9, r2
 80030d0:	4606      	mov	r6, r0
 80030d2:	b950      	cbnz	r0, 80030ea <pbuf_copy_partial+0x22>
 80030d4:	4b1b      	ldr	r3, [pc, #108]	; (8003144 <pbuf_copy_partial+0x7c>)
 80030d6:	491c      	ldr	r1, [pc, #112]	; (8003148 <pbuf_copy_partial+0x80>)
 80030d8:	481c      	ldr	r0, [pc, #112]	; (800314c <pbuf_copy_partial+0x84>)
 80030da:	f240 420a 	movw	r2, #1034	; 0x40a
 80030de:	f005 fa0f 	bl	8008500 <iprintf>
 80030e2:	4637      	mov	r7, r6
 80030e4:	4638      	mov	r0, r7
 80030e6:	e8bd 83f8 	ldmia.w	sp!, {r3, r4, r5, r6, r7, r8, r9, pc}
 80030ea:	bb49      	cbnz	r1, 8003140 <pbuf_copy_partial+0x78>
 80030ec:	4b15      	ldr	r3, [pc, #84]	; (8003144 <pbuf_copy_partial+0x7c>)
 80030ee:	4918      	ldr	r1, [pc, #96]	; (8003150 <pbuf_copy_partial+0x88>)
 80030f0:	4816      	ldr	r0, [pc, #88]	; (800314c <pbuf_copy_partial+0x84>)
 80030f2:	f240 420b 	movw	r2, #1035	; 0x40b
 80030f6:	f005 fa03 	bl	8008500 <iprintf>
 80030fa:	4647      	mov	r7, r8
 80030fc:	e7f2      	b.n	80030e4 <pbuf_copy_partial+0x1c>
 80030fe:	8975      	ldrh	r5, [r6, #10]
 8003100:	b153      	cbz	r3, 8003118 <pbuf_copy_partial+0x50>
 8003102:	42ab      	cmp	r3, r5
 8003104:	d308      	bcc.n	8003118 <pbuf_copy_partial+0x50>
 8003106:	1b5b      	subs	r3, r3, r5
 8003108:	b29b      	uxth	r3, r3
 800310a:	6836      	ldr	r6, [r6, #0]
 800310c:	f1b9 0f00 	cmp.w	r9, #0
 8003110:	d0e8      	beq.n	80030e4 <pbuf_copy_partial+0x1c>
 8003112:	2e00      	cmp	r6, #0
 8003114:	d1f3      	bne.n	80030fe <pbuf_copy_partial+0x36>
 8003116:	e7e5      	b.n	80030e4 <pbuf_copy_partial+0x1c>
 8003118:	1aec      	subs	r4, r5, r3
 800311a:	b2a4      	uxth	r4, r4
 800311c:	454c      	cmp	r4, r9
 800311e:	6871      	ldr	r1, [r6, #4]
 8003120:	bf28      	it	cs
 8003122:	464c      	movcs	r4, r9
 8003124:	4622      	mov	r2, r4
 8003126:	4419      	add	r1, r3
 8003128:	eb08 0007 	add.w	r0, r8, r7
 800312c:	f005 f9d2 	bl	80084d4 <memcpy>
 8003130:	4427      	add	r7, r4
 8003132:	eba9 0204 	sub.w	r2, r9, r4
 8003136:	b2bf      	uxth	r7, r7
 8003138:	fa1f f982 	uxth.w	r9, r2
 800313c:	2300      	movs	r3, #0
 800313e:	e7e4      	b.n	800310a <pbuf_copy_partial+0x42>
 8003140:	2700      	movs	r7, #0
 8003142:	e7e3      	b.n	800310c <pbuf_copy_partial+0x44>
 8003144:	08009a63 	.word	0x08009a63
 8003148:	08009c90 	.word	0x08009c90
 800314c:	080095b5 	.word	0x080095b5
 8003150:	08009caf 	.word	0x08009caf

08003154 <pbuf_take>:
 8003154:	e92d 4ff8 	stmdb	sp!, {r3, r4, r5, r6, r7, r8, r9, sl, fp, lr}
 8003158:	4689      	mov	r9, r1
 800315a:	4616      	mov	r6, r2
 800315c:	4605      	mov	r5, r0
 800315e:	b950      	cbnz	r0, 8003176 <pbuf_take+0x22>
 8003160:	4b24      	ldr	r3, [pc, #144]	; (80031f4 <pbuf_take+0xa0>)
 8003162:	4925      	ldr	r1, [pc, #148]	; (80031f8 <pbuf_take+0xa4>)
 8003164:	f240 42b3 	movw	r2, #1203	; 0x4b3
 8003168:	4824      	ldr	r0, [pc, #144]	; (80031fc <pbuf_take+0xa8>)
 800316a:	f005 f9c9 	bl	8008500 <iprintf>
 800316e:	f06f 000f 	mvn.w	r0, #15
 8003172:	e8bd 8ff8 	ldmia.w	sp!, {r3, r4, r5, r6, r7, r8, r9, sl, fp, pc}
 8003176:	b921      	cbnz	r1, 8003182 <pbuf_take+0x2e>
 8003178:	4b1e      	ldr	r3, [pc, #120]	; (80031f4 <pbuf_take+0xa0>)
 800317a:	4921      	ldr	r1, [pc, #132]	; (8003200 <pbuf_take+0xac>)
 800317c:	f240 42b4 	movw	r2, #1204	; 0x4b4
 8003180:	e7f2      	b.n	8003168 <pbuf_take+0x14>
 8003182:	8903      	ldrh	r3, [r0, #8]
 8003184:	4293      	cmp	r3, r2
 8003186:	d22b      	bcs.n	80031e0 <pbuf_take+0x8c>
 8003188:	4b1a      	ldr	r3, [pc, #104]	; (80031f4 <pbuf_take+0xa0>)
 800318a:	491e      	ldr	r1, [pc, #120]	; (8003204 <pbuf_take+0xb0>)
 800318c:	481b      	ldr	r0, [pc, #108]	; (80031fc <pbuf_take+0xa8>)
 800318e:	f240 42b5 	movw	r2, #1205	; 0x4b5
 8003192:	f005 f9b5 	bl	8008500 <iprintf>
 8003196:	f04f 30ff 	mov.w	r0, #4294967295
 800319a:	e7ea      	b.n	8003172 <pbuf_take+0x1e>
 800319c:	b92d      	cbnz	r5, 80031aa <pbuf_take+0x56>
 800319e:	f240 42bd 	movw	r2, #1213	; 0x4bd
 80031a2:	4651      	mov	r1, sl
 80031a4:	4658      	mov	r0, fp
 80031a6:	f005 f9ab 	bl	8008500 <iprintf>
 80031aa:	896f      	ldrh	r7, [r5, #10]
 80031ac:	6868      	ldr	r0, [r5, #4]
 80031ae:	42a7      	cmp	r7, r4
 80031b0:	bf28      	it	cs
 80031b2:	4627      	movcs	r7, r4
 80031b4:	eb09 0108 	add.w	r1, r9, r8
 80031b8:	463a      	mov	r2, r7
 80031ba:	f005 f98b 	bl	80084d4 <memcpy>
 80031be:	682d      	ldr	r5, [r5, #0]
 80031c0:	4b0c      	ldr	r3, [pc, #48]	; (80031f4 <pbuf_take+0xa0>)
 80031c2:	1be4      	subs	r4, r4, r7
 80031c4:	44b8      	add	r8, r7
 80031c6:	2c00      	cmp	r4, #0
 80031c8:	d1e8      	bne.n	800319c <pbuf_take+0x48>
 80031ca:	45b0      	cmp	r8, r6
 80031cc:	d006      	beq.n	80031dc <pbuf_take+0x88>
 80031ce:	4b09      	ldr	r3, [pc, #36]	; (80031f4 <pbuf_take+0xa0>)
 80031d0:	490d      	ldr	r1, [pc, #52]	; (8003208 <pbuf_take+0xb4>)
 80031d2:	480a      	ldr	r0, [pc, #40]	; (80031fc <pbuf_take+0xa8>)
 80031d4:	f44f 6299 	mov.w	r2, #1224	; 0x4c8
 80031d8:	f005 f992 	bl	8008500 <iprintf>
 80031dc:	4620      	mov	r0, r4
 80031de:	e7c8      	b.n	8003172 <pbuf_take+0x1e>
 80031e0:	4b04      	ldr	r3, [pc, #16]	; (80031f4 <pbuf_take+0xa0>)
 80031e2:	f8df a028 	ldr.w	sl, [pc, #40]	; 800320c <pbuf_take+0xb8>
 80031e6:	f8df b014 	ldr.w	fp, [pc, #20]	; 80031fc <pbuf_take+0xa8>
 80031ea:	4614      	mov	r4, r2
 80031ec:	f04f 0800 	mov.w	r8, #0
 80031f0:	e7e9      	b.n	80031c6 <pbuf_take+0x72>
 80031f2:	bf00      	nop
 80031f4:	08009a63 	.word	0x08009a63
 80031f8:	08009cd2 	.word	0x08009cd2
 80031fc:	080095b5 	.word	0x080095b5
 8003200:	08009ce9 	.word	0x08009ce9
 8003204:	08009d04 	.word	0x08009d04
 8003208:	08009d3c 	.word	0x08009d3c
 800320c:	08009d24 	.word	0x08009d24

08003210 <pbuf_clone>:
 8003210:	b538      	push	{r3, r4, r5, lr}
 8003212:	4615      	mov	r5, r2
 8003214:	460a      	mov	r2, r1
 8003216:	8929      	ldrh	r1, [r5, #8]
 8003218:	f7ff fd98 	bl	8002d4c <pbuf_alloc>
 800321c:	4604      	mov	r4, r0
 800321e:	b150      	cbz	r0, 8003236 <pbuf_clone+0x26>
 8003220:	4629      	mov	r1, r5
 8003222:	f7ff fecf 	bl	8002fc4 <pbuf_copy>
 8003226:	b130      	cbz	r0, 8003236 <pbuf_clone+0x26>
 8003228:	4b04      	ldr	r3, [pc, #16]	; (800323c <pbuf_clone+0x2c>)
 800322a:	4905      	ldr	r1, [pc, #20]	; (8003240 <pbuf_clone+0x30>)
 800322c:	4805      	ldr	r0, [pc, #20]	; (8003244 <pbuf_clone+0x34>)
 800322e:	f240 5224 	movw	r2, #1316	; 0x524
 8003232:	f005 f965 	bl	8008500 <iprintf>
 8003236:	4620      	mov	r0, r4
 8003238:	bd38      	pop	{r3, r4, r5, pc}
 800323a:	bf00      	nop
 800323c:	08009a63 	.word	0x08009a63
 8003240:	08009d52 	.word	0x08009d52
 8003244:	080095b5 	.word	0x080095b5

08003248 <tcp_new_port>:
 8003248:	4a12      	ldr	r2, [pc, #72]	; (8003294 <tcp_new_port+0x4c>)
 800324a:	8813      	ldrh	r3, [r2, #0]
 800324c:	b5f0      	push	{r4, r5, r6, r7, lr}
 800324e:	f44f 4080 	mov.w	r0, #16384	; 0x4000
 8003252:	f64f 76ff 	movw	r6, #65535	; 0xffff
 8003256:	3301      	adds	r3, #1
 8003258:	b29b      	uxth	r3, r3
 800325a:	4d0f      	ldr	r5, [pc, #60]	; (8003298 <tcp_new_port+0x50>)
 800325c:	42b3      	cmp	r3, r6
 800325e:	bf08      	it	eq
 8003260:	f44f 4340 	moveq.w	r3, #49152	; 0xc000
 8003264:	2104      	movs	r1, #4
 8003266:	f855 4b04 	ldr.w	r4, [r5], #4
 800326a:	6824      	ldr	r4, [r4, #0]
 800326c:	b934      	cbnz	r4, 800327c <tcp_new_port+0x34>
 800326e:	3901      	subs	r1, #1
 8003270:	f011 01ff 	ands.w	r1, r1, #255	; 0xff
 8003274:	d1f7      	bne.n	8003266 <tcp_new_port+0x1e>
 8003276:	8013      	strh	r3, [r2, #0]
 8003278:	4618      	mov	r0, r3
 800327a:	e007      	b.n	800328c <tcp_new_port+0x44>
 800327c:	8ae7      	ldrh	r7, [r4, #22]
 800327e:	429f      	cmp	r7, r3
 8003280:	d105      	bne.n	800328e <tcp_new_port+0x46>
 8003282:	3801      	subs	r0, #1
 8003284:	b280      	uxth	r0, r0
 8003286:	2800      	cmp	r0, #0
 8003288:	d1e5      	bne.n	8003256 <tcp_new_port+0xe>
 800328a:	8013      	strh	r3, [r2, #0]
 800328c:	bdf0      	pop	{r4, r5, r6, r7, pc}
 800328e:	68e4      	ldr	r4, [r4, #12]
 8003290:	e7ec      	b.n	800326c <tcp_new_port+0x24>
 8003292:	bf00      	nop
 8003294:	10000010 	.word	0x10000010
 8003298:	0800a394 	.word	0x0800a394

0800329c <tcp_close_shutdown_fin>:
 800329c:	b510      	push	{r4, lr}
 800329e:	4604      	mov	r4, r0
 80032a0:	b930      	cbnz	r0, 80032b0 <tcp_close_shutdown_fin+0x14>
 80032a2:	4b13      	ldr	r3, [pc, #76]	; (80032f0 <tcp_close_shutdown_fin+0x54>)
 80032a4:	4913      	ldr	r1, [pc, #76]	; (80032f4 <tcp_close_shutdown_fin+0x58>)
 80032a6:	4814      	ldr	r0, [pc, #80]	; (80032f8 <tcp_close_shutdown_fin+0x5c>)
 80032a8:	f44f 72ce 	mov.w	r2, #412	; 0x19c
 80032ac:	f005 f928 	bl	8008500 <iprintf>
 80032b0:	7d23      	ldrb	r3, [r4, #20]
 80032b2:	2b04      	cmp	r3, #4
 80032b4:	d003      	beq.n	80032be <tcp_close_shutdown_fin+0x22>
 80032b6:	2b07      	cmp	r3, #7
 80032b8:	d00c      	beq.n	80032d4 <tcp_close_shutdown_fin+0x38>
 80032ba:	2b03      	cmp	r3, #3
 80032bc:	d108      	bne.n	80032d0 <tcp_close_shutdown_fin+0x34>
 80032be:	4620      	mov	r0, r4
 80032c0:	f003 f8aa 	bl	8006418 <tcp_send_fin>
 80032c4:	b960      	cbnz	r0, 80032e0 <tcp_close_shutdown_fin+0x44>
 80032c6:	2305      	movs	r3, #5
 80032c8:	7523      	strb	r3, [r4, #20]
 80032ca:	4620      	mov	r0, r4
 80032cc:	f003 fa06 	bl	80066dc <tcp_output>
 80032d0:	2000      	movs	r0, #0
 80032d2:	bd10      	pop	{r4, pc}
 80032d4:	4620      	mov	r0, r4
 80032d6:	f003 f89f 	bl	8006418 <tcp_send_fin>
 80032da:	b908      	cbnz	r0, 80032e0 <tcp_close_shutdown_fin+0x44>
 80032dc:	2309      	movs	r3, #9
 80032de:	e7f3      	b.n	80032c8 <tcp_close_shutdown_fin+0x2c>
 80032e0:	1c43      	adds	r3, r0, #1
 80032e2:	d1f6      	bne.n	80032d2 <tcp_close_shutdown_fin+0x36>
 80032e4:	8b63      	ldrh	r3, [r4, #26]
 80032e6:	f043 0308 	orr.w	r3, r3, #8
 80032ea:	8363      	strh	r3, [r4, #26]
 80032ec:	e7f0      	b.n	80032d0 <tcp_close_shutdown_fin+0x34>
 80032ee:	bf00      	nop
 80032f0:	08009d63 	.word	0x08009d63
 80032f4:	08009d92 	.word	0x08009d92
 80032f8:	080095b5 	.word	0x080095b5

080032fc <tcp_init>:
 80032fc:	b508      	push	{r3, lr}
 80032fe:	f005 f917 	bl	8008530 <rand>
 8003302:	4b03      	ldr	r3, [pc, #12]	; (8003310 <tcp_init+0x14>)
 8003304:	ea6f 4080 	mvn.w	r0, r0, lsl #18
 8003308:	ea6f 4090 	mvn.w	r0, r0, lsr #18
 800330c:	8018      	strh	r0, [r3, #0]
 800330e:	bd08      	pop	{r3, pc}
 8003310:	10000010 	.word	0x10000010

08003314 <tcp_free>:
 8003314:	b510      	push	{r4, lr}
 8003316:	7d03      	ldrb	r3, [r0, #20]
 8003318:	2b01      	cmp	r3, #1
 800331a:	4604      	mov	r4, r0
 800331c:	d105      	bne.n	800332a <tcp_free+0x16>
 800331e:	4b06      	ldr	r3, [pc, #24]	; (8003338 <tcp_free+0x24>)
 8003320:	4906      	ldr	r1, [pc, #24]	; (800333c <tcp_free+0x28>)
 8003322:	4807      	ldr	r0, [pc, #28]	; (8003340 <tcp_free+0x2c>)
 8003324:	22d4      	movs	r2, #212	; 0xd4
 8003326:	f005 f8eb 	bl	8008500 <iprintf>
 800332a:	4621      	mov	r1, r4
 800332c:	2001      	movs	r0, #1
 800332e:	e8bd 4010 	ldmia.w	sp!, {r4, lr}
 8003332:	f7ff ba69 	b.w	8002808 <memp_free>
 8003336:	bf00      	nop
 8003338:	08009d63 	.word	0x08009d63
 800333c:	08009d9e 	.word	0x08009d9e
 8003340:	080095b5 	.word	0x080095b5

08003344 <tcp_bind>:
 8003344:	b5f8      	push	{r3, r4, r5, r6, r7, lr}
 8003346:	4d23      	ldr	r5, [pc, #140]	; (80033d4 <tcp_bind+0x90>)
 8003348:	4604      	mov	r4, r0
 800334a:	2900      	cmp	r1, #0
 800334c:	bf18      	it	ne
 800334e:	460d      	movne	r5, r1
 8003350:	b948      	cbnz	r0, 8003366 <tcp_bind+0x22>
 8003352:	4b21      	ldr	r3, [pc, #132]	; (80033d8 <tcp_bind+0x94>)
 8003354:	4921      	ldr	r1, [pc, #132]	; (80033dc <tcp_bind+0x98>)
 8003356:	4822      	ldr	r0, [pc, #136]	; (80033e0 <tcp_bind+0x9c>)
 8003358:	f240 22a9 	movw	r2, #681	; 0x2a9
 800335c:	f005 f8d0 	bl	8008500 <iprintf>
 8003360:	f06f 000f 	mvn.w	r0, #15
 8003364:	bdf8      	pop	{r3, r4, r5, r6, r7, pc}
 8003366:	7d03      	ldrb	r3, [r0, #20]
 8003368:	b14b      	cbz	r3, 800337e <tcp_bind+0x3a>
 800336a:	4b1b      	ldr	r3, [pc, #108]	; (80033d8 <tcp_bind+0x94>)
 800336c:	491d      	ldr	r1, [pc, #116]	; (80033e4 <tcp_bind+0xa0>)
 800336e:	481c      	ldr	r0, [pc, #112]	; (80033e0 <tcp_bind+0x9c>)
 8003370:	f240 22ab 	movw	r2, #683	; 0x2ab
 8003374:	f005 f8c4 	bl	8008500 <iprintf>
 8003378:	f06f 0005 	mvn.w	r0, #5
 800337c:	e7f2      	b.n	8003364 <tcp_bind+0x20>
 800337e:	b932      	cbnz	r2, 800338e <tcp_bind+0x4a>
 8003380:	f7ff ff62 	bl	8003248 <tcp_new_port>
 8003384:	4602      	mov	r2, r0
 8003386:	b950      	cbnz	r0, 800339e <tcp_bind+0x5a>
 8003388:	f06f 0001 	mvn.w	r0, #1
 800338c:	e7ea      	b.n	8003364 <tcp_bind+0x20>
 800338e:	4816      	ldr	r0, [pc, #88]	; (80033e8 <tcp_bind+0xa4>)
 8003390:	f850 1b04 	ldr.w	r1, [r0], #4
 8003394:	6809      	ldr	r1, [r1, #0]
 8003396:	b971      	cbnz	r1, 80033b6 <tcp_bind+0x72>
 8003398:	3301      	adds	r3, #1
 800339a:	2b04      	cmp	r3, #4
 800339c:	d1f8      	bne.n	8003390 <tcp_bind+0x4c>
 800339e:	682b      	ldr	r3, [r5, #0]
 80033a0:	b103      	cbz	r3, 80033a4 <tcp_bind+0x60>
 80033a2:	6023      	str	r3, [r4, #0]
 80033a4:	4b11      	ldr	r3, [pc, #68]	; (80033ec <tcp_bind+0xa8>)
 80033a6:	82e2      	strh	r2, [r4, #22]
 80033a8:	681a      	ldr	r2, [r3, #0]
 80033aa:	60e2      	str	r2, [r4, #12]
 80033ac:	601c      	str	r4, [r3, #0]
 80033ae:	f003 fc6b 	bl	8006c88 <tcp_timer_needed>
 80033b2:	2000      	movs	r0, #0
 80033b4:	e7d6      	b.n	8003364 <tcp_bind+0x20>
 80033b6:	8ace      	ldrh	r6, [r1, #22]
 80033b8:	4296      	cmp	r6, r2
 80033ba:	d105      	bne.n	80033c8 <tcp_bind+0x84>
 80033bc:	680f      	ldr	r7, [r1, #0]
 80033be:	b12f      	cbz	r7, 80033cc <tcp_bind+0x88>
 80033c0:	682e      	ldr	r6, [r5, #0]
 80033c2:	b11e      	cbz	r6, 80033cc <tcp_bind+0x88>
 80033c4:	42b7      	cmp	r7, r6
 80033c6:	d001      	beq.n	80033cc <tcp_bind+0x88>
 80033c8:	68c9      	ldr	r1, [r1, #12]
 80033ca:	e7e4      	b.n	8003396 <tcp_bind+0x52>
 80033cc:	f06f 0007 	mvn.w	r0, #7
 80033d0:	e7c8      	b.n	8003364 <tcp_bind+0x20>
 80033d2:	bf00      	nop
 80033d4:	0800b278 	.word	0x0800b278
 80033d8:	08009d63 	.word	0x08009d63
 80033dc:	08009daf 	.word	0x08009daf
 80033e0:	080095b5 	.word	0x080095b5
 80033e4:	08009dc5 	.word	0x08009dc5
 80033e8:	0800a394 	.word	0x0800a394
 80033ec:	2000a7a0 	.word	0x2000a7a0

080033f0 <tcp_listen_with_backlog_and_err>:
 80033f0:	b5f8      	push	{r3, r4, r5, r6, r7, lr}
 80033f2:	4616      	mov	r6, r2
 80033f4:	4605      	mov	r5, r0
 80033f6:	b968      	cbnz	r0, 8003414 <tcp_listen_with_backlog_and_err+0x24>
 80033f8:	4b29      	ldr	r3, [pc, #164]	; (80034a0 <tcp_listen_with_backlog_and_err+0xb0>)
 80033fa:	492a      	ldr	r1, [pc, #168]	; (80034a4 <tcp_listen_with_backlog_and_err+0xb4>)
 80033fc:	482a      	ldr	r0, [pc, #168]	; (80034a8 <tcp_listen_with_backlog_and_err+0xb8>)
 80033fe:	f240 3259 	movw	r2, #857	; 0x359
 8003402:	f005 f87d 	bl	8008500 <iprintf>
 8003406:	462c      	mov	r4, r5
 8003408:	f06f 030f 	mvn.w	r3, #15
 800340c:	b106      	cbz	r6, 8003410 <tcp_listen_with_backlog_and_err+0x20>
 800340e:	7033      	strb	r3, [r6, #0]
 8003410:	4620      	mov	r0, r4
 8003412:	bdf8      	pop	{r3, r4, r5, r6, r7, pc}
 8003414:	7d07      	ldrb	r7, [r0, #20]
 8003416:	b157      	cbz	r7, 800342e <tcp_listen_with_backlog_and_err+0x3e>
 8003418:	4b21      	ldr	r3, [pc, #132]	; (80034a0 <tcp_listen_with_backlog_and_err+0xb0>)
 800341a:	4924      	ldr	r1, [pc, #144]	; (80034ac <tcp_listen_with_backlog_and_err+0xbc>)
 800341c:	4822      	ldr	r0, [pc, #136]	; (80034a8 <tcp_listen_with_backlog_and_err+0xb8>)
 800341e:	f240 325a 	movw	r2, #858	; 0x35a
 8003422:	f005 f86d 	bl	8008500 <iprintf>
 8003426:	2400      	movs	r4, #0
 8003428:	f06f 030e 	mvn.w	r3, #14
 800342c:	e7ee      	b.n	800340c <tcp_listen_with_backlog_and_err+0x1c>
 800342e:	2002      	movs	r0, #2
 8003430:	f7ff f9ce 	bl	80027d0 <memp_malloc>
 8003434:	4604      	mov	r4, r0
 8003436:	2800      	cmp	r0, #0
 8003438:	d02f      	beq.n	800349a <tcp_listen_with_backlog_and_err+0xaa>
 800343a:	692b      	ldr	r3, [r5, #16]
 800343c:	6103      	str	r3, [r0, #16]
 800343e:	2201      	movs	r2, #1
 8003440:	8aeb      	ldrh	r3, [r5, #22]
 8003442:	82c3      	strh	r3, [r0, #22]
 8003444:	7502      	strb	r2, [r0, #20]
 8003446:	7d6a      	ldrb	r2, [r5, #21]
 8003448:	7542      	strb	r2, [r0, #21]
 800344a:	7a6a      	ldrb	r2, [r5, #9]
 800344c:	7242      	strb	r2, [r0, #9]
 800344e:	7207      	strb	r7, [r0, #8]
 8003450:	7aea      	ldrb	r2, [r5, #11]
 8003452:	72c2      	strb	r2, [r0, #11]
 8003454:	7aaa      	ldrb	r2, [r5, #10]
 8003456:	7282      	strb	r2, [r0, #10]
 8003458:	682a      	ldr	r2, [r5, #0]
 800345a:	6002      	str	r2, [r0, #0]
 800345c:	b13b      	cbz	r3, 800346e <tcp_listen_with_backlog_and_err+0x7e>
 800345e:	4a14      	ldr	r2, [pc, #80]	; (80034b0 <tcp_listen_with_backlog_and_err+0xc0>)
 8003460:	6813      	ldr	r3, [r2, #0]
 8003462:	42ab      	cmp	r3, r5
 8003464:	d111      	bne.n	800348a <tcp_listen_with_backlog_and_err+0x9a>
 8003466:	68eb      	ldr	r3, [r5, #12]
 8003468:	6013      	str	r3, [r2, #0]
 800346a:	2300      	movs	r3, #0
 800346c:	60eb      	str	r3, [r5, #12]
 800346e:	4628      	mov	r0, r5
 8003470:	f7ff ff50 	bl	8003314 <tcp_free>
 8003474:	4b0f      	ldr	r3, [pc, #60]	; (80034b4 <tcp_listen_with_backlog_and_err+0xc4>)
 8003476:	61a3      	str	r3, [r4, #24]
 8003478:	4b0f      	ldr	r3, [pc, #60]	; (80034b8 <tcp_listen_with_backlog_and_err+0xc8>)
 800347a:	681a      	ldr	r2, [r3, #0]
 800347c:	60e2      	str	r2, [r4, #12]
 800347e:	601c      	str	r4, [r3, #0]
 8003480:	f003 fc02 	bl	8006c88 <tcp_timer_needed>
 8003484:	2300      	movs	r3, #0
 8003486:	e7c1      	b.n	800340c <tcp_listen_with_backlog_and_err+0x1c>
 8003488:	4613      	mov	r3, r2
 800348a:	2b00      	cmp	r3, #0
 800348c:	d0ed      	beq.n	800346a <tcp_listen_with_backlog_and_err+0x7a>
 800348e:	68da      	ldr	r2, [r3, #12]
 8003490:	42aa      	cmp	r2, r5
 8003492:	d1f9      	bne.n	8003488 <tcp_listen_with_backlog_and_err+0x98>
 8003494:	68ea      	ldr	r2, [r5, #12]
 8003496:	60da      	str	r2, [r3, #12]
 8003498:	e7e7      	b.n	800346a <tcp_listen_with_backlog_and_err+0x7a>
 800349a:	f04f 33ff 	mov.w	r3, #4294967295
 800349e:	e7b5      	b.n	800340c <tcp_listen_with_backlog_and_err+0x1c>
 80034a0:	08009d63 	.word	0x08009d63
 80034a4:	08009ded 	.word	0x08009ded
 80034a8:	080095b5 	.word	0x080095b5
 80034ac:	08009e1a 	.word	0x08009e1a
 80034b0:	2000a7a0 	.word	0x2000a7a0
 80034b4:	080039e9 	.word	0x080039e9
 80034b8:	2000a79c 	.word	0x2000a79c

080034bc <tcp_listen_with_backlog>:
 80034bc:	2200      	movs	r2, #0
 80034be:	f7ff bf97 	b.w	80033f0 <tcp_listen_with_backlog_and_err>
	...

080034c4 <tcp_update_rcv_ann_wnd>:
 80034c4:	b570      	push	{r4, r5, r6, lr}
 80034c6:	4604      	mov	r4, r0
 80034c8:	b930      	cbnz	r0, 80034d8 <tcp_update_rcv_ann_wnd+0x14>
 80034ca:	4b15      	ldr	r3, [pc, #84]	; (8003520 <tcp_update_rcv_ann_wnd+0x5c>)
 80034cc:	4915      	ldr	r1, [pc, #84]	; (8003524 <tcp_update_rcv_ann_wnd+0x60>)
 80034ce:	4816      	ldr	r0, [pc, #88]	; (8003528 <tcp_update_rcv_ann_wnd+0x64>)
 80034d0:	f240 32a6 	movw	r2, #934	; 0x3a6
 80034d4:	f005 f814 	bl	8008500 <iprintf>
 80034d8:	8d21      	ldrh	r1, [r4, #40]	; 0x28
 80034da:	6ae3      	ldr	r3, [r4, #44]	; 0x2c
 80034dc:	8e62      	ldrh	r2, [r4, #50]	; 0x32
 80034de:	6a65      	ldr	r5, [r4, #36]	; 0x24
 80034e0:	f240 4621 	movw	r6, #1057	; 0x421
 80034e4:	1ac8      	subs	r0, r1, r3
 80034e6:	42b2      	cmp	r2, r6
 80034e8:	4428      	add	r0, r5
 80034ea:	bf94      	ite	ls
 80034ec:	1a82      	subls	r2, r0, r2
 80034ee:	1b82      	subhi	r2, r0, r6
 80034f0:	2a00      	cmp	r2, #0
 80034f2:	db01      	blt.n	80034f8 <tcp_update_rcv_ann_wnd+0x34>
 80034f4:	8561      	strh	r1, [r4, #42]	; 0x2a
 80034f6:	bd70      	pop	{r4, r5, r6, pc}
 80034f8:	1aea      	subs	r2, r5, r3
 80034fa:	2a00      	cmp	r2, #0
 80034fc:	dd02      	ble.n	8003504 <tcp_update_rcv_ann_wnd+0x40>
 80034fe:	2000      	movs	r0, #0
 8003500:	8560      	strh	r0, [r4, #42]	; 0x2a
 8003502:	e7f8      	b.n	80034f6 <tcp_update_rcv_ann_wnd+0x32>
 8003504:	1b5d      	subs	r5, r3, r5
 8003506:	f5b5 3f80 	cmp.w	r5, #65536	; 0x10000
 800350a:	d306      	bcc.n	800351a <tcp_update_rcv_ann_wnd+0x56>
 800350c:	4b04      	ldr	r3, [pc, #16]	; (8003520 <tcp_update_rcv_ann_wnd+0x5c>)
 800350e:	4907      	ldr	r1, [pc, #28]	; (800352c <tcp_update_rcv_ann_wnd+0x68>)
 8003510:	4805      	ldr	r0, [pc, #20]	; (8003528 <tcp_update_rcv_ann_wnd+0x64>)
 8003512:	f240 32b6 	movw	r2, #950	; 0x3b6
 8003516:	f004 fff3 	bl	8008500 <iprintf>
 800351a:	8565      	strh	r5, [r4, #42]	; 0x2a
 800351c:	2000      	movs	r0, #0
 800351e:	e7ea      	b.n	80034f6 <tcp_update_rcv_ann_wnd+0x32>
 8003520:	08009d63 	.word	0x08009d63
 8003524:	08009e51 	.word	0x08009e51
 8003528:	080095b5 	.word	0x080095b5
 800352c:	08009e75 	.word	0x08009e75

08003530 <tcp_recved>:
 8003530:	b570      	push	{r4, r5, r6, lr}
 8003532:	460c      	mov	r4, r1
 8003534:	4605      	mov	r5, r0
 8003536:	b940      	cbnz	r0, 800354a <tcp_recved+0x1a>
 8003538:	e8bd 4070 	ldmia.w	sp!, {r4, r5, r6, lr}
 800353c:	4b16      	ldr	r3, [pc, #88]	; (8003598 <tcp_recved+0x68>)
 800353e:	4917      	ldr	r1, [pc, #92]	; (800359c <tcp_recved+0x6c>)
 8003540:	4817      	ldr	r0, [pc, #92]	; (80035a0 <tcp_recved+0x70>)
 8003542:	f240 32cf 	movw	r2, #975	; 0x3cf
 8003546:	f004 bfdb 	b.w	8008500 <iprintf>
 800354a:	7d03      	ldrb	r3, [r0, #20]
 800354c:	2b01      	cmp	r3, #1
 800354e:	d106      	bne.n	800355e <tcp_recved+0x2e>
 8003550:	4b11      	ldr	r3, [pc, #68]	; (8003598 <tcp_recved+0x68>)
 8003552:	4914      	ldr	r1, [pc, #80]	; (80035a4 <tcp_recved+0x74>)
 8003554:	4812      	ldr	r0, [pc, #72]	; (80035a0 <tcp_recved+0x70>)
 8003556:	f240 32d2 	movw	r2, #978	; 0x3d2
 800355a:	f004 ffd1 	bl	8008500 <iprintf>
 800355e:	8d2a      	ldrh	r2, [r5, #40]	; 0x28
 8003560:	1911      	adds	r1, r2, r4
 8003562:	b289      	uxth	r1, r1
 8003564:	f640 0342 	movw	r3, #2114	; 0x842
 8003568:	4299      	cmp	r1, r3
 800356a:	d812      	bhi.n	8003592 <tcp_recved+0x62>
 800356c:	428a      	cmp	r2, r1
 800356e:	bf88      	it	hi
 8003570:	4619      	movhi	r1, r3
 8003572:	8529      	strh	r1, [r5, #40]	; 0x28
 8003574:	4628      	mov	r0, r5
 8003576:	f7ff ffa5 	bl	80034c4 <tcp_update_rcv_ann_wnd>
 800357a:	f5b0 7f04 	cmp.w	r0, #528	; 0x210
 800357e:	d30a      	bcc.n	8003596 <tcp_recved+0x66>
 8003580:	8b6b      	ldrh	r3, [r5, #26]
 8003582:	f043 0302 	orr.w	r3, r3, #2
 8003586:	836b      	strh	r3, [r5, #26]
 8003588:	4628      	mov	r0, r5
 800358a:	e8bd 4070 	ldmia.w	sp!, {r4, r5, r6, lr}
 800358e:	f003 b8a5 	b.w	80066dc <tcp_output>
 8003592:	4619      	mov	r1, r3
 8003594:	e7ed      	b.n	8003572 <tcp_recved+0x42>
 8003596:	bd70      	pop	{r4, r5, r6, pc}
 8003598:	08009d63 	.word	0x08009d63
 800359c:	08009e8f 	.word	0x08009e8f
 80035a0:	080095b5 	.word	0x080095b5
 80035a4:	08009ea7 	.word	0x08009ea7

080035a8 <tcp_seg_free>:
 80035a8:	b510      	push	{r4, lr}
 80035aa:	4604      	mov	r4, r0
 80035ac:	b148      	cbz	r0, 80035c2 <tcp_seg_free+0x1a>
 80035ae:	6840      	ldr	r0, [r0, #4]
 80035b0:	b108      	cbz	r0, 80035b6 <tcp_seg_free+0xe>
 80035b2:	f7ff fb67 	bl	8002c84 <pbuf_free>
 80035b6:	4621      	mov	r1, r4
 80035b8:	2003      	movs	r0, #3
 80035ba:	e8bd 4010 	ldmia.w	sp!, {r4, lr}
 80035be:	f7ff b923 	b.w	8002808 <memp_free>
 80035c2:	bd10      	pop	{r4, pc}

080035c4 <tcp_segs_free>:
 80035c4:	b510      	push	{r4, lr}
 80035c6:	b900      	cbnz	r0, 80035ca <tcp_segs_free+0x6>
 80035c8:	bd10      	pop	{r4, pc}
 80035ca:	6804      	ldr	r4, [r0, #0]
 80035cc:	f7ff ffec 	bl	80035a8 <tcp_seg_free>
 80035d0:	4620      	mov	r0, r4
 80035d2:	e7f8      	b.n	80035c6 <tcp_segs_free+0x2>

080035d4 <tcp_setprio>:
 80035d4:	b930      	cbnz	r0, 80035e4 <tcp_setprio+0x10>
 80035d6:	4b04      	ldr	r3, [pc, #16]	; (80035e8 <tcp_setprio+0x14>)
 80035d8:	4904      	ldr	r1, [pc, #16]	; (80035ec <tcp_setprio+0x18>)
 80035da:	4805      	ldr	r0, [pc, #20]	; (80035f0 <tcp_setprio+0x1c>)
 80035dc:	f44f 62ce 	mov.w	r2, #1648	; 0x670
 80035e0:	f004 bf8e 	b.w	8008500 <iprintf>
 80035e4:	7541      	strb	r1, [r0, #21]
 80035e6:	4770      	bx	lr
 80035e8:	08009d63 	.word	0x08009d63
 80035ec:	08009ecd 	.word	0x08009ecd
 80035f0:	080095b5 	.word	0x080095b5

080035f4 <tcp_seg_copy>:
 80035f4:	b538      	push	{r3, r4, r5, lr}
 80035f6:	4604      	mov	r4, r0
 80035f8:	b930      	cbnz	r0, 8003608 <tcp_seg_copy+0x14>
 80035fa:	4b0d      	ldr	r3, [pc, #52]	; (8003630 <tcp_seg_copy+0x3c>)
 80035fc:	490d      	ldr	r1, [pc, #52]	; (8003634 <tcp_seg_copy+0x40>)
 80035fe:	480e      	ldr	r0, [pc, #56]	; (8003638 <tcp_seg_copy+0x44>)
 8003600:	f240 6282 	movw	r2, #1666	; 0x682
 8003604:	f004 ff7c 	bl	8008500 <iprintf>
 8003608:	2003      	movs	r0, #3
 800360a:	f7ff f8e1 	bl	80027d0 <memp_malloc>
 800360e:	4605      	mov	r5, r0
 8003610:	b160      	cbz	r0, 800362c <tcp_seg_copy+0x38>
 8003612:	4623      	mov	r3, r4
 8003614:	4602      	mov	r2, r0
 8003616:	f104 0110 	add.w	r1, r4, #16
 800361a:	f853 0b04 	ldr.w	r0, [r3], #4
 800361e:	f842 0b04 	str.w	r0, [r2], #4
 8003622:	428b      	cmp	r3, r1
 8003624:	d1f9      	bne.n	800361a <tcp_seg_copy+0x26>
 8003626:	6868      	ldr	r0, [r5, #4]
 8003628:	f7ff fc74 	bl	8002f14 <pbuf_ref>
 800362c:	4628      	mov	r0, r5
 800362e:	bd38      	pop	{r3, r4, r5, pc}
 8003630:	08009d63 	.word	0x08009d63
 8003634:	08009ee6 	.word	0x08009ee6
 8003638:	080095b5 	.word	0x080095b5

0800363c <tcp_arg>:
 800363c:	b100      	cbz	r0, 8003640 <tcp_arg+0x4>
 800363e:	6101      	str	r1, [r0, #16]
 8003640:	4770      	bx	lr
	...

08003644 <tcp_recv>:
 8003644:	b538      	push	{r3, r4, r5, lr}
 8003646:	460d      	mov	r5, r1
 8003648:	4604      	mov	r4, r0
 800364a:	b158      	cbz	r0, 8003664 <tcp_recv+0x20>
 800364c:	7d03      	ldrb	r3, [r0, #20]
 800364e:	2b01      	cmp	r3, #1
 8003650:	d106      	bne.n	8003660 <tcp_recv+0x1c>
 8003652:	4b05      	ldr	r3, [pc, #20]	; (8003668 <tcp_recv+0x24>)
 8003654:	4905      	ldr	r1, [pc, #20]	; (800366c <tcp_recv+0x28>)
 8003656:	4806      	ldr	r0, [pc, #24]	; (8003670 <tcp_recv+0x2c>)
 8003658:	f240 72df 	movw	r2, #2015	; 0x7df
 800365c:	f004 ff50 	bl	8008500 <iprintf>
 8003660:	f8c4 5084 	str.w	r5, [r4, #132]	; 0x84
 8003664:	bd38      	pop	{r3, r4, r5, pc}
 8003666:	bf00      	nop
 8003668:	08009d63 	.word	0x08009d63
 800366c:	08009f00 	.word	0x08009f00
 8003670:	080095b5 	.word	0x080095b5

08003674 <tcp_sent>:
 8003674:	b538      	push	{r3, r4, r5, lr}
 8003676:	460d      	mov	r5, r1
 8003678:	4604      	mov	r4, r0
 800367a:	b158      	cbz	r0, 8003694 <tcp_sent+0x20>
 800367c:	7d03      	ldrb	r3, [r0, #20]
 800367e:	2b01      	cmp	r3, #1
 8003680:	d106      	bne.n	8003690 <tcp_sent+0x1c>
 8003682:	4b05      	ldr	r3, [pc, #20]	; (8003698 <tcp_sent+0x24>)
 8003684:	4905      	ldr	r1, [pc, #20]	; (800369c <tcp_sent+0x28>)
 8003686:	4806      	ldr	r0, [pc, #24]	; (80036a0 <tcp_sent+0x2c>)
 8003688:	f240 72f3 	movw	r2, #2035	; 0x7f3
 800368c:	f004 ff38 	bl	8008500 <iprintf>
 8003690:	f8c4 5080 	str.w	r5, [r4, #128]	; 0x80
 8003694:	bd38      	pop	{r3, r4, r5, pc}
 8003696:	bf00      	nop
 8003698:	08009d63 	.word	0x08009d63
 800369c:	08009f27 	.word	0x08009f27
 80036a0:	080095b5 	.word	0x080095b5

080036a4 <tcp_err>:
 80036a4:	b538      	push	{r3, r4, r5, lr}
 80036a6:	460d      	mov	r5, r1
 80036a8:	4604      	mov	r4, r0
 80036aa:	b158      	cbz	r0, 80036c4 <tcp_err+0x20>
 80036ac:	7d03      	ldrb	r3, [r0, #20]
 80036ae:	2b01      	cmp	r3, #1
 80036b0:	d106      	bne.n	80036c0 <tcp_err+0x1c>
 80036b2:	4b05      	ldr	r3, [pc, #20]	; (80036c8 <tcp_err+0x24>)
 80036b4:	4905      	ldr	r1, [pc, #20]	; (80036cc <tcp_err+0x28>)
 80036b6:	4806      	ldr	r0, [pc, #24]	; (80036d0 <tcp_err+0x2c>)
 80036b8:	f640 020d 	movw	r2, #2061	; 0x80d
 80036bc:	f004 ff20 	bl	8008500 <iprintf>
 80036c0:	f8c4 5090 	str.w	r5, [r4, #144]	; 0x90
 80036c4:	bd38      	pop	{r3, r4, r5, pc}
 80036c6:	bf00      	nop
 80036c8:	08009d63 	.word	0x08009d63
 80036cc:	08009f4e 	.word	0x08009f4e
 80036d0:	080095b5 	.word	0x080095b5

080036d4 <tcp_accept>:
 80036d4:	b118      	cbz	r0, 80036de <tcp_accept+0xa>
 80036d6:	7d03      	ldrb	r3, [r0, #20]
 80036d8:	2b01      	cmp	r3, #1
 80036da:	bf08      	it	eq
 80036dc:	6181      	streq	r1, [r0, #24]
 80036de:	4770      	bx	lr

080036e0 <tcp_poll>:
 80036e0:	b570      	push	{r4, r5, r6, lr}
 80036e2:	460e      	mov	r6, r1
 80036e4:	4615      	mov	r5, r2
 80036e6:	4604      	mov	r4, r0
 80036e8:	b940      	cbnz	r0, 80036fc <tcp_poll+0x1c>
 80036ea:	e8bd 4070 	ldmia.w	sp!, {r4, r5, r6, lr}
 80036ee:	4b0a      	ldr	r3, [pc, #40]	; (8003718 <tcp_poll+0x38>)
 80036f0:	490a      	ldr	r1, [pc, #40]	; (800371c <tcp_poll+0x3c>)
 80036f2:	480b      	ldr	r0, [pc, #44]	; (8003720 <tcp_poll+0x40>)
 80036f4:	f640 023d 	movw	r2, #2109	; 0x83d
 80036f8:	f004 bf02 	b.w	8008500 <iprintf>
 80036fc:	7d03      	ldrb	r3, [r0, #20]
 80036fe:	2b01      	cmp	r3, #1
 8003700:	d106      	bne.n	8003710 <tcp_poll+0x30>
 8003702:	4b05      	ldr	r3, [pc, #20]	; (8003718 <tcp_poll+0x38>)
 8003704:	4907      	ldr	r1, [pc, #28]	; (8003724 <tcp_poll+0x44>)
 8003706:	4806      	ldr	r0, [pc, #24]	; (8003720 <tcp_poll+0x40>)
 8003708:	f640 023e 	movw	r2, #2110	; 0x83e
 800370c:	f004 fef8 	bl	8008500 <iprintf>
 8003710:	7765      	strb	r5, [r4, #29]
 8003712:	f8c4 608c 	str.w	r6, [r4, #140]	; 0x8c
 8003716:	bd70      	pop	{r4, r5, r6, pc}
 8003718:	08009d63 	.word	0x08009d63
 800371c:	08009f74 	.word	0x08009f74
 8003720:	080095b5 	.word	0x080095b5
 8003724:	08009f8a 	.word	0x08009f8a

08003728 <tcp_next_iss>:
 8003728:	b508      	push	{r3, lr}
 800372a:	b930      	cbnz	r0, 800373a <tcp_next_iss+0x12>
 800372c:	4b06      	ldr	r3, [pc, #24]	; (8003748 <tcp_next_iss+0x20>)
 800372e:	4907      	ldr	r1, [pc, #28]	; (800374c <tcp_next_iss+0x24>)
 8003730:	4807      	ldr	r0, [pc, #28]	; (8003750 <tcp_next_iss+0x28>)
 8003732:	f640 02af 	movw	r2, #2223	; 0x8af
 8003736:	f004 fee3 	bl	8008500 <iprintf>
 800373a:	4b06      	ldr	r3, [pc, #24]	; (8003754 <tcp_next_iss+0x2c>)
 800373c:	4a06      	ldr	r2, [pc, #24]	; (8003758 <tcp_next_iss+0x30>)
 800373e:	6818      	ldr	r0, [r3, #0]
 8003740:	6812      	ldr	r2, [r2, #0]
 8003742:	4410      	add	r0, r2
 8003744:	6018      	str	r0, [r3, #0]
 8003746:	bd08      	pop	{r3, pc}
 8003748:	08009d63 	.word	0x08009d63
 800374c:	08009fa8 	.word	0x08009fa8
 8003750:	080095b5 	.word	0x080095b5
 8003754:	1000000c 	.word	0x1000000c
 8003758:	2000a798 	.word	0x2000a798

0800375c <tcp_eff_send_mss_netif>:
 800375c:	b538      	push	{r3, r4, r5, lr}
 800375e:	4604      	mov	r4, r0
 8003760:	460d      	mov	r5, r1
 8003762:	b932      	cbnz	r2, 8003772 <tcp_eff_send_mss_netif+0x16>
 8003764:	4b09      	ldr	r3, [pc, #36]	; (800378c <tcp_eff_send_mss_netif+0x30>)
 8003766:	490a      	ldr	r1, [pc, #40]	; (8003790 <tcp_eff_send_mss_netif+0x34>)
 8003768:	480a      	ldr	r0, [pc, #40]	; (8003794 <tcp_eff_send_mss_netif+0x38>)
 800376a:	f640 02c5 	movw	r2, #2245	; 0x8c5
 800376e:	f004 fec7 	bl	8008500 <iprintf>
 8003772:	b14d      	cbz	r5, 8003788 <tcp_eff_send_mss_netif+0x2c>
 8003774:	8cab      	ldrh	r3, [r5, #36]	; 0x24
 8003776:	b13b      	cbz	r3, 8003788 <tcp_eff_send_mss_netif+0x2c>
 8003778:	2b28      	cmp	r3, #40	; 0x28
 800377a:	bf86      	itte	hi
 800377c:	3b28      	subhi	r3, #40	; 0x28
 800377e:	b29b      	uxthhi	r3, r3
 8003780:	2300      	movls	r3, #0
 8003782:	429c      	cmp	r4, r3
 8003784:	bf28      	it	cs
 8003786:	461c      	movcs	r4, r3
 8003788:	4620      	mov	r0, r4
 800378a:	bd38      	pop	{r3, r4, r5, pc}
 800378c:	08009d63 	.word	0x08009d63
 8003790:	08009fc2 	.word	0x08009fc2
 8003794:	080095b5 	.word	0x080095b5

08003798 <tcp_free_ooseq>:
 8003798:	b510      	push	{r4, lr}
 800379a:	4604      	mov	r4, r0
 800379c:	6f40      	ldr	r0, [r0, #116]	; 0x74
 800379e:	b118      	cbz	r0, 80037a8 <tcp_free_ooseq+0x10>
 80037a0:	f7ff ff10 	bl	80035c4 <tcp_segs_free>
 80037a4:	2300      	movs	r3, #0
 80037a6:	6763      	str	r3, [r4, #116]	; 0x74
 80037a8:	bd10      	pop	{r4, pc}
	...

080037ac <tcp_pcb_purge>:
 80037ac:	b510      	push	{r4, lr}
 80037ae:	4604      	mov	r4, r0
 80037b0:	b940      	cbnz	r0, 80037c4 <tcp_pcb_purge+0x18>
 80037b2:	e8bd 4010 	ldmia.w	sp!, {r4, lr}
 80037b6:	4b13      	ldr	r3, [pc, #76]	; (8003804 <tcp_pcb_purge+0x58>)
 80037b8:	4913      	ldr	r1, [pc, #76]	; (8003808 <tcp_pcb_purge+0x5c>)
 80037ba:	4814      	ldr	r0, [pc, #80]	; (800380c <tcp_pcb_purge+0x60>)
 80037bc:	f640 0251 	movw	r2, #2129	; 0x851
 80037c0:	f004 be9e 	b.w	8008500 <iprintf>
 80037c4:	7d03      	ldrb	r3, [r0, #20]
 80037c6:	2b01      	cmp	r3, #1
 80037c8:	d91a      	bls.n	8003800 <tcp_pcb_purge+0x54>
 80037ca:	2b0a      	cmp	r3, #10
 80037cc:	d018      	beq.n	8003800 <tcp_pcb_purge+0x54>
 80037ce:	6f80      	ldr	r0, [r0, #120]	; 0x78
 80037d0:	b118      	cbz	r0, 80037da <tcp_pcb_purge+0x2e>
 80037d2:	f7ff fa57 	bl	8002c84 <pbuf_free>
 80037d6:	2300      	movs	r3, #0
 80037d8:	67a3      	str	r3, [r4, #120]	; 0x78
 80037da:	6f63      	ldr	r3, [r4, #116]	; 0x74
 80037dc:	b113      	cbz	r3, 80037e4 <tcp_pcb_purge+0x38>
 80037de:	4620      	mov	r0, r4
 80037e0:	f7ff ffda 	bl	8003798 <tcp_free_ooseq>
 80037e4:	f64f 73ff 	movw	r3, #65535	; 0xffff
 80037e8:	8623      	strh	r3, [r4, #48]	; 0x30
 80037ea:	6ee0      	ldr	r0, [r4, #108]	; 0x6c
 80037ec:	f7ff feea 	bl	80035c4 <tcp_segs_free>
 80037f0:	6f20      	ldr	r0, [r4, #112]	; 0x70
 80037f2:	f7ff fee7 	bl	80035c4 <tcp_segs_free>
 80037f6:	2300      	movs	r3, #0
 80037f8:	e9c4 331b 	strd	r3, r3, [r4, #108]	; 0x6c
 80037fc:	f8a4 3068 	strh.w	r3, [r4, #104]	; 0x68
 8003800:	bd10      	pop	{r4, pc}
 8003802:	bf00      	nop
 8003804:	08009d63 	.word	0x08009d63
 8003808:	08009fe9 	.word	0x08009fe9
 800380c:	080095b5 	.word	0x080095b5

08003810 <tcp_pcb_remove>:
 8003810:	b538      	push	{r3, r4, r5, lr}
 8003812:	4605      	mov	r5, r0
 8003814:	460c      	mov	r4, r1
 8003816:	b931      	cbnz	r1, 8003826 <tcp_pcb_remove+0x16>
 8003818:	4b29      	ldr	r3, [pc, #164]	; (80038c0 <tcp_pcb_remove+0xb0>)
 800381a:	492a      	ldr	r1, [pc, #168]	; (80038c4 <tcp_pcb_remove+0xb4>)
 800381c:	482a      	ldr	r0, [pc, #168]	; (80038c8 <tcp_pcb_remove+0xb8>)
 800381e:	f640 0283 	movw	r2, #2179	; 0x883
 8003822:	f004 fe6d 	bl	8008500 <iprintf>
 8003826:	b935      	cbnz	r5, 8003836 <tcp_pcb_remove+0x26>
 8003828:	4b25      	ldr	r3, [pc, #148]	; (80038c0 <tcp_pcb_remove+0xb0>)
 800382a:	4928      	ldr	r1, [pc, #160]	; (80038cc <tcp_pcb_remove+0xbc>)
 800382c:	4826      	ldr	r0, [pc, #152]	; (80038c8 <tcp_pcb_remove+0xb8>)
 800382e:	f640 0284 	movw	r2, #2180	; 0x884
 8003832:	f004 fe65 	bl	8008500 <iprintf>
 8003836:	682b      	ldr	r3, [r5, #0]
 8003838:	42a3      	cmp	r3, r4
 800383a:	d11f      	bne.n	800387c <tcp_pcb_remove+0x6c>
 800383c:	68e3      	ldr	r3, [r4, #12]
 800383e:	602b      	str	r3, [r5, #0]
 8003840:	2300      	movs	r3, #0
 8003842:	60e3      	str	r3, [r4, #12]
 8003844:	4620      	mov	r0, r4
 8003846:	f7ff ffb1 	bl	80037ac <tcp_pcb_purge>
 800384a:	7d23      	ldrb	r3, [r4, #20]
 800384c:	2b0a      	cmp	r3, #10
 800384e:	d11d      	bne.n	800388c <tcp_pcb_remove+0x7c>
 8003850:	6ee3      	ldr	r3, [r4, #108]	; 0x6c
 8003852:	bb6b      	cbnz	r3, 80038b0 <tcp_pcb_remove+0xa0>
 8003854:	6f23      	ldr	r3, [r4, #112]	; 0x70
 8003856:	b133      	cbz	r3, 8003866 <tcp_pcb_remove+0x56>
 8003858:	4b19      	ldr	r3, [pc, #100]	; (80038c0 <tcp_pcb_remove+0xb0>)
 800385a:	491d      	ldr	r1, [pc, #116]	; (80038d0 <tcp_pcb_remove+0xc0>)
 800385c:	481a      	ldr	r0, [pc, #104]	; (80038c8 <tcp_pcb_remove+0xb8>)
 800385e:	f640 0294 	movw	r2, #2196	; 0x894
 8003862:	f004 fe4d 	bl	8008500 <iprintf>
 8003866:	6f63      	ldr	r3, [r4, #116]	; 0x74
 8003868:	b1f3      	cbz	r3, 80038a8 <tcp_pcb_remove+0x98>
 800386a:	4b15      	ldr	r3, [pc, #84]	; (80038c0 <tcp_pcb_remove+0xb0>)
 800386c:	4919      	ldr	r1, [pc, #100]	; (80038d4 <tcp_pcb_remove+0xc4>)
 800386e:	4816      	ldr	r0, [pc, #88]	; (80038c8 <tcp_pcb_remove+0xb8>)
 8003870:	f640 0296 	movw	r2, #2198	; 0x896
 8003874:	f004 fe44 	bl	8008500 <iprintf>
 8003878:	e016      	b.n	80038a8 <tcp_pcb_remove+0x98>
 800387a:	4613      	mov	r3, r2
 800387c:	2b00      	cmp	r3, #0
 800387e:	d0df      	beq.n	8003840 <tcp_pcb_remove+0x30>
 8003880:	68da      	ldr	r2, [r3, #12]
 8003882:	42a2      	cmp	r2, r4
 8003884:	d1f9      	bne.n	800387a <tcp_pcb_remove+0x6a>
 8003886:	68e2      	ldr	r2, [r4, #12]
 8003888:	60da      	str	r2, [r3, #12]
 800388a:	e7d9      	b.n	8003840 <tcp_pcb_remove+0x30>
 800388c:	2b01      	cmp	r3, #1
 800388e:	d00b      	beq.n	80038a8 <tcp_pcb_remove+0x98>
 8003890:	8b63      	ldrh	r3, [r4, #26]
 8003892:	07da      	lsls	r2, r3, #31
 8003894:	d5dc      	bpl.n	8003850 <tcp_pcb_remove+0x40>
 8003896:	f043 0302 	orr.w	r3, r3, #2
 800389a:	8363      	strh	r3, [r4, #26]
 800389c:	4620      	mov	r0, r4
 800389e:	f002 ff1d 	bl	80066dc <tcp_output>
 80038a2:	7d23      	ldrb	r3, [r4, #20]
 80038a4:	2b01      	cmp	r3, #1
 80038a6:	d1d3      	bne.n	8003850 <tcp_pcb_remove+0x40>
 80038a8:	2300      	movs	r3, #0
 80038aa:	7523      	strb	r3, [r4, #20]
 80038ac:	82e3      	strh	r3, [r4, #22]
 80038ae:	bd38      	pop	{r3, r4, r5, pc}
 80038b0:	4b03      	ldr	r3, [pc, #12]	; (80038c0 <tcp_pcb_remove+0xb0>)
 80038b2:	4909      	ldr	r1, [pc, #36]	; (80038d8 <tcp_pcb_remove+0xc8>)
 80038b4:	4804      	ldr	r0, [pc, #16]	; (80038c8 <tcp_pcb_remove+0xb8>)
 80038b6:	f640 0293 	movw	r2, #2195	; 0x893
 80038ba:	f004 fe21 	bl	8008500 <iprintf>
 80038be:	e7c9      	b.n	8003854 <tcp_pcb_remove+0x44>
 80038c0:	08009d63 	.word	0x08009d63
 80038c4:	0800a004 	.word	0x0800a004
 80038c8:	080095b5 	.word	0x080095b5
 80038cc:	0800a020 	.word	0x0800a020
 80038d0:	0800a058 	.word	0x0800a058
 80038d4:	0800a071 	.word	0x0800a071
 80038d8:	0800a040 	.word	0x0800a040

080038dc <tcp_abandon>:
 80038dc:	e92d 47ff 	stmdb	sp!, {r0, r1, r2, r3, r4, r5, r6, r7, r8, r9, sl, lr}
 80038e0:	460e      	mov	r6, r1
 80038e2:	4604      	mov	r4, r0
 80038e4:	b948      	cbnz	r0, 80038fa <tcp_abandon+0x1e>
 80038e6:	4b36      	ldr	r3, [pc, #216]	; (80039c0 <tcp_abandon+0xe4>)
 80038e8:	4936      	ldr	r1, [pc, #216]	; (80039c4 <tcp_abandon+0xe8>)
 80038ea:	4837      	ldr	r0, [pc, #220]	; (80039c8 <tcp_abandon+0xec>)
 80038ec:	f240 223d 	movw	r2, #573	; 0x23d
 80038f0:	b004      	add	sp, #16
 80038f2:	e8bd 47f0 	ldmia.w	sp!, {r4, r5, r6, r7, r8, r9, sl, lr}
 80038f6:	f004 be03 	b.w	8008500 <iprintf>
 80038fa:	7d03      	ldrb	r3, [r0, #20]
 80038fc:	2b01      	cmp	r3, #1
 80038fe:	d106      	bne.n	800390e <tcp_abandon+0x32>
 8003900:	4b2f      	ldr	r3, [pc, #188]	; (80039c0 <tcp_abandon+0xe4>)
 8003902:	4932      	ldr	r1, [pc, #200]	; (80039cc <tcp_abandon+0xf0>)
 8003904:	4830      	ldr	r0, [pc, #192]	; (80039c8 <tcp_abandon+0xec>)
 8003906:	f44f 7210 	mov.w	r2, #576	; 0x240
 800390a:	f004 fdf9 	bl	8008500 <iprintf>
 800390e:	7d23      	ldrb	r3, [r4, #20]
 8003910:	2b0a      	cmp	r3, #10
 8003912:	d109      	bne.n	8003928 <tcp_abandon+0x4c>
 8003914:	482e      	ldr	r0, [pc, #184]	; (80039d0 <tcp_abandon+0xf4>)
 8003916:	4621      	mov	r1, r4
 8003918:	f7ff ff7a 	bl	8003810 <tcp_pcb_remove>
 800391c:	4620      	mov	r0, r4
 800391e:	b004      	add	sp, #16
 8003920:	e8bd 47f0 	ldmia.w	sp!, {r4, r5, r6, r7, r8, r9, sl, lr}
 8003924:	f7ff bcf6 	b.w	8003314 <tcp_free>
 8003928:	f8d4 9050 	ldr.w	r9, [r4, #80]	; 0x50
 800392c:	f8d4 a024 	ldr.w	sl, [r4, #36]	; 0x24
 8003930:	f8d4 7090 	ldr.w	r7, [r4, #144]	; 0x90
 8003934:	f8d4 8010 	ldr.w	r8, [r4, #16]
 8003938:	8ae5      	ldrh	r5, [r4, #22]
 800393a:	b99b      	cbnz	r3, 8003964 <tcp_abandon+0x88>
 800393c:	b13d      	cbz	r5, 800394e <tcp_abandon+0x72>
 800393e:	4a25      	ldr	r2, [pc, #148]	; (80039d4 <tcp_abandon+0xf8>)
 8003940:	6813      	ldr	r3, [r2, #0]
 8003942:	42a3      	cmp	r3, r4
 8003944:	d106      	bne.n	8003954 <tcp_abandon+0x78>
 8003946:	68e3      	ldr	r3, [r4, #12]
 8003948:	6013      	str	r3, [r2, #0]
 800394a:	2500      	movs	r5, #0
 800394c:	60e5      	str	r5, [r4, #12]
 800394e:	462e      	mov	r6, r5
 8003950:	e00f      	b.n	8003972 <tcp_abandon+0x96>
 8003952:	4613      	mov	r3, r2
 8003954:	2b00      	cmp	r3, #0
 8003956:	d0f8      	beq.n	800394a <tcp_abandon+0x6e>
 8003958:	68da      	ldr	r2, [r3, #12]
 800395a:	42a2      	cmp	r2, r4
 800395c:	d1f9      	bne.n	8003952 <tcp_abandon+0x76>
 800395e:	68e2      	ldr	r2, [r4, #12]
 8003960:	60da      	str	r2, [r3, #12]
 8003962:	e7f2      	b.n	800394a <tcp_abandon+0x6e>
 8003964:	481c      	ldr	r0, [pc, #112]	; (80039d8 <tcp_abandon+0xfc>)
 8003966:	4621      	mov	r1, r4
 8003968:	f7ff ff52 	bl	8003810 <tcp_pcb_remove>
 800396c:	4b1b      	ldr	r3, [pc, #108]	; (80039dc <tcp_abandon+0x100>)
 800396e:	2201      	movs	r2, #1
 8003970:	701a      	strb	r2, [r3, #0]
 8003972:	6f20      	ldr	r0, [r4, #112]	; 0x70
 8003974:	b108      	cbz	r0, 800397a <tcp_abandon+0x9e>
 8003976:	f7ff fe25 	bl	80035c4 <tcp_segs_free>
 800397a:	6ee0      	ldr	r0, [r4, #108]	; 0x6c
 800397c:	b108      	cbz	r0, 8003982 <tcp_abandon+0xa6>
 800397e:	f7ff fe21 	bl	80035c4 <tcp_segs_free>
 8003982:	6f60      	ldr	r0, [r4, #116]	; 0x74
 8003984:	b108      	cbz	r0, 800398a <tcp_abandon+0xae>
 8003986:	f7ff fe1d 	bl	80035c4 <tcp_segs_free>
 800398a:	b156      	cbz	r6, 80039a2 <tcp_abandon+0xc6>
 800398c:	8b23      	ldrh	r3, [r4, #24]
 800398e:	e9cd 5301 	strd	r5, r3, [sp, #4]
 8003992:	1d23      	adds	r3, r4, #4
 8003994:	9300      	str	r3, [sp, #0]
 8003996:	4652      	mov	r2, sl
 8003998:	4623      	mov	r3, r4
 800399a:	4649      	mov	r1, r9
 800399c:	4620      	mov	r0, r4
 800399e:	f002 fe25 	bl	80065ec <tcp_rst>
 80039a2:	4620      	mov	r0, r4
 80039a4:	f7ff fcb6 	bl	8003314 <tcp_free>
 80039a8:	b13f      	cbz	r7, 80039ba <tcp_abandon+0xde>
 80039aa:	f06f 010c 	mvn.w	r1, #12
 80039ae:	4640      	mov	r0, r8
 80039b0:	463b      	mov	r3, r7
 80039b2:	b004      	add	sp, #16
 80039b4:	e8bd 47f0 	ldmia.w	sp!, {r4, r5, r6, r7, r8, r9, sl, lr}
 80039b8:	4718      	bx	r3
 80039ba:	b004      	add	sp, #16
 80039bc:	e8bd 87f0 	ldmia.w	sp!, {r4, r5, r6, r7, r8, r9, sl, pc}
 80039c0:	08009d63 	.word	0x08009d63
 80039c4:	0800a088 	.word	0x0800a088
 80039c8:	080095b5 	.word	0x080095b5
 80039cc:	0800a0a1 	.word	0x0800a0a1
 80039d0:	2000a7a4 	.word	0x2000a7a4
 80039d4:	2000a7a0 	.word	0x2000a7a0
 80039d8:	2000a794 	.word	0x2000a794
 80039dc:	2000a790 	.word	0x2000a790

080039e0 <tcp_abort>:
 80039e0:	2101      	movs	r1, #1
 80039e2:	f7ff bf7b 	b.w	80038dc <tcp_abandon>
	...

080039e8 <tcp_accept_null>:
 80039e8:	b510      	push	{r4, lr}
 80039ea:	460c      	mov	r4, r1
 80039ec:	b931      	cbnz	r1, 80039fc <tcp_accept_null+0x14>
 80039ee:	4b06      	ldr	r3, [pc, #24]	; (8003a08 <tcp_accept_null+0x20>)
 80039f0:	4906      	ldr	r1, [pc, #24]	; (8003a0c <tcp_accept_null+0x24>)
 80039f2:	4807      	ldr	r0, [pc, #28]	; (8003a10 <tcp_accept_null+0x28>)
 80039f4:	f240 320f 	movw	r2, #783	; 0x30f
 80039f8:	f004 fd82 	bl	8008500 <iprintf>
 80039fc:	4620      	mov	r0, r4
 80039fe:	f7ff ffef 	bl	80039e0 <tcp_abort>
 8003a02:	f06f 000c 	mvn.w	r0, #12
 8003a06:	bd10      	pop	{r4, pc}
 8003a08:	08009d63 	.word	0x08009d63
 8003a0c:	0800a0d2 	.word	0x0800a0d2
 8003a10:	080095b5 	.word	0x080095b5

08003a14 <tcp_netif_ip_addr_changed_pcblist>:
 8003a14:	b570      	push	{r4, r5, r6, lr}
 8003a16:	460c      	mov	r4, r1
 8003a18:	4605      	mov	r5, r0
 8003a1a:	b930      	cbnz	r0, 8003a2a <tcp_netif_ip_addr_changed_pcblist+0x16>
 8003a1c:	4b09      	ldr	r3, [pc, #36]	; (8003a44 <tcp_netif_ip_addr_changed_pcblist+0x30>)
 8003a1e:	490a      	ldr	r1, [pc, #40]	; (8003a48 <tcp_netif_ip_addr_changed_pcblist+0x34>)
 8003a20:	480a      	ldr	r0, [pc, #40]	; (8003a4c <tcp_netif_ip_addr_changed_pcblist+0x38>)
 8003a22:	f44f 6210 	mov.w	r2, #2304	; 0x900
 8003a26:	f004 fd6b 	bl	8008500 <iprintf>
 8003a2a:	b904      	cbnz	r4, 8003a2e <tcp_netif_ip_addr_changed_pcblist+0x1a>
 8003a2c:	bd70      	pop	{r4, r5, r6, pc}
 8003a2e:	6822      	ldr	r2, [r4, #0]
 8003a30:	682b      	ldr	r3, [r5, #0]
 8003a32:	68e6      	ldr	r6, [r4, #12]
 8003a34:	429a      	cmp	r2, r3
 8003a36:	d102      	bne.n	8003a3e <tcp_netif_ip_addr_changed_pcblist+0x2a>
 8003a38:	4620      	mov	r0, r4
 8003a3a:	f7ff ffd1 	bl	80039e0 <tcp_abort>
 8003a3e:	4634      	mov	r4, r6
 8003a40:	e7f3      	b.n	8003a2a <tcp_netif_ip_addr_changed_pcblist+0x16>
 8003a42:	bf00      	nop
 8003a44:	08009d63 	.word	0x08009d63
 8003a48:	0800a0ef 	.word	0x0800a0ef
 8003a4c:	080095b5 	.word	0x080095b5

08003a50 <tcp_netif_ip_addr_changed>:
 8003a50:	b538      	push	{r3, r4, r5, lr}
 8003a52:	460d      	mov	r5, r1
 8003a54:	4604      	mov	r4, r0
 8003a56:	b180      	cbz	r0, 8003a7a <tcp_netif_ip_addr_changed+0x2a>
 8003a58:	6803      	ldr	r3, [r0, #0]
 8003a5a:	b173      	cbz	r3, 8003a7a <tcp_netif_ip_addr_changed+0x2a>
 8003a5c:	4b0b      	ldr	r3, [pc, #44]	; (8003a8c <tcp_netif_ip_addr_changed+0x3c>)
 8003a5e:	6819      	ldr	r1, [r3, #0]
 8003a60:	f7ff ffd8 	bl	8003a14 <tcp_netif_ip_addr_changed_pcblist>
 8003a64:	4b0a      	ldr	r3, [pc, #40]	; (8003a90 <tcp_netif_ip_addr_changed+0x40>)
 8003a66:	4620      	mov	r0, r4
 8003a68:	6819      	ldr	r1, [r3, #0]
 8003a6a:	f7ff ffd3 	bl	8003a14 <tcp_netif_ip_addr_changed_pcblist>
 8003a6e:	b125      	cbz	r5, 8003a7a <tcp_netif_ip_addr_changed+0x2a>
 8003a70:	682b      	ldr	r3, [r5, #0]
 8003a72:	b113      	cbz	r3, 8003a7a <tcp_netif_ip_addr_changed+0x2a>
 8003a74:	4b07      	ldr	r3, [pc, #28]	; (8003a94 <tcp_netif_ip_addr_changed+0x44>)
 8003a76:	681b      	ldr	r3, [r3, #0]
 8003a78:	b903      	cbnz	r3, 8003a7c <tcp_netif_ip_addr_changed+0x2c>
 8003a7a:	bd38      	pop	{r3, r4, r5, pc}
 8003a7c:	6819      	ldr	r1, [r3, #0]
 8003a7e:	6822      	ldr	r2, [r4, #0]
 8003a80:	4291      	cmp	r1, r2
 8003a82:	bf04      	itt	eq
 8003a84:	682a      	ldreq	r2, [r5, #0]
 8003a86:	601a      	streq	r2, [r3, #0]
 8003a88:	68db      	ldr	r3, [r3, #12]
 8003a8a:	e7f5      	b.n	8003a78 <tcp_netif_ip_addr_changed+0x28>
 8003a8c:	2000a794 	.word	0x2000a794
 8003a90:	2000a7a0 	.word	0x2000a7a0
 8003a94:	2000a79c 	.word	0x2000a79c

08003a98 <tcp_kill_state>:
 8003a98:	4b0c      	ldr	r3, [pc, #48]	; (8003acc <tcp_kill_state+0x34>)
 8003a9a:	6819      	ldr	r1, [r3, #0]
 8003a9c:	4b0c      	ldr	r3, [pc, #48]	; (8003ad0 <tcp_kill_state+0x38>)
 8003a9e:	b430      	push	{r4, r5}
 8003aa0:	2200      	movs	r2, #0
 8003aa2:	681d      	ldr	r5, [r3, #0]
 8003aa4:	4604      	mov	r4, r0
 8003aa6:	4610      	mov	r0, r2
 8003aa8:	b919      	cbnz	r1, 8003ab2 <tcp_kill_state+0x1a>
 8003aaa:	b168      	cbz	r0, 8003ac8 <tcp_kill_state+0x30>
 8003aac:	bc30      	pop	{r4, r5}
 8003aae:	f7ff bf15 	b.w	80038dc <tcp_abandon>
 8003ab2:	7d0b      	ldrb	r3, [r1, #20]
 8003ab4:	42a3      	cmp	r3, r4
 8003ab6:	d105      	bne.n	8003ac4 <tcp_kill_state+0x2c>
 8003ab8:	6a0b      	ldr	r3, [r1, #32]
 8003aba:	1aeb      	subs	r3, r5, r3
 8003abc:	4293      	cmp	r3, r2
 8003abe:	bf24      	itt	cs
 8003ac0:	461a      	movcs	r2, r3
 8003ac2:	4608      	movcs	r0, r1
 8003ac4:	68c9      	ldr	r1, [r1, #12]
 8003ac6:	e7ef      	b.n	8003aa8 <tcp_kill_state+0x10>
 8003ac8:	bc30      	pop	{r4, r5}
 8003aca:	4770      	bx	lr
 8003acc:	2000a794 	.word	0x2000a794
 8003ad0:	2000a798 	.word	0x2000a798

08003ad4 <tcp_alloc>:
 8003ad4:	b5f8      	push	{r3, r4, r5, r6, r7, lr}
 8003ad6:	4604      	mov	r4, r0
 8003ad8:	2001      	movs	r0, #1
 8003ada:	f7fe fe79 	bl	80027d0 <memp_malloc>
 8003ade:	4603      	mov	r3, r0
 8003ae0:	2800      	cmp	r0, #0
 8003ae2:	d136      	bne.n	8003b52 <tcp_alloc+0x7e>
 8003ae4:	4e3f      	ldr	r6, [pc, #252]	; (8003be4 <tcp_alloc+0x110>)
 8003ae6:	6830      	ldr	r0, [r6, #0]
 8003ae8:	2800      	cmp	r0, #0
 8003aea:	d157      	bne.n	8003b9c <tcp_alloc+0xc8>
 8003aec:	4b3e      	ldr	r3, [pc, #248]	; (8003be8 <tcp_alloc+0x114>)
 8003aee:	4d3f      	ldr	r5, [pc, #252]	; (8003bec <tcp_alloc+0x118>)
 8003af0:	681b      	ldr	r3, [r3, #0]
 8003af2:	682f      	ldr	r7, [r5, #0]
 8003af4:	4601      	mov	r1, r0
 8003af6:	2b00      	cmp	r3, #0
 8003af8:	d15b      	bne.n	8003bb2 <tcp_alloc+0xde>
 8003afa:	b108      	cbz	r0, 8003b00 <tcp_alloc+0x2c>
 8003afc:	f7ff ff70 	bl	80039e0 <tcp_abort>
 8003b00:	2001      	movs	r0, #1
 8003b02:	f7fe fe65 	bl	80027d0 <memp_malloc>
 8003b06:	4603      	mov	r3, r0
 8003b08:	bb18      	cbnz	r0, 8003b52 <tcp_alloc+0x7e>
 8003b0a:	2009      	movs	r0, #9
 8003b0c:	f7ff ffc4 	bl	8003a98 <tcp_kill_state>
 8003b10:	2001      	movs	r0, #1
 8003b12:	f7fe fe5d 	bl	80027d0 <memp_malloc>
 8003b16:	4603      	mov	r3, r0
 8003b18:	b9d8      	cbnz	r0, 8003b52 <tcp_alloc+0x7e>
 8003b1a:	2008      	movs	r0, #8
 8003b1c:	f7ff ffbc 	bl	8003a98 <tcp_kill_state>
 8003b20:	2001      	movs	r0, #1
 8003b22:	f7fe fe55 	bl	80027d0 <memp_malloc>
 8003b26:	4603      	mov	r3, r0
 8003b28:	b998      	cbnz	r0, 8003b52 <tcp_alloc+0x7e>
 8003b2a:	0622      	lsls	r2, r4, #24
 8003b2c:	d449      	bmi.n	8003bc2 <tcp_alloc+0xee>
 8003b2e:	b15c      	cbz	r4, 8003b48 <tcp_alloc+0x74>
 8003b30:	4621      	mov	r1, r4
 8003b32:	6832      	ldr	r2, [r6, #0]
 8003b34:	682e      	ldr	r6, [r5, #0]
 8003b36:	3901      	subs	r1, #1
 8003b38:	b2c9      	uxtb	r1, r1
 8003b3a:	2000      	movs	r0, #0
 8003b3c:	2a00      	cmp	r2, #0
 8003b3e:	d142      	bne.n	8003bc6 <tcp_alloc+0xf2>
 8003b40:	b113      	cbz	r3, 8003b48 <tcp_alloc+0x74>
 8003b42:	4618      	mov	r0, r3
 8003b44:	f7ff ff4c 	bl	80039e0 <tcp_abort>
 8003b48:	2001      	movs	r0, #1
 8003b4a:	f7fe fe41 	bl	80027d0 <memp_malloc>
 8003b4e:	4603      	mov	r3, r0
 8003b50:	b310      	cbz	r0, 8003b98 <tcp_alloc+0xc4>
 8003b52:	229c      	movs	r2, #156	; 0x9c
 8003b54:	4618      	mov	r0, r3
 8003b56:	2100      	movs	r1, #0
 8003b58:	f004 fcca 	bl	80084f0 <memset>
 8003b5c:	f44f 52a0 	mov.w	r2, #5120	; 0x1400
 8003b60:	f8a0 2064 	strh.w	r2, [r0, #100]	; 0x64
 8003b64:	4a22      	ldr	r2, [pc, #136]	; (8003bf0 <tcp_alloc+0x11c>)
 8003b66:	6282      	str	r2, [r0, #40]	; 0x28
 8003b68:	22ff      	movs	r2, #255	; 0xff
 8003b6a:	72c2      	strb	r2, [r0, #11]
 8003b6c:	2206      	movs	r2, #6
 8003b6e:	f8a0 2040 	strh.w	r2, [r0, #64]	; 0x40
 8003b72:	87c2      	strh	r2, [r0, #62]	; 0x3e
 8003b74:	4a1f      	ldr	r2, [pc, #124]	; (8003bf4 <tcp_alloc+0x120>)
 8003b76:	6302      	str	r2, [r0, #48]	; 0x30
 8003b78:	4a1c      	ldr	r2, [pc, #112]	; (8003bec <tcp_alloc+0x118>)
 8003b7a:	7544      	strb	r4, [r0, #21]
 8003b7c:	6812      	ldr	r2, [r2, #0]
 8003b7e:	6202      	str	r2, [r0, #32]
 8003b80:	4a1d      	ldr	r2, [pc, #116]	; (8003bf8 <tcp_alloc+0x124>)
 8003b82:	7812      	ldrb	r2, [r2, #0]
 8003b84:	7782      	strb	r2, [r0, #30]
 8003b86:	4a1d      	ldr	r2, [pc, #116]	; (8003bfc <tcp_alloc+0x128>)
 8003b88:	6482      	str	r2, [r0, #72]	; 0x48
 8003b8a:	4a1d      	ldr	r2, [pc, #116]	; (8003c00 <tcp_alloc+0x12c>)
 8003b8c:	f8c0 2084 	str.w	r2, [r0, #132]	; 0x84
 8003b90:	4a1c      	ldr	r2, [pc, #112]	; (8003c04 <tcp_alloc+0x130>)
 8003b92:	f8c0 2094 	str.w	r2, [r0, #148]	; 0x94
 8003b96:	4603      	mov	r3, r0
 8003b98:	4618      	mov	r0, r3
 8003b9a:	bdf8      	pop	{r3, r4, r5, r6, r7, pc}
 8003b9c:	8b43      	ldrh	r3, [r0, #26]
 8003b9e:	68c5      	ldr	r5, [r0, #12]
 8003ba0:	0719      	lsls	r1, r3, #28
 8003ba2:	d504      	bpl.n	8003bae <tcp_alloc+0xda>
 8003ba4:	f023 0308 	bic.w	r3, r3, #8
 8003ba8:	8343      	strh	r3, [r0, #26]
 8003baa:	f7ff fb77 	bl	800329c <tcp_close_shutdown_fin>
 8003bae:	4628      	mov	r0, r5
 8003bb0:	e79a      	b.n	8003ae8 <tcp_alloc+0x14>
 8003bb2:	6a1a      	ldr	r2, [r3, #32]
 8003bb4:	1aba      	subs	r2, r7, r2
 8003bb6:	428a      	cmp	r2, r1
 8003bb8:	bf24      	itt	cs
 8003bba:	4618      	movcs	r0, r3
 8003bbc:	4611      	movcs	r1, r2
 8003bbe:	68db      	ldr	r3, [r3, #12]
 8003bc0:	e799      	b.n	8003af6 <tcp_alloc+0x22>
 8003bc2:	217f      	movs	r1, #127	; 0x7f
 8003bc4:	e7b5      	b.n	8003b32 <tcp_alloc+0x5e>
 8003bc6:	7d57      	ldrb	r7, [r2, #21]
 8003bc8:	428f      	cmp	r7, r1
 8003bca:	d304      	bcc.n	8003bd6 <tcp_alloc+0x102>
 8003bcc:	d107      	bne.n	8003bde <tcp_alloc+0x10a>
 8003bce:	6a15      	ldr	r5, [r2, #32]
 8003bd0:	1b75      	subs	r5, r6, r5
 8003bd2:	4285      	cmp	r5, r0
 8003bd4:	d303      	bcc.n	8003bde <tcp_alloc+0x10a>
 8003bd6:	6a10      	ldr	r0, [r2, #32]
 8003bd8:	4639      	mov	r1, r7
 8003bda:	1a30      	subs	r0, r6, r0
 8003bdc:	4613      	mov	r3, r2
 8003bde:	68d2      	ldr	r2, [r2, #12]
 8003be0:	e7ac      	b.n	8003b3c <tcp_alloc+0x68>
 8003be2:	bf00      	nop
 8003be4:	2000a794 	.word	0x2000a794
 8003be8:	2000a7a4 	.word	0x2000a7a4
 8003bec:	2000a798 	.word	0x2000a798
 8003bf0:	08420842 	.word	0x08420842
 8003bf4:	0218ffff 	.word	0x0218ffff
 8003bf8:	20000052 	.word	0x20000052
 8003bfc:	14000001 	.word	0x14000001
 8003c00:	08003db1 	.word	0x08003db1
 8003c04:	006ddd00 	.word	0x006ddd00

08003c08 <tcp_new>:
 8003c08:	2040      	movs	r0, #64	; 0x40
 8003c0a:	f7ff bf63 	b.w	8003ad4 <tcp_alloc>
	...

08003c10 <tcp_close_shutdown>:
 8003c10:	b530      	push	{r4, r5, lr}
 8003c12:	460d      	mov	r5, r1
 8003c14:	b085      	sub	sp, #20
 8003c16:	4604      	mov	r4, r0
 8003c18:	b930      	cbnz	r0, 8003c28 <tcp_close_shutdown+0x18>
 8003c1a:	4b4b      	ldr	r3, [pc, #300]	; (8003d48 <tcp_close_shutdown+0x138>)
 8003c1c:	494b      	ldr	r1, [pc, #300]	; (8003d4c <tcp_close_shutdown+0x13c>)
 8003c1e:	484c      	ldr	r0, [pc, #304]	; (8003d50 <tcp_close_shutdown+0x140>)
 8003c20:	f44f 72af 	mov.w	r2, #350	; 0x15e
 8003c24:	f004 fc6c 	bl	8008500 <iprintf>
 8003c28:	7d23      	ldrb	r3, [r4, #20]
 8003c2a:	2d00      	cmp	r5, #0
 8003c2c:	d040      	beq.n	8003cb0 <tcp_close_shutdown+0xa0>
 8003c2e:	2b04      	cmp	r3, #4
 8003c30:	d001      	beq.n	8003c36 <tcp_close_shutdown+0x26>
 8003c32:	2b07      	cmp	r3, #7
 8003c34:	d13c      	bne.n	8003cb0 <tcp_close_shutdown+0xa0>
 8003c36:	6fa2      	ldr	r2, [r4, #120]	; 0x78
 8003c38:	b922      	cbnz	r2, 8003c44 <tcp_close_shutdown+0x34>
 8003c3a:	8d21      	ldrh	r1, [r4, #40]	; 0x28
 8003c3c:	f640 0242 	movw	r2, #2114	; 0x842
 8003c40:	4291      	cmp	r1, r2
 8003c42:	d035      	beq.n	8003cb0 <tcp_close_shutdown+0xa0>
 8003c44:	8b63      	ldrh	r3, [r4, #26]
 8003c46:	06db      	lsls	r3, r3, #27
 8003c48:	d406      	bmi.n	8003c58 <tcp_close_shutdown+0x48>
 8003c4a:	4b3f      	ldr	r3, [pc, #252]	; (8003d48 <tcp_close_shutdown+0x138>)
 8003c4c:	4941      	ldr	r1, [pc, #260]	; (8003d54 <tcp_close_shutdown+0x144>)
 8003c4e:	4840      	ldr	r0, [pc, #256]	; (8003d50 <tcp_close_shutdown+0x140>)
 8003c50:	f44f 72b2 	mov.w	r2, #356	; 0x164
 8003c54:	f004 fc54 	bl	8008500 <iprintf>
 8003c58:	8b23      	ldrh	r3, [r4, #24]
 8003c5a:	9302      	str	r3, [sp, #8]
 8003c5c:	8ae3      	ldrh	r3, [r4, #22]
 8003c5e:	9301      	str	r3, [sp, #4]
 8003c60:	1d23      	adds	r3, r4, #4
 8003c62:	9300      	str	r3, [sp, #0]
 8003c64:	6a62      	ldr	r2, [r4, #36]	; 0x24
 8003c66:	6d21      	ldr	r1, [r4, #80]	; 0x50
 8003c68:	4623      	mov	r3, r4
 8003c6a:	4620      	mov	r0, r4
 8003c6c:	f002 fcbe 	bl	80065ec <tcp_rst>
 8003c70:	4620      	mov	r0, r4
 8003c72:	f7ff fd9b 	bl	80037ac <tcp_pcb_purge>
 8003c76:	4a38      	ldr	r2, [pc, #224]	; (8003d58 <tcp_close_shutdown+0x148>)
 8003c78:	6813      	ldr	r3, [r2, #0]
 8003c7a:	42a3      	cmp	r3, r4
 8003c7c:	d110      	bne.n	8003ca0 <tcp_close_shutdown+0x90>
 8003c7e:	68e3      	ldr	r3, [r4, #12]
 8003c80:	6013      	str	r3, [r2, #0]
 8003c82:	2300      	movs	r3, #0
 8003c84:	60e3      	str	r3, [r4, #12]
 8003c86:	4b35      	ldr	r3, [pc, #212]	; (8003d5c <tcp_close_shutdown+0x14c>)
 8003c88:	2201      	movs	r2, #1
 8003c8a:	701a      	strb	r2, [r3, #0]
 8003c8c:	4b34      	ldr	r3, [pc, #208]	; (8003d60 <tcp_close_shutdown+0x150>)
 8003c8e:	681b      	ldr	r3, [r3, #0]
 8003c90:	42a3      	cmp	r3, r4
 8003c92:	d11d      	bne.n	8003cd0 <tcp_close_shutdown+0xc0>
 8003c94:	f001 fe36 	bl	8005904 <tcp_trigger_input_pcb_close>
 8003c98:	2000      	movs	r0, #0
 8003c9a:	b005      	add	sp, #20
 8003c9c:	bd30      	pop	{r4, r5, pc}
 8003c9e:	4613      	mov	r3, r2
 8003ca0:	2b00      	cmp	r3, #0
 8003ca2:	d0ee      	beq.n	8003c82 <tcp_close_shutdown+0x72>
 8003ca4:	68da      	ldr	r2, [r3, #12]
 8003ca6:	42a2      	cmp	r2, r4
 8003ca8:	d1f9      	bne.n	8003c9e <tcp_close_shutdown+0x8e>
 8003caa:	68e2      	ldr	r2, [r4, #12]
 8003cac:	60da      	str	r2, [r3, #12]
 8003cae:	e7e8      	b.n	8003c82 <tcp_close_shutdown+0x72>
 8003cb0:	2b01      	cmp	r3, #1
 8003cb2:	d01a      	beq.n	8003cea <tcp_close_shutdown+0xda>
 8003cb4:	2b02      	cmp	r3, #2
 8003cb6:	d039      	beq.n	8003d2c <tcp_close_shutdown+0x11c>
 8003cb8:	2b00      	cmp	r3, #0
 8003cba:	d13f      	bne.n	8003d3c <tcp_close_shutdown+0x12c>
 8003cbc:	8ae3      	ldrh	r3, [r4, #22]
 8003cbe:	b13b      	cbz	r3, 8003cd0 <tcp_close_shutdown+0xc0>
 8003cc0:	4a28      	ldr	r2, [pc, #160]	; (8003d64 <tcp_close_shutdown+0x154>)
 8003cc2:	6813      	ldr	r3, [r2, #0]
 8003cc4:	42a3      	cmp	r3, r4
 8003cc6:	d108      	bne.n	8003cda <tcp_close_shutdown+0xca>
 8003cc8:	68e3      	ldr	r3, [r4, #12]
 8003cca:	6013      	str	r3, [r2, #0]
 8003ccc:	2300      	movs	r3, #0
 8003cce:	60e3      	str	r3, [r4, #12]
 8003cd0:	4620      	mov	r0, r4
 8003cd2:	f7ff fb1f 	bl	8003314 <tcp_free>
 8003cd6:	e7df      	b.n	8003c98 <tcp_close_shutdown+0x88>
 8003cd8:	4613      	mov	r3, r2
 8003cda:	2b00      	cmp	r3, #0
 8003cdc:	d0f6      	beq.n	8003ccc <tcp_close_shutdown+0xbc>
 8003cde:	68da      	ldr	r2, [r3, #12]
 8003ce0:	42a2      	cmp	r2, r4
 8003ce2:	d1f9      	bne.n	8003cd8 <tcp_close_shutdown+0xc8>
 8003ce4:	68e2      	ldr	r2, [r4, #12]
 8003ce6:	60da      	str	r2, [r3, #12]
 8003ce8:	e7f0      	b.n	8003ccc <tcp_close_shutdown+0xbc>
 8003cea:	491f      	ldr	r1, [pc, #124]	; (8003d68 <tcp_close_shutdown+0x158>)
 8003cec:	2000      	movs	r0, #0
 8003cee:	f851 2023 	ldr.w	r2, [r1, r3, lsl #2]
 8003cf2:	6812      	ldr	r2, [r2, #0]
 8003cf4:	b9a2      	cbnz	r2, 8003d20 <tcp_close_shutdown+0x110>
 8003cf6:	3301      	adds	r3, #1
 8003cf8:	2b04      	cmp	r3, #4
 8003cfa:	d1f8      	bne.n	8003cee <tcp_close_shutdown+0xde>
 8003cfc:	481b      	ldr	r0, [pc, #108]	; (8003d6c <tcp_close_shutdown+0x15c>)
 8003cfe:	4621      	mov	r1, r4
 8003d00:	f7ff fd86 	bl	8003810 <tcp_pcb_remove>
 8003d04:	7d23      	ldrb	r3, [r4, #20]
 8003d06:	2b01      	cmp	r3, #1
 8003d08:	d105      	bne.n	8003d16 <tcp_close_shutdown+0x106>
 8003d0a:	4b0f      	ldr	r3, [pc, #60]	; (8003d48 <tcp_close_shutdown+0x138>)
 8003d0c:	4918      	ldr	r1, [pc, #96]	; (8003d70 <tcp_close_shutdown+0x160>)
 8003d0e:	4810      	ldr	r0, [pc, #64]	; (8003d50 <tcp_close_shutdown+0x140>)
 8003d10:	22df      	movs	r2, #223	; 0xdf
 8003d12:	f004 fbf5 	bl	8008500 <iprintf>
 8003d16:	4621      	mov	r1, r4
 8003d18:	2002      	movs	r0, #2
 8003d1a:	f7fe fd75 	bl	8002808 <memp_free>
 8003d1e:	e7bb      	b.n	8003c98 <tcp_close_shutdown+0x88>
 8003d20:	6fd5      	ldr	r5, [r2, #124]	; 0x7c
 8003d22:	42ac      	cmp	r4, r5
 8003d24:	bf08      	it	eq
 8003d26:	67d0      	streq	r0, [r2, #124]	; 0x7c
 8003d28:	68d2      	ldr	r2, [r2, #12]
 8003d2a:	e7e3      	b.n	8003cf4 <tcp_close_shutdown+0xe4>
 8003d2c:	480a      	ldr	r0, [pc, #40]	; (8003d58 <tcp_close_shutdown+0x148>)
 8003d2e:	4621      	mov	r1, r4
 8003d30:	f7ff fd6e 	bl	8003810 <tcp_pcb_remove>
 8003d34:	4b09      	ldr	r3, [pc, #36]	; (8003d5c <tcp_close_shutdown+0x14c>)
 8003d36:	2201      	movs	r2, #1
 8003d38:	701a      	strb	r2, [r3, #0]
 8003d3a:	e7c9      	b.n	8003cd0 <tcp_close_shutdown+0xc0>
 8003d3c:	4620      	mov	r0, r4
 8003d3e:	b005      	add	sp, #20
 8003d40:	e8bd 4030 	ldmia.w	sp!, {r4, r5, lr}
 8003d44:	f7ff baaa 	b.w	800329c <tcp_close_shutdown_fin>
 8003d48:	08009d63 	.word	0x08009d63
 8003d4c:	0800a123 	.word	0x0800a123
 8003d50:	080095b5 	.word	0x080095b5
 8003d54:	0800a143 	.word	0x0800a143
 8003d58:	2000a794 	.word	0x2000a794
 8003d5c:	2000a790 	.word	0x2000a790
 8003d60:	2000a7a8 	.word	0x2000a7a8
 8003d64:	2000a7a0 	.word	0x2000a7a0
 8003d68:	0800a394 	.word	0x0800a394
 8003d6c:	2000a79c 	.word	0x2000a79c
 8003d70:	0800a15c 	.word	0x0800a15c

08003d74 <tcp_close>:
 8003d74:	b508      	push	{r3, lr}
 8003d76:	b158      	cbz	r0, 8003d90 <tcp_close+0x1c>
 8003d78:	7d03      	ldrb	r3, [r0, #20]
 8003d7a:	2b01      	cmp	r3, #1
 8003d7c:	bf1e      	ittt	ne
 8003d7e:	8b43      	ldrhne	r3, [r0, #26]
 8003d80:	f043 0310 	orrne.w	r3, r3, #16
 8003d84:	8343      	strhne	r3, [r0, #26]
 8003d86:	2101      	movs	r1, #1
 8003d88:	e8bd 4008 	ldmia.w	sp!, {r3, lr}
 8003d8c:	f7ff bf40 	b.w	8003c10 <tcp_close_shutdown>
 8003d90:	4b04      	ldr	r3, [pc, #16]	; (8003da4 <tcp_close+0x30>)
 8003d92:	4905      	ldr	r1, [pc, #20]	; (8003da8 <tcp_close+0x34>)
 8003d94:	4805      	ldr	r0, [pc, #20]	; (8003dac <tcp_close+0x38>)
 8003d96:	f44f 72f4 	mov.w	r2, #488	; 0x1e8
 8003d9a:	f004 fbb1 	bl	8008500 <iprintf>
 8003d9e:	f06f 000f 	mvn.w	r0, #15
 8003da2:	bd08      	pop	{r3, pc}
 8003da4:	08009d63 	.word	0x08009d63
 8003da8:	0800a175 	.word	0x0800a175
 8003dac:	080095b5 	.word	0x080095b5

08003db0 <tcp_recv_null>:
 8003db0:	b510      	push	{r4, lr}
 8003db2:	4608      	mov	r0, r1
 8003db4:	4614      	mov	r4, r2
 8003db6:	b949      	cbnz	r1, 8003dcc <tcp_recv_null+0x1c>
 8003db8:	4b0c      	ldr	r3, [pc, #48]	; (8003dec <tcp_recv_null+0x3c>)
 8003dba:	490d      	ldr	r1, [pc, #52]	; (8003df0 <tcp_recv_null+0x40>)
 8003dbc:	480d      	ldr	r0, [pc, #52]	; (8003df4 <tcp_recv_null+0x44>)
 8003dbe:	f44f 62d3 	mov.w	r2, #1688	; 0x698
 8003dc2:	f004 fb9d 	bl	8008500 <iprintf>
 8003dc6:	f06f 000f 	mvn.w	r0, #15
 8003dca:	bd10      	pop	{r4, pc}
 8003dcc:	b13a      	cbz	r2, 8003dde <tcp_recv_null+0x2e>
 8003dce:	8911      	ldrh	r1, [r2, #8]
 8003dd0:	f7ff fbae 	bl	8003530 <tcp_recved>
 8003dd4:	4620      	mov	r0, r4
 8003dd6:	f7fe ff55 	bl	8002c84 <pbuf_free>
 8003dda:	2000      	movs	r0, #0
 8003ddc:	e7f5      	b.n	8003dca <tcp_recv_null+0x1a>
 8003dde:	b91b      	cbnz	r3, 8003de8 <tcp_recv_null+0x38>
 8003de0:	e8bd 4010 	ldmia.w	sp!, {r4, lr}
 8003de4:	f7ff bfc6 	b.w	8003d74 <tcp_close>
 8003de8:	4610      	mov	r0, r2
 8003dea:	e7ee      	b.n	8003dca <tcp_recv_null+0x1a>
 8003dec:	08009d63 	.word	0x08009d63
 8003df0:	0800a18c 	.word	0x0800a18c
 8003df4:	080095b5 	.word	0x080095b5

08003df8 <tcp_process_refused_data>:
 8003df8:	b5f8      	push	{r3, r4, r5, r6, r7, lr}
 8003dfa:	4604      	mov	r4, r0
 8003dfc:	b950      	cbnz	r0, 8003e14 <tcp_process_refused_data+0x1c>
 8003dfe:	4b1e      	ldr	r3, [pc, #120]	; (8003e78 <tcp_process_refused_data+0x80>)
 8003e00:	491e      	ldr	r1, [pc, #120]	; (8003e7c <tcp_process_refused_data+0x84>)
 8003e02:	481f      	ldr	r0, [pc, #124]	; (8003e80 <tcp_process_refused_data+0x88>)
 8003e04:	f240 6209 	movw	r2, #1545	; 0x609
 8003e08:	f004 fb7a 	bl	8008500 <iprintf>
 8003e0c:	f06f 050f 	mvn.w	r5, #15
 8003e10:	4628      	mov	r0, r5
 8003e12:	bdf8      	pop	{r3, r4, r5, r6, r7, pc}
 8003e14:	6f86      	ldr	r6, [r0, #120]	; 0x78
 8003e16:	f8d0 5084 	ldr.w	r5, [r0, #132]	; 0x84
 8003e1a:	7b77      	ldrb	r7, [r6, #13]
 8003e1c:	2300      	movs	r3, #0
 8003e1e:	6783      	str	r3, [r0, #120]	; 0x78
 8003e20:	b1e5      	cbz	r5, 8003e5c <tcp_process_refused_data+0x64>
 8003e22:	4601      	mov	r1, r0
 8003e24:	4632      	mov	r2, r6
 8003e26:	6900      	ldr	r0, [r0, #16]
 8003e28:	47a8      	blx	r5
 8003e2a:	4605      	mov	r5, r0
 8003e2c:	b9e8      	cbnz	r0, 8003e6a <tcp_process_refused_data+0x72>
 8003e2e:	06bb      	lsls	r3, r7, #26
 8003e30:	d5ee      	bpl.n	8003e10 <tcp_process_refused_data+0x18>
 8003e32:	8d23      	ldrh	r3, [r4, #40]	; 0x28
 8003e34:	f8d4 6084 	ldr.w	r6, [r4, #132]	; 0x84
 8003e38:	f640 0242 	movw	r2, #2114	; 0x842
 8003e3c:	4293      	cmp	r3, r2
 8003e3e:	bf1c      	itt	ne
 8003e40:	3301      	addne	r3, #1
 8003e42:	8523      	strhne	r3, [r4, #40]	; 0x28
 8003e44:	2e00      	cmp	r6, #0
 8003e46:	d0e3      	beq.n	8003e10 <tcp_process_refused_data+0x18>
 8003e48:	2300      	movs	r3, #0
 8003e4a:	6920      	ldr	r0, [r4, #16]
 8003e4c:	461a      	mov	r2, r3
 8003e4e:	4621      	mov	r1, r4
 8003e50:	47b0      	blx	r6
 8003e52:	300d      	adds	r0, #13
 8003e54:	d1dc      	bne.n	8003e10 <tcp_process_refused_data+0x18>
 8003e56:	f06f 050c 	mvn.w	r5, #12
 8003e5a:	e7d9      	b.n	8003e10 <tcp_process_refused_data+0x18>
 8003e5c:	4601      	mov	r1, r0
 8003e5e:	462b      	mov	r3, r5
 8003e60:	4632      	mov	r2, r6
 8003e62:	4628      	mov	r0, r5
 8003e64:	f7ff ffa4 	bl	8003db0 <tcp_recv_null>
 8003e68:	e7df      	b.n	8003e2a <tcp_process_refused_data+0x32>
 8003e6a:	350d      	adds	r5, #13
 8003e6c:	d0f3      	beq.n	8003e56 <tcp_process_refused_data+0x5e>
 8003e6e:	67a6      	str	r6, [r4, #120]	; 0x78
 8003e70:	f06f 0504 	mvn.w	r5, #4
 8003e74:	e7cc      	b.n	8003e10 <tcp_process_refused_data+0x18>
 8003e76:	bf00      	nop
 8003e78:	08009d63 	.word	0x08009d63
 8003e7c:	0800a1a7 	.word	0x0800a1a7
 8003e80:	080095b5 	.word	0x080095b5

08003e84 <tcp_fasttmr>:
 8003e84:	e92d 43f8 	stmdb	sp!, {r3, r4, r5, r6, r7, r8, r9, lr}
 8003e88:	4d1b      	ldr	r5, [pc, #108]	; (8003ef8 <tcp_fasttmr+0x74>)
 8003e8a:	4f1c      	ldr	r7, [pc, #112]	; (8003efc <tcp_fasttmr+0x78>)
 8003e8c:	782b      	ldrb	r3, [r5, #0]
 8003e8e:	4e1c      	ldr	r6, [pc, #112]	; (8003f00 <tcp_fasttmr+0x7c>)
 8003e90:	3301      	adds	r3, #1
 8003e92:	702b      	strb	r3, [r5, #0]
 8003e94:	683c      	ldr	r4, [r7, #0]
 8003e96:	f04f 0800 	mov.w	r8, #0
 8003e9a:	b90c      	cbnz	r4, 8003ea0 <tcp_fasttmr+0x1c>
 8003e9c:	e8bd 83f8 	ldmia.w	sp!, {r3, r4, r5, r6, r7, r8, r9, pc}
 8003ea0:	782b      	ldrb	r3, [r5, #0]
 8003ea2:	7fa2      	ldrb	r2, [r4, #30]
 8003ea4:	429a      	cmp	r2, r3
 8003ea6:	d024      	beq.n	8003ef2 <tcp_fasttmr+0x6e>
 8003ea8:	77a3      	strb	r3, [r4, #30]
 8003eaa:	8b63      	ldrh	r3, [r4, #26]
 8003eac:	07d9      	lsls	r1, r3, #31
 8003eae:	d509      	bpl.n	8003ec4 <tcp_fasttmr+0x40>
 8003eb0:	f043 0302 	orr.w	r3, r3, #2
 8003eb4:	8363      	strh	r3, [r4, #26]
 8003eb6:	4620      	mov	r0, r4
 8003eb8:	f002 fc10 	bl	80066dc <tcp_output>
 8003ebc:	8b63      	ldrh	r3, [r4, #26]
 8003ebe:	f023 0303 	bic.w	r3, r3, #3
 8003ec2:	8363      	strh	r3, [r4, #26]
 8003ec4:	8b63      	ldrh	r3, [r4, #26]
 8003ec6:	071a      	lsls	r2, r3, #28
 8003ec8:	d505      	bpl.n	8003ed6 <tcp_fasttmr+0x52>
 8003eca:	f023 0308 	bic.w	r3, r3, #8
 8003ece:	8363      	strh	r3, [r4, #26]
 8003ed0:	4620      	mov	r0, r4
 8003ed2:	f7ff f9e3 	bl	800329c <tcp_close_shutdown_fin>
 8003ed6:	6fa3      	ldr	r3, [r4, #120]	; 0x78
 8003ed8:	f8d4 900c 	ldr.w	r9, [r4, #12]
 8003edc:	b13b      	cbz	r3, 8003eee <tcp_fasttmr+0x6a>
 8003ede:	4620      	mov	r0, r4
 8003ee0:	f886 8000 	strb.w	r8, [r6]
 8003ee4:	f7ff ff88 	bl	8003df8 <tcp_process_refused_data>
 8003ee8:	7833      	ldrb	r3, [r6, #0]
 8003eea:	2b00      	cmp	r3, #0
 8003eec:	d1d2      	bne.n	8003e94 <tcp_fasttmr+0x10>
 8003eee:	464c      	mov	r4, r9
 8003ef0:	e7d3      	b.n	8003e9a <tcp_fasttmr+0x16>
 8003ef2:	f8d4 900c 	ldr.w	r9, [r4, #12]
 8003ef6:	e7fa      	b.n	8003eee <tcp_fasttmr+0x6a>
 8003ef8:	20000052 	.word	0x20000052
 8003efc:	2000a794 	.word	0x2000a794
 8003f00:	2000a790 	.word	0x2000a790

08003f04 <tcp_slowtmr>:
 8003f04:	e92d 4ff0 	stmdb	sp!, {r4, r5, r6, r7, r8, r9, sl, fp, lr}
 8003f08:	4eb8      	ldr	r6, [pc, #736]	; (80041ec <tcp_slowtmr+0x2e8>)
 8003f0a:	f8df a2ec 	ldr.w	sl, [pc, #748]	; 80041f8 <tcp_slowtmr+0x2f4>
 8003f0e:	6833      	ldr	r3, [r6, #0]
 8003f10:	4fb7      	ldr	r7, [pc, #732]	; (80041f0 <tcp_slowtmr+0x2ec>)
 8003f12:	3301      	adds	r3, #1
 8003f14:	6033      	str	r3, [r6, #0]
 8003f16:	4bb7      	ldr	r3, [pc, #732]	; (80041f4 <tcp_slowtmr+0x2f0>)
 8003f18:	781a      	ldrb	r2, [r3, #0]
 8003f1a:	b087      	sub	sp, #28
 8003f1c:	3201      	adds	r2, #1
 8003f1e:	701a      	strb	r2, [r3, #0]
 8003f20:	9304      	str	r3, [sp, #16]
 8003f22:	4bb5      	ldr	r3, [pc, #724]	; (80041f8 <tcp_slowtmr+0x2f4>)
 8003f24:	f8df 82fc 	ldr.w	r8, [pc, #764]	; 8004224 <tcp_slowtmr+0x320>
 8003f28:	681c      	ldr	r4, [r3, #0]
 8003f2a:	f04f 0900 	mov.w	r9, #0
 8003f2e:	b96c      	cbnz	r4, 8003f4c <tcp_slowtmr+0x48>
 8003f30:	4fb2      	ldr	r7, [pc, #712]	; (80041fc <tcp_slowtmr+0x2f8>)
 8003f32:	f8df 82bc 	ldr.w	r8, [pc, #700]	; 80041f0 <tcp_slowtmr+0x2ec>
 8003f36:	683d      	ldr	r5, [r7, #0]
 8003f38:	f8df a2ec 	ldr.w	sl, [pc, #748]	; 8004228 <tcp_slowtmr+0x324>
 8003f3c:	f8df 92e4 	ldr.w	r9, [pc, #740]	; 8004224 <tcp_slowtmr+0x320>
 8003f40:	2d00      	cmp	r5, #0
 8003f42:	f040 81be 	bne.w	80042c2 <tcp_slowtmr+0x3be>
 8003f46:	b007      	add	sp, #28
 8003f48:	e8bd 8ff0 	ldmia.w	sp!, {r4, r5, r6, r7, r8, r9, sl, fp, pc}
 8003f4c:	7d23      	ldrb	r3, [r4, #20]
 8003f4e:	b933      	cbnz	r3, 8003f5e <tcp_slowtmr+0x5a>
 8003f50:	49ab      	ldr	r1, [pc, #684]	; (8004200 <tcp_slowtmr+0x2fc>)
 8003f52:	463b      	mov	r3, r7
 8003f54:	f240 42be 	movw	r2, #1214	; 0x4be
 8003f58:	4640      	mov	r0, r8
 8003f5a:	f004 fad1 	bl	8008500 <iprintf>
 8003f5e:	7d23      	ldrb	r3, [r4, #20]
 8003f60:	2b01      	cmp	r3, #1
 8003f62:	d106      	bne.n	8003f72 <tcp_slowtmr+0x6e>
 8003f64:	49a7      	ldr	r1, [pc, #668]	; (8004204 <tcp_slowtmr+0x300>)
 8003f66:	463b      	mov	r3, r7
 8003f68:	f240 42bf 	movw	r2, #1215	; 0x4bf
 8003f6c:	4640      	mov	r0, r8
 8003f6e:	f004 fac7 	bl	8008500 <iprintf>
 8003f72:	7d23      	ldrb	r3, [r4, #20]
 8003f74:	2b0a      	cmp	r3, #10
 8003f76:	d106      	bne.n	8003f86 <tcp_slowtmr+0x82>
 8003f78:	49a3      	ldr	r1, [pc, #652]	; (8004208 <tcp_slowtmr+0x304>)
 8003f7a:	463b      	mov	r3, r7
 8003f7c:	f44f 6298 	mov.w	r2, #1216	; 0x4c0
 8003f80:	4640      	mov	r0, r8
 8003f82:	f004 fabd 	bl	8008500 <iprintf>
 8003f86:	9b04      	ldr	r3, [sp, #16]
 8003f88:	7fa2      	ldrb	r2, [r4, #30]
 8003f8a:	781b      	ldrb	r3, [r3, #0]
 8003f8c:	429a      	cmp	r2, r3
 8003f8e:	d103      	bne.n	8003f98 <tcp_slowtmr+0x94>
 8003f90:	68e5      	ldr	r5, [r4, #12]
 8003f92:	46a1      	mov	r9, r4
 8003f94:	462c      	mov	r4, r5
 8003f96:	e7ca      	b.n	8003f2e <tcp_slowtmr+0x2a>
 8003f98:	7d22      	ldrb	r2, [r4, #20]
 8003f9a:	77a3      	strb	r3, [r4, #30]
 8003f9c:	2a02      	cmp	r2, #2
 8003f9e:	f894 3042 	ldrb.w	r3, [r4, #66]	; 0x42
 8003fa2:	f040 8089 	bne.w	80040b8 <tcp_slowtmr+0x1b4>
 8003fa6:	2b05      	cmp	r3, #5
 8003fa8:	f240 8088 	bls.w	80040bc <tcp_slowtmr+0x1b8>
 8003fac:	f04f 0b01 	mov.w	fp, #1
 8003fb0:	7d23      	ldrb	r3, [r4, #20]
 8003fb2:	2b06      	cmp	r3, #6
 8003fb4:	d10b      	bne.n	8003fce <tcp_slowtmr+0xca>
 8003fb6:	8b62      	ldrh	r2, [r4, #26]
 8003fb8:	06d2      	lsls	r2, r2, #27
 8003fba:	d508      	bpl.n	8003fce <tcp_slowtmr+0xca>
 8003fbc:	6832      	ldr	r2, [r6, #0]
 8003fbe:	6a21      	ldr	r1, [r4, #32]
 8003fc0:	1a52      	subs	r2, r2, r1
 8003fc2:	2a28      	cmp	r2, #40	; 0x28
 8003fc4:	bf84      	itt	hi
 8003fc6:	f10b 0b01 	addhi.w	fp, fp, #1
 8003fca:	fa5f fb8b 	uxtbhi.w	fp, fp
 8003fce:	7a65      	ldrb	r5, [r4, #9]
 8003fd0:	f015 0508 	ands.w	r5, r5, #8
 8003fd4:	d019      	beq.n	800400a <tcp_slowtmr+0x106>
 8003fd6:	2b04      	cmp	r3, #4
 8003fd8:	d002      	beq.n	8003fe0 <tcp_slowtmr+0xdc>
 8003fda:	2b07      	cmp	r3, #7
 8003fdc:	f040 8138 	bne.w	8004250 <tcp_slowtmr+0x34c>
 8003fe0:	6831      	ldr	r1, [r6, #0]
 8003fe2:	6a23      	ldr	r3, [r4, #32]
 8003fe4:	f8d4 5094 	ldr.w	r5, [r4, #148]	; 0x94
 8003fe8:	1ac9      	subs	r1, r1, r3
 8003fea:	f505 2224 	add.w	r2, r5, #671744	; 0xa4000
 8003fee:	f602 42b8 	addw	r2, r2, #3256	; 0xcb8
 8003ff2:	f44f 70fa 	mov.w	r0, #500	; 0x1f4
 8003ff6:	fbb2 f2f0 	udiv	r2, r2, r0
 8003ffa:	4291      	cmp	r1, r2
 8003ffc:	f240 8116 	bls.w	800422c <tcp_slowtmr+0x328>
 8004000:	f10b 0b01 	add.w	fp, fp, #1
 8004004:	fa5f fb8b 	uxtb.w	fp, fp
 8004008:	2501      	movs	r5, #1
 800400a:	6f63      	ldr	r3, [r4, #116]	; 0x74
 800400c:	b163      	cbz	r3, 8004028 <tcp_slowtmr+0x124>
 800400e:	6833      	ldr	r3, [r6, #0]
 8004010:	6a22      	ldr	r2, [r4, #32]
 8004012:	1a9a      	subs	r2, r3, r2
 8004014:	f9b4 3040 	ldrsh.w	r3, [r4, #64]	; 0x40
 8004018:	eb03 0343 	add.w	r3, r3, r3, lsl #1
 800401c:	ebb2 0f43 	cmp.w	r2, r3, lsl #1
 8004020:	d302      	bcc.n	8004028 <tcp_slowtmr+0x124>
 8004022:	4620      	mov	r0, r4
 8004024:	f7ff fbb8 	bl	8003798 <tcp_free_ooseq>
 8004028:	7d23      	ldrb	r3, [r4, #20]
 800402a:	2b03      	cmp	r3, #3
 800402c:	f040 8112 	bne.w	8004254 <tcp_slowtmr+0x350>
 8004030:	6833      	ldr	r3, [r6, #0]
 8004032:	6a22      	ldr	r2, [r4, #32]
 8004034:	1a9b      	subs	r3, r3, r2
 8004036:	2b28      	cmp	r3, #40	; 0x28
 8004038:	d803      	bhi.n	8004042 <tcp_slowtmr+0x13e>
 800403a:	f1bb 0f00 	cmp.w	fp, #0
 800403e:	f000 811e 	beq.w	800427e <tcp_slowtmr+0x37a>
 8004042:	4620      	mov	r0, r4
 8004044:	f8d4 b090 	ldr.w	fp, [r4, #144]	; 0x90
 8004048:	f7ff fbb0 	bl	80037ac <tcp_pcb_purge>
 800404c:	f8da 3000 	ldr.w	r3, [sl]
 8004050:	f1b9 0f00 	cmp.w	r9, #0
 8004054:	f000 8106 	beq.w	8004264 <tcp_slowtmr+0x360>
 8004058:	42a3      	cmp	r3, r4
 800405a:	d106      	bne.n	800406a <tcp_slowtmr+0x166>
 800405c:	496b      	ldr	r1, [pc, #428]	; (800420c <tcp_slowtmr+0x308>)
 800405e:	463b      	mov	r3, r7
 8004060:	f240 526d 	movw	r2, #1389	; 0x56d
 8004064:	4640      	mov	r0, r8
 8004066:	f004 fa4b 	bl	8008500 <iprintf>
 800406a:	68e3      	ldr	r3, [r4, #12]
 800406c:	f8c9 300c 	str.w	r3, [r9, #12]
 8004070:	b15d      	cbz	r5, 800408a <tcp_slowtmr+0x186>
 8004072:	8b23      	ldrh	r3, [r4, #24]
 8004074:	9302      	str	r3, [sp, #8]
 8004076:	8ae3      	ldrh	r3, [r4, #22]
 8004078:	9301      	str	r3, [sp, #4]
 800407a:	1d23      	adds	r3, r4, #4
 800407c:	9300      	str	r3, [sp, #0]
 800407e:	6a62      	ldr	r2, [r4, #36]	; 0x24
 8004080:	6d21      	ldr	r1, [r4, #80]	; 0x50
 8004082:	4623      	mov	r3, r4
 8004084:	4620      	mov	r0, r4
 8004086:	f002 fab1 	bl	80065ec <tcp_rst>
 800408a:	6923      	ldr	r3, [r4, #16]
 800408c:	68e5      	ldr	r5, [r4, #12]
 800408e:	9305      	str	r3, [sp, #20]
 8004090:	4620      	mov	r0, r4
 8004092:	4c5f      	ldr	r4, [pc, #380]	; (8004210 <tcp_slowtmr+0x30c>)
 8004094:	f7ff f93e 	bl	8003314 <tcp_free>
 8004098:	2200      	movs	r2, #0
 800409a:	7022      	strb	r2, [r4, #0]
 800409c:	f1bb 0f00 	cmp.w	fp, #0
 80040a0:	d008      	beq.n	80040b4 <tcp_slowtmr+0x1b0>
 80040a2:	9b05      	ldr	r3, [sp, #20]
 80040a4:	f06f 010c 	mvn.w	r1, #12
 80040a8:	4618      	mov	r0, r3
 80040aa:	47d8      	blx	fp
 80040ac:	7823      	ldrb	r3, [r4, #0]
 80040ae:	2b00      	cmp	r3, #0
 80040b0:	f47f af37 	bne.w	8003f22 <tcp_slowtmr+0x1e>
 80040b4:	464c      	mov	r4, r9
 80040b6:	e76c      	b.n	8003f92 <tcp_slowtmr+0x8e>
 80040b8:	2b0b      	cmp	r3, #11
 80040ba:	e775      	b.n	8003fa8 <tcp_slowtmr+0xa4>
 80040bc:	f894 b099 	ldrb.w	fp, [r4, #153]	; 0x99
 80040c0:	f1bb 0f00 	cmp.w	fp, #0
 80040c4:	d046      	beq.n	8004154 <tcp_slowtmr+0x250>
 80040c6:	6f23      	ldr	r3, [r4, #112]	; 0x70
 80040c8:	b133      	cbz	r3, 80040d8 <tcp_slowtmr+0x1d4>
 80040ca:	4952      	ldr	r1, [pc, #328]	; (8004214 <tcp_slowtmr+0x310>)
 80040cc:	463b      	mov	r3, r7
 80040ce:	f240 42d4 	movw	r2, #1236	; 0x4d4
 80040d2:	4640      	mov	r0, r8
 80040d4:	f004 fa14 	bl	8008500 <iprintf>
 80040d8:	6ee3      	ldr	r3, [r4, #108]	; 0x6c
 80040da:	b933      	cbnz	r3, 80040ea <tcp_slowtmr+0x1e6>
 80040dc:	494e      	ldr	r1, [pc, #312]	; (8004218 <tcp_slowtmr+0x314>)
 80040de:	463b      	mov	r3, r7
 80040e0:	f240 42d5 	movw	r2, #1237	; 0x4d5
 80040e4:	4640      	mov	r0, r8
 80040e6:	f004 fa0b 	bl	8008500 <iprintf>
 80040ea:	f894 309a 	ldrb.w	r3, [r4, #154]	; 0x9a
 80040ee:	2b0b      	cmp	r3, #11
 80040f0:	f63f af5c 	bhi.w	8003fac <tcp_slowtmr+0xa8>
 80040f4:	f894 2099 	ldrb.w	r2, [r4, #153]	; 0x99
 80040f8:	4b48      	ldr	r3, [pc, #288]	; (800421c <tcp_slowtmr+0x318>)
 80040fa:	4413      	add	r3, r2
 80040fc:	f813 2c01 	ldrb.w	r2, [r3, #-1]
 8004100:	f894 3098 	ldrb.w	r3, [r4, #152]	; 0x98
 8004104:	4293      	cmp	r3, r2
 8004106:	d30b      	bcc.n	8004120 <tcp_slowtmr+0x21c>
 8004108:	f8b4 1060 	ldrh.w	r1, [r4, #96]	; 0x60
 800410c:	b189      	cbz	r1, 8004132 <tcp_slowtmr+0x22e>
 800410e:	4620      	mov	r0, r4
 8004110:	f002 f822 	bl	8006158 <tcp_split_unsent_seg>
 8004114:	b990      	cbnz	r0, 800413c <tcp_slowtmr+0x238>
 8004116:	4620      	mov	r0, r4
 8004118:	f002 fae0 	bl	80066dc <tcp_output>
 800411c:	b130      	cbz	r0, 800412c <tcp_slowtmr+0x228>
 800411e:	e00d      	b.n	800413c <tcp_slowtmr+0x238>
 8004120:	3301      	adds	r3, #1
 8004122:	b2db      	uxtb	r3, r3
 8004124:	4293      	cmp	r3, r2
 8004126:	f884 3098 	strb.w	r3, [r4, #152]	; 0x98
 800412a:	d2ed      	bcs.n	8004108 <tcp_slowtmr+0x204>
 800412c:	f04f 0b00 	mov.w	fp, #0
 8004130:	e73e      	b.n	8003fb0 <tcp_slowtmr+0xac>
 8004132:	4620      	mov	r0, r4
 8004134:	f002 fcda 	bl	8006aec <tcp_zero_window_probe>
 8004138:	2800      	cmp	r0, #0
 800413a:	d1f7      	bne.n	800412c <tcp_slowtmr+0x228>
 800413c:	f894 3099 	ldrb.w	r3, [r4, #153]	; 0x99
 8004140:	f04f 0b00 	mov.w	fp, #0
 8004144:	2b06      	cmp	r3, #6
 8004146:	f884 b098 	strb.w	fp, [r4, #152]	; 0x98
 800414a:	d8ef      	bhi.n	800412c <tcp_slowtmr+0x228>
 800414c:	3301      	adds	r3, #1
 800414e:	f884 3099 	strb.w	r3, [r4, #153]	; 0x99
 8004152:	e72d      	b.n	8003fb0 <tcp_slowtmr+0xac>
 8004154:	8e23      	ldrh	r3, [r4, #48]	; 0x30
 8004156:	f647 72fe 	movw	r2, #32766	; 0x7ffe
 800415a:	4293      	cmp	r3, r2
 800415c:	bf9c      	itt	ls
 800415e:	3301      	addls	r3, #1
 8004160:	8623      	strhls	r3, [r4, #48]	; 0x30
 8004162:	f9b4 2030 	ldrsh.w	r2, [r4, #48]	; 0x30
 8004166:	f9b4 3040 	ldrsh.w	r3, [r4, #64]	; 0x40
 800416a:	429a      	cmp	r2, r3
 800416c:	dbde      	blt.n	800412c <tcp_slowtmr+0x228>
 800416e:	4620      	mov	r0, r4
 8004170:	f002 f982 	bl	8006478 <tcp_rexmit_rto_prepare>
 8004174:	b128      	cbz	r0, 8004182 <tcp_slowtmr+0x27e>
 8004176:	6f23      	ldr	r3, [r4, #112]	; 0x70
 8004178:	2b00      	cmp	r3, #0
 800417a:	d1d7      	bne.n	800412c <tcp_slowtmr+0x228>
 800417c:	6ee3      	ldr	r3, [r4, #108]	; 0x6c
 800417e:	2b00      	cmp	r3, #0
 8004180:	d0d4      	beq.n	800412c <tcp_slowtmr+0x228>
 8004182:	7d23      	ldrb	r3, [r4, #20]
 8004184:	2b02      	cmp	r3, #2
 8004186:	d014      	beq.n	80041b2 <tcp_slowtmr+0x2ae>
 8004188:	f9b4 203c 	ldrsh.w	r2, [r4, #60]	; 0x3c
 800418c:	f9b4 303e 	ldrsh.w	r3, [r4, #62]	; 0x3e
 8004190:	4923      	ldr	r1, [pc, #140]	; (8004220 <tcp_slowtmr+0x31c>)
 8004192:	eb03 03e2 	add.w	r3, r3, r2, asr #3
 8004196:	f894 2042 	ldrb.w	r2, [r4, #66]	; 0x42
 800419a:	2a0c      	cmp	r2, #12
 800419c:	bf28      	it	cs
 800419e:	220c      	movcs	r2, #12
 80041a0:	5c8a      	ldrb	r2, [r1, r2]
 80041a2:	4093      	lsls	r3, r2
 80041a4:	f647 72ff 	movw	r2, #32767	; 0x7fff
 80041a8:	4293      	cmp	r3, r2
 80041aa:	bfa8      	it	ge
 80041ac:	4613      	movge	r3, r2
 80041ae:	f8a4 3040 	strh.w	r3, [r4, #64]	; 0x40
 80041b2:	f8b4 2060 	ldrh.w	r2, [r4, #96]	; 0x60
 80041b6:	f8b4 3048 	ldrh.w	r3, [r4, #72]	; 0x48
 80041ba:	8e65      	ldrh	r5, [r4, #50]	; 0x32
 80041bc:	f8a4 5048 	strh.w	r5, [r4, #72]	; 0x48
 80041c0:	429a      	cmp	r2, r3
 80041c2:	bf28      	it	cs
 80041c4:	461a      	movcs	r2, r3
 80041c6:	006b      	lsls	r3, r5, #1
 80041c8:	b29b      	uxth	r3, r3
 80041ca:	0851      	lsrs	r1, r2, #1
 80041cc:	ebb3 0f52 	cmp.w	r3, r2, lsr #1
 80041d0:	f04f 0000 	mov.w	r0, #0
 80041d4:	bf98      	it	ls
 80041d6:	460b      	movls	r3, r1
 80041d8:	8620      	strh	r0, [r4, #48]	; 0x30
 80041da:	f8a4 006a 	strh.w	r0, [r4, #106]	; 0x6a
 80041de:	f8a4 304a 	strh.w	r3, [r4, #74]	; 0x4a
 80041e2:	4620      	mov	r0, r4
 80041e4:	f002 fc24 	bl	8006a30 <tcp_rexmit_rto_commit>
 80041e8:	e6e2      	b.n	8003fb0 <tcp_slowtmr+0xac>
 80041ea:	bf00      	nop
 80041ec:	2000a798 	.word	0x2000a798
 80041f0:	08009d63 	.word	0x08009d63
 80041f4:	20000052 	.word	0x20000052
 80041f8:	2000a794 	.word	0x2000a794
 80041fc:	2000a7a4 	.word	0x2000a7a4
 8004200:	0800a1cd 	.word	0x0800a1cd
 8004204:	0800a1f7 	.word	0x0800a1f7
 8004208:	0800a221 	.word	0x0800a221
 800420c:	0800a2b5 	.word	0x0800a2b5
 8004210:	2000a790 	.word	0x2000a790
 8004214:	0800a24e 	.word	0x0800a24e
 8004218:	0800a280 	.word	0x0800a280
 800421c:	0800a3a4 	.word	0x0800a3a4
 8004220:	0800a386 	.word	0x0800a386
 8004224:	080095b5 	.word	0x080095b5
 8004228:	0800a30a 	.word	0x0800a30a
 800422c:	f894 309b 	ldrb.w	r3, [r4, #155]	; 0x9b
 8004230:	4a3f      	ldr	r2, [pc, #252]	; (8004330 <tcp_slowtmr+0x42c>)
 8004232:	fb02 5303 	mla	r3, r2, r3, r5
 8004236:	fbb3 f3f0 	udiv	r3, r3, r0
 800423a:	4299      	cmp	r1, r3
 800423c:	d908      	bls.n	8004250 <tcp_slowtmr+0x34c>
 800423e:	4620      	mov	r0, r4
 8004240:	f002 fc2c 	bl	8006a9c <tcp_keepalive>
 8004244:	b920      	cbnz	r0, 8004250 <tcp_slowtmr+0x34c>
 8004246:	f894 309b 	ldrb.w	r3, [r4, #155]	; 0x9b
 800424a:	3301      	adds	r3, #1
 800424c:	f884 309b 	strb.w	r3, [r4, #155]	; 0x9b
 8004250:	2500      	movs	r5, #0
 8004252:	e6da      	b.n	800400a <tcp_slowtmr+0x106>
 8004254:	2b09      	cmp	r3, #9
 8004256:	f47f aef0 	bne.w	800403a <tcp_slowtmr+0x136>
 800425a:	6833      	ldr	r3, [r6, #0]
 800425c:	6a22      	ldr	r2, [r4, #32]
 800425e:	1a9b      	subs	r3, r3, r2
 8004260:	2bf0      	cmp	r3, #240	; 0xf0
 8004262:	e6e9      	b.n	8004038 <tcp_slowtmr+0x134>
 8004264:	42a3      	cmp	r3, r4
 8004266:	d006      	beq.n	8004276 <tcp_slowtmr+0x372>
 8004268:	4932      	ldr	r1, [pc, #200]	; (8004334 <tcp_slowtmr+0x430>)
 800426a:	463b      	mov	r3, r7
 800426c:	f240 5271 	movw	r2, #1393	; 0x571
 8004270:	4640      	mov	r0, r8
 8004272:	f004 f945 	bl	8008500 <iprintf>
 8004276:	68e3      	ldr	r3, [r4, #12]
 8004278:	f8ca 3000 	str.w	r3, [sl]
 800427c:	e6f8      	b.n	8004070 <tcp_slowtmr+0x16c>
 800427e:	7f23      	ldrb	r3, [r4, #28]
 8004280:	7f62      	ldrb	r2, [r4, #29]
 8004282:	68e5      	ldr	r5, [r4, #12]
 8004284:	3301      	adds	r3, #1
 8004286:	b2db      	uxtb	r3, r3
 8004288:	429a      	cmp	r2, r3
 800428a:	7723      	strb	r3, [r4, #28]
 800428c:	f63f ae81 	bhi.w	8003f92 <tcp_slowtmr+0x8e>
 8004290:	f8df 90ac 	ldr.w	r9, [pc, #172]	; 8004340 <tcp_slowtmr+0x43c>
 8004294:	f8d4 308c 	ldr.w	r3, [r4, #140]	; 0x8c
 8004298:	f884 b01c 	strb.w	fp, [r4, #28]
 800429c:	f889 b000 	strb.w	fp, [r9]
 80042a0:	b91b      	cbnz	r3, 80042aa <tcp_slowtmr+0x3a6>
 80042a2:	4620      	mov	r0, r4
 80042a4:	f002 fa1a 	bl	80066dc <tcp_output>
 80042a8:	e673      	b.n	8003f92 <tcp_slowtmr+0x8e>
 80042aa:	6920      	ldr	r0, [r4, #16]
 80042ac:	4621      	mov	r1, r4
 80042ae:	4798      	blx	r3
 80042b0:	f899 3000 	ldrb.w	r3, [r9]
 80042b4:	2b00      	cmp	r3, #0
 80042b6:	f47f ae34 	bne.w	8003f22 <tcp_slowtmr+0x1e>
 80042ba:	2800      	cmp	r0, #0
 80042bc:	f47f ae69 	bne.w	8003f92 <tcp_slowtmr+0x8e>
 80042c0:	e7ef      	b.n	80042a2 <tcp_slowtmr+0x39e>
 80042c2:	7d2b      	ldrb	r3, [r5, #20]
 80042c4:	2b0a      	cmp	r3, #10
 80042c6:	d006      	beq.n	80042d6 <tcp_slowtmr+0x3d2>
 80042c8:	4643      	mov	r3, r8
 80042ca:	f240 52a1 	movw	r2, #1441	; 0x5a1
 80042ce:	4651      	mov	r1, sl
 80042d0:	4648      	mov	r0, r9
 80042d2:	f004 f915 	bl	8008500 <iprintf>
 80042d6:	6833      	ldr	r3, [r6, #0]
 80042d8:	6a2a      	ldr	r2, [r5, #32]
 80042da:	1a9b      	subs	r3, r3, r2
 80042dc:	2bf0      	cmp	r3, #240	; 0xf0
 80042de:	d910      	bls.n	8004302 <tcp_slowtmr+0x3fe>
 80042e0:	4628      	mov	r0, r5
 80042e2:	f7ff fa63 	bl	80037ac <tcp_pcb_purge>
 80042e6:	b97c      	cbnz	r4, 8004308 <tcp_slowtmr+0x404>
 80042e8:	683b      	ldr	r3, [r7, #0]
 80042ea:	42ab      	cmp	r3, r5
 80042ec:	d006      	beq.n	80042fc <tcp_slowtmr+0x3f8>
 80042ee:	4912      	ldr	r1, [pc, #72]	; (8004338 <tcp_slowtmr+0x434>)
 80042f0:	4643      	mov	r3, r8
 80042f2:	f240 52b3 	movw	r2, #1459	; 0x5b3
 80042f6:	4648      	mov	r0, r9
 80042f8:	f004 f902 	bl	8008500 <iprintf>
 80042fc:	68eb      	ldr	r3, [r5, #12]
 80042fe:	603b      	str	r3, [r7, #0]
 8004300:	e00e      	b.n	8004320 <tcp_slowtmr+0x41c>
 8004302:	462c      	mov	r4, r5
 8004304:	68ed      	ldr	r5, [r5, #12]
 8004306:	e61b      	b.n	8003f40 <tcp_slowtmr+0x3c>
 8004308:	683b      	ldr	r3, [r7, #0]
 800430a:	42ab      	cmp	r3, r5
 800430c:	d106      	bne.n	800431c <tcp_slowtmr+0x418>
 800430e:	490b      	ldr	r1, [pc, #44]	; (800433c <tcp_slowtmr+0x438>)
 8004310:	4643      	mov	r3, r8
 8004312:	f240 52af 	movw	r2, #1455	; 0x5af
 8004316:	4648      	mov	r0, r9
 8004318:	f004 f8f2 	bl	8008500 <iprintf>
 800431c:	68eb      	ldr	r3, [r5, #12]
 800431e:	60e3      	str	r3, [r4, #12]
 8004320:	f8d5 b00c 	ldr.w	fp, [r5, #12]
 8004324:	4628      	mov	r0, r5
 8004326:	f7fe fff5 	bl	8003314 <tcp_free>
 800432a:	465d      	mov	r5, fp
 800432c:	e608      	b.n	8003f40 <tcp_slowtmr+0x3c>
 800432e:	bf00      	nop
 8004330:	000124f8 	.word	0x000124f8
 8004334:	0800a2e0 	.word	0x0800a2e0
 8004338:	0800a360 	.word	0x0800a360
 800433c:	0800a339 	.word	0x0800a339
 8004340:	2000a790 	.word	0x2000a790

08004344 <tcp_tmr>:
 8004344:	b508      	push	{r3, lr}
 8004346:	f7ff fd9d 	bl	8003e84 <tcp_fasttmr>
 800434a:	4a06      	ldr	r2, [pc, #24]	; (8004364 <tcp_tmr+0x20>)
 800434c:	7813      	ldrb	r3, [r2, #0]
 800434e:	3301      	adds	r3, #1
 8004350:	b2db      	uxtb	r3, r3
 8004352:	7013      	strb	r3, [r2, #0]
 8004354:	07db      	lsls	r3, r3, #31
 8004356:	d503      	bpl.n	8004360 <tcp_tmr+0x1c>
 8004358:	e8bd 4008 	ldmia.w	sp!, {r3, lr}
 800435c:	f7ff bdd2 	b.w	8003f04 <tcp_slowtmr>
 8004360:	bd08      	pop	{r3, pc}
 8004362:	bf00      	nop
 8004364:	20000051 	.word	0x20000051

08004368 <tcp_get_next_optbyte>:
 8004368:	4a09      	ldr	r2, [pc, #36]	; (8004390 <tcp_get_next_optbyte+0x28>)
 800436a:	8813      	ldrh	r3, [r2, #0]
 800436c:	1c59      	adds	r1, r3, #1
 800436e:	8011      	strh	r1, [r2, #0]
 8004370:	4a08      	ldr	r2, [pc, #32]	; (8004394 <tcp_get_next_optbyte+0x2c>)
 8004372:	6812      	ldr	r2, [r2, #0]
 8004374:	b11a      	cbz	r2, 800437e <tcp_get_next_optbyte+0x16>
 8004376:	4908      	ldr	r1, [pc, #32]	; (8004398 <tcp_get_next_optbyte+0x30>)
 8004378:	8809      	ldrh	r1, [r1, #0]
 800437a:	428b      	cmp	r3, r1
 800437c:	d204      	bcs.n	8004388 <tcp_get_next_optbyte+0x20>
 800437e:	4a07      	ldr	r2, [pc, #28]	; (800439c <tcp_get_next_optbyte+0x34>)
 8004380:	6812      	ldr	r2, [r2, #0]
 8004382:	4413      	add	r3, r2
 8004384:	7d18      	ldrb	r0, [r3, #20]
 8004386:	4770      	bx	lr
 8004388:	1a5b      	subs	r3, r3, r1
 800438a:	b2db      	uxtb	r3, r3
 800438c:	5cd0      	ldrb	r0, [r2, r3]
 800438e:	4770      	bx	lr
 8004390:	2000007c 	.word	0x2000007c
 8004394:	20000088 	.word	0x20000088
 8004398:	20000084 	.word	0x20000084
 800439c:	20000080 	.word	0x20000080

080043a0 <tcp_oos_insert_segment>:
 80043a0:	b5f8      	push	{r3, r4, r5, r6, r7, lr}
 80043a2:	460c      	mov	r4, r1
 80043a4:	4605      	mov	r5, r0
 80043a6:	b930      	cbnz	r0, 80043b6 <tcp_oos_insert_segment+0x16>
 80043a8:	4b1e      	ldr	r3, [pc, #120]	; (8004424 <tcp_oos_insert_segment+0x84>)
 80043aa:	491f      	ldr	r1, [pc, #124]	; (8004428 <tcp_oos_insert_segment+0x88>)
 80043ac:	481f      	ldr	r0, [pc, #124]	; (800442c <tcp_oos_insert_segment+0x8c>)
 80043ae:	f240 421f 	movw	r2, #1055	; 0x41f
 80043b2:	f004 f8a5 	bl	8008500 <iprintf>
 80043b6:	68eb      	ldr	r3, [r5, #12]
 80043b8:	8998      	ldrh	r0, [r3, #12]
 80043ba:	f7fd ff8b 	bl	80022d4 <lwip_htons>
 80043be:	07c2      	lsls	r2, r0, #31
 80043c0:	d414      	bmi.n	80043ec <tcp_oos_insert_segment+0x4c>
 80043c2:	4e1b      	ldr	r6, [pc, #108]	; (8004430 <tcp_oos_insert_segment+0x90>)
 80043c4:	68e7      	ldr	r7, [r4, #12]
 80043c6:	6830      	ldr	r0, [r6, #0]
 80043c8:	892b      	ldrh	r3, [r5, #8]
 80043ca:	6879      	ldr	r1, [r7, #4]
 80043cc:	8922      	ldrh	r2, [r4, #8]
 80043ce:	4403      	add	r3, r0
 80043d0:	440a      	add	r2, r1
 80043d2:	1a9a      	subs	r2, r3, r2
 80043d4:	2a00      	cmp	r2, #0
 80043d6:	da0f      	bge.n	80043f8 <tcp_oos_insert_segment+0x58>
 80043d8:	1a5b      	subs	r3, r3, r1
 80043da:	2b00      	cmp	r3, #0
 80043dc:	dd0a      	ble.n	80043f4 <tcp_oos_insert_segment+0x54>
 80043de:	1a09      	subs	r1, r1, r0
 80043e0:	b289      	uxth	r1, r1
 80043e2:	6868      	ldr	r0, [r5, #4]
 80043e4:	8129      	strh	r1, [r5, #8]
 80043e6:	f7fe fd35 	bl	8002e54 <pbuf_realloc>
 80043ea:	e003      	b.n	80043f4 <tcp_oos_insert_segment+0x54>
 80043ec:	4620      	mov	r0, r4
 80043ee:	f7ff f8e9 	bl	80035c4 <tcp_segs_free>
 80043f2:	2400      	movs	r4, #0
 80043f4:	602c      	str	r4, [r5, #0]
 80043f6:	bdf8      	pop	{r3, r4, r5, r6, r7, pc}
 80043f8:	89b8      	ldrh	r0, [r7, #12]
 80043fa:	f7fd ff6b 	bl	80022d4 <lwip_htons>
 80043fe:	07c3      	lsls	r3, r0, #31
 8004400:	d507      	bpl.n	8004412 <tcp_oos_insert_segment+0x72>
 8004402:	68eb      	ldr	r3, [r5, #12]
 8004404:	2001      	movs	r0, #1
 8004406:	899f      	ldrh	r7, [r3, #12]
 8004408:	f7fd ff64 	bl	80022d4 <lwip_htons>
 800440c:	68eb      	ldr	r3, [r5, #12]
 800440e:	4338      	orrs	r0, r7
 8004410:	8198      	strh	r0, [r3, #12]
 8004412:	6827      	ldr	r7, [r4, #0]
 8004414:	4620      	mov	r0, r4
 8004416:	f7ff f8c7 	bl	80035a8 <tcp_seg_free>
 800441a:	463c      	mov	r4, r7
 800441c:	2f00      	cmp	r7, #0
 800441e:	d1d1      	bne.n	80043c4 <tcp_oos_insert_segment+0x24>
 8004420:	e7e8      	b.n	80043f4 <tcp_oos_insert_segment+0x54>
 8004422:	bf00      	nop
 8004424:	0800a3ab 	.word	0x0800a3ab
 8004428:	0800a3dd 	.word	0x0800a3dd
 800442c:	080095b5 	.word	0x080095b5
 8004430:	20000078 	.word	0x20000078

08004434 <tcp_parseopt>:
 8004434:	b5f8      	push	{r3, r4, r5, r6, r7, lr}
 8004436:	4606      	mov	r6, r0
 8004438:	b930      	cbnz	r0, 8004448 <tcp_parseopt+0x14>
 800443a:	4b1d      	ldr	r3, [pc, #116]	; (80044b0 <tcp_parseopt+0x7c>)
 800443c:	491d      	ldr	r1, [pc, #116]	; (80044b4 <tcp_parseopt+0x80>)
 800443e:	481e      	ldr	r0, [pc, #120]	; (80044b8 <tcp_parseopt+0x84>)
 8004440:	f240 727d 	movw	r2, #1917	; 0x77d
 8004444:	f004 f85c 	bl	8008500 <iprintf>
 8004448:	4b1c      	ldr	r3, [pc, #112]	; (80044bc <tcp_parseopt+0x88>)
 800444a:	881f      	ldrh	r7, [r3, #0]
 800444c:	b167      	cbz	r7, 8004468 <tcp_parseopt+0x34>
 800444e:	4d1c      	ldr	r5, [pc, #112]	; (80044c0 <tcp_parseopt+0x8c>)
 8004450:	2300      	movs	r3, #0
 8004452:	802b      	strh	r3, [r5, #0]
 8004454:	882b      	ldrh	r3, [r5, #0]
 8004456:	42bb      	cmp	r3, r7
 8004458:	d206      	bcs.n	8004468 <tcp_parseopt+0x34>
 800445a:	f7ff ff85 	bl	8004368 <tcp_get_next_optbyte>
 800445e:	2801      	cmp	r0, #1
 8004460:	d0f8      	beq.n	8004454 <tcp_parseopt+0x20>
 8004462:	2802      	cmp	r0, #2
 8004464:	d001      	beq.n	800446a <tcp_parseopt+0x36>
 8004466:	b9c8      	cbnz	r0, 800449c <tcp_parseopt+0x68>
 8004468:	bdf8      	pop	{r3, r4, r5, r6, r7, pc}
 800446a:	f7ff ff7d 	bl	8004368 <tcp_get_next_optbyte>
 800446e:	2804      	cmp	r0, #4
 8004470:	d1fa      	bne.n	8004468 <tcp_parseopt+0x34>
 8004472:	882b      	ldrh	r3, [r5, #0]
 8004474:	3301      	adds	r3, #1
 8004476:	42bb      	cmp	r3, r7
 8004478:	daf6      	bge.n	8004468 <tcp_parseopt+0x34>
 800447a:	f7ff ff75 	bl	8004368 <tcp_get_next_optbyte>
 800447e:	0204      	lsls	r4, r0, #8
 8004480:	f7ff ff72 	bl	8004368 <tcp_get_next_optbyte>
 8004484:	b2a4      	uxth	r4, r4
 8004486:	ea44 0300 	orr.w	r3, r4, r0
 800448a:	b29b      	uxth	r3, r3
 800448c:	1e5a      	subs	r2, r3, #1
 800448e:	f5b2 7f06 	cmp.w	r2, #536	; 0x218
 8004492:	bf28      	it	cs
 8004494:	f44f 7306 	movcs.w	r3, #536	; 0x218
 8004498:	8673      	strh	r3, [r6, #50]	; 0x32
 800449a:	e7db      	b.n	8004454 <tcp_parseopt+0x20>
 800449c:	f7ff ff64 	bl	8004368 <tcp_get_next_optbyte>
 80044a0:	2801      	cmp	r0, #1
 80044a2:	d9e1      	bls.n	8004468 <tcp_parseopt+0x34>
 80044a4:	882b      	ldrh	r3, [r5, #0]
 80044a6:	3b02      	subs	r3, #2
 80044a8:	4418      	add	r0, r3
 80044aa:	8028      	strh	r0, [r5, #0]
 80044ac:	e7d2      	b.n	8004454 <tcp_parseopt+0x20>
 80044ae:	bf00      	nop
 80044b0:	0800a3ab 	.word	0x0800a3ab
 80044b4:	0800a402 	.word	0x0800a402
 80044b8:	080095b5 	.word	0x080095b5
 80044bc:	2000008c 	.word	0x2000008c
 80044c0:	2000007c 	.word	0x2000007c

080044c4 <tcp_input_delayed_close>:
 80044c4:	b510      	push	{r4, lr}
 80044c6:	4604      	mov	r4, r0
 80044c8:	b930      	cbnz	r0, 80044d8 <tcp_input_delayed_close+0x14>
 80044ca:	4b0f      	ldr	r3, [pc, #60]	; (8004508 <tcp_input_delayed_close+0x44>)
 80044cc:	490f      	ldr	r1, [pc, #60]	; (800450c <tcp_input_delayed_close+0x48>)
 80044ce:	4810      	ldr	r0, [pc, #64]	; (8004510 <tcp_input_delayed_close+0x4c>)
 80044d0:	f240 225a 	movw	r2, #602	; 0x25a
 80044d4:	f004 f814 	bl	8008500 <iprintf>
 80044d8:	4b0e      	ldr	r3, [pc, #56]	; (8004514 <tcp_input_delayed_close+0x50>)
 80044da:	7818      	ldrb	r0, [r3, #0]
 80044dc:	f010 0010 	ands.w	r0, r0, #16
 80044e0:	d011      	beq.n	8004506 <tcp_input_delayed_close+0x42>
 80044e2:	8b63      	ldrh	r3, [r4, #26]
 80044e4:	06db      	lsls	r3, r3, #27
 80044e6:	d406      	bmi.n	80044f6 <tcp_input_delayed_close+0x32>
 80044e8:	f8d4 3090 	ldr.w	r3, [r4, #144]	; 0x90
 80044ec:	b11b      	cbz	r3, 80044f6 <tcp_input_delayed_close+0x32>
 80044ee:	6920      	ldr	r0, [r4, #16]
 80044f0:	f06f 010e 	mvn.w	r1, #14
 80044f4:	4798      	blx	r3
 80044f6:	4808      	ldr	r0, [pc, #32]	; (8004518 <tcp_input_delayed_close+0x54>)
 80044f8:	4621      	mov	r1, r4
 80044fa:	f7ff f989 	bl	8003810 <tcp_pcb_remove>
 80044fe:	4620      	mov	r0, r4
 8004500:	f7fe ff08 	bl	8003314 <tcp_free>
 8004504:	2001      	movs	r0, #1
 8004506:	bd10      	pop	{r4, pc}
 8004508:	0800a3ab 	.word	0x0800a3ab
 800450c:	0800a41c 	.word	0x0800a41c
 8004510:	080095b5 	.word	0x080095b5
 8004514:	20000074 	.word	0x20000074
 8004518:	2000a794 	.word	0x2000a794

0800451c <tcp_free_acked_segments.isra.0>:
 800451c:	e92d 4ff8 	stmdb	sp!, {r3, r4, r5, r6, r7, r8, r9, sl, fp, lr}
 8004520:	f8df 80ac 	ldr.w	r8, [pc, #172]	; 80045d0 <tcp_free_acked_segments.isra.0+0xb4>
 8004524:	f8df 90a0 	ldr.w	r9, [pc, #160]	; 80045c8 <tcp_free_acked_segments.isra.0+0xac>
 8004528:	f8df a0a8 	ldr.w	sl, [pc, #168]	; 80045d4 <tcp_free_acked_segments.isra.0+0xb8>
 800452c:	4606      	mov	r6, r0
 800452e:	4617      	mov	r7, r2
 8004530:	460c      	mov	r4, r1
 8004532:	2c00      	cmp	r4, #0
 8004534:	d036      	beq.n	80045a4 <tcp_free_acked_segments.isra.0+0x88>
 8004536:	68e3      	ldr	r3, [r4, #12]
 8004538:	6858      	ldr	r0, [r3, #4]
 800453a:	f7fd fece 	bl	80022da <lwip_htonl>
 800453e:	68e3      	ldr	r3, [r4, #12]
 8004540:	8925      	ldrh	r5, [r4, #8]
 8004542:	4683      	mov	fp, r0
 8004544:	8998      	ldrh	r0, [r3, #12]
 8004546:	f7fd fec5 	bl	80022d4 <lwip_htons>
 800454a:	f8d8 3000 	ldr.w	r3, [r8]
 800454e:	f010 0003 	ands.w	r0, r0, #3
 8004552:	eba5 0303 	sub.w	r3, r5, r3
 8004556:	bf18      	it	ne
 8004558:	2001      	movne	r0, #1
 800455a:	eb03 050b 	add.w	r5, r3, fp
 800455e:	4405      	add	r5, r0
 8004560:	2d00      	cmp	r5, #0
 8004562:	dc20      	bgt.n	80045a6 <tcp_free_acked_segments.isra.0+0x8a>
 8004564:	e9d4 b000 	ldrd	fp, r0, [r4]
 8004568:	f7fe fccc 	bl	8002f04 <pbuf_clen>
 800456c:	8833      	ldrh	r3, [r6, #0]
 800456e:	4283      	cmp	r3, r0
 8004570:	4605      	mov	r5, r0
 8004572:	d206      	bcs.n	8004582 <tcp_free_acked_segments.isra.0+0x66>
 8004574:	4812      	ldr	r0, [pc, #72]	; (80045c0 <tcp_free_acked_segments.isra.0+0xa4>)
 8004576:	464b      	mov	r3, r9
 8004578:	f240 4257 	movw	r2, #1111	; 0x457
 800457c:	4651      	mov	r1, sl
 800457e:	f003 ffbf 	bl	8008500 <iprintf>
 8004582:	8830      	ldrh	r0, [r6, #0]
 8004584:	4a0f      	ldr	r2, [pc, #60]	; (80045c4 <tcp_free_acked_segments.isra.0+0xa8>)
 8004586:	1b45      	subs	r5, r0, r5
 8004588:	8035      	strh	r5, [r6, #0]
 800458a:	8811      	ldrh	r1, [r2, #0]
 800458c:	8923      	ldrh	r3, [r4, #8]
 800458e:	4620      	mov	r0, r4
 8004590:	440b      	add	r3, r1
 8004592:	8013      	strh	r3, [r2, #0]
 8004594:	f7ff f808 	bl	80035a8 <tcp_seg_free>
 8004598:	8833      	ldrh	r3, [r6, #0]
 800459a:	b17b      	cbz	r3, 80045bc <tcp_free_acked_segments.isra.0+0xa0>
 800459c:	f1bb 0f00 	cmp.w	fp, #0
 80045a0:	d10c      	bne.n	80045bc <tcp_free_acked_segments.isra.0+0xa0>
 80045a2:	b11f      	cbz	r7, 80045ac <tcp_free_acked_segments.isra.0+0x90>
 80045a4:	2400      	movs	r4, #0
 80045a6:	4620      	mov	r0, r4
 80045a8:	e8bd 8ff8 	ldmia.w	sp!, {r3, r4, r5, r6, r7, r8, r9, sl, fp, pc}
 80045ac:	4b06      	ldr	r3, [pc, #24]	; (80045c8 <tcp_free_acked_segments.isra.0+0xac>)
 80045ae:	4907      	ldr	r1, [pc, #28]	; (80045cc <tcp_free_acked_segments.isra.0+0xb0>)
 80045b0:	4803      	ldr	r0, [pc, #12]	; (80045c0 <tcp_free_acked_segments.isra.0+0xa4>)
 80045b2:	f240 4261 	movw	r2, #1121	; 0x461
 80045b6:	f003 ffa3 	bl	8008500 <iprintf>
 80045ba:	e7f3      	b.n	80045a4 <tcp_free_acked_segments.isra.0+0x88>
 80045bc:	465c      	mov	r4, fp
 80045be:	e7b8      	b.n	8004532 <tcp_free_acked_segments.isra.0+0x16>
 80045c0:	080095b5 	.word	0x080095b5
 80045c4:	2000006c 	.word	0x2000006c
 80045c8:	0800a3ab 	.word	0x0800a3ab
 80045cc:	0800a469 	.word	0x0800a469
 80045d0:	20000054 	.word	0x20000054
 80045d4:	0800a441 	.word	0x0800a441

080045d8 <tcp_receive>:
 80045d8:	e92d 4ff8 	stmdb	sp!, {r3, r4, r5, r6, r7, r8, r9, sl, fp, lr}
 80045dc:	4604      	mov	r4, r0
 80045de:	b930      	cbnz	r0, 80045ee <tcp_receive+0x16>
 80045e0:	4b3a      	ldr	r3, [pc, #232]	; (80046cc <tcp_receive+0xf4>)
 80045e2:	493b      	ldr	r1, [pc, #236]	; (80046d0 <tcp_receive+0xf8>)
 80045e4:	483b      	ldr	r0, [pc, #236]	; (80046d4 <tcp_receive+0xfc>)
 80045e6:	f240 427b 	movw	r2, #1147	; 0x47b
 80045ea:	f003 ff89 	bl	8008500 <iprintf>
 80045ee:	7d23      	ldrb	r3, [r4, #20]
 80045f0:	2b03      	cmp	r3, #3
 80045f2:	d806      	bhi.n	8004602 <tcp_receive+0x2a>
 80045f4:	4b35      	ldr	r3, [pc, #212]	; (80046cc <tcp_receive+0xf4>)
 80045f6:	4938      	ldr	r1, [pc, #224]	; (80046d8 <tcp_receive+0x100>)
 80045f8:	4836      	ldr	r0, [pc, #216]	; (80046d4 <tcp_receive+0xfc>)
 80045fa:	f240 427c 	movw	r2, #1148	; 0x47c
 80045fe:	f003 ff7f 	bl	8008500 <iprintf>
 8004602:	4b36      	ldr	r3, [pc, #216]	; (80046dc <tcp_receive+0x104>)
 8004604:	4e36      	ldr	r6, [pc, #216]	; (80046e0 <tcp_receive+0x108>)
 8004606:	781b      	ldrb	r3, [r3, #0]
 8004608:	4f36      	ldr	r7, [pc, #216]	; (80046e4 <tcp_receive+0x10c>)
 800460a:	f013 0f10 	tst.w	r3, #16
 800460e:	f000 8099 	beq.w	8004744 <tcp_receive+0x16c>
 8004612:	e9d4 0c15 	ldrd	r0, ip, [r4, #84]	; 0x54
 8004616:	6833      	ldr	r3, [r6, #0]
 8004618:	4d33      	ldr	r5, [pc, #204]	; (80046e8 <tcp_receive+0x110>)
 800461a:	f8b4 1060 	ldrh.w	r1, [r4, #96]	; 0x60
 800461e:	682a      	ldr	r2, [r5, #0]
 8004620:	eba0 0e03 	sub.w	lr, r0, r3
 8004624:	f1be 0f00 	cmp.w	lr, #0
 8004628:	46a9      	mov	r9, r5
 800462a:	db0c      	blt.n	8004646 <tcp_receive+0x6e>
 800462c:	4298      	cmp	r0, r3
 800462e:	d103      	bne.n	8004638 <tcp_receive+0x60>
 8004630:	ebac 0002 	sub.w	r0, ip, r2
 8004634:	2800      	cmp	r0, #0
 8004636:	db06      	blt.n	8004646 <tcp_receive+0x6e>
 8004638:	4594      	cmp	ip, r2
 800463a:	d113      	bne.n	8004664 <tcp_receive+0x8c>
 800463c:	482b      	ldr	r0, [pc, #172]	; (80046ec <tcp_receive+0x114>)
 800463e:	6800      	ldr	r0, [r0, #0]
 8004640:	89c0      	ldrh	r0, [r0, #14]
 8004642:	4288      	cmp	r0, r1
 8004644:	d90e      	bls.n	8004664 <tcp_receive+0x8c>
 8004646:	4829      	ldr	r0, [pc, #164]	; (80046ec <tcp_receive+0x114>)
 8004648:	f8b4 8062 	ldrh.w	r8, [r4, #98]	; 0x62
 800464c:	6800      	ldr	r0, [r0, #0]
 800464e:	89c0      	ldrh	r0, [r0, #14]
 8004650:	f8a4 0060 	strh.w	r0, [r4, #96]	; 0x60
 8004654:	fa1f fe80 	uxth.w	lr, r0
 8004658:	e9c4 3215 	strd	r3, r2, [r4, #84]	; 0x54
 800465c:	45f0      	cmp	r8, lr
 800465e:	bf38      	it	cc
 8004660:	f8a4 0062 	strhcc.w	r0, [r4, #98]	; 0x62
 8004664:	6c60      	ldr	r0, [r4, #68]	; 0x44
 8004666:	1a13      	subs	r3, r2, r0
 8004668:	2b00      	cmp	r3, #0
 800466a:	f300 8177 	bgt.w	800495c <tcp_receive+0x384>
 800466e:	883b      	ldrh	r3, [r7, #0]
 8004670:	2b00      	cmp	r3, #0
 8004672:	f040 816f 	bne.w	8004954 <tcp_receive+0x37c>
 8004676:	f8b4 3060 	ldrh.w	r3, [r4, #96]	; 0x60
 800467a:	6da5      	ldr	r5, [r4, #88]	; 0x58
 800467c:	4461      	add	r1, ip
 800467e:	442b      	add	r3, r5
 8004680:	428b      	cmp	r3, r1
 8004682:	f040 8167 	bne.w	8004954 <tcp_receive+0x37c>
 8004686:	f9b4 3030 	ldrsh.w	r3, [r4, #48]	; 0x30
 800468a:	2b00      	cmp	r3, #0
 800468c:	f2c0 8162 	blt.w	8004954 <tcp_receive+0x37c>
 8004690:	4290      	cmp	r0, r2
 8004692:	f040 815f 	bne.w	8004954 <tcp_receive+0x37c>
 8004696:	f894 3043 	ldrb.w	r3, [r4, #67]	; 0x43
 800469a:	2bff      	cmp	r3, #255	; 0xff
 800469c:	bf1c      	itt	ne
 800469e:	3301      	addne	r3, #1
 80046a0:	f884 3043 	strbne.w	r3, [r4, #67]	; 0x43
 80046a4:	f894 3043 	ldrb.w	r3, [r4, #67]	; 0x43
 80046a8:	2b03      	cmp	r3, #3
 80046aa:	d921      	bls.n	80046f0 <tcp_receive+0x118>
 80046ac:	f8b4 2048 	ldrh.w	r2, [r4, #72]	; 0x48
 80046b0:	8e63      	ldrh	r3, [r4, #50]	; 0x32
 80046b2:	4413      	add	r3, r2
 80046b4:	b29b      	uxth	r3, r3
 80046b6:	f64f 71ff 	movw	r1, #65535	; 0xffff
 80046ba:	429a      	cmp	r2, r3
 80046bc:	bf88      	it	hi
 80046be:	460b      	movhi	r3, r1
 80046c0:	f8a4 3048 	strh.w	r3, [r4, #72]	; 0x48
 80046c4:	4620      	mov	r0, r4
 80046c6:	f001 ff5d 	bl	8006584 <tcp_rexmit_fast>
 80046ca:	e012      	b.n	80046f2 <tcp_receive+0x11a>
 80046cc:	0800a3ab 	.word	0x0800a3ab
 80046d0:	0800a489 	.word	0x0800a489
 80046d4:	080095b5 	.word	0x080095b5
 80046d8:	0800a4a2 	.word	0x0800a4a2
 80046dc:	20000058 	.word	0x20000058
 80046e0:	20000078 	.word	0x20000078
 80046e4:	2000008e 	.word	0x2000008e
 80046e8:	20000054 	.word	0x20000054
 80046ec:	20000080 	.word	0x20000080
 80046f0:	d0e8      	beq.n	80046c4 <tcp_receive+0xec>
 80046f2:	6b60      	ldr	r0, [r4, #52]	; 0x34
 80046f4:	b330      	cbz	r0, 8004744 <tcp_receive+0x16c>
 80046f6:	6ba3      	ldr	r3, [r4, #56]	; 0x38
 80046f8:	f8d9 2000 	ldr.w	r2, [r9]
 80046fc:	1a9b      	subs	r3, r3, r2
 80046fe:	2b00      	cmp	r3, #0
 8004700:	da20      	bge.n	8004744 <tcp_receive+0x16c>
 8004702:	4bb5      	ldr	r3, [pc, #724]	; (80049d8 <tcp_receive+0x400>)
 8004704:	f9b4 c03c 	ldrsh.w	ip, [r4, #60]	; 0x3c
 8004708:	881a      	ldrh	r2, [r3, #0]
 800470a:	b280      	uxth	r0, r0
 800470c:	1a11      	subs	r1, r2, r0
 800470e:	f3cc 05cf 	ubfx	r5, ip, #3, #16
 8004712:	1b49      	subs	r1, r1, r5
 8004714:	b20b      	sxth	r3, r1
 8004716:	2b00      	cmp	r3, #0
 8004718:	bfb8      	it	lt
 800471a:	1a80      	sublt	r0, r0, r2
 800471c:	f9b4 203e 	ldrsh.w	r2, [r4, #62]	; 0x3e
 8004720:	bfbc      	itt	lt
 8004722:	1940      	addlt	r0, r0, r5
 8004724:	b203      	sxthlt	r3, r0
 8004726:	eba2 02a2 	sub.w	r2, r2, r2, asr #2
 800472a:	fa1c f181 	uxtah	r1, ip, r1
 800472e:	4413      	add	r3, r2
 8004730:	b209      	sxth	r1, r1
 8004732:	b29b      	uxth	r3, r3
 8004734:	87e3      	strh	r3, [r4, #62]	; 0x3e
 8004736:	eb03 03e1 	add.w	r3, r3, r1, asr #3
 800473a:	f8a4 3040 	strh.w	r3, [r4, #64]	; 0x40
 800473e:	2300      	movs	r3, #0
 8004740:	87a1      	strh	r1, [r4, #60]	; 0x3c
 8004742:	6363      	str	r3, [r4, #52]	; 0x34
 8004744:	8838      	ldrh	r0, [r7, #0]
 8004746:	6833      	ldr	r3, [r6, #0]
 8004748:	6a62      	ldr	r2, [r4, #36]	; 0x24
 800474a:	2800      	cmp	r0, #0
 800474c:	f000 835b 	beq.w	8004e06 <tcp_receive+0x82e>
 8004750:	7d21      	ldrb	r1, [r4, #20]
 8004752:	2906      	cmp	r1, #6
 8004754:	f200 8357 	bhi.w	8004e06 <tcp_receive+0x82e>
 8004758:	1ad5      	subs	r5, r2, r3
 800475a:	2d01      	cmp	r5, #1
 800475c:	f100 81a8 	bmi.w	8004ab0 <tcp_receive+0x4d8>
 8004760:	f1c3 0101 	rsb	r1, r3, #1
 8004764:	1a09      	subs	r1, r1, r0
 8004766:	4411      	add	r1, r2
 8004768:	2900      	cmp	r1, #0
 800476a:	f300 81a1 	bgt.w	8004ab0 <tcp_receive+0x4d8>
 800476e:	4b9b      	ldr	r3, [pc, #620]	; (80049dc <tcp_receive+0x404>)
 8004770:	f8d3 9004 	ldr.w	r9, [r3, #4]
 8004774:	4698      	mov	r8, r3
 8004776:	f1b9 0f00 	cmp.w	r9, #0
 800477a:	d106      	bne.n	800478a <tcp_receive+0x1b2>
 800477c:	4b98      	ldr	r3, [pc, #608]	; (80049e0 <tcp_receive+0x408>)
 800477e:	4999      	ldr	r1, [pc, #612]	; (80049e4 <tcp_receive+0x40c>)
 8004780:	4899      	ldr	r0, [pc, #612]	; (80049e8 <tcp_receive+0x410>)
 8004782:	f240 5294 	movw	r2, #1428	; 0x594
 8004786:	f003 febb 	bl	8008500 <iprintf>
 800478a:	f64f 73fe 	movw	r3, #65534	; 0xfffe
 800478e:	429d      	cmp	r5, r3
 8004790:	d906      	bls.n	80047a0 <tcp_receive+0x1c8>
 8004792:	4b93      	ldr	r3, [pc, #588]	; (80049e0 <tcp_receive+0x408>)
 8004794:	4995      	ldr	r1, [pc, #596]	; (80049ec <tcp_receive+0x414>)
 8004796:	4894      	ldr	r0, [pc, #592]	; (80049e8 <tcp_receive+0x410>)
 8004798:	f240 5295 	movw	r2, #1429	; 0x595
 800479c:	f003 feb0 	bl	8008500 <iprintf>
 80047a0:	f8d8 3004 	ldr.w	r3, [r8, #4]
 80047a4:	891b      	ldrh	r3, [r3, #8]
 80047a6:	b2ad      	uxth	r5, r5
 80047a8:	42ab      	cmp	r3, r5
 80047aa:	d206      	bcs.n	80047ba <tcp_receive+0x1e2>
 80047ac:	4b8c      	ldr	r3, [pc, #560]	; (80049e0 <tcp_receive+0x408>)
 80047ae:	4990      	ldr	r1, [pc, #576]	; (80049f0 <tcp_receive+0x418>)
 80047b0:	488d      	ldr	r0, [pc, #564]	; (80049e8 <tcp_receive+0x410>)
 80047b2:	f240 5297 	movw	r2, #1431	; 0x597
 80047b6:	f003 fea3 	bl	8008500 <iprintf>
 80047ba:	f8b8 3008 	ldrh.w	r3, [r8, #8]
 80047be:	1b5b      	subs	r3, r3, r5
 80047c0:	f8a8 3008 	strh.w	r3, [r8, #8]
 80047c4:	f8d8 3004 	ldr.w	r3, [r8, #4]
 80047c8:	891b      	ldrh	r3, [r3, #8]
 80047ca:	1b5b      	subs	r3, r3, r5
 80047cc:	b29b      	uxth	r3, r3
 80047ce:	2100      	movs	r1, #0
 80047d0:	f8b9 200a 	ldrh.w	r2, [r9, #10]
 80047d4:	42aa      	cmp	r2, r5
 80047d6:	f0c0 8162 	bcc.w	8004a9e <tcp_receive+0x4c6>
 80047da:	4629      	mov	r1, r5
 80047dc:	4648      	mov	r0, r9
 80047de:	f7fe fa1d 	bl	8002c1c <pbuf_remove_header>
 80047e2:	f8d8 200c 	ldr.w	r2, [r8, #12]
 80047e6:	6a63      	ldr	r3, [r4, #36]	; 0x24
 80047e8:	6033      	str	r3, [r6, #0]
 80047ea:	6053      	str	r3, [r2, #4]
 80047ec:	6833      	ldr	r3, [r6, #0]
 80047ee:	6a62      	ldr	r2, [r4, #36]	; 0x24
 80047f0:	1a99      	subs	r1, r3, r2
 80047f2:	2900      	cmp	r1, #0
 80047f4:	f2c0 8230 	blt.w	8004c58 <tcp_receive+0x680>
 80047f8:	8d25      	ldrh	r5, [r4, #40]	; 0x28
 80047fa:	1c58      	adds	r0, r3, #1
 80047fc:	1a81      	subs	r1, r0, r2
 80047fe:	1b49      	subs	r1, r1, r5
 8004800:	2900      	cmp	r1, #0
 8004802:	f300 8229 	bgt.w	8004c58 <tcp_receive+0x680>
 8004806:	4293      	cmp	r3, r2
 8004808:	f040 8220 	bne.w	8004c4c <tcp_receive+0x674>
 800480c:	4d73      	ldr	r5, [pc, #460]	; (80049dc <tcp_receive+0x404>)
 800480e:	68eb      	ldr	r3, [r5, #12]
 8004810:	f8b5 8008 	ldrh.w	r8, [r5, #8]
 8004814:	8998      	ldrh	r0, [r3, #12]
 8004816:	f7fd fd5d 	bl	80022d4 <lwip_htons>
 800481a:	f010 0003 	ands.w	r0, r0, #3
 800481e:	bf18      	it	ne
 8004820:	2001      	movne	r0, #1
 8004822:	8d23      	ldrh	r3, [r4, #40]	; 0x28
 8004824:	4440      	add	r0, r8
 8004826:	b280      	uxth	r0, r0
 8004828:	4283      	cmp	r3, r0
 800482a:	8038      	strh	r0, [r7, #0]
 800482c:	d242      	bcs.n	80048b4 <tcp_receive+0x2dc>
 800482e:	68eb      	ldr	r3, [r5, #12]
 8004830:	8998      	ldrh	r0, [r3, #12]
 8004832:	f7fd fd4f 	bl	80022d4 <lwip_htons>
 8004836:	07c2      	lsls	r2, r0, #31
 8004838:	d510      	bpl.n	800485c <tcp_receive+0x284>
 800483a:	68eb      	ldr	r3, [r5, #12]
 800483c:	f8b3 800c 	ldrh.w	r8, [r3, #12]
 8004840:	4640      	mov	r0, r8
 8004842:	f7fd fd47 	bl	80022d4 <lwip_htons>
 8004846:	f000 003e 	and.w	r0, r0, #62	; 0x3e
 800484a:	f7fd fd43 	bl	80022d4 <lwip_htons>
 800484e:	f428 587c 	bic.w	r8, r8, #16128	; 0x3f00
 8004852:	68eb      	ldr	r3, [r5, #12]
 8004854:	ea48 0800 	orr.w	r8, r8, r0
 8004858:	f8a3 800c 	strh.w	r8, [r3, #12]
 800485c:	8d23      	ldrh	r3, [r4, #40]	; 0x28
 800485e:	812b      	strh	r3, [r5, #8]
 8004860:	68eb      	ldr	r3, [r5, #12]
 8004862:	8998      	ldrh	r0, [r3, #12]
 8004864:	f7fd fd36 	bl	80022d4 <lwip_htons>
 8004868:	0783      	lsls	r3, r0, #30
 800486a:	bf48      	it	mi
 800486c:	892b      	ldrhmi	r3, [r5, #8]
 800486e:	6868      	ldr	r0, [r5, #4]
 8004870:	bf44      	itt	mi
 8004872:	f103 33ff 	addmi.w	r3, r3, #4294967295
 8004876:	812b      	strhmi	r3, [r5, #8]
 8004878:	8929      	ldrh	r1, [r5, #8]
 800487a:	f7fe faeb 	bl	8002e54 <pbuf_realloc>
 800487e:	68eb      	ldr	r3, [r5, #12]
 8004880:	f8b5 8008 	ldrh.w	r8, [r5, #8]
 8004884:	8998      	ldrh	r0, [r3, #12]
 8004886:	f7fd fd25 	bl	80022d4 <lwip_htons>
 800488a:	f010 0003 	ands.w	r0, r0, #3
 800488e:	bf18      	it	ne
 8004890:	2001      	movne	r0, #1
 8004892:	6833      	ldr	r3, [r6, #0]
 8004894:	6a62      	ldr	r2, [r4, #36]	; 0x24
 8004896:	4440      	add	r0, r8
 8004898:	b280      	uxth	r0, r0
 800489a:	8038      	strh	r0, [r7, #0]
 800489c:	4418      	add	r0, r3
 800489e:	8d23      	ldrh	r3, [r4, #40]	; 0x28
 80048a0:	4413      	add	r3, r2
 80048a2:	4298      	cmp	r0, r3
 80048a4:	d006      	beq.n	80048b4 <tcp_receive+0x2dc>
 80048a6:	4b4e      	ldr	r3, [pc, #312]	; (80049e0 <tcp_receive+0x408>)
 80048a8:	4952      	ldr	r1, [pc, #328]	; (80049f4 <tcp_receive+0x41c>)
 80048aa:	484f      	ldr	r0, [pc, #316]	; (80049e8 <tcp_receive+0x410>)
 80048ac:	f240 52cb 	movw	r2, #1483	; 0x5cb
 80048b0:	f003 fe26 	bl	8008500 <iprintf>
 80048b4:	6f63      	ldr	r3, [r4, #116]	; 0x74
 80048b6:	2b00      	cmp	r3, #0
 80048b8:	f000 8109 	beq.w	8004ace <tcp_receive+0x4f6>
 80048bc:	68eb      	ldr	r3, [r5, #12]
 80048be:	8998      	ldrh	r0, [r3, #12]
 80048c0:	f7fd fd08 	bl	80022d4 <lwip_htons>
 80048c4:	07c0      	lsls	r0, r0, #31
 80048c6:	f100 80ff 	bmi.w	8004ac8 <tcp_receive+0x4f0>
 80048ca:	f8d4 8074 	ldr.w	r8, [r4, #116]	; 0x74
 80048ce:	6830      	ldr	r0, [r6, #0]
 80048d0:	883b      	ldrh	r3, [r7, #0]
 80048d2:	4403      	add	r3, r0
 80048d4:	f1b8 0f00 	cmp.w	r8, #0
 80048d8:	d039      	beq.n	800494e <tcp_receive+0x376>
 80048da:	f8d8 c00c 	ldr.w	ip, [r8, #12]
 80048de:	f8b8 1008 	ldrh.w	r1, [r8, #8]
 80048e2:	f8dc 2004 	ldr.w	r2, [ip, #4]
 80048e6:	4411      	add	r1, r2
 80048e8:	1a59      	subs	r1, r3, r1
 80048ea:	2900      	cmp	r1, #0
 80048ec:	f280 811c 	bge.w	8004b28 <tcp_receive+0x550>
 80048f0:	1a9b      	subs	r3, r3, r2
 80048f2:	2b00      	cmp	r3, #0
 80048f4:	dd2b      	ble.n	800494e <tcp_receive+0x376>
 80048f6:	68eb      	ldr	r3, [r5, #12]
 80048f8:	1a12      	subs	r2, r2, r0
 80048fa:	812a      	strh	r2, [r5, #8]
 80048fc:	8998      	ldrh	r0, [r3, #12]
 80048fe:	f7fd fce9 	bl	80022d4 <lwip_htons>
 8004902:	0783      	lsls	r3, r0, #30
 8004904:	bf48      	it	mi
 8004906:	892b      	ldrhmi	r3, [r5, #8]
 8004908:	6868      	ldr	r0, [r5, #4]
 800490a:	bf44      	itt	mi
 800490c:	f103 33ff 	addmi.w	r3, r3, #4294967295
 8004910:	812b      	strhmi	r3, [r5, #8]
 8004912:	8929      	ldrh	r1, [r5, #8]
 8004914:	f7fe fa9e 	bl	8002e54 <pbuf_realloc>
 8004918:	68eb      	ldr	r3, [r5, #12]
 800491a:	f8b5 9008 	ldrh.w	r9, [r5, #8]
 800491e:	8998      	ldrh	r0, [r3, #12]
 8004920:	f7fd fcd8 	bl	80022d4 <lwip_htons>
 8004924:	f010 0003 	ands.w	r0, r0, #3
 8004928:	bf18      	it	ne
 800492a:	2001      	movne	r0, #1
 800492c:	6833      	ldr	r3, [r6, #0]
 800492e:	4448      	add	r0, r9
 8004930:	b280      	uxth	r0, r0
 8004932:	8038      	strh	r0, [r7, #0]
 8004934:	4418      	add	r0, r3
 8004936:	f8d8 300c 	ldr.w	r3, [r8, #12]
 800493a:	685b      	ldr	r3, [r3, #4]
 800493c:	4298      	cmp	r0, r3
 800493e:	d006      	beq.n	800494e <tcp_receive+0x376>
 8004940:	4b27      	ldr	r3, [pc, #156]	; (80049e0 <tcp_receive+0x408>)
 8004942:	492d      	ldr	r1, [pc, #180]	; (80049f8 <tcp_receive+0x420>)
 8004944:	4828      	ldr	r0, [pc, #160]	; (80049e8 <tcp_receive+0x410>)
 8004946:	f240 52fc 	movw	r2, #1532	; 0x5fc
 800494a:	f003 fdd9 	bl	8008500 <iprintf>
 800494e:	f8c4 8074 	str.w	r8, [r4, #116]	; 0x74
 8004952:	e0bc      	b.n	8004ace <tcp_receive+0x4f6>
 8004954:	2300      	movs	r3, #0
 8004956:	f884 3043 	strb.w	r3, [r4, #67]	; 0x43
 800495a:	e6ca      	b.n	80046f2 <tcp_receive+0x11a>
 800495c:	6d21      	ldr	r1, [r4, #80]	; 0x50
 800495e:	1a51      	subs	r1, r2, r1
 8004960:	2900      	cmp	r1, #0
 8004962:	f300 8098 	bgt.w	8004a96 <tcp_receive+0x4be>
 8004966:	8b61      	ldrh	r1, [r4, #26]
 8004968:	0748      	lsls	r0, r1, #29
 800496a:	d509      	bpl.n	8004980 <tcp_receive+0x3a8>
 800496c:	f021 0104 	bic.w	r1, r1, #4
 8004970:	8361      	strh	r1, [r4, #26]
 8004972:	f8b4 104a 	ldrh.w	r1, [r4, #74]	; 0x4a
 8004976:	f8a4 1048 	strh.w	r1, [r4, #72]	; 0x48
 800497a:	2100      	movs	r1, #0
 800497c:	f8a4 106a 	strh.w	r1, [r4, #106]	; 0x6a
 8004980:	f9b4 003c 	ldrsh.w	r0, [r4, #60]	; 0x3c
 8004984:	8fe1      	ldrh	r1, [r4, #62]	; 0x3e
 8004986:	6462      	str	r2, [r4, #68]	; 0x44
 8004988:	7d22      	ldrb	r2, [r4, #20]
 800498a:	eb01 01e0 	add.w	r1, r1, r0, asr #3
 800498e:	f8a4 1040 	strh.w	r1, [r4, #64]	; 0x40
 8004992:	2a03      	cmp	r2, #3
 8004994:	f04f 0100 	mov.w	r1, #0
 8004998:	f8a4 1042 	strh.w	r1, [r4, #66]	; 0x42
 800499c:	d938      	bls.n	8004a10 <tcp_receive+0x438>
 800499e:	f8b4 1048 	ldrh.w	r1, [r4, #72]	; 0x48
 80049a2:	f8b4 204a 	ldrh.w	r2, [r4, #74]	; 0x4a
 80049a6:	428a      	cmp	r2, r1
 80049a8:	b29b      	uxth	r3, r3
 80049aa:	d927      	bls.n	80049fc <tcp_receive+0x424>
 80049ac:	8b62      	ldrh	r2, [r4, #26]
 80049ae:	f412 6f00 	tst.w	r2, #2048	; 0x800
 80049b2:	8e62      	ldrh	r2, [r4, #50]	; 0x32
 80049b4:	bf14      	ite	ne
 80049b6:	2001      	movne	r0, #1
 80049b8:	2002      	moveq	r0, #2
 80049ba:	fb12 f200 	smulbb	r2, r2, r0
 80049be:	b292      	uxth	r2, r2
 80049c0:	429a      	cmp	r2, r3
 80049c2:	bf94      	ite	ls
 80049c4:	188b      	addls	r3, r1, r2
 80049c6:	18cb      	addhi	r3, r1, r3
 80049c8:	b29b      	uxth	r3, r3
 80049ca:	4299      	cmp	r1, r3
 80049cc:	d901      	bls.n	80049d2 <tcp_receive+0x3fa>
 80049ce:	f64f 73ff 	movw	r3, #65535	; 0xffff
 80049d2:	f8a4 3048 	strh.w	r3, [r4, #72]	; 0x48
 80049d6:	e01b      	b.n	8004a10 <tcp_receive+0x438>
 80049d8:	2000a798 	.word	0x2000a798
 80049dc:	2000005c 	.word	0x2000005c
 80049e0:	0800a3ab 	.word	0x0800a3ab
 80049e4:	0800a4bb 	.word	0x0800a4bb
 80049e8:	080095b5 	.word	0x080095b5
 80049ec:	0800a4cb 	.word	0x0800a4cb
 80049f0:	0800a4da 	.word	0x0800a4da
 80049f4:	0800a4ea 	.word	0x0800a4ea
 80049f8:	0800a521 	.word	0x0800a521
 80049fc:	f8b4 206a 	ldrh.w	r2, [r4, #106]	; 0x6a
 8004a00:	4413      	add	r3, r2
 8004a02:	b29b      	uxth	r3, r3
 8004a04:	429a      	cmp	r2, r3
 8004a06:	d82e      	bhi.n	8004a66 <tcp_receive+0x48e>
 8004a08:	4299      	cmp	r1, r3
 8004a0a:	d92e      	bls.n	8004a6a <tcp_receive+0x492>
 8004a0c:	f8a4 306a 	strh.w	r3, [r4, #106]	; 0x6a
 8004a10:	f104 0866 	add.w	r8, r4, #102	; 0x66
 8004a14:	e9d4 211b 	ldrd	r2, r1, [r4, #108]	; 0x6c
 8004a18:	4640      	mov	r0, r8
 8004a1a:	f7ff fd7f 	bl	800451c <tcp_free_acked_segments.isra.0>
 8004a1e:	6ee1      	ldr	r1, [r4, #108]	; 0x6c
 8004a20:	6720      	str	r0, [r4, #112]	; 0x70
 8004a22:	4602      	mov	r2, r0
 8004a24:	4640      	mov	r0, r8
 8004a26:	f7ff fd79 	bl	800451c <tcp_free_acked_segments.isra.0>
 8004a2a:	6f22      	ldr	r2, [r4, #112]	; 0x70
 8004a2c:	66e0      	str	r0, [r4, #108]	; 0x6c
 8004a2e:	fab2 f382 	clz	r3, r2
 8004a32:	095b      	lsrs	r3, r3, #5
 8004a34:	425b      	negs	r3, r3
 8004a36:	8623      	strh	r3, [r4, #48]	; 0x30
 8004a38:	2300      	movs	r3, #0
 8004a3a:	7723      	strb	r3, [r4, #28]
 8004a3c:	b908      	cbnz	r0, 8004a42 <tcp_receive+0x46a>
 8004a3e:	f8a4 0068 	strh.w	r0, [r4, #104]	; 0x68
 8004a42:	49b2      	ldr	r1, [pc, #712]	; (8004d0c <tcp_receive+0x734>)
 8004a44:	f8b4 3064 	ldrh.w	r3, [r4, #100]	; 0x64
 8004a48:	8809      	ldrh	r1, [r1, #0]
 8004a4a:	440b      	add	r3, r1
 8004a4c:	f8a4 3064 	strh.w	r3, [r4, #100]	; 0x64
 8004a50:	8b63      	ldrh	r3, [r4, #26]
 8004a52:	0519      	lsls	r1, r3, #20
 8004a54:	f57f ae4d 	bpl.w	80046f2 <tcp_receive+0x11a>
 8004a58:	b9ca      	cbnz	r2, 8004a8e <tcp_receive+0x4b6>
 8004a5a:	b960      	cbnz	r0, 8004a76 <tcp_receive+0x49e>
 8004a5c:	8b63      	ldrh	r3, [r4, #26]
 8004a5e:	f423 6300 	bic.w	r3, r3, #2048	; 0x800
 8004a62:	8363      	strh	r3, [r4, #26]
 8004a64:	e645      	b.n	80046f2 <tcp_receive+0x11a>
 8004a66:	f64f 73ff 	movw	r3, #65535	; 0xffff
 8004a6a:	1a5b      	subs	r3, r3, r1
 8004a6c:	f8a4 306a 	strh.w	r3, [r4, #106]	; 0x6a
 8004a70:	8e63      	ldrh	r3, [r4, #50]	; 0x32
 8004a72:	440b      	add	r3, r1
 8004a74:	e7a8      	b.n	80049c8 <tcp_receive+0x3f0>
 8004a76:	f8d4 804c 	ldr.w	r8, [r4, #76]	; 0x4c
 8004a7a:	68c3      	ldr	r3, [r0, #12]
 8004a7c:	6858      	ldr	r0, [r3, #4]
 8004a7e:	f7fd fc2c 	bl	80022da <lwip_htonl>
 8004a82:	eba8 0000 	sub.w	r0, r8, r0
 8004a86:	2800      	cmp	r0, #0
 8004a88:	f73f ae33 	bgt.w	80046f2 <tcp_receive+0x11a>
 8004a8c:	e7e6      	b.n	8004a5c <tcp_receive+0x484>
 8004a8e:	f8d4 804c 	ldr.w	r8, [r4, #76]	; 0x4c
 8004a92:	68d3      	ldr	r3, [r2, #12]
 8004a94:	e7f2      	b.n	8004a7c <tcp_receive+0x4a4>
 8004a96:	4620      	mov	r0, r4
 8004a98:	f001 fdee 	bl	8006678 <tcp_send_empty_ack>
 8004a9c:	e629      	b.n	80046f2 <tcp_receive+0x11a>
 8004a9e:	1aad      	subs	r5, r5, r2
 8004aa0:	f8a9 3008 	strh.w	r3, [r9, #8]
 8004aa4:	f8a9 100a 	strh.w	r1, [r9, #10]
 8004aa8:	b2ad      	uxth	r5, r5
 8004aaa:	f8d9 9000 	ldr.w	r9, [r9]
 8004aae:	e68f      	b.n	80047d0 <tcp_receive+0x1f8>
 8004ab0:	1a9b      	subs	r3, r3, r2
 8004ab2:	2b00      	cmp	r3, #0
 8004ab4:	bfbe      	ittt	lt
 8004ab6:	8b63      	ldrhlt	r3, [r4, #26]
 8004ab8:	f043 0302 	orrlt.w	r3, r3, #2
 8004abc:	8363      	strhlt	r3, [r4, #26]
 8004abe:	e695      	b.n	80047ec <tcp_receive+0x214>
 8004ac0:	6803      	ldr	r3, [r0, #0]
 8004ac2:	6763      	str	r3, [r4, #116]	; 0x74
 8004ac4:	f7fe fd70 	bl	80035a8 <tcp_seg_free>
 8004ac8:	6f60      	ldr	r0, [r4, #116]	; 0x74
 8004aca:	2800      	cmp	r0, #0
 8004acc:	d1f8      	bne.n	8004ac0 <tcp_receive+0x4e8>
 8004ace:	883a      	ldrh	r2, [r7, #0]
 8004ad0:	6833      	ldr	r3, [r6, #0]
 8004ad2:	4413      	add	r3, r2
 8004ad4:	6263      	str	r3, [r4, #36]	; 0x24
 8004ad6:	8d23      	ldrh	r3, [r4, #40]	; 0x28
 8004ad8:	4293      	cmp	r3, r2
 8004ada:	d206      	bcs.n	8004aea <tcp_receive+0x512>
 8004adc:	4b8c      	ldr	r3, [pc, #560]	; (8004d10 <tcp_receive+0x738>)
 8004ade:	498d      	ldr	r1, [pc, #564]	; (8004d14 <tcp_receive+0x73c>)
 8004ae0:	488d      	ldr	r0, [pc, #564]	; (8004d18 <tcp_receive+0x740>)
 8004ae2:	f240 6207 	movw	r2, #1543	; 0x607
 8004ae6:	f003 fd0b 	bl	8008500 <iprintf>
 8004aea:	8d23      	ldrh	r3, [r4, #40]	; 0x28
 8004aec:	883a      	ldrh	r2, [r7, #0]
 8004aee:	1a9b      	subs	r3, r3, r2
 8004af0:	8523      	strh	r3, [r4, #40]	; 0x28
 8004af2:	4620      	mov	r0, r4
 8004af4:	f7fe fce6 	bl	80034c4 <tcp_update_rcv_ann_wnd>
 8004af8:	686b      	ldr	r3, [r5, #4]
 8004afa:	891a      	ldrh	r2, [r3, #8]
 8004afc:	b11a      	cbz	r2, 8004b06 <tcp_receive+0x52e>
 8004afe:	4a87      	ldr	r2, [pc, #540]	; (8004d1c <tcp_receive+0x744>)
 8004b00:	6013      	str	r3, [r2, #0]
 8004b02:	2300      	movs	r3, #0
 8004b04:	606b      	str	r3, [r5, #4]
 8004b06:	68eb      	ldr	r3, [r5, #12]
 8004b08:	8998      	ldrh	r0, [r3, #12]
 8004b0a:	f7fd fbe3 	bl	80022d4 <lwip_htons>
 8004b0e:	07c5      	lsls	r5, r0, #31
 8004b10:	d504      	bpl.n	8004b1c <tcp_receive+0x544>
 8004b12:	4a83      	ldr	r2, [pc, #524]	; (8004d20 <tcp_receive+0x748>)
 8004b14:	7813      	ldrb	r3, [r2, #0]
 8004b16:	f043 0320 	orr.w	r3, r3, #32
 8004b1a:	7013      	strb	r3, [r2, #0]
 8004b1c:	4f7c      	ldr	r7, [pc, #496]	; (8004d10 <tcp_receive+0x738>)
 8004b1e:	f8df 8208 	ldr.w	r8, [pc, #520]	; 8004d28 <tcp_receive+0x750>
 8004b22:	f8df 91f4 	ldr.w	r9, [pc, #500]	; 8004d18 <tcp_receive+0x740>
 8004b26:	e07b      	b.n	8004c20 <tcp_receive+0x648>
 8004b28:	f8bc 000c 	ldrh.w	r0, [ip, #12]
 8004b2c:	f7fd fbd2 	bl	80022d4 <lwip_htons>
 8004b30:	07c1      	lsls	r1, r0, #31
 8004b32:	d51a      	bpl.n	8004b6a <tcp_receive+0x592>
 8004b34:	68eb      	ldr	r3, [r5, #12]
 8004b36:	8998      	ldrh	r0, [r3, #12]
 8004b38:	f7fd fbcc 	bl	80022d4 <lwip_htons>
 8004b3c:	0782      	lsls	r2, r0, #30
 8004b3e:	d414      	bmi.n	8004b6a <tcp_receive+0x592>
 8004b40:	68eb      	ldr	r3, [r5, #12]
 8004b42:	2001      	movs	r0, #1
 8004b44:	f8b3 900c 	ldrh.w	r9, [r3, #12]
 8004b48:	f7fd fbc4 	bl	80022d4 <lwip_htons>
 8004b4c:	68eb      	ldr	r3, [r5, #12]
 8004b4e:	ea49 0000 	orr.w	r0, r9, r0
 8004b52:	8198      	strh	r0, [r3, #12]
 8004b54:	b280      	uxth	r0, r0
 8004b56:	f8b5 9008 	ldrh.w	r9, [r5, #8]
 8004b5a:	f7fd fbbb 	bl	80022d4 <lwip_htons>
 8004b5e:	f010 0003 	ands.w	r0, r0, #3
 8004b62:	bf18      	it	ne
 8004b64:	2001      	movne	r0, #1
 8004b66:	4448      	add	r0, r9
 8004b68:	8038      	strh	r0, [r7, #0]
 8004b6a:	f8d8 9000 	ldr.w	r9, [r8]
 8004b6e:	4640      	mov	r0, r8
 8004b70:	f7fe fd1a 	bl	80035a8 <tcp_seg_free>
 8004b74:	46c8      	mov	r8, r9
 8004b76:	e6aa      	b.n	80048ce <tcp_receive+0x2f6>
 8004b78:	6033      	str	r3, [r6, #0]
 8004b7a:	8990      	ldrh	r0, [r2, #12]
 8004b7c:	f8b5 a008 	ldrh.w	sl, [r5, #8]
 8004b80:	f7fd fba8 	bl	80022d4 <lwip_htons>
 8004b84:	6a63      	ldr	r3, [r4, #36]	; 0x24
 8004b86:	f8b5 b008 	ldrh.w	fp, [r5, #8]
 8004b8a:	f010 0003 	ands.w	r0, r0, #3
 8004b8e:	bf18      	it	ne
 8004b90:	2001      	movne	r0, #1
 8004b92:	449a      	add	sl, r3
 8004b94:	4450      	add	r0, sl
 8004b96:	68eb      	ldr	r3, [r5, #12]
 8004b98:	6260      	str	r0, [r4, #36]	; 0x24
 8004b9a:	8998      	ldrh	r0, [r3, #12]
 8004b9c:	f8b4 a028 	ldrh.w	sl, [r4, #40]	; 0x28
 8004ba0:	f7fd fb98 	bl	80022d4 <lwip_htons>
 8004ba4:	f010 0003 	ands.w	r0, r0, #3
 8004ba8:	bf18      	it	ne
 8004baa:	2001      	movne	r0, #1
 8004bac:	4458      	add	r0, fp
 8004bae:	4582      	cmp	sl, r0
 8004bb0:	d206      	bcs.n	8004bc0 <tcp_receive+0x5e8>
 8004bb2:	463b      	mov	r3, r7
 8004bb4:	f240 622b 	movw	r2, #1579	; 0x62b
 8004bb8:	4641      	mov	r1, r8
 8004bba:	4648      	mov	r0, r9
 8004bbc:	f003 fca0 	bl	8008500 <iprintf>
 8004bc0:	68eb      	ldr	r3, [r5, #12]
 8004bc2:	f8b5 a008 	ldrh.w	sl, [r5, #8]
 8004bc6:	8998      	ldrh	r0, [r3, #12]
 8004bc8:	f7fd fb84 	bl	80022d4 <lwip_htons>
 8004bcc:	f010 0003 	ands.w	r0, r0, #3
 8004bd0:	8d23      	ldrh	r3, [r4, #40]	; 0x28
 8004bd2:	bf18      	it	ne
 8004bd4:	2001      	movne	r0, #1
 8004bd6:	4450      	add	r0, sl
 8004bd8:	1a18      	subs	r0, r3, r0
 8004bda:	8520      	strh	r0, [r4, #40]	; 0x28
 8004bdc:	4620      	mov	r0, r4
 8004bde:	f7fe fc71 	bl	80034c4 <tcp_update_rcv_ann_wnd>
 8004be2:	6869      	ldr	r1, [r5, #4]
 8004be4:	890b      	ldrh	r3, [r1, #8]
 8004be6:	b133      	cbz	r3, 8004bf6 <tcp_receive+0x61e>
 8004be8:	4b4c      	ldr	r3, [pc, #304]	; (8004d1c <tcp_receive+0x744>)
 8004bea:	6818      	ldr	r0, [r3, #0]
 8004bec:	b338      	cbz	r0, 8004c3e <tcp_receive+0x666>
 8004bee:	f7fe f9a5 	bl	8002f3c <pbuf_cat>
 8004bf2:	2300      	movs	r3, #0
 8004bf4:	606b      	str	r3, [r5, #4]
 8004bf6:	68eb      	ldr	r3, [r5, #12]
 8004bf8:	8998      	ldrh	r0, [r3, #12]
 8004bfa:	f7fd fb6b 	bl	80022d4 <lwip_htons>
 8004bfe:	07c0      	lsls	r0, r0, #31
 8004c00:	d509      	bpl.n	8004c16 <tcp_receive+0x63e>
 8004c02:	4a47      	ldr	r2, [pc, #284]	; (8004d20 <tcp_receive+0x748>)
 8004c04:	7813      	ldrb	r3, [r2, #0]
 8004c06:	f043 0320 	orr.w	r3, r3, #32
 8004c0a:	7013      	strb	r3, [r2, #0]
 8004c0c:	7d23      	ldrb	r3, [r4, #20]
 8004c0e:	2b04      	cmp	r3, #4
 8004c10:	bf04      	itt	eq
 8004c12:	2307      	moveq	r3, #7
 8004c14:	7523      	strbeq	r3, [r4, #20]
 8004c16:	682b      	ldr	r3, [r5, #0]
 8004c18:	6763      	str	r3, [r4, #116]	; 0x74
 8004c1a:	4628      	mov	r0, r5
 8004c1c:	f7fe fcc4 	bl	80035a8 <tcp_seg_free>
 8004c20:	6f65      	ldr	r5, [r4, #116]	; 0x74
 8004c22:	b125      	cbz	r5, 8004c2e <tcp_receive+0x656>
 8004c24:	68ea      	ldr	r2, [r5, #12]
 8004c26:	6a61      	ldr	r1, [r4, #36]	; 0x24
 8004c28:	6853      	ldr	r3, [r2, #4]
 8004c2a:	428b      	cmp	r3, r1
 8004c2c:	d0a4      	beq.n	8004b78 <tcp_receive+0x5a0>
 8004c2e:	8b63      	ldrh	r3, [r4, #26]
 8004c30:	07d9      	lsls	r1, r3, #31
 8004c32:	d506      	bpl.n	8004c42 <tcp_receive+0x66a>
 8004c34:	f023 0301 	bic.w	r3, r3, #1
 8004c38:	f043 0302 	orr.w	r3, r3, #2
 8004c3c:	e003      	b.n	8004c46 <tcp_receive+0x66e>
 8004c3e:	6019      	str	r1, [r3, #0]
 8004c40:	e7d7      	b.n	8004bf2 <tcp_receive+0x61a>
 8004c42:	f043 0301 	orr.w	r3, r3, #1
 8004c46:	8363      	strh	r3, [r4, #26]
 8004c48:	e8bd 8ff8 	ldmia.w	sp!, {r3, r4, r5, r6, r7, r8, r9, sl, fp, pc}
 8004c4c:	6f65      	ldr	r5, [r4, #116]	; 0x74
 8004c4e:	b945      	cbnz	r5, 8004c62 <tcp_receive+0x68a>
 8004c50:	4834      	ldr	r0, [pc, #208]	; (8004d24 <tcp_receive+0x74c>)
 8004c52:	f7fe fccf 	bl	80035f4 <tcp_seg_copy>
 8004c56:	6760      	str	r0, [r4, #116]	; 0x74
 8004c58:	4620      	mov	r0, r4
 8004c5a:	e8bd 4ff8 	ldmia.w	sp!, {r3, r4, r5, r6, r7, r8, r9, sl, fp, lr}
 8004c5e:	f001 bd0b 	b.w	8006678 <tcp_send_empty_ack>
 8004c62:	f04f 0800 	mov.w	r8, #0
 8004c66:	f103 3eff 	add.w	lr, r3, #4294967295
 8004c6a:	f8d5 c00c 	ldr.w	ip, [r5, #12]
 8004c6e:	f8dc 2004 	ldr.w	r2, [ip, #4]
 8004c72:	4293      	cmp	r3, r2
 8004c74:	d115      	bne.n	8004ca2 <tcp_receive+0x6ca>
 8004c76:	482b      	ldr	r0, [pc, #172]	; (8004d24 <tcp_receive+0x74c>)
 8004c78:	892b      	ldrh	r3, [r5, #8]
 8004c7a:	8902      	ldrh	r2, [r0, #8]
 8004c7c:	429a      	cmp	r2, r3
 8004c7e:	d9eb      	bls.n	8004c58 <tcp_receive+0x680>
 8004c80:	f7fe fcb8 	bl	80035f4 <tcp_seg_copy>
 8004c84:	2800      	cmp	r0, #0
 8004c86:	d0e7      	beq.n	8004c58 <tcp_receive+0x680>
 8004c88:	f1b8 0f00 	cmp.w	r8, #0
 8004c8c:	d007      	beq.n	8004c9e <tcp_receive+0x6c6>
 8004c8e:	f8c8 0000 	str.w	r0, [r8]
 8004c92:	4629      	mov	r1, r5
 8004c94:	f7ff fb84 	bl	80043a0 <tcp_oos_insert_segment>
 8004c98:	e7de      	b.n	8004c58 <tcp_receive+0x680>
 8004c9a:	460d      	mov	r5, r1
 8004c9c:	e7e5      	b.n	8004c6a <tcp_receive+0x692>
 8004c9e:	6760      	str	r0, [r4, #116]	; 0x74
 8004ca0:	e7f7      	b.n	8004c92 <tcp_receive+0x6ba>
 8004ca2:	f1b8 0f00 	cmp.w	r8, #0
 8004ca6:	d109      	bne.n	8004cbc <tcp_receive+0x6e4>
 8004ca8:	1a99      	subs	r1, r3, r2
 8004caa:	2900      	cmp	r1, #0
 8004cac:	da3e      	bge.n	8004d2c <tcp_receive+0x754>
 8004cae:	481d      	ldr	r0, [pc, #116]	; (8004d24 <tcp_receive+0x74c>)
 8004cb0:	f7fe fca0 	bl	80035f4 <tcp_seg_copy>
 8004cb4:	2800      	cmp	r0, #0
 8004cb6:	d0cf      	beq.n	8004c58 <tcp_receive+0x680>
 8004cb8:	6760      	str	r0, [r4, #116]	; 0x74
 8004cba:	e7ea      	b.n	8004c92 <tcp_receive+0x6ba>
 8004cbc:	f8d8 100c 	ldr.w	r1, [r8, #12]
 8004cc0:	6849      	ldr	r1, [r1, #4]
 8004cc2:	ebae 0101 	sub.w	r1, lr, r1
 8004cc6:	2900      	cmp	r1, #0
 8004cc8:	db30      	blt.n	8004d2c <tcp_receive+0x754>
 8004cca:	1a81      	subs	r1, r0, r2
 8004ccc:	2900      	cmp	r1, #0
 8004cce:	dc2d      	bgt.n	8004d2c <tcp_receive+0x754>
 8004cd0:	4814      	ldr	r0, [pc, #80]	; (8004d24 <tcp_receive+0x74c>)
 8004cd2:	f7fe fc8f 	bl	80035f4 <tcp_seg_copy>
 8004cd6:	4607      	mov	r7, r0
 8004cd8:	2800      	cmp	r0, #0
 8004cda:	d0bd      	beq.n	8004c58 <tcp_receive+0x680>
 8004cdc:	f8d8 300c 	ldr.w	r3, [r8, #12]
 8004ce0:	6831      	ldr	r1, [r6, #0]
 8004ce2:	685a      	ldr	r2, [r3, #4]
 8004ce4:	f8b8 3008 	ldrh.w	r3, [r8, #8]
 8004ce8:	4413      	add	r3, r2
 8004cea:	1a5b      	subs	r3, r3, r1
 8004cec:	2b00      	cmp	r3, #0
 8004cee:	dd07      	ble.n	8004d00 <tcp_receive+0x728>
 8004cf0:	1a89      	subs	r1, r1, r2
 8004cf2:	b289      	uxth	r1, r1
 8004cf4:	f8d8 0004 	ldr.w	r0, [r8, #4]
 8004cf8:	f8a8 1008 	strh.w	r1, [r8, #8]
 8004cfc:	f7fe f8aa 	bl	8002e54 <pbuf_realloc>
 8004d00:	f8c8 7000 	str.w	r7, [r8]
 8004d04:	4629      	mov	r1, r5
 8004d06:	4638      	mov	r0, r7
 8004d08:	e7c4      	b.n	8004c94 <tcp_receive+0x6bc>
 8004d0a:	bf00      	nop
 8004d0c:	2000006c 	.word	0x2000006c
 8004d10:	0800a3ab 	.word	0x0800a3ab
 8004d14:	0800a55c 	.word	0x0800a55c
 8004d18:	080095b5 	.word	0x080095b5
 8004d1c:	20000070 	.word	0x20000070
 8004d20:	20000074 	.word	0x20000074
 8004d24:	2000005c 	.word	0x2000005c
 8004d28:	0800a57b 	.word	0x0800a57b
 8004d2c:	6829      	ldr	r1, [r5, #0]
 8004d2e:	46a8      	mov	r8, r5
 8004d30:	2900      	cmp	r1, #0
 8004d32:	d1b2      	bne.n	8004c9a <tcp_receive+0x6c2>
 8004d34:	1a9b      	subs	r3, r3, r2
 8004d36:	2b00      	cmp	r3, #0
 8004d38:	dd8e      	ble.n	8004c58 <tcp_receive+0x680>
 8004d3a:	f8bc 000c 	ldrh.w	r0, [ip, #12]
 8004d3e:	f7fd fac9 	bl	80022d4 <lwip_htons>
 8004d42:	07c2      	lsls	r2, r0, #31
 8004d44:	d488      	bmi.n	8004c58 <tcp_receive+0x680>
 8004d46:	4836      	ldr	r0, [pc, #216]	; (8004e20 <tcp_receive+0x848>)
 8004d48:	f7fe fc54 	bl	80035f4 <tcp_seg_copy>
 8004d4c:	6028      	str	r0, [r5, #0]
 8004d4e:	2800      	cmp	r0, #0
 8004d50:	d082      	beq.n	8004c58 <tcp_receive+0x680>
 8004d52:	68eb      	ldr	r3, [r5, #12]
 8004d54:	6831      	ldr	r1, [r6, #0]
 8004d56:	685a      	ldr	r2, [r3, #4]
 8004d58:	892b      	ldrh	r3, [r5, #8]
 8004d5a:	4413      	add	r3, r2
 8004d5c:	1a5b      	subs	r3, r3, r1
 8004d5e:	2b00      	cmp	r3, #0
 8004d60:	dd05      	ble.n	8004d6e <tcp_receive+0x796>
 8004d62:	1a89      	subs	r1, r1, r2
 8004d64:	b289      	uxth	r1, r1
 8004d66:	6868      	ldr	r0, [r5, #4]
 8004d68:	8129      	strh	r1, [r5, #8]
 8004d6a:	f7fe f873 	bl	8002e54 <pbuf_realloc>
 8004d6e:	6832      	ldr	r2, [r6, #0]
 8004d70:	883b      	ldrh	r3, [r7, #0]
 8004d72:	4413      	add	r3, r2
 8004d74:	6a62      	ldr	r2, [r4, #36]	; 0x24
 8004d76:	1a9b      	subs	r3, r3, r2
 8004d78:	8d22      	ldrh	r2, [r4, #40]	; 0x28
 8004d7a:	1a9b      	subs	r3, r3, r2
 8004d7c:	2b00      	cmp	r3, #0
 8004d7e:	f77f af6b 	ble.w	8004c58 <tcp_receive+0x680>
 8004d82:	682b      	ldr	r3, [r5, #0]
 8004d84:	68db      	ldr	r3, [r3, #12]
 8004d86:	8998      	ldrh	r0, [r3, #12]
 8004d88:	f7fd faa4 	bl	80022d4 <lwip_htons>
 8004d8c:	07c3      	lsls	r3, r0, #31
 8004d8e:	d512      	bpl.n	8004db6 <tcp_receive+0x7de>
 8004d90:	682b      	ldr	r3, [r5, #0]
 8004d92:	68db      	ldr	r3, [r3, #12]
 8004d94:	f8b3 800c 	ldrh.w	r8, [r3, #12]
 8004d98:	4640      	mov	r0, r8
 8004d9a:	f7fd fa9b 	bl	80022d4 <lwip_htons>
 8004d9e:	f000 003e 	and.w	r0, r0, #62	; 0x3e
 8004da2:	f7fd fa97 	bl	80022d4 <lwip_htons>
 8004da6:	682b      	ldr	r3, [r5, #0]
 8004da8:	f428 587c 	bic.w	r8, r8, #16128	; 0x3f00
 8004dac:	68db      	ldr	r3, [r3, #12]
 8004dae:	ea48 0800 	orr.w	r8, r8, r0
 8004db2:	f8a3 800c 	strh.w	r8, [r3, #12]
 8004db6:	6832      	ldr	r2, [r6, #0]
 8004db8:	8d21      	ldrh	r1, [r4, #40]	; 0x28
 8004dba:	682b      	ldr	r3, [r5, #0]
 8004dbc:	1a89      	subs	r1, r1, r2
 8004dbe:	6a62      	ldr	r2, [r4, #36]	; 0x24
 8004dc0:	6858      	ldr	r0, [r3, #4]
 8004dc2:	4411      	add	r1, r2
 8004dc4:	b289      	uxth	r1, r1
 8004dc6:	8119      	strh	r1, [r3, #8]
 8004dc8:	f7fe f844 	bl	8002e54 <pbuf_realloc>
 8004dcc:	682b      	ldr	r3, [r5, #0]
 8004dce:	891d      	ldrh	r5, [r3, #8]
 8004dd0:	68db      	ldr	r3, [r3, #12]
 8004dd2:	8998      	ldrh	r0, [r3, #12]
 8004dd4:	f7fd fa7e 	bl	80022d4 <lwip_htons>
 8004dd8:	f010 0003 	ands.w	r0, r0, #3
 8004ddc:	bf18      	it	ne
 8004dde:	2001      	movne	r0, #1
 8004de0:	6833      	ldr	r3, [r6, #0]
 8004de2:	6a62      	ldr	r2, [r4, #36]	; 0x24
 8004de4:	4428      	add	r0, r5
 8004de6:	b280      	uxth	r0, r0
 8004de8:	8038      	strh	r0, [r7, #0]
 8004dea:	4418      	add	r0, r3
 8004dec:	8d23      	ldrh	r3, [r4, #40]	; 0x28
 8004dee:	4413      	add	r3, r2
 8004df0:	4298      	cmp	r0, r3
 8004df2:	f43f af31 	beq.w	8004c58 <tcp_receive+0x680>
 8004df6:	4b0b      	ldr	r3, [pc, #44]	; (8004e24 <tcp_receive+0x84c>)
 8004df8:	490b      	ldr	r1, [pc, #44]	; (8004e28 <tcp_receive+0x850>)
 8004dfa:	480c      	ldr	r0, [pc, #48]	; (8004e2c <tcp_receive+0x854>)
 8004dfc:	f44f 62df 	mov.w	r2, #1784	; 0x6f8
 8004e00:	f003 fb7e 	bl	8008500 <iprintf>
 8004e04:	e728      	b.n	8004c58 <tcp_receive+0x680>
 8004e06:	1a99      	subs	r1, r3, r2
 8004e08:	2900      	cmp	r1, #0
 8004e0a:	db06      	blt.n	8004e1a <tcp_receive+0x842>
 8004e0c:	3301      	adds	r3, #1
 8004e0e:	1a9b      	subs	r3, r3, r2
 8004e10:	8d22      	ldrh	r2, [r4, #40]	; 0x28
 8004e12:	1a9b      	subs	r3, r3, r2
 8004e14:	2b00      	cmp	r3, #0
 8004e16:	f77f af17 	ble.w	8004c48 <tcp_receive+0x670>
 8004e1a:	8b63      	ldrh	r3, [r4, #26]
 8004e1c:	e70c      	b.n	8004c38 <tcp_receive+0x660>
 8004e1e:	bf00      	nop
 8004e20:	2000005c 	.word	0x2000005c
 8004e24:	0800a3ab 	.word	0x0800a3ab
 8004e28:	0800a4ea 	.word	0x0800a4ea
 8004e2c:	080095b5 	.word	0x080095b5

08004e30 <tcp_input>:
 8004e30:	e92d 4ff0 	stmdb	sp!, {r4, r5, r6, r7, r8, r9, sl, fp, lr}
 8004e34:	4605      	mov	r5, r0
 8004e36:	b089      	sub	sp, #36	; 0x24
 8004e38:	b928      	cbnz	r0, 8004e46 <tcp_input+0x16>
 8004e3a:	4b64      	ldr	r3, [pc, #400]	; (8004fcc <tcp_input+0x19c>)
 8004e3c:	4964      	ldr	r1, [pc, #400]	; (8004fd0 <tcp_input+0x1a0>)
 8004e3e:	4865      	ldr	r0, [pc, #404]	; (8004fd4 <tcp_input+0x1a4>)
 8004e40:	2283      	movs	r2, #131	; 0x83
 8004e42:	f003 fb5d 	bl	8008500 <iprintf>
 8004e46:	4e64      	ldr	r6, [pc, #400]	; (8004fd8 <tcp_input+0x1a8>)
 8004e48:	686b      	ldr	r3, [r5, #4]
 8004e4a:	6033      	str	r3, [r6, #0]
 8004e4c:	896b      	ldrh	r3, [r5, #10]
 8004e4e:	2b13      	cmp	r3, #19
 8004e50:	f240 80b5 	bls.w	8004fbe <tcp_input+0x18e>
 8004e54:	4f61      	ldr	r7, [pc, #388]	; (8004fdc <tcp_input+0x1ac>)
 8004e56:	6839      	ldr	r1, [r7, #0]
 8004e58:	6978      	ldr	r0, [r7, #20]
 8004e5a:	f002 fe86 	bl	8007b6a <ip4_addr_isbroadcast_u32>
 8004e5e:	4604      	mov	r4, r0
 8004e60:	2800      	cmp	r0, #0
 8004e62:	f040 80ac 	bne.w	8004fbe <tcp_input+0x18e>
 8004e66:	697b      	ldr	r3, [r7, #20]
 8004e68:	f003 03f0 	and.w	r3, r3, #240	; 0xf0
 8004e6c:	2be0      	cmp	r3, #224	; 0xe0
 8004e6e:	f000 80a6 	beq.w	8004fbe <tcp_input+0x18e>
 8004e72:	6833      	ldr	r3, [r6, #0]
 8004e74:	8998      	ldrh	r0, [r3, #12]
 8004e76:	f7fd fa2d 	bl	80022d4 <lwip_htons>
 8004e7a:	0a81      	lsrs	r1, r0, #10
 8004e7c:	f001 01fc 	and.w	r1, r1, #252	; 0xfc
 8004e80:	2913      	cmp	r1, #19
 8004e82:	f240 809c 	bls.w	8004fbe <tcp_input+0x18e>
 8004e86:	892b      	ldrh	r3, [r5, #8]
 8004e88:	428b      	cmp	r3, r1
 8004e8a:	fa1f fc81 	uxth.w	ip, r1
 8004e8e:	f0c0 8096 	bcc.w	8004fbe <tcp_input+0x18e>
 8004e92:	4a53      	ldr	r2, [pc, #332]	; (8004fe0 <tcp_input+0x1b0>)
 8004e94:	4853      	ldr	r0, [pc, #332]	; (8004fe4 <tcp_input+0x1b4>)
 8004e96:	6014      	str	r4, [r2, #0]
 8004e98:	896c      	ldrh	r4, [r5, #10]
 8004e9a:	f8df a16c 	ldr.w	sl, [pc, #364]	; 8005008 <tcp_input+0x1d8>
 8004e9e:	f1ac 0314 	sub.w	r3, ip, #20
 8004ea2:	b29b      	uxth	r3, r3
 8004ea4:	4564      	cmp	r4, ip
 8004ea6:	8003      	strh	r3, [r0, #0]
 8004ea8:	4680      	mov	r8, r0
 8004eaa:	4691      	mov	r9, r2
 8004eac:	d345      	bcc.n	8004f3a <tcp_input+0x10a>
 8004eae:	4628      	mov	r0, r5
 8004eb0:	f8aa 3000 	strh.w	r3, [sl]
 8004eb4:	f7fd feb2 	bl	8002c1c <pbuf_remove_header>
 8004eb8:	6834      	ldr	r4, [r6, #0]
 8004eba:	f8df b150 	ldr.w	fp, [pc, #336]	; 800500c <tcp_input+0x1dc>
 8004ebe:	8820      	ldrh	r0, [r4, #0]
 8004ec0:	f7fd fa08 	bl	80022d4 <lwip_htons>
 8004ec4:	8020      	strh	r0, [r4, #0]
 8004ec6:	6834      	ldr	r4, [r6, #0]
 8004ec8:	8860      	ldrh	r0, [r4, #2]
 8004eca:	f7fd fa03 	bl	80022d4 <lwip_htons>
 8004ece:	8060      	strh	r0, [r4, #2]
 8004ed0:	6834      	ldr	r4, [r6, #0]
 8004ed2:	6860      	ldr	r0, [r4, #4]
 8004ed4:	f7fd fa01 	bl	80022da <lwip_htonl>
 8004ed8:	6060      	str	r0, [r4, #4]
 8004eda:	6834      	ldr	r4, [r6, #0]
 8004edc:	f8cb 0000 	str.w	r0, [fp]
 8004ee0:	68a0      	ldr	r0, [r4, #8]
 8004ee2:	f7fd f9fa 	bl	80022da <lwip_htonl>
 8004ee6:	60a0      	str	r0, [r4, #8]
 8004ee8:	4c3f      	ldr	r4, [pc, #252]	; (8004fe8 <tcp_input+0x1b8>)
 8004eea:	f8d6 9000 	ldr.w	r9, [r6]
 8004eee:	6020      	str	r0, [r4, #0]
 8004ef0:	f8b9 000e 	ldrh.w	r0, [r9, #14]
 8004ef4:	f7fd f9ee 	bl	80022d4 <lwip_htons>
 8004ef8:	6833      	ldr	r3, [r6, #0]
 8004efa:	f8a9 000e 	strh.w	r0, [r9, #14]
 8004efe:	8998      	ldrh	r0, [r3, #12]
 8004f00:	f7fd f9e8 	bl	80022d4 <lwip_htons>
 8004f04:	4b39      	ldr	r3, [pc, #228]	; (8004fec <tcp_input+0x1bc>)
 8004f06:	9305      	str	r3, [sp, #20]
 8004f08:	f000 023f 	and.w	r2, r0, #63	; 0x3f
 8004f0c:	f010 0f03 	tst.w	r0, #3
 8004f10:	701a      	strb	r2, [r3, #0]
 8004f12:	46a2      	mov	sl, r4
 8004f14:	892a      	ldrh	r2, [r5, #8]
 8004f16:	d14c      	bne.n	8004fb2 <tcp_input+0x182>
 8004f18:	4b35      	ldr	r3, [pc, #212]	; (8004ff0 <tcp_input+0x1c0>)
 8004f1a:	801a      	strh	r2, [r3, #0]
 8004f1c:	4b35      	ldr	r3, [pc, #212]	; (8004ff4 <tcp_input+0x1c4>)
 8004f1e:	f8df 90b4 	ldr.w	r9, [pc, #180]	; 8004fd4 <tcp_input+0x1a4>
 8004f22:	681c      	ldr	r4, [r3, #0]
 8004f24:	2200      	movs	r2, #0
 8004f26:	4698      	mov	r8, r3
 8004f28:	4b28      	ldr	r3, [pc, #160]	; (8004fcc <tcp_input+0x19c>)
 8004f2a:	9206      	str	r2, [sp, #24]
 8004f2c:	2c00      	cmp	r4, #0
 8004f2e:	d16f      	bne.n	8005010 <tcp_input+0x1e0>
 8004f30:	4b31      	ldr	r3, [pc, #196]	; (8004ff8 <tcp_input+0x1c8>)
 8004f32:	f8df 90a0 	ldr.w	r9, [pc, #160]	; 8004fd4 <tcp_input+0x1a4>
 8004f36:	681c      	ldr	r4, [r3, #0]
 8004f38:	e154      	b.n	80051e4 <tcp_input+0x3b4>
 8004f3a:	682b      	ldr	r3, [r5, #0]
 8004f3c:	b92b      	cbnz	r3, 8004f4a <tcp_input+0x11a>
 8004f3e:	4b23      	ldr	r3, [pc, #140]	; (8004fcc <tcp_input+0x19c>)
 8004f40:	492e      	ldr	r1, [pc, #184]	; (8004ffc <tcp_input+0x1cc>)
 8004f42:	4824      	ldr	r0, [pc, #144]	; (8004fd4 <tcp_input+0x1a4>)
 8004f44:	22c2      	movs	r2, #194	; 0xc2
 8004f46:	f003 fadb 	bl	8008500 <iprintf>
 8004f4a:	2114      	movs	r1, #20
 8004f4c:	4628      	mov	r0, r5
 8004f4e:	f7fd fe65 	bl	8002c1c <pbuf_remove_header>
 8004f52:	896c      	ldrh	r4, [r5, #10]
 8004f54:	f8aa 4000 	strh.w	r4, [sl]
 8004f58:	4621      	mov	r1, r4
 8004f5a:	4628      	mov	r0, r5
 8004f5c:	f8b8 a000 	ldrh.w	sl, [r8]
 8004f60:	f7fd fe5c 	bl	8002c1c <pbuf_remove_header>
 8004f64:	6828      	ldr	r0, [r5, #0]
 8004f66:	ebaa 0804 	sub.w	r8, sl, r4
 8004f6a:	8943      	ldrh	r3, [r0, #10]
 8004f6c:	fa1f f888 	uxth.w	r8, r8
 8004f70:	4543      	cmp	r3, r8
 8004f72:	d324      	bcc.n	8004fbe <tcp_input+0x18e>
 8004f74:	6843      	ldr	r3, [r0, #4]
 8004f76:	f8c9 3000 	str.w	r3, [r9]
 8004f7a:	4641      	mov	r1, r8
 8004f7c:	f7fd fe4e 	bl	8002c1c <pbuf_remove_header>
 8004f80:	892b      	ldrh	r3, [r5, #8]
 8004f82:	441c      	add	r4, r3
 8004f84:	896b      	ldrh	r3, [r5, #10]
 8004f86:	eba4 040a 	sub.w	r4, r4, sl
 8004f8a:	812c      	strh	r4, [r5, #8]
 8004f8c:	b12b      	cbz	r3, 8004f9a <tcp_input+0x16a>
 8004f8e:	4b0f      	ldr	r3, [pc, #60]	; (8004fcc <tcp_input+0x19c>)
 8004f90:	491b      	ldr	r1, [pc, #108]	; (8005000 <tcp_input+0x1d0>)
 8004f92:	4810      	ldr	r0, [pc, #64]	; (8004fd4 <tcp_input+0x1a4>)
 8004f94:	22df      	movs	r2, #223	; 0xdf
 8004f96:	f003 fab3 	bl	8008500 <iprintf>
 8004f9a:	682b      	ldr	r3, [r5, #0]
 8004f9c:	892a      	ldrh	r2, [r5, #8]
 8004f9e:	891b      	ldrh	r3, [r3, #8]
 8004fa0:	429a      	cmp	r2, r3
 8004fa2:	d089      	beq.n	8004eb8 <tcp_input+0x88>
 8004fa4:	4b09      	ldr	r3, [pc, #36]	; (8004fcc <tcp_input+0x19c>)
 8004fa6:	4917      	ldr	r1, [pc, #92]	; (8005004 <tcp_input+0x1d4>)
 8004fa8:	480a      	ldr	r0, [pc, #40]	; (8004fd4 <tcp_input+0x1a4>)
 8004faa:	22e0      	movs	r2, #224	; 0xe0
 8004fac:	f003 faa8 	bl	8008500 <iprintf>
 8004fb0:	e782      	b.n	8004eb8 <tcp_input+0x88>
 8004fb2:	1c53      	adds	r3, r2, #1
 8004fb4:	b29b      	uxth	r3, r3
 8004fb6:	490e      	ldr	r1, [pc, #56]	; (8004ff0 <tcp_input+0x1c0>)
 8004fb8:	429a      	cmp	r2, r3
 8004fba:	800b      	strh	r3, [r1, #0]
 8004fbc:	d9ae      	bls.n	8004f1c <tcp_input+0xec>
 8004fbe:	4628      	mov	r0, r5
 8004fc0:	b009      	add	sp, #36	; 0x24
 8004fc2:	e8bd 4ff0 	ldmia.w	sp!, {r4, r5, r6, r7, r8, r9, sl, fp, lr}
 8004fc6:	f7fd be5d 	b.w	8002c84 <pbuf_free>
 8004fca:	bf00      	nop
 8004fcc:	0800a3ab 	.word	0x0800a3ab
 8004fd0:	0800a5a0 	.word	0x0800a5a0
 8004fd4:	080095b5 	.word	0x080095b5
 8004fd8:	20000080 	.word	0x20000080
 8004fdc:	20004660 	.word	0x20004660
 8004fe0:	20000088 	.word	0x20000088
 8004fe4:	2000008c 	.word	0x2000008c
 8004fe8:	20000054 	.word	0x20000054
 8004fec:	20000058 	.word	0x20000058
 8004ff0:	2000008e 	.word	0x2000008e
 8004ff4:	2000a794 	.word	0x2000a794
 8004ff8:	2000a7a4 	.word	0x2000a7a4
 8004ffc:	0800a5b8 	.word	0x0800a5b8
 8005000:	0800a5c8 	.word	0x0800a5c8
 8005004:	0800a5d4 	.word	0x0800a5d4
 8005008:	20000084 	.word	0x20000084
 800500c:	20000078 	.word	0x20000078
 8005010:	7d22      	ldrb	r2, [r4, #20]
 8005012:	b92a      	cbnz	r2, 8005020 <tcp_input+0x1f0>
 8005014:	499b      	ldr	r1, [pc, #620]	; (8005284 <tcp_input+0x454>)
 8005016:	22fb      	movs	r2, #251	; 0xfb
 8005018:	4648      	mov	r0, r9
 800501a:	f003 fa71 	bl	8008500 <iprintf>
 800501e:	4b9a      	ldr	r3, [pc, #616]	; (8005288 <tcp_input+0x458>)
 8005020:	7d22      	ldrb	r2, [r4, #20]
 8005022:	2a0a      	cmp	r2, #10
 8005024:	d105      	bne.n	8005032 <tcp_input+0x202>
 8005026:	4999      	ldr	r1, [pc, #612]	; (800528c <tcp_input+0x45c>)
 8005028:	22fc      	movs	r2, #252	; 0xfc
 800502a:	4648      	mov	r0, r9
 800502c:	f003 fa68 	bl	8008500 <iprintf>
 8005030:	4b95      	ldr	r3, [pc, #596]	; (8005288 <tcp_input+0x458>)
 8005032:	7d22      	ldrb	r2, [r4, #20]
 8005034:	2a01      	cmp	r2, #1
 8005036:	d105      	bne.n	8005044 <tcp_input+0x214>
 8005038:	4995      	ldr	r1, [pc, #596]	; (8005290 <tcp_input+0x460>)
 800503a:	22fd      	movs	r2, #253	; 0xfd
 800503c:	4648      	mov	r0, r9
 800503e:	f003 fa5f 	bl	8008500 <iprintf>
 8005042:	4b91      	ldr	r3, [pc, #580]	; (8005288 <tcp_input+0x458>)
 8005044:	7a20      	ldrb	r0, [r4, #8]
 8005046:	68e1      	ldr	r1, [r4, #12]
 8005048:	b130      	cbz	r0, 8005058 <tcp_input+0x228>
 800504a:	687a      	ldr	r2, [r7, #4]
 800504c:	f892 2030 	ldrb.w	r2, [r2, #48]	; 0x30
 8005050:	3201      	adds	r2, #1
 8005052:	b2d2      	uxtb	r2, r2
 8005054:	4290      	cmp	r0, r2
 8005056:	d16f      	bne.n	8005138 <tcp_input+0x308>
 8005058:	6832      	ldr	r2, [r6, #0]
 800505a:	f8b4 c018 	ldrh.w	ip, [r4, #24]
 800505e:	8810      	ldrh	r0, [r2, #0]
 8005060:	4584      	cmp	ip, r0
 8005062:	d169      	bne.n	8005138 <tcp_input+0x308>
 8005064:	8ae0      	ldrh	r0, [r4, #22]
 8005066:	8852      	ldrh	r2, [r2, #2]
 8005068:	4290      	cmp	r0, r2
 800506a:	d165      	bne.n	8005138 <tcp_input+0x308>
 800506c:	6860      	ldr	r0, [r4, #4]
 800506e:	693a      	ldr	r2, [r7, #16]
 8005070:	4290      	cmp	r0, r2
 8005072:	d161      	bne.n	8005138 <tcp_input+0x308>
 8005074:	6820      	ldr	r0, [r4, #0]
 8005076:	697a      	ldr	r2, [r7, #20]
 8005078:	4290      	cmp	r0, r2
 800507a:	d15d      	bne.n	8005138 <tcp_input+0x308>
 800507c:	42a1      	cmp	r1, r4
 800507e:	f040 842b 	bne.w	80058d8 <tcp_input+0xaa8>
 8005082:	4b81      	ldr	r3, [pc, #516]	; (8005288 <tcp_input+0x458>)
 8005084:	4983      	ldr	r1, [pc, #524]	; (8005294 <tcp_input+0x464>)
 8005086:	4884      	ldr	r0, [pc, #528]	; (8005298 <tcp_input+0x468>)
 8005088:	f240 120d 	movw	r2, #269	; 0x10d
 800508c:	f003 fa38 	bl	8008500 <iprintf>
 8005090:	9b06      	ldr	r3, [sp, #24]
 8005092:	b13b      	cbz	r3, 80050a4 <tcp_input+0x274>
 8005094:	9a06      	ldr	r2, [sp, #24]
 8005096:	68e3      	ldr	r3, [r4, #12]
 8005098:	60d3      	str	r3, [r2, #12]
 800509a:	f8d8 3000 	ldr.w	r3, [r8]
 800509e:	60e3      	str	r3, [r4, #12]
 80050a0:	f8c8 4000 	str.w	r4, [r8]
 80050a4:	68e3      	ldr	r3, [r4, #12]
 80050a6:	42a3      	cmp	r3, r4
 80050a8:	d106      	bne.n	80050b8 <tcp_input+0x288>
 80050aa:	4b77      	ldr	r3, [pc, #476]	; (8005288 <tcp_input+0x458>)
 80050ac:	497b      	ldr	r1, [pc, #492]	; (800529c <tcp_input+0x46c>)
 80050ae:	487a      	ldr	r0, [pc, #488]	; (8005298 <tcp_input+0x468>)
 80050b0:	f240 1215 	movw	r2, #277	; 0x115
 80050b4:	f003 fa24 	bl	8008500 <iprintf>
 80050b8:	4b79      	ldr	r3, [pc, #484]	; (80052a0 <tcp_input+0x470>)
 80050ba:	8929      	ldrh	r1, [r5, #8]
 80050bc:	8119      	strh	r1, [r3, #8]
 80050be:	6831      	ldr	r1, [r6, #0]
 80050c0:	4878      	ldr	r0, [pc, #480]	; (80052a4 <tcp_input+0x474>)
 80050c2:	4f79      	ldr	r7, [pc, #484]	; (80052a8 <tcp_input+0x478>)
 80050c4:	60d9      	str	r1, [r3, #12]
 80050c6:	4979      	ldr	r1, [pc, #484]	; (80052ac <tcp_input+0x47c>)
 80050c8:	605d      	str	r5, [r3, #4]
 80050ca:	2200      	movs	r2, #0
 80050cc:	601a      	str	r2, [r3, #0]
 80050ce:	600a      	str	r2, [r1, #0]
 80050d0:	703a      	strb	r2, [r7, #0]
 80050d2:	8002      	strh	r2, [r0, #0]
 80050d4:	9a05      	ldr	r2, [sp, #20]
 80050d6:	9006      	str	r0, [sp, #24]
 80050d8:	7812      	ldrb	r2, [r2, #0]
 80050da:	9307      	str	r3, [sp, #28]
 80050dc:	f012 0f08 	tst.w	r2, #8
 80050e0:	4689      	mov	r9, r1
 80050e2:	d003      	beq.n	80050ec <tcp_input+0x2bc>
 80050e4:	7b6b      	ldrb	r3, [r5, #13]
 80050e6:	f043 0301 	orr.w	r3, r3, #1
 80050ea:	736b      	strb	r3, [r5, #13]
 80050ec:	6fa3      	ldr	r3, [r4, #120]	; 0x78
 80050ee:	4d70      	ldr	r5, [pc, #448]	; (80052b0 <tcp_input+0x480>)
 80050f0:	2b00      	cmp	r3, #0
 80050f2:	f000 814b 	beq.w	800538c <tcp_input+0x55c>
 80050f6:	4620      	mov	r0, r4
 80050f8:	f7fe fe7e 	bl	8003df8 <tcp_process_refused_data>
 80050fc:	300d      	adds	r0, #13
 80050fe:	d008      	beq.n	8005112 <tcp_input+0x2e2>
 8005100:	6fa3      	ldr	r3, [r4, #120]	; 0x78
 8005102:	2b00      	cmp	r3, #0
 8005104:	f000 8142 	beq.w	800538c <tcp_input+0x55c>
 8005108:	4b6a      	ldr	r3, [pc, #424]	; (80052b4 <tcp_input+0x484>)
 800510a:	881b      	ldrh	r3, [r3, #0]
 800510c:	2b00      	cmp	r3, #0
 800510e:	f000 813d 	beq.w	800538c <tcp_input+0x55c>
 8005112:	8d63      	ldrh	r3, [r4, #42]	; 0x2a
 8005114:	b913      	cbnz	r3, 800511c <tcp_input+0x2ec>
 8005116:	4620      	mov	r0, r4
 8005118:	f001 faae 	bl	8006678 <tcp_send_empty_ack>
 800511c:	9b07      	ldr	r3, [sp, #28]
 800511e:	6858      	ldr	r0, [r3, #4]
 8005120:	2400      	movs	r4, #0
 8005122:	602c      	str	r4, [r5, #0]
 8005124:	f8c9 4000 	str.w	r4, [r9]
 8005128:	b118      	cbz	r0, 8005132 <tcp_input+0x302>
 800512a:	f7fd fdab 	bl	8002c84 <pbuf_free>
 800512e:	9b07      	ldr	r3, [sp, #28]
 8005130:	605c      	str	r4, [r3, #4]
 8005132:	b009      	add	sp, #36	; 0x24
 8005134:	e8bd 8ff0 	ldmia.w	sp!, {r4, r5, r6, r7, r8, r9, sl, fp, pc}
 8005138:	9406      	str	r4, [sp, #24]
 800513a:	460c      	mov	r4, r1
 800513c:	e6f6      	b.n	8004f2c <tcp_input+0xfc>
 800513e:	7d23      	ldrb	r3, [r4, #20]
 8005140:	2b0a      	cmp	r3, #10
 8005142:	d006      	beq.n	8005152 <tcp_input+0x322>
 8005144:	4b50      	ldr	r3, [pc, #320]	; (8005288 <tcp_input+0x458>)
 8005146:	495c      	ldr	r1, [pc, #368]	; (80052b8 <tcp_input+0x488>)
 8005148:	f240 121f 	movw	r2, #287	; 0x11f
 800514c:	4648      	mov	r0, r9
 800514e:	f003 f9d7 	bl	8008500 <iprintf>
 8005152:	7a22      	ldrb	r2, [r4, #8]
 8005154:	b132      	cbz	r2, 8005164 <tcp_input+0x334>
 8005156:	687b      	ldr	r3, [r7, #4]
 8005158:	f893 3030 	ldrb.w	r3, [r3, #48]	; 0x30
 800515c:	3301      	adds	r3, #1
 800515e:	b2db      	uxtb	r3, r3
 8005160:	429a      	cmp	r2, r3
 8005162:	d13e      	bne.n	80051e2 <tcp_input+0x3b2>
 8005164:	6833      	ldr	r3, [r6, #0]
 8005166:	8b20      	ldrh	r0, [r4, #24]
 8005168:	881a      	ldrh	r2, [r3, #0]
 800516a:	4290      	cmp	r0, r2
 800516c:	d139      	bne.n	80051e2 <tcp_input+0x3b2>
 800516e:	885b      	ldrh	r3, [r3, #2]
 8005170:	8ae1      	ldrh	r1, [r4, #22]
 8005172:	4299      	cmp	r1, r3
 8005174:	d135      	bne.n	80051e2 <tcp_input+0x3b2>
 8005176:	6862      	ldr	r2, [r4, #4]
 8005178:	693b      	ldr	r3, [r7, #16]
 800517a:	429a      	cmp	r2, r3
 800517c:	d131      	bne.n	80051e2 <tcp_input+0x3b2>
 800517e:	6822      	ldr	r2, [r4, #0]
 8005180:	697b      	ldr	r3, [r7, #20]
 8005182:	429a      	cmp	r2, r3
 8005184:	d12d      	bne.n	80051e2 <tcp_input+0x3b2>
 8005186:	9b05      	ldr	r3, [sp, #20]
 8005188:	781b      	ldrb	r3, [r3, #0]
 800518a:	075e      	lsls	r6, r3, #29
 800518c:	f53f af17 	bmi.w	8004fbe <tcp_input+0x18e>
 8005190:	4a48      	ldr	r2, [pc, #288]	; (80052b4 <tcp_input+0x484>)
 8005192:	8816      	ldrh	r6, [r2, #0]
 8005194:	079a      	lsls	r2, r3, #30
 8005196:	d514      	bpl.n	80051c2 <tcp_input+0x392>
 8005198:	f8db 2000 	ldr.w	r2, [fp]
 800519c:	6a63      	ldr	r3, [r4, #36]	; 0x24
 800519e:	1ad3      	subs	r3, r2, r3
 80051a0:	d414      	bmi.n	80051cc <tcp_input+0x39c>
 80051a2:	8d27      	ldrh	r7, [r4, #40]	; 0x28
 80051a4:	1bdb      	subs	r3, r3, r7
 80051a6:	2b00      	cmp	r3, #0
 80051a8:	dc10      	bgt.n	80051cc <tcp_input+0x39c>
 80051aa:	e9cd 1001 	strd	r1, r0, [sp, #4]
 80051ae:	4b43      	ldr	r3, [pc, #268]	; (80052bc <tcp_input+0x48c>)
 80051b0:	9300      	str	r3, [sp, #0]
 80051b2:	f8da 1000 	ldr.w	r1, [sl]
 80051b6:	3304      	adds	r3, #4
 80051b8:	4432      	add	r2, r6
 80051ba:	4620      	mov	r0, r4
 80051bc:	f001 fa16 	bl	80065ec <tcp_rst>
 80051c0:	e6fd      	b.n	8004fbe <tcp_input+0x18e>
 80051c2:	07df      	lsls	r7, r3, #31
 80051c4:	bf42      	ittt	mi
 80051c6:	4b3e      	ldrmi	r3, [pc, #248]	; (80052c0 <tcp_input+0x490>)
 80051c8:	681b      	ldrmi	r3, [r3, #0]
 80051ca:	6223      	strmi	r3, [r4, #32]
 80051cc:	2e00      	cmp	r6, #0
 80051ce:	f43f aef6 	beq.w	8004fbe <tcp_input+0x18e>
 80051d2:	8b63      	ldrh	r3, [r4, #26]
 80051d4:	f043 0302 	orr.w	r3, r3, #2
 80051d8:	8363      	strh	r3, [r4, #26]
 80051da:	4620      	mov	r0, r4
 80051dc:	f001 fa7e 	bl	80066dc <tcp_output>
 80051e0:	e6ed      	b.n	8004fbe <tcp_input+0x18e>
 80051e2:	68e4      	ldr	r4, [r4, #12]
 80051e4:	2c00      	cmp	r4, #0
 80051e6:	d1aa      	bne.n	800513e <tcp_input+0x30e>
 80051e8:	4b36      	ldr	r3, [pc, #216]	; (80052c4 <tcp_input+0x494>)
 80051ea:	f8d7 c004 	ldr.w	ip, [r7, #4]
 80051ee:	681a      	ldr	r2, [r3, #0]
 80051f0:	6831      	ldr	r1, [r6, #0]
 80051f2:	f8d7 e014 	ldr.w	lr, [r7, #20]
 80051f6:	4691      	mov	r9, r2
 80051f8:	f1b9 0f00 	cmp.w	r9, #0
 80051fc:	d113      	bne.n	8005226 <tcp_input+0x3f6>
 80051fe:	8988      	ldrh	r0, [r1, #12]
 8005200:	f7fd f868 	bl	80022d4 <lwip_htons>
 8005204:	0743      	lsls	r3, r0, #29
 8005206:	f53f aeda 	bmi.w	8004fbe <tcp_input+0x18e>
 800520a:	6833      	ldr	r3, [r6, #0]
 800520c:	4a29      	ldr	r2, [pc, #164]	; (80052b4 <tcp_input+0x484>)
 800520e:	8818      	ldrh	r0, [r3, #0]
 8005210:	8811      	ldrh	r1, [r2, #0]
 8005212:	9002      	str	r0, [sp, #8]
 8005214:	885b      	ldrh	r3, [r3, #2]
 8005216:	f8db 2000 	ldr.w	r2, [fp]
 800521a:	9301      	str	r3, [sp, #4]
 800521c:	4b27      	ldr	r3, [pc, #156]	; (80052bc <tcp_input+0x48c>)
 800521e:	9300      	str	r3, [sp, #0]
 8005220:	440a      	add	r2, r1
 8005222:	3304      	adds	r3, #4
 8005224:	e354      	b.n	80058d0 <tcp_input+0xaa0>
 8005226:	f899 0008 	ldrb.w	r0, [r9, #8]
 800522a:	b128      	cbz	r0, 8005238 <tcp_input+0x408>
 800522c:	f89c 3030 	ldrb.w	r3, [ip, #48]	; 0x30
 8005230:	3301      	adds	r3, #1
 8005232:	b2db      	uxtb	r3, r3
 8005234:	4298      	cmp	r0, r3
 8005236:	d10c      	bne.n	8005252 <tcp_input+0x422>
 8005238:	8848      	ldrh	r0, [r1, #2]
 800523a:	f8b9 3016 	ldrh.w	r3, [r9, #22]
 800523e:	4283      	cmp	r3, r0
 8005240:	d107      	bne.n	8005252 <tcp_input+0x422>
 8005242:	f8d9 3000 	ldr.w	r3, [r9]
 8005246:	4573      	cmp	r3, lr
 8005248:	f000 8325 	beq.w	8005896 <tcp_input+0xa66>
 800524c:	2b00      	cmp	r3, #0
 800524e:	f000 8322 	beq.w	8005896 <tcp_input+0xa66>
 8005252:	464c      	mov	r4, r9
 8005254:	f8d9 900c 	ldr.w	r9, [r9, #12]
 8005258:	e7ce      	b.n	80051f8 <tcp_input+0x3c8>
 800525a:	0798      	lsls	r0, r3, #30
 800525c:	f57f aeaf 	bpl.w	8004fbe <tcp_input+0x18e>
 8005260:	f899 0015 	ldrb.w	r0, [r9, #21]
 8005264:	f7fe fc36 	bl	8003ad4 <tcp_alloc>
 8005268:	4682      	mov	sl, r0
 800526a:	bb68      	cbnz	r0, 80052c8 <tcp_input+0x498>
 800526c:	f8d9 3018 	ldr.w	r3, [r9, #24]
 8005270:	2b00      	cmp	r3, #0
 8005272:	f43f aea4 	beq.w	8004fbe <tcp_input+0x18e>
 8005276:	4601      	mov	r1, r0
 8005278:	f04f 32ff 	mov.w	r2, #4294967295
 800527c:	f8d9 0010 	ldr.w	r0, [r9, #16]
 8005280:	4798      	blx	r3
 8005282:	e69c      	b.n	8004fbe <tcp_input+0x18e>
 8005284:	0800a5f3 	.word	0x0800a5f3
 8005288:	0800a3ab 	.word	0x0800a3ab
 800528c:	0800a61a 	.word	0x0800a61a
 8005290:	0800a644 	.word	0x0800a644
 8005294:	0800a66b 	.word	0x0800a66b
 8005298:	080095b5 	.word	0x080095b5
 800529c:	0800a696 	.word	0x0800a696
 80052a0:	2000005c 	.word	0x2000005c
 80052a4:	2000006c 	.word	0x2000006c
 80052a8:	20000074 	.word	0x20000074
 80052ac:	20000070 	.word	0x20000070
 80052b0:	2000a7a8 	.word	0x2000a7a8
 80052b4:	2000008e 	.word	0x2000008e
 80052b8:	0800a6c0 	.word	0x0800a6c0
 80052bc:	20004670 	.word	0x20004670
 80052c0:	2000a798 	.word	0x2000a798
 80052c4:	2000a79c 	.word	0x2000a79c
 80052c8:	697b      	ldr	r3, [r7, #20]
 80052ca:	6832      	ldr	r2, [r6, #0]
 80052cc:	6003      	str	r3, [r0, #0]
 80052ce:	693b      	ldr	r3, [r7, #16]
 80052d0:	6043      	str	r3, [r0, #4]
 80052d2:	f8b9 3016 	ldrh.w	r3, [r9, #22]
 80052d6:	82c3      	strh	r3, [r0, #22]
 80052d8:	7813      	ldrb	r3, [r2, #0]
 80052da:	7852      	ldrb	r2, [r2, #1]
 80052dc:	ea43 2302 	orr.w	r3, r3, r2, lsl #8
 80052e0:	8303      	strh	r3, [r0, #24]
 80052e2:	2303      	movs	r3, #3
 80052e4:	7503      	strb	r3, [r0, #20]
 80052e6:	f8db 3000 	ldr.w	r3, [fp]
 80052ea:	3301      	adds	r3, #1
 80052ec:	6243      	str	r3, [r0, #36]	; 0x24
 80052ee:	62c3      	str	r3, [r0, #44]	; 0x2c
 80052f0:	f7fe fa1a 	bl	8003728 <tcp_next_iss>
 80052f4:	f8db 3000 	ldr.w	r3, [fp]
 80052f8:	f8ca 0058 	str.w	r0, [sl, #88]	; 0x58
 80052fc:	3b01      	subs	r3, #1
 80052fe:	f8ca 3054 	str.w	r3, [sl, #84]	; 0x54
 8005302:	f8d9 3010 	ldr.w	r3, [r9, #16]
 8005306:	f8ca 0050 	str.w	r0, [sl, #80]	; 0x50
 800530a:	f8ca 0044 	str.w	r0, [sl, #68]	; 0x44
 800530e:	f8ca 005c 	str.w	r0, [sl, #92]	; 0x5c
 8005312:	f8ca 3010 	str.w	r3, [sl, #16]
 8005316:	f8ca 907c 	str.w	r9, [sl, #124]	; 0x7c
 800531a:	f899 3009 	ldrb.w	r3, [r9, #9]
 800531e:	f003 030c 	and.w	r3, r3, #12
 8005322:	f88a 3009 	strb.w	r3, [sl, #9]
 8005326:	f899 3008 	ldrb.w	r3, [r9, #8]
 800532a:	f88a 3008 	strb.w	r3, [sl, #8]
 800532e:	f8d8 3000 	ldr.w	r3, [r8]
 8005332:	f8ca 300c 	str.w	r3, [sl, #12]
 8005336:	f8c8 a000 	str.w	sl, [r8]
 800533a:	f001 fca5 	bl	8006c88 <tcp_timer_needed>
 800533e:	4ba4      	ldr	r3, [pc, #656]	; (80055d0 <tcp_input+0x7a0>)
 8005340:	2201      	movs	r2, #1
 8005342:	4650      	mov	r0, sl
 8005344:	701a      	strb	r2, [r3, #0]
 8005346:	f7ff f875 	bl	8004434 <tcp_parseopt>
 800534a:	6833      	ldr	r3, [r6, #0]
 800534c:	f8ba 6032 	ldrh.w	r6, [sl, #50]	; 0x32
 8005350:	89db      	ldrh	r3, [r3, #14]
 8005352:	f8aa 3060 	strh.w	r3, [sl, #96]	; 0x60
 8005356:	f10a 0204 	add.w	r2, sl, #4
 800535a:	f8aa 3062 	strh.w	r3, [sl, #98]	; 0x62
 800535e:	4610      	mov	r0, r2
 8005360:	9205      	str	r2, [sp, #20]
 8005362:	f002 fa95 	bl	8007890 <ip4_route>
 8005366:	9a05      	ldr	r2, [sp, #20]
 8005368:	4601      	mov	r1, r0
 800536a:	4630      	mov	r0, r6
 800536c:	f7fe f9f6 	bl	800375c <tcp_eff_send_mss_netif>
 8005370:	2112      	movs	r1, #18
 8005372:	f8aa 0032 	strh.w	r0, [sl, #50]	; 0x32
 8005376:	4650      	mov	r0, sl
 8005378:	f000 ffba 	bl	80062f0 <tcp_enqueue_flags>
 800537c:	b120      	cbz	r0, 8005388 <tcp_input+0x558>
 800537e:	4621      	mov	r1, r4
 8005380:	4650      	mov	r0, sl
 8005382:	f7fe faab 	bl	80038dc <tcp_abandon>
 8005386:	e61a      	b.n	8004fbe <tcp_input+0x18e>
 8005388:	4650      	mov	r0, sl
 800538a:	e727      	b.n	80051dc <tcp_input+0x3ac>
 800538c:	9b05      	ldr	r3, [sp, #20]
 800538e:	602c      	str	r4, [r5, #0]
 8005390:	781a      	ldrb	r2, [r3, #0]
 8005392:	0751      	lsls	r1, r2, #29
 8005394:	d539      	bpl.n	800540a <tcp_input+0x5da>
 8005396:	7d21      	ldrb	r1, [r4, #20]
 8005398:	2902      	cmp	r1, #2
 800539a:	d11f      	bne.n	80053dc <tcp_input+0x5ac>
 800539c:	6d22      	ldr	r2, [r4, #80]	; 0x50
 800539e:	f8da 3000 	ldr.w	r3, [sl]
 80053a2:	429a      	cmp	r2, r3
 80053a4:	d107      	bne.n	80053b6 <tcp_input+0x586>
 80053a6:	783b      	ldrb	r3, [r7, #0]
 80053a8:	f043 0308 	orr.w	r3, r3, #8
 80053ac:	703b      	strb	r3, [r7, #0]
 80053ae:	8b63      	ldrh	r3, [r4, #26]
 80053b0:	f023 0301 	bic.w	r3, r3, #1
 80053b4:	8363      	strh	r3, [r4, #26]
 80053b6:	783b      	ldrb	r3, [r7, #0]
 80053b8:	0719      	lsls	r1, r3, #28
 80053ba:	f140 8205 	bpl.w	80057c8 <tcp_input+0x998>
 80053be:	f8d4 3090 	ldr.w	r3, [r4, #144]	; 0x90
 80053c2:	b11b      	cbz	r3, 80053cc <tcp_input+0x59c>
 80053c4:	6920      	ldr	r0, [r4, #16]
 80053c6:	f06f 010d 	mvn.w	r1, #13
 80053ca:	4798      	blx	r3
 80053cc:	4881      	ldr	r0, [pc, #516]	; (80055d4 <tcp_input+0x7a4>)
 80053ce:	4621      	mov	r1, r4
 80053d0:	f7fe fa1e 	bl	8003810 <tcp_pcb_remove>
 80053d4:	4620      	mov	r0, r4
 80053d6:	f7fd ff9d 	bl	8003314 <tcp_free>
 80053da:	e69f      	b.n	800511c <tcp_input+0x2ec>
 80053dc:	6a62      	ldr	r2, [r4, #36]	; 0x24
 80053de:	f8db 3000 	ldr.w	r3, [fp]
 80053e2:	429a      	cmp	r2, r3
 80053e4:	d007      	beq.n	80053f6 <tcp_input+0x5c6>
 80053e6:	1a9b      	subs	r3, r3, r2
 80053e8:	d4e5      	bmi.n	80053b6 <tcp_input+0x586>
 80053ea:	8d22      	ldrh	r2, [r4, #40]	; 0x28
 80053ec:	1a9b      	subs	r3, r3, r2
 80053ee:	2b00      	cmp	r3, #0
 80053f0:	dce1      	bgt.n	80053b6 <tcp_input+0x586>
 80053f2:	8b63      	ldrh	r3, [r4, #26]
 80053f4:	e010      	b.n	8005418 <tcp_input+0x5e8>
 80053f6:	2900      	cmp	r1, #0
 80053f8:	d1d5      	bne.n	80053a6 <tcp_input+0x576>
 80053fa:	4b77      	ldr	r3, [pc, #476]	; (80055d8 <tcp_input+0x7a8>)
 80053fc:	4977      	ldr	r1, [pc, #476]	; (80055dc <tcp_input+0x7ac>)
 80053fe:	4878      	ldr	r0, [pc, #480]	; (80055e0 <tcp_input+0x7b0>)
 8005400:	f44f 724e 	mov.w	r2, #824	; 0x338
 8005404:	f003 f87c 	bl	8008500 <iprintf>
 8005408:	e7cd      	b.n	80053a6 <tcp_input+0x576>
 800540a:	0792      	lsls	r2, r2, #30
 800540c:	8b63      	ldrh	r3, [r4, #26]
 800540e:	d506      	bpl.n	800541e <tcp_input+0x5ee>
 8005410:	7d22      	ldrb	r2, [r4, #20]
 8005412:	3a02      	subs	r2, #2
 8005414:	2a01      	cmp	r2, #1
 8005416:	d902      	bls.n	800541e <tcp_input+0x5ee>
 8005418:	f043 0302 	orr.w	r3, r3, #2
 800541c:	e7ca      	b.n	80053b4 <tcp_input+0x584>
 800541e:	06d8      	lsls	r0, r3, #27
 8005420:	bf5e      	ittt	pl
 8005422:	4b70      	ldrpl	r3, [pc, #448]	; (80055e4 <tcp_input+0x7b4>)
 8005424:	681b      	ldrpl	r3, [r3, #0]
 8005426:	6223      	strpl	r3, [r4, #32]
 8005428:	2300      	movs	r3, #0
 800542a:	f8a4 309a 	strh.w	r3, [r4, #154]	; 0x9a
 800542e:	4620      	mov	r0, r4
 8005430:	f7ff f800 	bl	8004434 <tcp_parseopt>
 8005434:	7d23      	ldrb	r3, [r4, #20]
 8005436:	3b02      	subs	r3, #2
 8005438:	2b07      	cmp	r3, #7
 800543a:	d8bc      	bhi.n	80053b6 <tcp_input+0x586>
 800543c:	e8df f013 	tbh	[pc, r3, lsl #1]
 8005440:	009c0008 	.word	0x009c0008
 8005444:	01290125 	.word	0x01290125
 8005448:	01250174 	.word	0x01250174
 800544c:	01ad018d 	.word	0x01ad018d
 8005450:	9b05      	ldr	r3, [sp, #20]
 8005452:	781b      	ldrb	r3, [r3, #0]
 8005454:	f003 0212 	and.w	r2, r3, #18
 8005458:	2a12      	cmp	r2, #18
 800545a:	d16d      	bne.n	8005538 <tcp_input+0x708>
 800545c:	6c62      	ldr	r2, [r4, #68]	; 0x44
 800545e:	f8da 1000 	ldr.w	r1, [sl]
 8005462:	3201      	adds	r2, #1
 8005464:	428a      	cmp	r2, r1
 8005466:	d167      	bne.n	8005538 <tcp_input+0x708>
 8005468:	f8db 3000 	ldr.w	r3, [fp]
 800546c:	6462      	str	r2, [r4, #68]	; 0x44
 800546e:	1c59      	adds	r1, r3, #1
 8005470:	6832      	ldr	r2, [r6, #0]
 8005472:	6261      	str	r1, [r4, #36]	; 0x24
 8005474:	62e1      	str	r1, [r4, #44]	; 0x2c
 8005476:	3b01      	subs	r3, #1
 8005478:	89d2      	ldrh	r2, [r2, #14]
 800547a:	6563      	str	r3, [r4, #84]	; 0x54
 800547c:	2304      	movs	r3, #4
 800547e:	f8a4 2060 	strh.w	r2, [r4, #96]	; 0x60
 8005482:	f8a4 2062 	strh.w	r2, [r4, #98]	; 0x62
 8005486:	18e2      	adds	r2, r4, r3
 8005488:	7523      	strb	r3, [r4, #20]
 800548a:	4610      	mov	r0, r2
 800548c:	8e66      	ldrh	r6, [r4, #50]	; 0x32
 800548e:	9205      	str	r2, [sp, #20]
 8005490:	f002 f9fe 	bl	8007890 <ip4_route>
 8005494:	9a05      	ldr	r2, [sp, #20]
 8005496:	4601      	mov	r1, r0
 8005498:	4630      	mov	r0, r6
 800549a:	f7fe f95f 	bl	800375c <tcp_eff_send_mss_netif>
 800549e:	f241 131c 	movw	r3, #4380	; 0x111c
 80054a2:	0042      	lsls	r2, r0, #1
 80054a4:	429a      	cmp	r2, r3
 80054a6:	4616      	mov	r6, r2
 80054a8:	bf38      	it	cc
 80054aa:	461e      	movcc	r6, r3
 80054ac:	ebb6 0f80 	cmp.w	r6, r0, lsl #2
 80054b0:	8660      	strh	r0, [r4, #50]	; 0x32
 80054b2:	ea4f 0180 	mov.w	r1, r0, lsl #2
 80054b6:	d933      	bls.n	8005520 <tcp_input+0x6f0>
 80054b8:	b28b      	uxth	r3, r1
 80054ba:	f8a4 3048 	strh.w	r3, [r4, #72]	; 0x48
 80054be:	f8b4 3066 	ldrh.w	r3, [r4, #102]	; 0x66
 80054c2:	b933      	cbnz	r3, 80054d2 <tcp_input+0x6a2>
 80054c4:	4b44      	ldr	r3, [pc, #272]	; (80055d8 <tcp_input+0x7a8>)
 80054c6:	4948      	ldr	r1, [pc, #288]	; (80055e8 <tcp_input+0x7b8>)
 80054c8:	4845      	ldr	r0, [pc, #276]	; (80055e0 <tcp_input+0x7b0>)
 80054ca:	f44f 725b 	mov.w	r2, #876	; 0x36c
 80054ce:	f003 f817 	bl	8008500 <iprintf>
 80054d2:	f8b4 3066 	ldrh.w	r3, [r4, #102]	; 0x66
 80054d6:	6f26      	ldr	r6, [r4, #112]	; 0x70
 80054d8:	3b01      	subs	r3, #1
 80054da:	f8a4 3066 	strh.w	r3, [r4, #102]	; 0x66
 80054de:	bb1e      	cbnz	r6, 8005528 <tcp_input+0x6f8>
 80054e0:	6ee6      	ldr	r6, [r4, #108]	; 0x6c
 80054e2:	b936      	cbnz	r6, 80054f2 <tcp_input+0x6c2>
 80054e4:	4b3c      	ldr	r3, [pc, #240]	; (80055d8 <tcp_input+0x7a8>)
 80054e6:	4941      	ldr	r1, [pc, #260]	; (80055ec <tcp_input+0x7bc>)
 80054e8:	483d      	ldr	r0, [pc, #244]	; (80055e0 <tcp_input+0x7b0>)
 80054ea:	f44f 725d 	mov.w	r2, #884	; 0x374
 80054ee:	f003 f807 	bl	8008500 <iprintf>
 80054f2:	6833      	ldr	r3, [r6, #0]
 80054f4:	66e3      	str	r3, [r4, #108]	; 0x6c
 80054f6:	4630      	mov	r0, r6
 80054f8:	f7fe f856 	bl	80035a8 <tcp_seg_free>
 80054fc:	6f23      	ldr	r3, [r4, #112]	; 0x70
 80054fe:	b9b3      	cbnz	r3, 800552e <tcp_input+0x6fe>
 8005500:	f64f 73ff 	movw	r3, #65535	; 0xffff
 8005504:	8623      	strh	r3, [r4, #48]	; 0x30
 8005506:	f8d4 3088 	ldr.w	r3, [r4, #136]	; 0x88
 800550a:	2b00      	cmp	r3, #0
 800550c:	f43f af71 	beq.w	80053f2 <tcp_input+0x5c2>
 8005510:	6920      	ldr	r0, [r4, #16]
 8005512:	2200      	movs	r2, #0
 8005514:	4621      	mov	r1, r4
 8005516:	4798      	blx	r3
 8005518:	300d      	adds	r0, #13
 800551a:	f47f af6a 	bne.w	80053f2 <tcp_input+0x5c2>
 800551e:	e5fd      	b.n	800511c <tcp_input+0x2ec>
 8005520:	429a      	cmp	r2, r3
 8005522:	bf88      	it	hi
 8005524:	b293      	uxthhi	r3, r2
 8005526:	e7c8      	b.n	80054ba <tcp_input+0x68a>
 8005528:	6833      	ldr	r3, [r6, #0]
 800552a:	6723      	str	r3, [r4, #112]	; 0x70
 800552c:	e7e3      	b.n	80054f6 <tcp_input+0x6c6>
 800552e:	2300      	movs	r3, #0
 8005530:	8623      	strh	r3, [r4, #48]	; 0x30
 8005532:	f884 3042 	strb.w	r3, [r4, #66]	; 0x42
 8005536:	e7e6      	b.n	8005506 <tcp_input+0x6d6>
 8005538:	06d9      	lsls	r1, r3, #27
 800553a:	f57f af3c 	bpl.w	80053b6 <tcp_input+0x586>
 800553e:	6833      	ldr	r3, [r6, #0]
 8005540:	4a2b      	ldr	r2, [pc, #172]	; (80055f0 <tcp_input+0x7c0>)
 8005542:	8818      	ldrh	r0, [r3, #0]
 8005544:	8811      	ldrh	r1, [r2, #0]
 8005546:	9002      	str	r0, [sp, #8]
 8005548:	885b      	ldrh	r3, [r3, #2]
 800554a:	9301      	str	r3, [sp, #4]
 800554c:	f8db 2000 	ldr.w	r2, [fp]
 8005550:	4b28      	ldr	r3, [pc, #160]	; (80055f4 <tcp_input+0x7c4>)
 8005552:	9300      	str	r3, [sp, #0]
 8005554:	440a      	add	r2, r1
 8005556:	3304      	adds	r3, #4
 8005558:	f8da 1000 	ldr.w	r1, [sl]
 800555c:	4620      	mov	r0, r4
 800555e:	f001 f845 	bl	80065ec <tcp_rst>
 8005562:	f894 3042 	ldrb.w	r3, [r4, #66]	; 0x42
 8005566:	2b05      	cmp	r3, #5
 8005568:	f63f af25 	bhi.w	80053b6 <tcp_input+0x586>
 800556c:	2300      	movs	r3, #0
 800556e:	8623      	strh	r3, [r4, #48]	; 0x30
 8005570:	4620      	mov	r0, r4
 8005572:	f001 fa79 	bl	8006a68 <tcp_rexmit_rto>
 8005576:	e71e      	b.n	80053b6 <tcp_input+0x586>
 8005578:	9b05      	ldr	r3, [sp, #20]
 800557a:	781b      	ldrb	r3, [r3, #0]
 800557c:	06da      	lsls	r2, r3, #27
 800557e:	d576      	bpl.n	800566e <tcp_input+0x83e>
 8005580:	6c63      	ldr	r3, [r4, #68]	; 0x44
 8005582:	f8da 1000 	ldr.w	r1, [sl]
 8005586:	43db      	mvns	r3, r3
 8005588:	42cb      	cmn	r3, r1
 800558a:	d45f      	bmi.n	800564c <tcp_input+0x81c>
 800558c:	6d23      	ldr	r3, [r4, #80]	; 0x50
 800558e:	1acb      	subs	r3, r1, r3
 8005590:	2b00      	cmp	r3, #0
 8005592:	dc5b      	bgt.n	800564c <tcp_input+0x81c>
 8005594:	2304      	movs	r3, #4
 8005596:	7523      	strb	r3, [r4, #20]
 8005598:	6fe3      	ldr	r3, [r4, #124]	; 0x7c
 800559a:	b91b      	cbnz	r3, 80055a4 <tcp_input+0x774>
 800559c:	4620      	mov	r0, r4
 800559e:	f7fe fa1f 	bl	80039e0 <tcp_abort>
 80055a2:	e5bb      	b.n	800511c <tcp_input+0x2ec>
 80055a4:	699b      	ldr	r3, [r3, #24]
 80055a6:	b933      	cbnz	r3, 80055b6 <tcp_input+0x786>
 80055a8:	4b0b      	ldr	r3, [pc, #44]	; (80055d8 <tcp_input+0x7a8>)
 80055aa:	4913      	ldr	r1, [pc, #76]	; (80055f8 <tcp_input+0x7c8>)
 80055ac:	480c      	ldr	r0, [pc, #48]	; (80055e0 <tcp_input+0x7b0>)
 80055ae:	f44f 726a 	mov.w	r2, #936	; 0x3a8
 80055b2:	f002 ffa5 	bl	8008500 <iprintf>
 80055b6:	6fe3      	ldr	r3, [r4, #124]	; 0x7c
 80055b8:	699b      	ldr	r3, [r3, #24]
 80055ba:	2b00      	cmp	r3, #0
 80055bc:	d0ee      	beq.n	800559c <tcp_input+0x76c>
 80055be:	6920      	ldr	r0, [r4, #16]
 80055c0:	2200      	movs	r2, #0
 80055c2:	4621      	mov	r1, r4
 80055c4:	4798      	blx	r3
 80055c6:	b1c8      	cbz	r0, 80055fc <tcp_input+0x7cc>
 80055c8:	300d      	adds	r0, #13
 80055ca:	f43f ada7 	beq.w	800511c <tcp_input+0x2ec>
 80055ce:	e7e5      	b.n	800559c <tcp_input+0x76c>
 80055d0:	2000a790 	.word	0x2000a790
 80055d4:	2000a794 	.word	0x2000a794
 80055d8:	0800a3ab 	.word	0x0800a3ab
 80055dc:	0800a6ed 	.word	0x0800a6ed
 80055e0:	080095b5 	.word	0x080095b5
 80055e4:	2000a798 	.word	0x2000a798
 80055e8:	0800a70d 	.word	0x0800a70d
 80055ec:	0800a723 	.word	0x0800a723
 80055f0:	2000008e 	.word	0x2000008e
 80055f4:	20004670 	.word	0x20004670
 80055f8:	0800a736 	.word	0x0800a736
 80055fc:	4620      	mov	r0, r4
 80055fe:	f7fe ffeb 	bl	80045d8 <tcp_receive>
 8005602:	9b06      	ldr	r3, [sp, #24]
 8005604:	881b      	ldrh	r3, [r3, #0]
 8005606:	b113      	cbz	r3, 800560e <tcp_input+0x7de>
 8005608:	9a06      	ldr	r2, [sp, #24]
 800560a:	3b01      	subs	r3, #1
 800560c:	8013      	strh	r3, [r2, #0]
 800560e:	8e61      	ldrh	r1, [r4, #50]	; 0x32
 8005610:	f241 131c 	movw	r3, #4380	; 0x111c
 8005614:	004a      	lsls	r2, r1, #1
 8005616:	429a      	cmp	r2, r3
 8005618:	4616      	mov	r6, r2
 800561a:	bf38      	it	cc
 800561c:	461e      	movcc	r6, r3
 800561e:	ebb6 0f81 	cmp.w	r6, r1, lsl #2
 8005622:	ea4f 0081 	mov.w	r0, r1, lsl #2
 8005626:	d90d      	bls.n	8005644 <tcp_input+0x814>
 8005628:	b283      	uxth	r3, r0
 800562a:	f8a4 3048 	strh.w	r3, [r4, #72]	; 0x48
 800562e:	783b      	ldrb	r3, [r7, #0]
 8005630:	0699      	lsls	r1, r3, #26
 8005632:	f57f aec0 	bpl.w	80053b6 <tcp_input+0x586>
 8005636:	8b63      	ldrh	r3, [r4, #26]
 8005638:	f043 0302 	orr.w	r3, r3, #2
 800563c:	8363      	strh	r3, [r4, #26]
 800563e:	2307      	movs	r3, #7
 8005640:	7523      	strb	r3, [r4, #20]
 8005642:	e6b8      	b.n	80053b6 <tcp_input+0x586>
 8005644:	429a      	cmp	r2, r3
 8005646:	bf88      	it	hi
 8005648:	b293      	uxthhi	r3, r2
 800564a:	e7ee      	b.n	800562a <tcp_input+0x7fa>
 800564c:	6833      	ldr	r3, [r6, #0]
 800564e:	4aa5      	ldr	r2, [pc, #660]	; (80058e4 <tcp_input+0xab4>)
 8005650:	881e      	ldrh	r6, [r3, #0]
 8005652:	8810      	ldrh	r0, [r2, #0]
 8005654:	9602      	str	r6, [sp, #8]
 8005656:	885b      	ldrh	r3, [r3, #2]
 8005658:	f8db 2000 	ldr.w	r2, [fp]
 800565c:	9301      	str	r3, [sp, #4]
 800565e:	4ba2      	ldr	r3, [pc, #648]	; (80058e8 <tcp_input+0xab8>)
 8005660:	9300      	str	r3, [sp, #0]
 8005662:	4402      	add	r2, r0
 8005664:	3304      	adds	r3, #4
 8005666:	4620      	mov	r0, r4
 8005668:	f000 ffc0 	bl	80065ec <tcp_rst>
 800566c:	e6a3      	b.n	80053b6 <tcp_input+0x586>
 800566e:	0798      	lsls	r0, r3, #30
 8005670:	f57f aea1 	bpl.w	80053b6 <tcp_input+0x586>
 8005674:	6a63      	ldr	r3, [r4, #36]	; 0x24
 8005676:	f8db 2000 	ldr.w	r2, [fp]
 800567a:	3b01      	subs	r3, #1
 800567c:	4293      	cmp	r3, r2
 800567e:	f47f ae9a 	bne.w	80053b6 <tcp_input+0x586>
 8005682:	4620      	mov	r0, r4
 8005684:	f000 ff3c 	bl	8006500 <tcp_rexmit>
 8005688:	e695      	b.n	80053b6 <tcp_input+0x586>
 800568a:	4620      	mov	r0, r4
 800568c:	f7fe ffa4 	bl	80045d8 <tcp_receive>
 8005690:	e7cd      	b.n	800562e <tcp_input+0x7fe>
 8005692:	4620      	mov	r0, r4
 8005694:	f7fe ffa0 	bl	80045d8 <tcp_receive>
 8005698:	783b      	ldrb	r3, [r7, #0]
 800569a:	f013 0f20 	tst.w	r3, #32
 800569e:	9b05      	ldr	r3, [sp, #20]
 80056a0:	781b      	ldrb	r3, [r3, #0]
 80056a2:	d032      	beq.n	800570a <tcp_input+0x8da>
 80056a4:	f013 0f10 	tst.w	r3, #16
 80056a8:	8b63      	ldrh	r3, [r4, #26]
 80056aa:	d029      	beq.n	8005700 <tcp_input+0x8d0>
 80056ac:	6d21      	ldr	r1, [r4, #80]	; 0x50
 80056ae:	f8da 2000 	ldr.w	r2, [sl]
 80056b2:	4291      	cmp	r1, r2
 80056b4:	d124      	bne.n	8005700 <tcp_input+0x8d0>
 80056b6:	6ee2      	ldr	r2, [r4, #108]	; 0x6c
 80056b8:	bb12      	cbnz	r2, 8005700 <tcp_input+0x8d0>
 80056ba:	f043 0302 	orr.w	r3, r3, #2
 80056be:	8363      	strh	r3, [r4, #26]
 80056c0:	4620      	mov	r0, r4
 80056c2:	f7fe f873 	bl	80037ac <tcp_pcb_purge>
 80056c6:	f8d8 3000 	ldr.w	r3, [r8]
 80056ca:	429c      	cmp	r4, r3
 80056cc:	d10a      	bne.n	80056e4 <tcp_input+0x8b4>
 80056ce:	68e3      	ldr	r3, [r4, #12]
 80056d0:	f8c8 3000 	str.w	r3, [r8]
 80056d4:	e008      	b.n	80056e8 <tcp_input+0x8b8>
 80056d6:	68da      	ldr	r2, [r3, #12]
 80056d8:	4294      	cmp	r4, r2
 80056da:	d102      	bne.n	80056e2 <tcp_input+0x8b2>
 80056dc:	68e2      	ldr	r2, [r4, #12]
 80056de:	60da      	str	r2, [r3, #12]
 80056e0:	e002      	b.n	80056e8 <tcp_input+0x8b8>
 80056e2:	4613      	mov	r3, r2
 80056e4:	2b00      	cmp	r3, #0
 80056e6:	d1f6      	bne.n	80056d6 <tcp_input+0x8a6>
 80056e8:	4b80      	ldr	r3, [pc, #512]	; (80058ec <tcp_input+0xabc>)
 80056ea:	2201      	movs	r2, #1
 80056ec:	701a      	strb	r2, [r3, #0]
 80056ee:	230a      	movs	r3, #10
 80056f0:	7523      	strb	r3, [r4, #20]
 80056f2:	4b7f      	ldr	r3, [pc, #508]	; (80058f0 <tcp_input+0xac0>)
 80056f4:	681a      	ldr	r2, [r3, #0]
 80056f6:	60e2      	str	r2, [r4, #12]
 80056f8:	601c      	str	r4, [r3, #0]
 80056fa:	f001 fac5 	bl	8006c88 <tcp_timer_needed>
 80056fe:	e65a      	b.n	80053b6 <tcp_input+0x586>
 8005700:	f043 0302 	orr.w	r3, r3, #2
 8005704:	8363      	strh	r3, [r4, #26]
 8005706:	2308      	movs	r3, #8
 8005708:	e79a      	b.n	8005640 <tcp_input+0x810>
 800570a:	06da      	lsls	r2, r3, #27
 800570c:	f57f ae53 	bpl.w	80053b6 <tcp_input+0x586>
 8005710:	6d22      	ldr	r2, [r4, #80]	; 0x50
 8005712:	f8da 3000 	ldr.w	r3, [sl]
 8005716:	429a      	cmp	r2, r3
 8005718:	f47f ae4d 	bne.w	80053b6 <tcp_input+0x586>
 800571c:	6ee3      	ldr	r3, [r4, #108]	; 0x6c
 800571e:	2b00      	cmp	r3, #0
 8005720:	f47f ae49 	bne.w	80053b6 <tcp_input+0x586>
 8005724:	2306      	movs	r3, #6
 8005726:	e78b      	b.n	8005640 <tcp_input+0x810>
 8005728:	4620      	mov	r0, r4
 800572a:	f7fe ff55 	bl	80045d8 <tcp_receive>
 800572e:	783b      	ldrb	r3, [r7, #0]
 8005730:	069b      	lsls	r3, r3, #26
 8005732:	f57f ae40 	bpl.w	80053b6 <tcp_input+0x586>
 8005736:	8b63      	ldrh	r3, [r4, #26]
 8005738:	f043 0302 	orr.w	r3, r3, #2
 800573c:	8363      	strh	r3, [r4, #26]
 800573e:	4620      	mov	r0, r4
 8005740:	f7fe f834 	bl	80037ac <tcp_pcb_purge>
 8005744:	f8d8 3000 	ldr.w	r3, [r8]
 8005748:	429c      	cmp	r4, r3
 800574a:	d0c0      	beq.n	80056ce <tcp_input+0x89e>
 800574c:	2b00      	cmp	r3, #0
 800574e:	d0cb      	beq.n	80056e8 <tcp_input+0x8b8>
 8005750:	68da      	ldr	r2, [r3, #12]
 8005752:	4294      	cmp	r4, r2
 8005754:	d0c2      	beq.n	80056dc <tcp_input+0x8ac>
 8005756:	4613      	mov	r3, r2
 8005758:	e7f8      	b.n	800574c <tcp_input+0x91c>
 800575a:	4620      	mov	r0, r4
 800575c:	f7fe ff3c 	bl	80045d8 <tcp_receive>
 8005760:	9b05      	ldr	r3, [sp, #20]
 8005762:	781b      	ldrb	r3, [r3, #0]
 8005764:	06de      	lsls	r6, r3, #27
 8005766:	f57f ae26 	bpl.w	80053b6 <tcp_input+0x586>
 800576a:	6d22      	ldr	r2, [r4, #80]	; 0x50
 800576c:	f8da 3000 	ldr.w	r3, [sl]
 8005770:	429a      	cmp	r2, r3
 8005772:	f47f ae20 	bne.w	80053b6 <tcp_input+0x586>
 8005776:	6ee3      	ldr	r3, [r4, #108]	; 0x6c
 8005778:	2b00      	cmp	r3, #0
 800577a:	f47f ae1c 	bne.w	80053b6 <tcp_input+0x586>
 800577e:	4620      	mov	r0, r4
 8005780:	f7fe f814 	bl	80037ac <tcp_pcb_purge>
 8005784:	f8d8 3000 	ldr.w	r3, [r8]
 8005788:	429c      	cmp	r4, r3
 800578a:	d0a0      	beq.n	80056ce <tcp_input+0x89e>
 800578c:	2b00      	cmp	r3, #0
 800578e:	d0ab      	beq.n	80056e8 <tcp_input+0x8b8>
 8005790:	68da      	ldr	r2, [r3, #12]
 8005792:	4294      	cmp	r4, r2
 8005794:	d0a2      	beq.n	80056dc <tcp_input+0x8ac>
 8005796:	4613      	mov	r3, r2
 8005798:	e7f8      	b.n	800578c <tcp_input+0x95c>
 800579a:	4620      	mov	r0, r4
 800579c:	f7fe ff1c 	bl	80045d8 <tcp_receive>
 80057a0:	9b05      	ldr	r3, [sp, #20]
 80057a2:	781b      	ldrb	r3, [r3, #0]
 80057a4:	06d8      	lsls	r0, r3, #27
 80057a6:	f57f ae06 	bpl.w	80053b6 <tcp_input+0x586>
 80057aa:	6d22      	ldr	r2, [r4, #80]	; 0x50
 80057ac:	f8da 3000 	ldr.w	r3, [sl]
 80057b0:	429a      	cmp	r2, r3
 80057b2:	f47f ae00 	bne.w	80053b6 <tcp_input+0x586>
 80057b6:	6ee3      	ldr	r3, [r4, #108]	; 0x6c
 80057b8:	2b00      	cmp	r3, #0
 80057ba:	f47f adfc 	bne.w	80053b6 <tcp_input+0x586>
 80057be:	783b      	ldrb	r3, [r7, #0]
 80057c0:	f043 0310 	orr.w	r3, r3, #16
 80057c4:	703b      	strb	r3, [r7, #0]
 80057c6:	e5f6      	b.n	80053b6 <tcp_input+0x586>
 80057c8:	9b06      	ldr	r3, [sp, #24]
 80057ca:	881a      	ldrh	r2, [r3, #0]
 80057cc:	b12a      	cbz	r2, 80057da <tcp_input+0x9aa>
 80057ce:	f8d4 3080 	ldr.w	r3, [r4, #128]	; 0x80
 80057d2:	b9f3      	cbnz	r3, 8005812 <tcp_input+0x9e2>
 80057d4:	9a06      	ldr	r2, [sp, #24]
 80057d6:	2300      	movs	r3, #0
 80057d8:	8013      	strh	r3, [r2, #0]
 80057da:	4620      	mov	r0, r4
 80057dc:	f7fe fe72 	bl	80044c4 <tcp_input_delayed_close>
 80057e0:	2800      	cmp	r0, #0
 80057e2:	f47f ac9b 	bne.w	800511c <tcp_input+0x2ec>
 80057e6:	f8d9 3000 	ldr.w	r3, [r9]
 80057ea:	b333      	cbz	r3, 800583a <tcp_input+0xa0a>
 80057ec:	6fa3      	ldr	r3, [r4, #120]	; 0x78
 80057ee:	b133      	cbz	r3, 80057fe <tcp_input+0x9ce>
 80057f0:	4b40      	ldr	r3, [pc, #256]	; (80058f4 <tcp_input+0xac4>)
 80057f2:	4941      	ldr	r1, [pc, #260]	; (80058f8 <tcp_input+0xac8>)
 80057f4:	4841      	ldr	r0, [pc, #260]	; (80058fc <tcp_input+0xacc>)
 80057f6:	f44f 72f3 	mov.w	r2, #486	; 0x1e6
 80057fa:	f002 fe81 	bl	8008500 <iprintf>
 80057fe:	8b63      	ldrh	r3, [r4, #26]
 8005800:	f8d9 2000 	ldr.w	r2, [r9]
 8005804:	f013 0310 	ands.w	r3, r3, #16
 8005808:	d009      	beq.n	800581e <tcp_input+0x9ee>
 800580a:	4610      	mov	r0, r2
 800580c:	f7fd fa3a 	bl	8002c84 <pbuf_free>
 8005810:	e6c4      	b.n	800559c <tcp_input+0x76c>
 8005812:	6920      	ldr	r0, [r4, #16]
 8005814:	4621      	mov	r1, r4
 8005816:	4798      	blx	r3
 8005818:	300d      	adds	r0, #13
 800581a:	d1db      	bne.n	80057d4 <tcp_input+0x9a4>
 800581c:	e47e      	b.n	800511c <tcp_input+0x2ec>
 800581e:	f8d4 6084 	ldr.w	r6, [r4, #132]	; 0x84
 8005822:	b1fe      	cbz	r6, 8005864 <tcp_input+0xa34>
 8005824:	6920      	ldr	r0, [r4, #16]
 8005826:	4621      	mov	r1, r4
 8005828:	47b0      	blx	r6
 800582a:	f110 0f0d 	cmn.w	r0, #13
 800582e:	f43f ac75 	beq.w	800511c <tcp_input+0x2ec>
 8005832:	b110      	cbz	r0, 800583a <tcp_input+0xa0a>
 8005834:	f8d9 3000 	ldr.w	r3, [r9]
 8005838:	67a3      	str	r3, [r4, #120]	; 0x78
 800583a:	783b      	ldrb	r3, [r7, #0]
 800583c:	069a      	lsls	r2, r3, #26
 800583e:	d505      	bpl.n	800584c <tcp_input+0xa1c>
 8005840:	6fa3      	ldr	r3, [r4, #120]	; 0x78
 8005842:	b1ab      	cbz	r3, 8005870 <tcp_input+0xa40>
 8005844:	7b5a      	ldrb	r2, [r3, #13]
 8005846:	f042 0220 	orr.w	r2, r2, #32
 800584a:	735a      	strb	r2, [r3, #13]
 800584c:	2300      	movs	r3, #0
 800584e:	4620      	mov	r0, r4
 8005850:	602b      	str	r3, [r5, #0]
 8005852:	f7fe fe37 	bl	80044c4 <tcp_input_delayed_close>
 8005856:	2800      	cmp	r0, #0
 8005858:	f47f ac60 	bne.w	800511c <tcp_input+0x2ec>
 800585c:	4620      	mov	r0, r4
 800585e:	f000 ff3d 	bl	80066dc <tcp_output>
 8005862:	e45b      	b.n	800511c <tcp_input+0x2ec>
 8005864:	4633      	mov	r3, r6
 8005866:	4621      	mov	r1, r4
 8005868:	4630      	mov	r0, r6
 800586a:	f7fe faa1 	bl	8003db0 <tcp_recv_null>
 800586e:	e7dc      	b.n	800582a <tcp_input+0x9fa>
 8005870:	8d23      	ldrh	r3, [r4, #40]	; 0x28
 8005872:	f8d4 6084 	ldr.w	r6, [r4, #132]	; 0x84
 8005876:	f640 0242 	movw	r2, #2114	; 0x842
 800587a:	4293      	cmp	r3, r2
 800587c:	bf1c      	itt	ne
 800587e:	3301      	addne	r3, #1
 8005880:	8523      	strhne	r3, [r4, #40]	; 0x28
 8005882:	2e00      	cmp	r6, #0
 8005884:	d0e2      	beq.n	800584c <tcp_input+0xa1c>
 8005886:	2300      	movs	r3, #0
 8005888:	6920      	ldr	r0, [r4, #16]
 800588a:	461a      	mov	r2, r3
 800588c:	4621      	mov	r1, r4
 800588e:	47b0      	blx	r6
 8005890:	300d      	adds	r0, #13
 8005892:	d1db      	bne.n	800584c <tcp_input+0xa1c>
 8005894:	e442      	b.n	800511c <tcp_input+0x2ec>
 8005896:	b13c      	cbz	r4, 80058a8 <tcp_input+0xa78>
 8005898:	f8d9 300c 	ldr.w	r3, [r9, #12]
 800589c:	60e3      	str	r3, [r4, #12]
 800589e:	4b18      	ldr	r3, [pc, #96]	; (8005900 <tcp_input+0xad0>)
 80058a0:	f8c9 200c 	str.w	r2, [r9, #12]
 80058a4:	f8c3 9000 	str.w	r9, [r3]
 80058a8:	9b05      	ldr	r3, [sp, #20]
 80058aa:	781b      	ldrb	r3, [r3, #0]
 80058ac:	075c      	lsls	r4, r3, #29
 80058ae:	f53f ab86 	bmi.w	8004fbe <tcp_input+0x18e>
 80058b2:	f013 0410 	ands.w	r4, r3, #16
 80058b6:	f43f acd0 	beq.w	800525a <tcp_input+0x42a>
 80058ba:	4b0a      	ldr	r3, [pc, #40]	; (80058e4 <tcp_input+0xab4>)
 80058bc:	f8db 2000 	ldr.w	r2, [fp]
 80058c0:	881c      	ldrh	r4, [r3, #0]
 80058c2:	880b      	ldrh	r3, [r1, #0]
 80058c4:	e9cd 0301 	strd	r0, r3, [sp, #4]
 80058c8:	4b07      	ldr	r3, [pc, #28]	; (80058e8 <tcp_input+0xab8>)
 80058ca:	9300      	str	r3, [sp, #0]
 80058cc:	4422      	add	r2, r4
 80058ce:	3304      	adds	r3, #4
 80058d0:	f8da 1000 	ldr.w	r1, [sl]
 80058d4:	4648      	mov	r0, r9
 80058d6:	e471      	b.n	80051bc <tcp_input+0x38c>
 80058d8:	9b06      	ldr	r3, [sp, #24]
 80058da:	2b00      	cmp	r3, #0
 80058dc:	f47f abda 	bne.w	8005094 <tcp_input+0x264>
 80058e0:	f7ff bbea 	b.w	80050b8 <tcp_input+0x288>
 80058e4:	2000008e 	.word	0x2000008e
 80058e8:	20004670 	.word	0x20004670
 80058ec:	2000a790 	.word	0x2000a790
 80058f0:	2000a7a4 	.word	0x2000a7a4
 80058f4:	0800a3ab 	.word	0x0800a3ab
 80058f8:	0800a754 	.word	0x0800a754
 80058fc:	080095b5 	.word	0x080095b5
 8005900:	2000a79c 	.word	0x2000a79c

08005904 <tcp_trigger_input_pcb_close>:
 8005904:	4a02      	ldr	r2, [pc, #8]	; (8005910 <tcp_trigger_input_pcb_close+0xc>)
 8005906:	7813      	ldrb	r3, [r2, #0]
 8005908:	f043 0310 	orr.w	r3, r3, #16
 800590c:	7013      	strb	r3, [r2, #0]
 800590e:	4770      	bx	lr
 8005910:	20000074 	.word	0x20000074

08005914 <tcp_output_segment_busy>:
 8005914:	b510      	push	{r4, lr}
 8005916:	4604      	mov	r4, r0
 8005918:	b930      	cbnz	r0, 8005928 <tcp_output_segment_busy+0x14>
 800591a:	4b06      	ldr	r3, [pc, #24]	; (8005934 <tcp_output_segment_busy+0x20>)
 800591c:	4906      	ldr	r1, [pc, #24]	; (8005938 <tcp_output_segment_busy+0x24>)
 800591e:	4807      	ldr	r0, [pc, #28]	; (800593c <tcp_output_segment_busy+0x28>)
 8005920:	f240 529a 	movw	r2, #1434	; 0x59a
 8005924:	f002 fdec 	bl	8008500 <iprintf>
 8005928:	6863      	ldr	r3, [r4, #4]
 800592a:	89d8      	ldrh	r0, [r3, #14]
 800592c:	3801      	subs	r0, #1
 800592e:	bf18      	it	ne
 8005930:	2001      	movne	r0, #1
 8005932:	bd10      	pop	{r4, pc}
 8005934:	0800a76e 	.word	0x0800a76e
 8005938:	0800a7a1 	.word	0x0800a7a1
 800593c:	080095b5 	.word	0x080095b5

08005940 <tcp_pbuf_prealloc>:
 8005940:	e92d 43f8 	stmdb	sp!, {r3, r4, r5, r6, r7, r8, r9, lr}
 8005944:	9d08      	ldr	r5, [sp, #32]
 8005946:	f89d 9028 	ldrb.w	r9, [sp, #40]	; 0x28
 800594a:	4680      	mov	r8, r0
 800594c:	460c      	mov	r4, r1
 800594e:	4617      	mov	r7, r2
 8005950:	461e      	mov	r6, r3
 8005952:	b92d      	cbnz	r5, 8005960 <tcp_pbuf_prealloc+0x20>
 8005954:	4b1c      	ldr	r3, [pc, #112]	; (80059c8 <tcp_pbuf_prealloc+0x88>)
 8005956:	491d      	ldr	r1, [pc, #116]	; (80059cc <tcp_pbuf_prealloc+0x8c>)
 8005958:	481d      	ldr	r0, [pc, #116]	; (80059d0 <tcp_pbuf_prealloc+0x90>)
 800595a:	22e9      	movs	r2, #233	; 0xe9
 800595c:	f002 fdd0 	bl	8008500 <iprintf>
 8005960:	42bc      	cmp	r4, r7
 8005962:	d22e      	bcs.n	80059c2 <tcp_pbuf_prealloc+0x82>
 8005964:	f89d 3024 	ldrb.w	r3, [sp, #36]	; 0x24
 8005968:	079a      	lsls	r2, r3, #30
 800596a:	d409      	bmi.n	8005980 <tcp_pbuf_prealloc+0x40>
 800596c:	8b6b      	ldrh	r3, [r5, #26]
 800596e:	065b      	lsls	r3, r3, #25
 8005970:	d427      	bmi.n	80059c2 <tcp_pbuf_prealloc+0x82>
 8005972:	f1b9 0f00 	cmp.w	r9, #0
 8005976:	d003      	beq.n	8005980 <tcp_pbuf_prealloc+0x40>
 8005978:	6eeb      	ldr	r3, [r5, #108]	; 0x6c
 800597a:	b90b      	cbnz	r3, 8005980 <tcp_pbuf_prealloc+0x40>
 800597c:	6f2b      	ldr	r3, [r5, #112]	; 0x70
 800597e:	b303      	cbz	r3, 80059c2 <tcp_pbuf_prealloc+0x82>
 8005980:	f204 251b 	addw	r5, r4, #539	; 0x21b
 8005984:	f025 0103 	bic.w	r1, r5, #3
 8005988:	42b9      	cmp	r1, r7
 800598a:	460a      	mov	r2, r1
 800598c:	bf28      	it	cs
 800598e:	463a      	movcs	r2, r7
 8005990:	b291      	uxth	r1, r2
 8005992:	f44f 7220 	mov.w	r2, #640	; 0x280
 8005996:	4640      	mov	r0, r8
 8005998:	f7fd f9d8 	bl	8002d4c <pbuf_alloc>
 800599c:	4605      	mov	r5, r0
 800599e:	b168      	cbz	r0, 80059bc <tcp_pbuf_prealloc+0x7c>
 80059a0:	6803      	ldr	r3, [r0, #0]
 80059a2:	b133      	cbz	r3, 80059b2 <tcp_pbuf_prealloc+0x72>
 80059a4:	4b08      	ldr	r3, [pc, #32]	; (80059c8 <tcp_pbuf_prealloc+0x88>)
 80059a6:	490b      	ldr	r1, [pc, #44]	; (80059d4 <tcp_pbuf_prealloc+0x94>)
 80059a8:	4809      	ldr	r0, [pc, #36]	; (80059d0 <tcp_pbuf_prealloc+0x90>)
 80059aa:	f240 120b 	movw	r2, #267	; 0x10b
 80059ae:	f002 fda7 	bl	8008500 <iprintf>
 80059b2:	896b      	ldrh	r3, [r5, #10]
 80059b4:	1b1b      	subs	r3, r3, r4
 80059b6:	8033      	strh	r3, [r6, #0]
 80059b8:	812c      	strh	r4, [r5, #8]
 80059ba:	816c      	strh	r4, [r5, #10]
 80059bc:	4628      	mov	r0, r5
 80059be:	e8bd 83f8 	ldmia.w	sp!, {r3, r4, r5, r6, r7, r8, r9, pc}
 80059c2:	4621      	mov	r1, r4
 80059c4:	e7e5      	b.n	8005992 <tcp_pbuf_prealloc+0x52>
 80059c6:	bf00      	nop
 80059c8:	0800a76e 	.word	0x0800a76e
 80059cc:	0800a7c6 	.word	0x0800a7c6
 80059d0:	080095b5 	.word	0x080095b5
 80059d4:	0800a7e5 	.word	0x0800a7e5

080059d8 <tcp_create_segment>:
 80059d8:	e92d 47f0 	stmdb	sp!, {r4, r5, r6, r7, r8, r9, sl, lr}
 80059dc:	460e      	mov	r6, r1
 80059de:	f89d a020 	ldrb.w	sl, [sp, #32]
 80059e2:	4690      	mov	r8, r2
 80059e4:	4699      	mov	r9, r3
 80059e6:	4607      	mov	r7, r0
 80059e8:	b928      	cbnz	r0, 80059f6 <tcp_create_segment+0x1e>
 80059ea:	4b2e      	ldr	r3, [pc, #184]	; (8005aa4 <tcp_create_segment+0xcc>)
 80059ec:	492e      	ldr	r1, [pc, #184]	; (8005aa8 <tcp_create_segment+0xd0>)
 80059ee:	482f      	ldr	r0, [pc, #188]	; (8005aac <tcp_create_segment+0xd4>)
 80059f0:	22a3      	movs	r2, #163	; 0xa3
 80059f2:	f002 fd85 	bl	8008500 <iprintf>
 80059f6:	b92e      	cbnz	r6, 8005a04 <tcp_create_segment+0x2c>
 80059f8:	4b2a      	ldr	r3, [pc, #168]	; (8005aa4 <tcp_create_segment+0xcc>)
 80059fa:	492d      	ldr	r1, [pc, #180]	; (8005ab0 <tcp_create_segment+0xd8>)
 80059fc:	482b      	ldr	r0, [pc, #172]	; (8005aac <tcp_create_segment+0xd4>)
 80059fe:	22a4      	movs	r2, #164	; 0xa4
 8005a00:	f002 fd7e 	bl	8008500 <iprintf>
 8005a04:	2003      	movs	r0, #3
 8005a06:	f7fc fee3 	bl	80027d0 <memp_malloc>
 8005a0a:	ea4f 058a 	mov.w	r5, sl, lsl #2
 8005a0e:	f005 0504 	and.w	r5, r5, #4
 8005a12:	4604      	mov	r4, r0
 8005a14:	b928      	cbnz	r0, 8005a22 <tcp_create_segment+0x4a>
 8005a16:	4630      	mov	r0, r6
 8005a18:	f7fd f934 	bl	8002c84 <pbuf_free>
 8005a1c:	4620      	mov	r0, r4
 8005a1e:	e8bd 87f0 	ldmia.w	sp!, {r4, r5, r6, r7, r8, r9, sl, pc}
 8005a22:	f880 a00a 	strb.w	sl, [r0, #10]
 8005a26:	2300      	movs	r3, #0
 8005a28:	e9c0 3600 	strd	r3, r6, [r0]
 8005a2c:	8933      	ldrh	r3, [r6, #8]
 8005a2e:	42ab      	cmp	r3, r5
 8005a30:	fa1f fa85 	uxth.w	sl, r5
 8005a34:	d205      	bcs.n	8005a42 <tcp_create_segment+0x6a>
 8005a36:	4b1b      	ldr	r3, [pc, #108]	; (8005aa4 <tcp_create_segment+0xcc>)
 8005a38:	491e      	ldr	r1, [pc, #120]	; (8005ab4 <tcp_create_segment+0xdc>)
 8005a3a:	481c      	ldr	r0, [pc, #112]	; (8005aac <tcp_create_segment+0xd4>)
 8005a3c:	22b0      	movs	r2, #176	; 0xb0
 8005a3e:	f002 fd5f 	bl	8008500 <iprintf>
 8005a42:	8933      	ldrh	r3, [r6, #8]
 8005a44:	eba3 030a 	sub.w	r3, r3, sl
 8005a48:	4630      	mov	r0, r6
 8005a4a:	8123      	strh	r3, [r4, #8]
 8005a4c:	2114      	movs	r1, #20
 8005a4e:	f7fd f8e2 	bl	8002c16 <pbuf_add_header>
 8005a52:	4606      	mov	r6, r0
 8005a54:	b120      	cbz	r0, 8005a60 <tcp_create_segment+0x88>
 8005a56:	4620      	mov	r0, r4
 8005a58:	f7fd fda6 	bl	80035a8 <tcp_seg_free>
 8005a5c:	2400      	movs	r4, #0
 8005a5e:	e7dd      	b.n	8005a1c <tcp_create_segment+0x44>
 8005a60:	6863      	ldr	r3, [r4, #4]
 8005a62:	8af8      	ldrh	r0, [r7, #22]
 8005a64:	f8d3 a004 	ldr.w	sl, [r3, #4]
 8005a68:	f8c4 a00c 	str.w	sl, [r4, #12]
 8005a6c:	f7fc fc32 	bl	80022d4 <lwip_htons>
 8005a70:	f8aa 0000 	strh.w	r0, [sl]
 8005a74:	8b38      	ldrh	r0, [r7, #24]
 8005a76:	f8d4 a00c 	ldr.w	sl, [r4, #12]
 8005a7a:	f7fc fc2b 	bl	80022d4 <lwip_htons>
 8005a7e:	f8aa 0002 	strh.w	r0, [sl, #2]
 8005a82:	4648      	mov	r0, r9
 8005a84:	68e7      	ldr	r7, [r4, #12]
 8005a86:	f7fc fc28 	bl	80022da <lwip_htonl>
 8005a8a:	08ad      	lsrs	r5, r5, #2
 8005a8c:	3505      	adds	r5, #5
 8005a8e:	6078      	str	r0, [r7, #4]
 8005a90:	ea48 3005 	orr.w	r0, r8, r5, lsl #12
 8005a94:	68e7      	ldr	r7, [r4, #12]
 8005a96:	f7fc fc1d 	bl	80022d4 <lwip_htons>
 8005a9a:	68e3      	ldr	r3, [r4, #12]
 8005a9c:	81b8      	strh	r0, [r7, #12]
 8005a9e:	749e      	strb	r6, [r3, #18]
 8005aa0:	74de      	strb	r6, [r3, #19]
 8005aa2:	e7bb      	b.n	8005a1c <tcp_create_segment+0x44>
 8005aa4:	0800a76e 	.word	0x0800a76e
 8005aa8:	0800a7f9 	.word	0x0800a7f9
 8005aac:	080095b5 	.word	0x080095b5
 8005ab0:	0800a819 	.word	0x0800a819
 8005ab4:	0800a83a 	.word	0x0800a83a

08005ab8 <tcp_output_alloc_header_common.constprop.0>:
 8005ab8:	3114      	adds	r1, #20
 8005aba:	e92d 41f0 	stmdb	sp!, {r4, r5, r6, r7, r8, lr}
 8005abe:	b289      	uxth	r1, r1
 8005ac0:	4606      	mov	r6, r0
 8005ac2:	4617      	mov	r7, r2
 8005ac4:	2022      	movs	r0, #34	; 0x22
 8005ac6:	f44f 7220 	mov.w	r2, #640	; 0x280
 8005aca:	4698      	mov	r8, r3
 8005acc:	f7fd f93e 	bl	8002d4c <pbuf_alloc>
 8005ad0:	4605      	mov	r5, r0
 8005ad2:	b348      	cbz	r0, 8005b28 <tcp_output_alloc_header_common.constprop.0+0x70>
 8005ad4:	8943      	ldrh	r3, [r0, #10]
 8005ad6:	2b13      	cmp	r3, #19
 8005ad8:	d806      	bhi.n	8005ae8 <tcp_output_alloc_header_common.constprop.0+0x30>
 8005ada:	4b15      	ldr	r3, [pc, #84]	; (8005b30 <tcp_output_alloc_header_common.constprop.0+0x78>)
 8005adc:	4915      	ldr	r1, [pc, #84]	; (8005b34 <tcp_output_alloc_header_common.constprop.0+0x7c>)
 8005ade:	4816      	ldr	r0, [pc, #88]	; (8005b38 <tcp_output_alloc_header_common.constprop.0+0x80>)
 8005ae0:	f240 7223 	movw	r2, #1827	; 0x723
 8005ae4:	f002 fd0c 	bl	8008500 <iprintf>
 8005ae8:	4640      	mov	r0, r8
 8005aea:	686c      	ldr	r4, [r5, #4]
 8005aec:	f7fc fbf2 	bl	80022d4 <lwip_htons>
 8005af0:	8020      	strh	r0, [r4, #0]
 8005af2:	f8bd 0018 	ldrh.w	r0, [sp, #24]
 8005af6:	f7fc fbed 	bl	80022d4 <lwip_htons>
 8005afa:	6067      	str	r7, [r4, #4]
 8005afc:	8060      	strh	r0, [r4, #2]
 8005afe:	4630      	mov	r0, r6
 8005b00:	f7fc fbeb 	bl	80022da <lwip_htonl>
 8005b04:	60a0      	str	r0, [r4, #8]
 8005b06:	f89d 001c 	ldrb.w	r0, [sp, #28]
 8005b0a:	f440 40a0 	orr.w	r0, r0, #20480	; 0x5000
 8005b0e:	f7fc fbe1 	bl	80022d4 <lwip_htons>
 8005b12:	81a0      	strh	r0, [r4, #12]
 8005b14:	f8bd 0020 	ldrh.w	r0, [sp, #32]
 8005b18:	f7fc fbdc 	bl	80022d4 <lwip_htons>
 8005b1c:	2300      	movs	r3, #0
 8005b1e:	81e0      	strh	r0, [r4, #14]
 8005b20:	7423      	strb	r3, [r4, #16]
 8005b22:	7463      	strb	r3, [r4, #17]
 8005b24:	74a3      	strb	r3, [r4, #18]
 8005b26:	74e3      	strb	r3, [r4, #19]
 8005b28:	4628      	mov	r0, r5
 8005b2a:	e8bd 81f0 	ldmia.w	sp!, {r4, r5, r6, r7, r8, pc}
 8005b2e:	bf00      	nop
 8005b30:	0800a76e 	.word	0x0800a76e
 8005b34:	0800a84f 	.word	0x0800a84f
 8005b38:	080095b5 	.word	0x080095b5

08005b3c <tcp_output_alloc_header.constprop.0>:
 8005b3c:	b57f      	push	{r0, r1, r2, r3, r4, r5, r6, lr}
 8005b3e:	460d      	mov	r5, r1
 8005b40:	4616      	mov	r6, r2
 8005b42:	4604      	mov	r4, r0
 8005b44:	b930      	cbnz	r0, 8005b54 <tcp_output_alloc_header.constprop.0+0x18>
 8005b46:	4b0d      	ldr	r3, [pc, #52]	; (8005b7c <tcp_output_alloc_header.constprop.0+0x40>)
 8005b48:	490d      	ldr	r1, [pc, #52]	; (8005b80 <tcp_output_alloc_header.constprop.0+0x44>)
 8005b4a:	480e      	ldr	r0, [pc, #56]	; (8005b84 <tcp_output_alloc_header.constprop.0+0x48>)
 8005b4c:	f240 7242 	movw	r2, #1858	; 0x742
 8005b50:	f002 fcd6 	bl	8008500 <iprintf>
 8005b54:	8d63      	ldrh	r3, [r4, #42]	; 0x2a
 8005b56:	9302      	str	r3, [sp, #8]
 8005b58:	2310      	movs	r3, #16
 8005b5a:	9301      	str	r3, [sp, #4]
 8005b5c:	8b23      	ldrh	r3, [r4, #24]
 8005b5e:	9300      	str	r3, [sp, #0]
 8005b60:	8ae3      	ldrh	r3, [r4, #22]
 8005b62:	6a60      	ldr	r0, [r4, #36]	; 0x24
 8005b64:	4632      	mov	r2, r6
 8005b66:	4629      	mov	r1, r5
 8005b68:	f7ff ffa6 	bl	8005ab8 <tcp_output_alloc_header_common.constprop.0>
 8005b6c:	b118      	cbz	r0, 8005b76 <tcp_output_alloc_header.constprop.0+0x3a>
 8005b6e:	8d62      	ldrh	r2, [r4, #42]	; 0x2a
 8005b70:	6a63      	ldr	r3, [r4, #36]	; 0x24
 8005b72:	4413      	add	r3, r2
 8005b74:	62e3      	str	r3, [r4, #44]	; 0x2c
 8005b76:	b004      	add	sp, #16
 8005b78:	bd70      	pop	{r4, r5, r6, pc}
 8005b7a:	bf00      	nop
 8005b7c:	0800a76e 	.word	0x0800a76e
 8005b80:	0800a87d 	.word	0x0800a87d
 8005b84:	080095b5 	.word	0x080095b5

08005b88 <tcp_output_fill_options.isra.0.constprop.0>:
 8005b88:	b930      	cbnz	r0, 8005b98 <tcp_output_fill_options.isra.0.constprop.0+0x10>
 8005b8a:	4b04      	ldr	r3, [pc, #16]	; (8005b9c <tcp_output_fill_options.isra.0.constprop.0+0x14>)
 8005b8c:	4904      	ldr	r1, [pc, #16]	; (8005ba0 <tcp_output_fill_options.isra.0.constprop.0+0x18>)
 8005b8e:	4805      	ldr	r0, [pc, #20]	; (8005ba4 <tcp_output_fill_options.isra.0.constprop.0+0x1c>)
 8005b90:	f240 7256 	movw	r2, #1878	; 0x756
 8005b94:	f002 bcb4 	b.w	8008500 <iprintf>
 8005b98:	4770      	bx	lr
 8005b9a:	bf00      	nop
 8005b9c:	0800a76e 	.word	0x0800a76e
 8005ba0:	0800a8a2 	.word	0x0800a8a2
 8005ba4:	080095b5 	.word	0x080095b5

08005ba8 <tcp_output_control_segment>:
 8005ba8:	b5f0      	push	{r4, r5, r6, r7, lr}
 8005baa:	4604      	mov	r4, r0
 8005bac:	b085      	sub	sp, #20
 8005bae:	4617      	mov	r7, r2
 8005bb0:	461e      	mov	r6, r3
 8005bb2:	460d      	mov	r5, r1
 8005bb4:	b931      	cbnz	r1, 8005bc4 <tcp_output_control_segment+0x1c>
 8005bb6:	4b15      	ldr	r3, [pc, #84]	; (8005c0c <tcp_output_control_segment+0x64>)
 8005bb8:	4915      	ldr	r1, [pc, #84]	; (8005c10 <tcp_output_control_segment+0x68>)
 8005bba:	4816      	ldr	r0, [pc, #88]	; (8005c14 <tcp_output_control_segment+0x6c>)
 8005bbc:	f240 7287 	movw	r2, #1927	; 0x787
 8005bc0:	f002 fc9e 	bl	8008500 <iprintf>
 8005bc4:	b164      	cbz	r4, 8005be0 <tcp_output_control_segment+0x38>
 8005bc6:	7a20      	ldrb	r0, [r4, #8]
 8005bc8:	b150      	cbz	r0, 8005be0 <tcp_output_control_segment+0x38>
 8005bca:	f7fc ff8f 	bl	8002aec <netif_get_by_index>
 8005bce:	b968      	cbnz	r0, 8005bec <tcp_output_control_segment+0x44>
 8005bd0:	f06f 0403 	mvn.w	r4, #3
 8005bd4:	4628      	mov	r0, r5
 8005bd6:	f7fd f855 	bl	8002c84 <pbuf_free>
 8005bda:	4620      	mov	r0, r4
 8005bdc:	b005      	add	sp, #20
 8005bde:	bdf0      	pop	{r4, r5, r6, r7, pc}
 8005be0:	4630      	mov	r0, r6
 8005be2:	f001 fe55 	bl	8007890 <ip4_route>
 8005be6:	2800      	cmp	r0, #0
 8005be8:	d0f2      	beq.n	8005bd0 <tcp_output_control_segment+0x28>
 8005bea:	b164      	cbz	r4, 8005c06 <tcp_output_control_segment+0x5e>
 8005bec:	7ae3      	ldrb	r3, [r4, #11]
 8005bee:	7aa4      	ldrb	r4, [r4, #10]
 8005bf0:	9002      	str	r0, [sp, #8]
 8005bf2:	2206      	movs	r2, #6
 8005bf4:	e9cd 4200 	strd	r4, r2, [sp]
 8005bf8:	4639      	mov	r1, r7
 8005bfa:	4632      	mov	r2, r6
 8005bfc:	4628      	mov	r0, r5
 8005bfe:	f001 ffa3 	bl	8007b48 <ip4_output_if>
 8005c02:	4604      	mov	r4, r0
 8005c04:	e7e6      	b.n	8005bd4 <tcp_output_control_segment+0x2c>
 8005c06:	23ff      	movs	r3, #255	; 0xff
 8005c08:	e7f2      	b.n	8005bf0 <tcp_output_control_segment+0x48>
 8005c0a:	bf00      	nop
 8005c0c:	0800a76e 	.word	0x0800a76e
 8005c10:	0800a8c8 	.word	0x0800a8c8
 8005c14:	080095b5 	.word	0x080095b5

08005c18 <tcp_write>:
 8005c18:	e92d 4ff0 	stmdb	sp!, {r4, r5, r6, r7, r8, r9, sl, fp, lr}
 8005c1c:	ed2d 8b02 	vpush	{d8}
 8005c20:	b08f      	sub	sp, #60	; 0x3c
 8005c22:	4604      	mov	r4, r0
 8005c24:	9308      	str	r3, [sp, #32]
 8005c26:	2300      	movs	r3, #0
 8005c28:	9107      	str	r1, [sp, #28]
 8005c2a:	9204      	str	r2, [sp, #16]
 8005c2c:	f8ad 3036 	strh.w	r3, [sp, #54]	; 0x36
 8005c30:	b968      	cbnz	r0, 8005c4e <tcp_write+0x36>
 8005c32:	4bab      	ldr	r3, [pc, #684]	; (8005ee0 <tcp_write+0x2c8>)
 8005c34:	49ab      	ldr	r1, [pc, #684]	; (8005ee4 <tcp_write+0x2cc>)
 8005c36:	f44f 72cf 	mov.w	r2, #414	; 0x19e
 8005c3a:	48ab      	ldr	r0, [pc, #684]	; (8005ee8 <tcp_write+0x2d0>)
 8005c3c:	f002 fc60 	bl	8008500 <iprintf>
 8005c40:	f06f 000f 	mvn.w	r0, #15
 8005c44:	b00f      	add	sp, #60	; 0x3c
 8005c46:	ecbd 8b02 	vpop	{d8}
 8005c4a:	e8bd 8ff0 	ldmia.w	sp!, {r4, r5, r6, r7, r8, r9, sl, fp, pc}
 8005c4e:	f8b0 3062 	ldrh.w	r3, [r0, #98]	; 0x62
 8005c52:	8e42      	ldrh	r2, [r0, #50]	; 0x32
 8005c54:	085b      	lsrs	r3, r3, #1
 8005c56:	4293      	cmp	r3, r2
 8005c58:	bf28      	it	cs
 8005c5a:	4613      	movcs	r3, r2
 8005c5c:	2b00      	cmp	r3, #0
 8005c5e:	bf08      	it	eq
 8005c60:	4613      	moveq	r3, r2
 8005c62:	9306      	str	r3, [sp, #24]
 8005c64:	9b07      	ldr	r3, [sp, #28]
 8005c66:	b923      	cbnz	r3, 8005c72 <tcp_write+0x5a>
 8005c68:	4b9d      	ldr	r3, [pc, #628]	; (8005ee0 <tcp_write+0x2c8>)
 8005c6a:	49a0      	ldr	r1, [pc, #640]	; (8005eec <tcp_write+0x2d4>)
 8005c6c:	f240 12ad 	movw	r2, #429	; 0x1ad
 8005c70:	e7e3      	b.n	8005c3a <tcp_write+0x22>
 8005c72:	7d03      	ldrb	r3, [r0, #20]
 8005c74:	2b07      	cmp	r3, #7
 8005c76:	d003      	beq.n	8005c80 <tcp_write+0x68>
 8005c78:	3b02      	subs	r3, #2
 8005c7a:	2b02      	cmp	r3, #2
 8005c7c:	f200 825b 	bhi.w	8006136 <tcp_write+0x51e>
 8005c80:	9b04      	ldr	r3, [sp, #16]
 8005c82:	b1db      	cbz	r3, 8005cbc <tcp_write+0xa4>
 8005c84:	f8b4 3064 	ldrh.w	r3, [r4, #100]	; 0x64
 8005c88:	9a04      	ldr	r2, [sp, #16]
 8005c8a:	4293      	cmp	r3, r2
 8005c8c:	d206      	bcs.n	8005c9c <tcp_write+0x84>
 8005c8e:	8b63      	ldrh	r3, [r4, #26]
 8005c90:	f043 0380 	orr.w	r3, r3, #128	; 0x80
 8005c94:	8363      	strh	r3, [r4, #26]
 8005c96:	f04f 30ff 	mov.w	r0, #4294967295
 8005c9a:	e7d3      	b.n	8005c44 <tcp_write+0x2c>
 8005c9c:	f8b4 2066 	ldrh.w	r2, [r4, #102]	; 0x66
 8005ca0:	2a26      	cmp	r2, #38	; 0x26
 8005ca2:	d8f4      	bhi.n	8005c8e <tcp_write+0x76>
 8005ca4:	6f23      	ldr	r3, [r4, #112]	; 0x70
 8005ca6:	b302      	cbz	r2, 8005cea <tcp_write+0xd2>
 8005ca8:	b943      	cbnz	r3, 8005cbc <tcp_write+0xa4>
 8005caa:	6ee3      	ldr	r3, [r4, #108]	; 0x6c
 8005cac:	b933      	cbnz	r3, 8005cbc <tcp_write+0xa4>
 8005cae:	4b8c      	ldr	r3, [pc, #560]	; (8005ee0 <tcp_write+0x2c8>)
 8005cb0:	498f      	ldr	r1, [pc, #572]	; (8005ef0 <tcp_write+0x2d8>)
 8005cb2:	f240 1255 	movw	r2, #341	; 0x155
 8005cb6:	488c      	ldr	r0, [pc, #560]	; (8005ee8 <tcp_write+0x2d0>)
 8005cb8:	f002 fc22 	bl	8008500 <iprintf>
 8005cbc:	6ee6      	ldr	r6, [r4, #108]	; 0x6c
 8005cbe:	f8b4 3066 	ldrh.w	r3, [r4, #102]	; 0x66
 8005cc2:	9305      	str	r3, [sp, #20]
 8005cc4:	b9de      	cbnz	r6, 8005cfe <tcp_write+0xe6>
 8005cc6:	f8b4 7068 	ldrh.w	r7, [r4, #104]	; 0x68
 8005cca:	2f00      	cmp	r7, #0
 8005ccc:	f000 81bc 	beq.w	8006048 <tcp_write+0x430>
 8005cd0:	4b83      	ldr	r3, [pc, #524]	; (8005ee0 <tcp_write+0x2c8>)
 8005cd2:	4988      	ldr	r1, [pc, #544]	; (8005ef4 <tcp_write+0x2dc>)
 8005cd4:	4884      	ldr	r0, [pc, #528]	; (8005ee8 <tcp_write+0x2d0>)
 8005cd6:	f240 224a 	movw	r2, #586	; 0x24a
 8005cda:	f002 fc11 	bl	8008500 <iprintf>
 8005cde:	46b0      	mov	r8, r6
 8005ce0:	46b2      	mov	sl, r6
 8005ce2:	46b1      	mov	r9, r6
 8005ce4:	4635      	mov	r5, r6
 8005ce6:	4637      	mov	r7, r6
 8005ce8:	e089      	b.n	8005dfe <tcp_write+0x1e6>
 8005cea:	b913      	cbnz	r3, 8005cf2 <tcp_write+0xda>
 8005cec:	6ee3      	ldr	r3, [r4, #108]	; 0x6c
 8005cee:	2b00      	cmp	r3, #0
 8005cf0:	d0e4      	beq.n	8005cbc <tcp_write+0xa4>
 8005cf2:	4b7b      	ldr	r3, [pc, #492]	; (8005ee0 <tcp_write+0x2c8>)
 8005cf4:	4980      	ldr	r1, [pc, #512]	; (8005ef8 <tcp_write+0x2e0>)
 8005cf6:	f44f 72ac 	mov.w	r2, #344	; 0x158
 8005cfa:	e7dc      	b.n	8005cb6 <tcp_write+0x9e>
 8005cfc:	4656      	mov	r6, sl
 8005cfe:	f8d6 a000 	ldr.w	sl, [r6]
 8005d02:	46b0      	mov	r8, r6
 8005d04:	f1ba 0f00 	cmp.w	sl, #0
 8005d08:	d1f8      	bne.n	8005cfc <tcp_write+0xe4>
 8005d0a:	7ab5      	ldrb	r5, [r6, #10]
 8005d0c:	8933      	ldrh	r3, [r6, #8]
 8005d0e:	9a06      	ldr	r2, [sp, #24]
 8005d10:	00ad      	lsls	r5, r5, #2
 8005d12:	f005 0504 	and.w	r5, r5, #4
 8005d16:	442b      	add	r3, r5
 8005d18:	429a      	cmp	r2, r3
 8005d1a:	da06      	bge.n	8005d2a <tcp_write+0x112>
 8005d1c:	4b70      	ldr	r3, [pc, #448]	; (8005ee0 <tcp_write+0x2c8>)
 8005d1e:	4977      	ldr	r1, [pc, #476]	; (8005efc <tcp_write+0x2e4>)
 8005d20:	4871      	ldr	r0, [pc, #452]	; (8005ee8 <tcp_write+0x2d0>)
 8005d22:	f44f 72f3 	mov.w	r2, #486	; 0x1e6
 8005d26:	f002 fbeb 	bl	8008500 <iprintf>
 8005d2a:	8937      	ldrh	r7, [r6, #8]
 8005d2c:	9b06      	ldr	r3, [sp, #24]
 8005d2e:	1bdf      	subs	r7, r3, r7
 8005d30:	1b7f      	subs	r7, r7, r5
 8005d32:	f8b4 5068 	ldrh.w	r5, [r4, #104]	; 0x68
 8005d36:	f8ad 5036 	strh.w	r5, [sp, #54]	; 0x36
 8005d3a:	b2bf      	uxth	r7, r7
 8005d3c:	2d00      	cmp	r5, #0
 8005d3e:	d067      	beq.n	8005e10 <tcp_write+0x1f8>
 8005d40:	42bd      	cmp	r5, r7
 8005d42:	d906      	bls.n	8005d52 <tcp_write+0x13a>
 8005d44:	4b66      	ldr	r3, [pc, #408]	; (8005ee0 <tcp_write+0x2c8>)
 8005d46:	496e      	ldr	r1, [pc, #440]	; (8005f00 <tcp_write+0x2e8>)
 8005d48:	4867      	ldr	r0, [pc, #412]	; (8005ee8 <tcp_write+0x2d0>)
 8005d4a:	f44f 72fc 	mov.w	r2, #504	; 0x1f8
 8005d4e:	f002 fbd7 	bl	8008500 <iprintf>
 8005d52:	f8bd 3036 	ldrh.w	r3, [sp, #54]	; 0x36
 8005d56:	9a04      	ldr	r2, [sp, #16]
 8005d58:	429a      	cmp	r2, r3
 8005d5a:	bf28      	it	cs
 8005d5c:	461a      	movcs	r2, r3
 8005d5e:	42ba      	cmp	r2, r7
 8005d60:	4615      	mov	r5, r2
 8005d62:	bf28      	it	cs
 8005d64:	463d      	movcs	r5, r7
 8005d66:	1b5b      	subs	r3, r3, r5
 8005d68:	b29b      	uxth	r3, r3
 8005d6a:	1b7f      	subs	r7, r7, r5
 8005d6c:	f8ad 3036 	strh.w	r3, [sp, #54]	; 0x36
 8005d70:	b2bf      	uxth	r7, r7
 8005d72:	b153      	cbz	r3, 8005d8a <tcp_write+0x172>
 8005d74:	9b04      	ldr	r3, [sp, #16]
 8005d76:	42ab      	cmp	r3, r5
 8005d78:	f000 816b 	beq.w	8006052 <tcp_write+0x43a>
 8005d7c:	4b58      	ldr	r3, [pc, #352]	; (8005ee0 <tcp_write+0x2c8>)
 8005d7e:	4961      	ldr	r1, [pc, #388]	; (8005f04 <tcp_write+0x2ec>)
 8005d80:	4859      	ldr	r0, [pc, #356]	; (8005ee8 <tcp_write+0x2d0>)
 8005d82:	f44f 7200 	mov.w	r2, #512	; 0x200
 8005d86:	f002 fbbb 	bl	8008500 <iprintf>
 8005d8a:	9b04      	ldr	r3, [sp, #16]
 8005d8c:	429d      	cmp	r5, r3
 8005d8e:	f080 8160 	bcs.w	8006052 <tcp_write+0x43a>
 8005d92:	2f00      	cmp	r7, #0
 8005d94:	f000 8155 	beq.w	8006042 <tcp_write+0x42a>
 8005d98:	f8b8 9008 	ldrh.w	r9, [r8, #8]
 8005d9c:	f1b9 0f00 	cmp.w	r9, #0
 8005da0:	f000 8150 	beq.w	8006044 <tcp_write+0x42c>
 8005da4:	eba3 0905 	sub.w	r9, r3, r5
 8005da8:	9b08      	ldr	r3, [sp, #32]
 8005daa:	45b9      	cmp	r9, r7
 8005dac:	bfa8      	it	ge
 8005dae:	46b9      	movge	r9, r7
 8005db0:	07db      	lsls	r3, r3, #31
 8005db2:	fa1f f689 	uxth.w	r6, r9
 8005db6:	d52d      	bpl.n	8005e14 <tcp_write+0x1fc>
 8005db8:	2301      	movs	r3, #1
 8005dba:	9302      	str	r3, [sp, #8]
 8005dbc:	9b08      	ldr	r3, [sp, #32]
 8005dbe:	463a      	mov	r2, r7
 8005dc0:	e9cd 4300 	strd	r4, r3, [sp]
 8005dc4:	4631      	mov	r1, r6
 8005dc6:	f10d 0336 	add.w	r3, sp, #54	; 0x36
 8005dca:	2000      	movs	r0, #0
 8005dcc:	f7ff fdb8 	bl	8005940 <tcp_pbuf_prealloc>
 8005dd0:	4683      	mov	fp, r0
 8005dd2:	2800      	cmp	r0, #0
 8005dd4:	f000 81ac 	beq.w	8006130 <tcp_write+0x518>
 8005dd8:	9b07      	ldr	r3, [sp, #28]
 8005dda:	6840      	ldr	r0, [r0, #4]
 8005ddc:	4632      	mov	r2, r6
 8005dde:	1959      	adds	r1, r3, r5
 8005de0:	f002 fb78 	bl	80084d4 <memcpy>
 8005de4:	4658      	mov	r0, fp
 8005de6:	f7fd f88d 	bl	8002f04 <pbuf_clen>
 8005dea:	9b05      	ldr	r3, [sp, #20]
 8005dec:	4403      	add	r3, r0
 8005dee:	b29b      	uxth	r3, r3
 8005df0:	9305      	str	r3, [sp, #20]
 8005df2:	f04f 0900 	mov.w	r9, #0
 8005df6:	19af      	adds	r7, r5, r6
 8005df8:	b2bf      	uxth	r7, r7
 8005dfa:	4646      	mov	r6, r8
 8005dfc:	46da      	mov	sl, fp
 8005dfe:	9b08      	ldr	r3, [sp, #32]
 8005e00:	f04f 0b00 	mov.w	fp, #0
 8005e04:	f003 0301 	and.w	r3, r3, #1
 8005e08:	f8cd b024 	str.w	fp, [sp, #36]	; 0x24
 8005e0c:	930a      	str	r3, [sp, #40]	; 0x28
 8005e0e:	e0e7      	b.n	8005fe0 <tcp_write+0x3c8>
 8005e10:	462e      	mov	r6, r5
 8005e12:	e7ba      	b.n	8005d8a <tcp_write+0x172>
 8005e14:	f8d8 b004 	ldr.w	fp, [r8, #4]
 8005e18:	465a      	mov	r2, fp
 8005e1a:	f8db b000 	ldr.w	fp, [fp]
 8005e1e:	f1bb 0f00 	cmp.w	fp, #0
 8005e22:	d1f9      	bne.n	8005e18 <tcp_write+0x200>
 8005e24:	7b13      	ldrb	r3, [r2, #12]
 8005e26:	f013 0fc0 	tst.w	r3, #192	; 0xc0
 8005e2a:	d10f      	bne.n	8005e4c <tcp_write+0x234>
 8005e2c:	8951      	ldrh	r1, [r2, #10]
 8005e2e:	6853      	ldr	r3, [r2, #4]
 8005e30:	9a07      	ldr	r2, [sp, #28]
 8005e32:	440b      	add	r3, r1
 8005e34:	429a      	cmp	r2, r3
 8005e36:	d109      	bne.n	8005e4c <tcp_write+0x234>
 8005e38:	b135      	cbz	r5, 8005e48 <tcp_write+0x230>
 8005e3a:	4b29      	ldr	r3, [pc, #164]	; (8005ee0 <tcp_write+0x2c8>)
 8005e3c:	4932      	ldr	r1, [pc, #200]	; (8005f08 <tcp_write+0x2f0>)
 8005e3e:	482a      	ldr	r0, [pc, #168]	; (8005ee8 <tcp_write+0x2d0>)
 8005e40:	f240 2231 	movw	r2, #561	; 0x231
 8005e44:	f002 fb5c 	bl	8008500 <iprintf>
 8005e48:	46b1      	mov	r9, r6
 8005e4a:	e7d4      	b.n	8005df6 <tcp_write+0x1de>
 8005e4c:	2201      	movs	r2, #1
 8005e4e:	4631      	mov	r1, r6
 8005e50:	2000      	movs	r0, #0
 8005e52:	f7fc ff7b 	bl	8002d4c <pbuf_alloc>
 8005e56:	4683      	mov	fp, r0
 8005e58:	2800      	cmp	r0, #0
 8005e5a:	f000 8169 	beq.w	8006130 <tcp_write+0x518>
 8005e5e:	9b07      	ldr	r3, [sp, #28]
 8005e60:	442b      	add	r3, r5
 8005e62:	6043      	str	r3, [r0, #4]
 8005e64:	e7bf      	b.n	8005de6 <tcp_write+0x1ce>
 8005e66:	9b04      	ldr	r3, [sp, #16]
 8005e68:	9a06      	ldr	r2, [sp, #24]
 8005e6a:	1bdb      	subs	r3, r3, r7
 8005e6c:	b29b      	uxth	r3, r3
 8005e6e:	4293      	cmp	r3, r2
 8005e70:	bf28      	it	cs
 8005e72:	4613      	movcs	r3, r2
 8005e74:	b29b      	uxth	r3, r3
 8005e76:	ee08 3a10 	vmov	s16, r3
 8005e7a:	9b0a      	ldr	r3, [sp, #40]	; 0x28
 8005e7c:	2b00      	cmp	r3, #0
 8005e7e:	d047      	beq.n	8005f10 <tcp_write+0x2f8>
 8005e80:	fabb f38b 	clz	r3, fp
 8005e84:	095b      	lsrs	r3, r3, #5
 8005e86:	9302      	str	r3, [sp, #8]
 8005e88:	9b08      	ldr	r3, [sp, #32]
 8005e8a:	ee18 1a10 	vmov	r1, s16
 8005e8e:	e9cd 4300 	strd	r4, r3, [sp]
 8005e92:	2036      	movs	r0, #54	; 0x36
 8005e94:	f10d 0336 	add.w	r3, sp, #54	; 0x36
 8005e98:	f7ff fd52 	bl	8005940 <tcp_pbuf_prealloc>
 8005e9c:	4606      	mov	r6, r0
 8005e9e:	2800      	cmp	r0, #0
 8005ea0:	d057      	beq.n	8005f52 <tcp_write+0x33a>
 8005ea2:	8943      	ldrh	r3, [r0, #10]
 8005ea4:	ee18 2a10 	vmov	r2, s16
 8005ea8:	4293      	cmp	r3, r2
 8005eaa:	d206      	bcs.n	8005eba <tcp_write+0x2a2>
 8005eac:	4b0c      	ldr	r3, [pc, #48]	; (8005ee0 <tcp_write+0x2c8>)
 8005eae:	4917      	ldr	r1, [pc, #92]	; (8005f0c <tcp_write+0x2f4>)
 8005eb0:	480d      	ldr	r0, [pc, #52]	; (8005ee8 <tcp_write+0x2d0>)
 8005eb2:	f240 2266 	movw	r2, #614	; 0x266
 8005eb6:	f002 fb23 	bl	8008500 <iprintf>
 8005eba:	9b07      	ldr	r3, [sp, #28]
 8005ebc:	6870      	ldr	r0, [r6, #4]
 8005ebe:	ee18 2a10 	vmov	r2, s16
 8005ec2:	19d9      	adds	r1, r3, r7
 8005ec4:	f002 fb06 	bl	80084d4 <memcpy>
 8005ec8:	4630      	mov	r0, r6
 8005eca:	f7fd f81b 	bl	8002f04 <pbuf_clen>
 8005ece:	9b05      	ldr	r3, [sp, #20]
 8005ed0:	4403      	add	r3, r0
 8005ed2:	b29b      	uxth	r3, r3
 8005ed4:	2b27      	cmp	r3, #39	; 0x27
 8005ed6:	9305      	str	r3, [sp, #20]
 8005ed8:	d964      	bls.n	8005fa4 <tcp_write+0x38c>
 8005eda:	4630      	mov	r0, r6
 8005edc:	e037      	b.n	8005f4e <tcp_write+0x336>
 8005ede:	bf00      	nop
 8005ee0:	0800a76e 	.word	0x0800a76e
 8005ee4:	0800a8f1 	.word	0x0800a8f1
 8005ee8:	080095b5 	.word	0x080095b5
 8005eec:	0800a908 	.word	0x0800a908
 8005ef0:	0800a939 	.word	0x0800a939
 8005ef4:	0800aa23 	.word	0x0800aa23
 8005ef8:	0800a973 	.word	0x0800a973
 8005efc:	0800a9a5 	.word	0x0800a9a5
 8005f00:	0800a9bc 	.word	0x0800a9bc
 8005f04:	0800a9dc 	.word	0x0800a9dc
 8005f08:	0800a9fa 	.word	0x0800a9fa
 8005f0c:	0800aa52 	.word	0x0800aa52
 8005f10:	f8bd 3036 	ldrh.w	r3, [sp, #54]	; 0x36
 8005f14:	b133      	cbz	r3, 8005f24 <tcp_write+0x30c>
 8005f16:	4b89      	ldr	r3, [pc, #548]	; (800613c <tcp_write+0x524>)
 8005f18:	4989      	ldr	r1, [pc, #548]	; (8006140 <tcp_write+0x528>)
 8005f1a:	488a      	ldr	r0, [pc, #552]	; (8006144 <tcp_write+0x52c>)
 8005f1c:	f240 2271 	movw	r2, #625	; 0x271
 8005f20:	f002 faee 	bl	8008500 <iprintf>
 8005f24:	ee18 1a10 	vmov	r1, s16
 8005f28:	2201      	movs	r2, #1
 8005f2a:	2036      	movs	r0, #54	; 0x36
 8005f2c:	f7fc ff0e 	bl	8002d4c <pbuf_alloc>
 8005f30:	b178      	cbz	r0, 8005f52 <tcp_write+0x33a>
 8005f32:	9a07      	ldr	r2, [sp, #28]
 8005f34:	900b      	str	r0, [sp, #44]	; 0x2c
 8005f36:	443a      	add	r2, r7
 8005f38:	6042      	str	r2, [r0, #4]
 8005f3a:	2100      	movs	r1, #0
 8005f3c:	f44f 7220 	mov.w	r2, #640	; 0x280
 8005f40:	2036      	movs	r0, #54	; 0x36
 8005f42:	f7fc ff03 	bl	8002d4c <pbuf_alloc>
 8005f46:	9b0b      	ldr	r3, [sp, #44]	; 0x2c
 8005f48:	4606      	mov	r6, r0
 8005f4a:	bb38      	cbnz	r0, 8005f9c <tcp_write+0x384>
 8005f4c:	4618      	mov	r0, r3
 8005f4e:	f7fc fe99 	bl	8002c84 <pbuf_free>
 8005f52:	8b63      	ldrh	r3, [r4, #26]
 8005f54:	f043 0380 	orr.w	r3, r3, #128	; 0x80
 8005f58:	8363      	strh	r3, [r4, #26]
 8005f5a:	f1ba 0f00 	cmp.w	sl, #0
 8005f5e:	d002      	beq.n	8005f66 <tcp_write+0x34e>
 8005f60:	4650      	mov	r0, sl
 8005f62:	f7fc fe8f 	bl	8002c84 <pbuf_free>
 8005f66:	f1bb 0f00 	cmp.w	fp, #0
 8005f6a:	d002      	beq.n	8005f72 <tcp_write+0x35a>
 8005f6c:	4658      	mov	r0, fp
 8005f6e:	f7fd fb29 	bl	80035c4 <tcp_segs_free>
 8005f72:	f8b4 3066 	ldrh.w	r3, [r4, #102]	; 0x66
 8005f76:	2b00      	cmp	r3, #0
 8005f78:	f43f ae8d 	beq.w	8005c96 <tcp_write+0x7e>
 8005f7c:	6f23      	ldr	r3, [r4, #112]	; 0x70
 8005f7e:	2b00      	cmp	r3, #0
 8005f80:	f47f ae89 	bne.w	8005c96 <tcp_write+0x7e>
 8005f84:	6ee3      	ldr	r3, [r4, #108]	; 0x6c
 8005f86:	2b00      	cmp	r3, #0
 8005f88:	f47f ae85 	bne.w	8005c96 <tcp_write+0x7e>
 8005f8c:	4b6b      	ldr	r3, [pc, #428]	; (800613c <tcp_write+0x524>)
 8005f8e:	496e      	ldr	r1, [pc, #440]	; (8006148 <tcp_write+0x530>)
 8005f90:	486c      	ldr	r0, [pc, #432]	; (8006144 <tcp_write+0x52c>)
 8005f92:	f240 3227 	movw	r2, #807	; 0x327
 8005f96:	f002 fab3 	bl	8008500 <iprintf>
 8005f9a:	e67c      	b.n	8005c96 <tcp_write+0x7e>
 8005f9c:	4619      	mov	r1, r3
 8005f9e:	f7fc ffcd 	bl	8002f3c <pbuf_cat>
 8005fa2:	e791      	b.n	8005ec8 <tcp_write+0x2b0>
 8005fa4:	6de3      	ldr	r3, [r4, #92]	; 0x5c
 8005fa6:	2200      	movs	r2, #0
 8005fa8:	4631      	mov	r1, r6
 8005faa:	9200      	str	r2, [sp, #0]
 8005fac:	443b      	add	r3, r7
 8005fae:	4620      	mov	r0, r4
 8005fb0:	f7ff fd12 	bl	80059d8 <tcp_create_segment>
 8005fb4:	4606      	mov	r6, r0
 8005fb6:	2800      	cmp	r0, #0
 8005fb8:	d0cb      	beq.n	8005f52 <tcp_write+0x33a>
 8005fba:	f1bb 0f00 	cmp.w	fp, #0
 8005fbe:	d03e      	beq.n	800603e <tcp_write+0x426>
 8005fc0:	9b09      	ldr	r3, [sp, #36]	; 0x24
 8005fc2:	b933      	cbnz	r3, 8005fd2 <tcp_write+0x3ba>
 8005fc4:	4b5d      	ldr	r3, [pc, #372]	; (800613c <tcp_write+0x524>)
 8005fc6:	4961      	ldr	r1, [pc, #388]	; (800614c <tcp_write+0x534>)
 8005fc8:	485e      	ldr	r0, [pc, #376]	; (8006144 <tcp_write+0x52c>)
 8005fca:	f240 22ab 	movw	r2, #683	; 0x2ab
 8005fce:	f002 fa97 	bl	8008500 <iprintf>
 8005fd2:	9b09      	ldr	r3, [sp, #36]	; 0x24
 8005fd4:	601e      	str	r6, [r3, #0]
 8005fd6:	ee18 3a10 	vmov	r3, s16
 8005fda:	441f      	add	r7, r3
 8005fdc:	b2bf      	uxth	r7, r7
 8005fde:	9609      	str	r6, [sp, #36]	; 0x24
 8005fe0:	9b04      	ldr	r3, [sp, #16]
 8005fe2:	429f      	cmp	r7, r3
 8005fe4:	f4ff af3f 	bcc.w	8005e66 <tcp_write+0x24e>
 8005fe8:	4657      	mov	r7, sl
 8005fea:	46da      	mov	sl, fp
 8005fec:	b14d      	cbz	r5, 8006002 <tcp_write+0x3ea>
 8005fee:	f8d8 b004 	ldr.w	fp, [r8, #4]
 8005ff2:	f1bb 0f00 	cmp.w	fp, #0
 8005ff6:	d12f      	bne.n	8006058 <tcp_write+0x440>
 8005ff8:	f8b8 3008 	ldrh.w	r3, [r8, #8]
 8005ffc:	441d      	add	r5, r3
 8005ffe:	f8a8 5008 	strh.w	r5, [r8, #8]
 8006002:	f8bd 3036 	ldrh.w	r3, [sp, #54]	; 0x36
 8006006:	f8a4 3068 	strh.w	r3, [r4, #104]	; 0x68
 800600a:	2f00      	cmp	r7, #0
 800600c:	d03d      	beq.n	800608a <tcp_write+0x472>
 800600e:	f1b8 0f00 	cmp.w	r8, #0
 8006012:	d106      	bne.n	8006022 <tcp_write+0x40a>
 8006014:	4b49      	ldr	r3, [pc, #292]	; (800613c <tcp_write+0x524>)
 8006016:	494e      	ldr	r1, [pc, #312]	; (8006150 <tcp_write+0x538>)
 8006018:	484a      	ldr	r0, [pc, #296]	; (8006144 <tcp_write+0x52c>)
 800601a:	f44f 7238 	mov.w	r2, #736	; 0x2e0
 800601e:	f002 fa6f 	bl	8008500 <iprintf>
 8006022:	f8d8 0004 	ldr.w	r0, [r8, #4]
 8006026:	4639      	mov	r1, r7
 8006028:	f7fc ff88 	bl	8002f3c <pbuf_cat>
 800602c:	f8b8 3008 	ldrh.w	r3, [r8, #8]
 8006030:	893a      	ldrh	r2, [r7, #8]
 8006032:	4413      	add	r3, r2
 8006034:	f8a8 3008 	strh.w	r3, [r8, #8]
 8006038:	f8c8 a000 	str.w	sl, [r8]
 800603c:	e04d      	b.n	80060da <tcp_write+0x4c2>
 800603e:	4683      	mov	fp, r0
 8006040:	e7c9      	b.n	8005fd6 <tcp_write+0x3be>
 8006042:	46b9      	mov	r9, r7
 8006044:	462f      	mov	r7, r5
 8006046:	e6da      	b.n	8005dfe <tcp_write+0x1e6>
 8006048:	46b9      	mov	r9, r7
 800604a:	463d      	mov	r5, r7
 800604c:	46b8      	mov	r8, r7
 800604e:	46ba      	mov	sl, r7
 8006050:	e6d5      	b.n	8005dfe <tcp_write+0x1e6>
 8006052:	2700      	movs	r7, #0
 8006054:	46b9      	mov	r9, r7
 8006056:	e7c9      	b.n	8005fec <tcp_write+0x3d4>
 8006058:	f8bb 3008 	ldrh.w	r3, [fp, #8]
 800605c:	442b      	add	r3, r5
 800605e:	f8ab 3008 	strh.w	r3, [fp, #8]
 8006062:	f8db 3000 	ldr.w	r3, [fp]
 8006066:	b96b      	cbnz	r3, 8006084 <tcp_write+0x46c>
 8006068:	f8db 3004 	ldr.w	r3, [fp, #4]
 800606c:	f8bb 000a 	ldrh.w	r0, [fp, #10]
 8006070:	9907      	ldr	r1, [sp, #28]
 8006072:	4418      	add	r0, r3
 8006074:	462a      	mov	r2, r5
 8006076:	f002 fa2d 	bl	80084d4 <memcpy>
 800607a:	f8bb 300a 	ldrh.w	r3, [fp, #10]
 800607e:	442b      	add	r3, r5
 8006080:	f8ab 300a 	strh.w	r3, [fp, #10]
 8006084:	f8db b000 	ldr.w	fp, [fp]
 8006088:	e7b3      	b.n	8005ff2 <tcp_write+0x3da>
 800608a:	f1b9 0f00 	cmp.w	r9, #0
 800608e:	d01f      	beq.n	80060d0 <tcp_write+0x4b8>
 8006090:	f1b8 0f00 	cmp.w	r8, #0
 8006094:	d002      	beq.n	800609c <tcp_write+0x484>
 8006096:	f8d8 3004 	ldr.w	r3, [r8, #4]
 800609a:	b933      	cbnz	r3, 80060aa <tcp_write+0x492>
 800609c:	4b27      	ldr	r3, [pc, #156]	; (800613c <tcp_write+0x524>)
 800609e:	492d      	ldr	r1, [pc, #180]	; (8006154 <tcp_write+0x53c>)
 80060a0:	4828      	ldr	r0, [pc, #160]	; (8006144 <tcp_write+0x52c>)
 80060a2:	f240 22e6 	movw	r2, #742	; 0x2e6
 80060a6:	f002 fa2b 	bl	8008500 <iprintf>
 80060aa:	f8d8 3004 	ldr.w	r3, [r8, #4]
 80060ae:	891a      	ldrh	r2, [r3, #8]
 80060b0:	6819      	ldr	r1, [r3, #0]
 80060b2:	444a      	add	r2, r9
 80060b4:	b292      	uxth	r2, r2
 80060b6:	811a      	strh	r2, [r3, #8]
 80060b8:	b941      	cbnz	r1, 80060cc <tcp_write+0x4b4>
 80060ba:	895a      	ldrh	r2, [r3, #10]
 80060bc:	444a      	add	r2, r9
 80060be:	815a      	strh	r2, [r3, #10]
 80060c0:	f8b8 3008 	ldrh.w	r3, [r8, #8]
 80060c4:	4499      	add	r9, r3
 80060c6:	f8a8 9008 	strh.w	r9, [r8, #8]
 80060ca:	e7b5      	b.n	8006038 <tcp_write+0x420>
 80060cc:	460b      	mov	r3, r1
 80060ce:	e7ee      	b.n	80060ae <tcp_write+0x496>
 80060d0:	f1b8 0f00 	cmp.w	r8, #0
 80060d4:	d1b0      	bne.n	8006038 <tcp_write+0x420>
 80060d6:	f8c4 a06c 	str.w	sl, [r4, #108]	; 0x6c
 80060da:	6de3      	ldr	r3, [r4, #92]	; 0x5c
 80060dc:	9a04      	ldr	r2, [sp, #16]
 80060de:	4413      	add	r3, r2
 80060e0:	65e3      	str	r3, [r4, #92]	; 0x5c
 80060e2:	f8b4 2064 	ldrh.w	r2, [r4, #100]	; 0x64
 80060e6:	9b04      	ldr	r3, [sp, #16]
 80060e8:	1ad2      	subs	r2, r2, r3
 80060ea:	9b05      	ldr	r3, [sp, #20]
 80060ec:	f8a4 2064 	strh.w	r2, [r4, #100]	; 0x64
 80060f0:	f8a4 3066 	strh.w	r3, [r4, #102]	; 0x66
 80060f4:	b153      	cbz	r3, 800610c <tcp_write+0x4f4>
 80060f6:	6f23      	ldr	r3, [r4, #112]	; 0x70
 80060f8:	b943      	cbnz	r3, 800610c <tcp_write+0x4f4>
 80060fa:	6ee3      	ldr	r3, [r4, #108]	; 0x6c
 80060fc:	b933      	cbnz	r3, 800610c <tcp_write+0x4f4>
 80060fe:	4b0f      	ldr	r3, [pc, #60]	; (800613c <tcp_write+0x524>)
 8006100:	4911      	ldr	r1, [pc, #68]	; (8006148 <tcp_write+0x530>)
 8006102:	4810      	ldr	r0, [pc, #64]	; (8006144 <tcp_write+0x52c>)
 8006104:	f240 3212 	movw	r2, #786	; 0x312
 8006108:	f002 f9fa 	bl	8008500 <iprintf>
 800610c:	b176      	cbz	r6, 800612c <tcp_write+0x514>
 800610e:	68f0      	ldr	r0, [r6, #12]
 8006110:	2800      	cmp	r0, #0
 8006112:	f43f ad97 	beq.w	8005c44 <tcp_write+0x2c>
 8006116:	9b08      	ldr	r3, [sp, #32]
 8006118:	f013 0402 	ands.w	r4, r3, #2
 800611c:	d106      	bne.n	800612c <tcp_write+0x514>
 800611e:	8985      	ldrh	r5, [r0, #12]
 8006120:	2008      	movs	r0, #8
 8006122:	f7fc f8d7 	bl	80022d4 <lwip_htons>
 8006126:	68f3      	ldr	r3, [r6, #12]
 8006128:	4328      	orrs	r0, r5
 800612a:	8198      	strh	r0, [r3, #12]
 800612c:	2000      	movs	r0, #0
 800612e:	e589      	b.n	8005c44 <tcp_write+0x2c>
 8006130:	f04f 0b00 	mov.w	fp, #0
 8006134:	e70d      	b.n	8005f52 <tcp_write+0x33a>
 8006136:	f06f 000a 	mvn.w	r0, #10
 800613a:	e583      	b.n	8005c44 <tcp_write+0x2c>
 800613c:	0800a76e 	.word	0x0800a76e
 8006140:	0800aa90 	.word	0x0800aa90
 8006144:	080095b5 	.word	0x080095b5
 8006148:	0800ab1c 	.word	0x0800ab1c
 800614c:	0800aa9e 	.word	0x0800aa9e
 8006150:	0800aaaf 	.word	0x0800aaaf
 8006154:	0800aae7 	.word	0x0800aae7

08006158 <tcp_split_unsent_seg>:
 8006158:	e92d 4ff7 	stmdb	sp!, {r0, r1, r2, r4, r5, r6, r7, r8, r9, sl, fp, lr}
 800615c:	460d      	mov	r5, r1
 800615e:	4606      	mov	r6, r0
 8006160:	b930      	cbnz	r0, 8006170 <tcp_split_unsent_seg+0x18>
 8006162:	4b5d      	ldr	r3, [pc, #372]	; (80062d8 <tcp_split_unsent_seg+0x180>)
 8006164:	495d      	ldr	r1, [pc, #372]	; (80062dc <tcp_split_unsent_seg+0x184>)
 8006166:	485e      	ldr	r0, [pc, #376]	; (80062e0 <tcp_split_unsent_seg+0x188>)
 8006168:	f240 324b 	movw	r2, #843	; 0x34b
 800616c:	f002 f9c8 	bl	8008500 <iprintf>
 8006170:	6ef4      	ldr	r4, [r6, #108]	; 0x6c
 8006172:	b914      	cbnz	r4, 800617a <tcp_split_unsent_seg+0x22>
 8006174:	f04f 30ff 	mov.w	r0, #4294967295
 8006178:	e009      	b.n	800618e <tcp_split_unsent_seg+0x36>
 800617a:	b95d      	cbnz	r5, 8006194 <tcp_split_unsent_seg+0x3c>
 800617c:	4b56      	ldr	r3, [pc, #344]	; (80062d8 <tcp_split_unsent_seg+0x180>)
 800617e:	4959      	ldr	r1, [pc, #356]	; (80062e4 <tcp_split_unsent_seg+0x18c>)
 8006180:	4857      	ldr	r0, [pc, #348]	; (80062e0 <tcp_split_unsent_seg+0x188>)
 8006182:	f240 3253 	movw	r2, #851	; 0x353
 8006186:	f002 f9bb 	bl	8008500 <iprintf>
 800618a:	f06f 0005 	mvn.w	r0, #5
 800618e:	b003      	add	sp, #12
 8006190:	e8bd 8ff0 	ldmia.w	sp!, {r4, r5, r6, r7, r8, r9, sl, fp, pc}
 8006194:	8923      	ldrh	r3, [r4, #8]
 8006196:	42ab      	cmp	r3, r5
 8006198:	d801      	bhi.n	800619e <tcp_split_unsent_seg+0x46>
 800619a:	2000      	movs	r0, #0
 800619c:	e7f7      	b.n	800618e <tcp_split_unsent_seg+0x36>
 800619e:	8e73      	ldrh	r3, [r6, #50]	; 0x32
 80061a0:	42ab      	cmp	r3, r5
 80061a2:	d206      	bcs.n	80061b2 <tcp_split_unsent_seg+0x5a>
 80061a4:	4b4c      	ldr	r3, [pc, #304]	; (80062d8 <tcp_split_unsent_seg+0x180>)
 80061a6:	4950      	ldr	r1, [pc, #320]	; (80062e8 <tcp_split_unsent_seg+0x190>)
 80061a8:	484d      	ldr	r0, [pc, #308]	; (80062e0 <tcp_split_unsent_seg+0x188>)
 80061aa:	f240 325b 	movw	r2, #859	; 0x35b
 80061ae:	f002 f9a7 	bl	8008500 <iprintf>
 80061b2:	8923      	ldrh	r3, [r4, #8]
 80061b4:	b933      	cbnz	r3, 80061c4 <tcp_split_unsent_seg+0x6c>
 80061b6:	4b48      	ldr	r3, [pc, #288]	; (80062d8 <tcp_split_unsent_seg+0x180>)
 80061b8:	494c      	ldr	r1, [pc, #304]	; (80062ec <tcp_split_unsent_seg+0x194>)
 80061ba:	4849      	ldr	r0, [pc, #292]	; (80062e0 <tcp_split_unsent_seg+0x188>)
 80061bc:	f44f 7257 	mov.w	r2, #860	; 0x35c
 80061c0:	f002 f99e 	bl	8008500 <iprintf>
 80061c4:	f894 b00a 	ldrb.w	fp, [r4, #10]
 80061c8:	f8b4 a008 	ldrh.w	sl, [r4, #8]
 80061cc:	ea4f 078b 	mov.w	r7, fp, lsl #2
 80061d0:	ebaa 0105 	sub.w	r1, sl, r5
 80061d4:	f007 0704 	and.w	r7, r7, #4
 80061d8:	fa1f f881 	uxth.w	r8, r1
 80061dc:	fa17 f181 	uxtah	r1, r7, r1
 80061e0:	f44f 7220 	mov.w	r2, #640	; 0x280
 80061e4:	b289      	uxth	r1, r1
 80061e6:	2036      	movs	r0, #54	; 0x36
 80061e8:	f7fc fdb0 	bl	8002d4c <pbuf_alloc>
 80061ec:	4681      	mov	r9, r0
 80061ee:	2800      	cmp	r0, #0
 80061f0:	d0c0      	beq.n	8006174 <tcp_split_unsent_seg+0x1c>
 80061f2:	6860      	ldr	r0, [r4, #4]
 80061f4:	8922      	ldrh	r2, [r4, #8]
 80061f6:	8903      	ldrh	r3, [r0, #8]
 80061f8:	f8d9 1004 	ldr.w	r1, [r9, #4]
 80061fc:	1a9b      	subs	r3, r3, r2
 80061fe:	442b      	add	r3, r5
 8006200:	b29b      	uxth	r3, r3
 8006202:	4642      	mov	r2, r8
 8006204:	4439      	add	r1, r7
 8006206:	f7fc ff5f 	bl	80030c8 <pbuf_copy_partial>
 800620a:	4540      	cmp	r0, r8
 800620c:	d15f      	bne.n	80062ce <tcp_split_unsent_seg+0x176>
 800620e:	68e3      	ldr	r3, [r4, #12]
 8006210:	8998      	ldrh	r0, [r3, #12]
 8006212:	f7fc f85f 	bl	80022d4 <lwip_htons>
 8006216:	f010 0808 	ands.w	r8, r0, #8
 800621a:	b2c7      	uxtb	r7, r0
 800621c:	bf0e      	itee	eq
 800621e:	f007 073f 	andeq.w	r7, r7, #63	; 0x3f
 8006222:	f007 0737 	andne.w	r7, r7, #55	; 0x37
 8006226:	f04f 0808 	movne.w	r8, #8
 800622a:	07fb      	lsls	r3, r7, #31
 800622c:	68e3      	ldr	r3, [r4, #12]
 800622e:	6858      	ldr	r0, [r3, #4]
 8006230:	bf44      	itt	mi
 8006232:	f048 0801 	orrmi.w	r8, r8, #1
 8006236:	f007 07fe 	andmi.w	r7, r7, #254	; 0xfe
 800623a:	f7fc f84e 	bl	80022da <lwip_htonl>
 800623e:	4642      	mov	r2, r8
 8006240:	182b      	adds	r3, r5, r0
 8006242:	f8cd b000 	str.w	fp, [sp]
 8006246:	4649      	mov	r1, r9
 8006248:	4630      	mov	r0, r6
 800624a:	f7ff fbc5 	bl	80059d8 <tcp_create_segment>
 800624e:	4680      	mov	r8, r0
 8006250:	2800      	cmp	r0, #0
 8006252:	d03c      	beq.n	80062ce <tcp_split_unsent_seg+0x176>
 8006254:	6860      	ldr	r0, [r4, #4]
 8006256:	f7fc fe55 	bl	8002f04 <pbuf_clen>
 800625a:	f8b6 3066 	ldrh.w	r3, [r6, #102]	; 0x66
 800625e:	1a18      	subs	r0, r3, r0
 8006260:	f8a6 0066 	strh.w	r0, [r6, #102]	; 0x66
 8006264:	6860      	ldr	r0, [r4, #4]
 8006266:	8901      	ldrh	r1, [r0, #8]
 8006268:	eba5 050a 	sub.w	r5, r5, sl
 800626c:	fa11 f185 	uxtah	r1, r1, r5
 8006270:	b289      	uxth	r1, r1
 8006272:	f7fc fdef 	bl	8002e54 <pbuf_realloc>
 8006276:	8923      	ldrh	r3, [r4, #8]
 8006278:	fa1f f985 	uxth.w	r9, r5
 800627c:	4499      	add	r9, r3
 800627e:	68e3      	ldr	r3, [r4, #12]
 8006280:	f8a4 9008 	strh.w	r9, [r4, #8]
 8006284:	4638      	mov	r0, r7
 8006286:	899d      	ldrh	r5, [r3, #12]
 8006288:	f7fc f824 	bl	80022d4 <lwip_htons>
 800628c:	68e3      	ldr	r3, [r4, #12]
 800628e:	4328      	orrs	r0, r5
 8006290:	8198      	strh	r0, [r3, #12]
 8006292:	6860      	ldr	r0, [r4, #4]
 8006294:	f7fc fe36 	bl	8002f04 <pbuf_clen>
 8006298:	f8b6 3066 	ldrh.w	r3, [r6, #102]	; 0x66
 800629c:	4418      	add	r0, r3
 800629e:	f8a6 0066 	strh.w	r0, [r6, #102]	; 0x66
 80062a2:	f8d8 0004 	ldr.w	r0, [r8, #4]
 80062a6:	f7fc fe2d 	bl	8002f04 <pbuf_clen>
 80062aa:	f8b6 3066 	ldrh.w	r3, [r6, #102]	; 0x66
 80062ae:	4418      	add	r0, r3
 80062b0:	6823      	ldr	r3, [r4, #0]
 80062b2:	f8a6 0066 	strh.w	r0, [r6, #102]	; 0x66
 80062b6:	f8c8 3000 	str.w	r3, [r8]
 80062ba:	f8c4 8000 	str.w	r8, [r4]
 80062be:	f8d8 0000 	ldr.w	r0, [r8]
 80062c2:	2800      	cmp	r0, #0
 80062c4:	f47f af69 	bne.w	800619a <tcp_split_unsent_seg+0x42>
 80062c8:	f8a6 0068 	strh.w	r0, [r6, #104]	; 0x68
 80062cc:	e75f      	b.n	800618e <tcp_split_unsent_seg+0x36>
 80062ce:	4648      	mov	r0, r9
 80062d0:	f7fc fcd8 	bl	8002c84 <pbuf_free>
 80062d4:	e74e      	b.n	8006174 <tcp_split_unsent_seg+0x1c>
 80062d6:	bf00      	nop
 80062d8:	0800a76e 	.word	0x0800a76e
 80062dc:	0800ab3a 	.word	0x0800ab3a
 80062e0:	080095b5 	.word	0x080095b5
 80062e4:	0800ab5c 	.word	0x0800ab5c
 80062e8:	0800ab7e 	.word	0x0800ab7e
 80062ec:	0800ab8b 	.word	0x0800ab8b

080062f0 <tcp_enqueue_flags>:
 80062f0:	e92d 43f7 	stmdb	sp!, {r0, r1, r2, r4, r5, r6, r7, r8, r9, lr}
 80062f4:	f011 0803 	ands.w	r8, r1, #3
 80062f8:	4604      	mov	r4, r0
 80062fa:	460e      	mov	r6, r1
 80062fc:	d106      	bne.n	800630c <tcp_enqueue_flags+0x1c>
 80062fe:	4b3e      	ldr	r3, [pc, #248]	; (80063f8 <tcp_enqueue_flags+0x108>)
 8006300:	493e      	ldr	r1, [pc, #248]	; (80063fc <tcp_enqueue_flags+0x10c>)
 8006302:	483f      	ldr	r0, [pc, #252]	; (8006400 <tcp_enqueue_flags+0x110>)
 8006304:	f240 4211 	movw	r2, #1041	; 0x411
 8006308:	f002 f8fa 	bl	8008500 <iprintf>
 800630c:	b934      	cbnz	r4, 800631c <tcp_enqueue_flags+0x2c>
 800630e:	4b3a      	ldr	r3, [pc, #232]	; (80063f8 <tcp_enqueue_flags+0x108>)
 8006310:	493c      	ldr	r1, [pc, #240]	; (8006404 <tcp_enqueue_flags+0x114>)
 8006312:	483b      	ldr	r0, [pc, #236]	; (8006400 <tcp_enqueue_flags+0x110>)
 8006314:	f240 4213 	movw	r2, #1043	; 0x413
 8006318:	f002 f8f2 	bl	8008500 <iprintf>
 800631c:	f3c6 0740 	ubfx	r7, r6, #1, #1
 8006320:	ea4f 0987 	mov.w	r9, r7, lsl #2
 8006324:	f44f 7220 	mov.w	r2, #640	; 0x280
 8006328:	4649      	mov	r1, r9
 800632a:	2036      	movs	r0, #54	; 0x36
 800632c:	f7fc fd0e 	bl	8002d4c <pbuf_alloc>
 8006330:	4605      	mov	r5, r0
 8006332:	b940      	cbnz	r0, 8006346 <tcp_enqueue_flags+0x56>
 8006334:	8b63      	ldrh	r3, [r4, #26]
 8006336:	f043 0380 	orr.w	r3, r3, #128	; 0x80
 800633a:	8363      	strh	r3, [r4, #26]
 800633c:	f04f 30ff 	mov.w	r0, #4294967295
 8006340:	b003      	add	sp, #12
 8006342:	e8bd 83f0 	ldmia.w	sp!, {r4, r5, r6, r7, r8, r9, pc}
 8006346:	8943      	ldrh	r3, [r0, #10]
 8006348:	454b      	cmp	r3, r9
 800634a:	d206      	bcs.n	800635a <tcp_enqueue_flags+0x6a>
 800634c:	4b2a      	ldr	r3, [pc, #168]	; (80063f8 <tcp_enqueue_flags+0x108>)
 800634e:	492e      	ldr	r1, [pc, #184]	; (8006408 <tcp_enqueue_flags+0x118>)
 8006350:	482b      	ldr	r0, [pc, #172]	; (8006400 <tcp_enqueue_flags+0x110>)
 8006352:	f240 4239 	movw	r2, #1081	; 0x439
 8006356:	f002 f8d3 	bl	8008500 <iprintf>
 800635a:	9700      	str	r7, [sp, #0]
 800635c:	4629      	mov	r1, r5
 800635e:	6de3      	ldr	r3, [r4, #92]	; 0x5c
 8006360:	4632      	mov	r2, r6
 8006362:	4620      	mov	r0, r4
 8006364:	f7ff fb38 	bl	80059d8 <tcp_create_segment>
 8006368:	4605      	mov	r5, r0
 800636a:	2800      	cmp	r0, #0
 800636c:	d0e2      	beq.n	8006334 <tcp_enqueue_flags+0x44>
 800636e:	68c3      	ldr	r3, [r0, #12]
 8006370:	079a      	lsls	r2, r3, #30
 8006372:	d006      	beq.n	8006382 <tcp_enqueue_flags+0x92>
 8006374:	4b20      	ldr	r3, [pc, #128]	; (80063f8 <tcp_enqueue_flags+0x108>)
 8006376:	4925      	ldr	r1, [pc, #148]	; (800640c <tcp_enqueue_flags+0x11c>)
 8006378:	4821      	ldr	r0, [pc, #132]	; (8006400 <tcp_enqueue_flags+0x110>)
 800637a:	f240 4242 	movw	r2, #1090	; 0x442
 800637e:	f002 f8bf 	bl	8008500 <iprintf>
 8006382:	892b      	ldrh	r3, [r5, #8]
 8006384:	b133      	cbz	r3, 8006394 <tcp_enqueue_flags+0xa4>
 8006386:	4b1c      	ldr	r3, [pc, #112]	; (80063f8 <tcp_enqueue_flags+0x108>)
 8006388:	4921      	ldr	r1, [pc, #132]	; (8006410 <tcp_enqueue_flags+0x120>)
 800638a:	481d      	ldr	r0, [pc, #116]	; (8006400 <tcp_enqueue_flags+0x110>)
 800638c:	f240 4243 	movw	r2, #1091	; 0x443
 8006390:	f002 f8b6 	bl	8008500 <iprintf>
 8006394:	6ee3      	ldr	r3, [r4, #108]	; 0x6c
 8006396:	bb4b      	cbnz	r3, 80063ec <tcp_enqueue_flags+0xfc>
 8006398:	66e5      	str	r5, [r4, #108]	; 0x6c
 800639a:	2300      	movs	r3, #0
 800639c:	f8a4 3068 	strh.w	r3, [r4, #104]	; 0x68
 80063a0:	f1b8 0f00 	cmp.w	r8, #0
 80063a4:	d002      	beq.n	80063ac <tcp_enqueue_flags+0xbc>
 80063a6:	6de3      	ldr	r3, [r4, #92]	; 0x5c
 80063a8:	3301      	adds	r3, #1
 80063aa:	65e3      	str	r3, [r4, #92]	; 0x5c
 80063ac:	07f3      	lsls	r3, r6, #31
 80063ae:	bf48      	it	mi
 80063b0:	8b63      	ldrhmi	r3, [r4, #26]
 80063b2:	6868      	ldr	r0, [r5, #4]
 80063b4:	bf44      	itt	mi
 80063b6:	f043 0320 	orrmi.w	r3, r3, #32
 80063ba:	8363      	strhmi	r3, [r4, #26]
 80063bc:	f7fc fda2 	bl	8002f04 <pbuf_clen>
 80063c0:	f8b4 3066 	ldrh.w	r3, [r4, #102]	; 0x66
 80063c4:	4418      	add	r0, r3
 80063c6:	b280      	uxth	r0, r0
 80063c8:	f8a4 0066 	strh.w	r0, [r4, #102]	; 0x66
 80063cc:	2800      	cmp	r0, #0
 80063ce:	d0b7      	beq.n	8006340 <tcp_enqueue_flags+0x50>
 80063d0:	6f20      	ldr	r0, [r4, #112]	; 0x70
 80063d2:	b948      	cbnz	r0, 80063e8 <tcp_enqueue_flags+0xf8>
 80063d4:	6ee4      	ldr	r4, [r4, #108]	; 0x6c
 80063d6:	2c00      	cmp	r4, #0
 80063d8:	d1b2      	bne.n	8006340 <tcp_enqueue_flags+0x50>
 80063da:	4b07      	ldr	r3, [pc, #28]	; (80063f8 <tcp_enqueue_flags+0x108>)
 80063dc:	490d      	ldr	r1, [pc, #52]	; (8006414 <tcp_enqueue_flags+0x124>)
 80063de:	4808      	ldr	r0, [pc, #32]	; (8006400 <tcp_enqueue_flags+0x110>)
 80063e0:	f240 4265 	movw	r2, #1125	; 0x465
 80063e4:	f002 f88c 	bl	8008500 <iprintf>
 80063e8:	2000      	movs	r0, #0
 80063ea:	e7a9      	b.n	8006340 <tcp_enqueue_flags+0x50>
 80063ec:	461a      	mov	r2, r3
 80063ee:	681b      	ldr	r3, [r3, #0]
 80063f0:	2b00      	cmp	r3, #0
 80063f2:	d1fb      	bne.n	80063ec <tcp_enqueue_flags+0xfc>
 80063f4:	6015      	str	r5, [r2, #0]
 80063f6:	e7d0      	b.n	800639a <tcp_enqueue_flags+0xaa>
 80063f8:	0800a76e 	.word	0x0800a76e
 80063fc:	0800ab99 	.word	0x0800ab99
 8006400:	080095b5 	.word	0x080095b5
 8006404:	0800abee 	.word	0x0800abee
 8006408:	0800ac0d 	.word	0x0800ac0d
 800640c:	0800ac46 	.word	0x0800ac46
 8006410:	0800ac5e 	.word	0x0800ac5e
 8006414:	0800ac88 	.word	0x0800ac88

08006418 <tcp_send_fin>:
 8006418:	b5f8      	push	{r3, r4, r5, r6, r7, lr}
 800641a:	4604      	mov	r4, r0
 800641c:	b930      	cbnz	r0, 800642c <tcp_send_fin+0x14>
 800641e:	4b13      	ldr	r3, [pc, #76]	; (800646c <tcp_send_fin+0x54>)
 8006420:	4913      	ldr	r1, [pc, #76]	; (8006470 <tcp_send_fin+0x58>)
 8006422:	4814      	ldr	r0, [pc, #80]	; (8006474 <tcp_send_fin+0x5c>)
 8006424:	f240 32eb 	movw	r2, #1003	; 0x3eb
 8006428:	f002 f86a 	bl	8008500 <iprintf>
 800642c:	6ee5      	ldr	r5, [r4, #108]	; 0x6c
 800642e:	b14d      	cbz	r5, 8006444 <tcp_send_fin+0x2c>
 8006430:	462f      	mov	r7, r5
 8006432:	682d      	ldr	r5, [r5, #0]
 8006434:	2d00      	cmp	r5, #0
 8006436:	d1fb      	bne.n	8006430 <tcp_send_fin+0x18>
 8006438:	68fb      	ldr	r3, [r7, #12]
 800643a:	8998      	ldrh	r0, [r3, #12]
 800643c:	f7fb ff4a 	bl	80022d4 <lwip_htons>
 8006440:	0743      	lsls	r3, r0, #29
 8006442:	d005      	beq.n	8006450 <tcp_send_fin+0x38>
 8006444:	4620      	mov	r0, r4
 8006446:	2101      	movs	r1, #1
 8006448:	e8bd 40f8 	ldmia.w	sp!, {r3, r4, r5, r6, r7, lr}
 800644c:	f7ff bf50 	b.w	80062f0 <tcp_enqueue_flags>
 8006450:	68fb      	ldr	r3, [r7, #12]
 8006452:	2001      	movs	r0, #1
 8006454:	899e      	ldrh	r6, [r3, #12]
 8006456:	f7fb ff3d 	bl	80022d4 <lwip_htons>
 800645a:	68fb      	ldr	r3, [r7, #12]
 800645c:	4330      	orrs	r0, r6
 800645e:	8198      	strh	r0, [r3, #12]
 8006460:	8b63      	ldrh	r3, [r4, #26]
 8006462:	f043 0320 	orr.w	r3, r3, #32
 8006466:	8363      	strh	r3, [r4, #26]
 8006468:	4628      	mov	r0, r5
 800646a:	bdf8      	pop	{r3, r4, r5, r6, r7, pc}
 800646c:	0800a76e 	.word	0x0800a76e
 8006470:	0800acb0 	.word	0x0800acb0
 8006474:	080095b5 	.word	0x080095b5

08006478 <tcp_rexmit_rto_prepare>:
 8006478:	e92d 41f0 	stmdb	sp!, {r4, r5, r6, r7, r8, lr}
 800647c:	4604      	mov	r4, r0
 800647e:	b930      	cbnz	r0, 800648e <tcp_rexmit_rto_prepare+0x16>
 8006480:	4b1c      	ldr	r3, [pc, #112]	; (80064f4 <tcp_rexmit_rto_prepare+0x7c>)
 8006482:	491d      	ldr	r1, [pc, #116]	; (80064f8 <tcp_rexmit_rto_prepare+0x80>)
 8006484:	481d      	ldr	r0, [pc, #116]	; (80064fc <tcp_rexmit_rto_prepare+0x84>)
 8006486:	f240 6263 	movw	r2, #1635	; 0x663
 800648a:	f002 f839 	bl	8008500 <iprintf>
 800648e:	6f25      	ldr	r5, [r4, #112]	; 0x70
 8006490:	b945      	cbnz	r5, 80064a4 <tcp_rexmit_rto_prepare+0x2c>
 8006492:	f06f 0005 	mvn.w	r0, #5
 8006496:	e8bd 81f0 	ldmia.w	sp!, {r4, r5, r6, r7, r8, pc}
 800649a:	f7ff fa3b 	bl	8005914 <tcp_output_segment_busy>
 800649e:	2800      	cmp	r0, #0
 80064a0:	d1f7      	bne.n	8006492 <tcp_rexmit_rto_prepare+0x1a>
 80064a2:	682d      	ldr	r5, [r5, #0]
 80064a4:	682b      	ldr	r3, [r5, #0]
 80064a6:	4628      	mov	r0, r5
 80064a8:	2b00      	cmp	r3, #0
 80064aa:	d1f6      	bne.n	800649a <tcp_rexmit_rto_prepare+0x22>
 80064ac:	f7ff fa32 	bl	8005914 <tcp_output_segment_busy>
 80064b0:	4606      	mov	r6, r0
 80064b2:	2800      	cmp	r0, #0
 80064b4:	d1ed      	bne.n	8006492 <tcp_rexmit_rto_prepare+0x1a>
 80064b6:	6ee3      	ldr	r3, [r4, #108]	; 0x6c
 80064b8:	602b      	str	r3, [r5, #0]
 80064ba:	6f23      	ldr	r3, [r4, #112]	; 0x70
 80064bc:	e9c4 301b 	strd	r3, r0, [r4, #108]	; 0x6c
 80064c0:	8b63      	ldrh	r3, [r4, #26]
 80064c2:	f443 6300 	orr.w	r3, r3, #2048	; 0x800
 80064c6:	8363      	strh	r3, [r4, #26]
 80064c8:	68eb      	ldr	r3, [r5, #12]
 80064ca:	6858      	ldr	r0, [r3, #4]
 80064cc:	f7fb ff05 	bl	80022da <lwip_htonl>
 80064d0:	68eb      	ldr	r3, [r5, #12]
 80064d2:	f8b5 8008 	ldrh.w	r8, [r5, #8]
 80064d6:	4607      	mov	r7, r0
 80064d8:	8998      	ldrh	r0, [r3, #12]
 80064da:	f7fb fefb 	bl	80022d4 <lwip_htons>
 80064de:	f010 0303 	ands.w	r3, r0, #3
 80064e2:	bf18      	it	ne
 80064e4:	2301      	movne	r3, #1
 80064e6:	4447      	add	r7, r8
 80064e8:	443b      	add	r3, r7
 80064ea:	64e3      	str	r3, [r4, #76]	; 0x4c
 80064ec:	6366      	str	r6, [r4, #52]	; 0x34
 80064ee:	4630      	mov	r0, r6
 80064f0:	e7d1      	b.n	8006496 <tcp_rexmit_rto_prepare+0x1e>
 80064f2:	bf00      	nop
 80064f4:	0800a76e 	.word	0x0800a76e
 80064f8:	0800acca 	.word	0x0800acca
 80064fc:	080095b5 	.word	0x080095b5

08006500 <tcp_rexmit>:
 8006500:	b5f8      	push	{r3, r4, r5, r6, r7, lr}
 8006502:	4604      	mov	r4, r0
 8006504:	b930      	cbnz	r0, 8006514 <tcp_rexmit+0x14>
 8006506:	4b1c      	ldr	r3, [pc, #112]	; (8006578 <tcp_rexmit+0x78>)
 8006508:	491c      	ldr	r1, [pc, #112]	; (800657c <tcp_rexmit+0x7c>)
 800650a:	481d      	ldr	r0, [pc, #116]	; (8006580 <tcp_rexmit+0x80>)
 800650c:	f240 62c1 	movw	r2, #1729	; 0x6c1
 8006510:	f001 fff6 	bl	8008500 <iprintf>
 8006514:	6f25      	ldr	r5, [r4, #112]	; 0x70
 8006516:	b915      	cbnz	r5, 800651e <tcp_rexmit+0x1e>
 8006518:	f06f 0005 	mvn.w	r0, #5
 800651c:	bdf8      	pop	{r3, r4, r5, r6, r7, pc}
 800651e:	4628      	mov	r0, r5
 8006520:	f7ff f9f8 	bl	8005914 <tcp_output_segment_busy>
 8006524:	2800      	cmp	r0, #0
 8006526:	d1f7      	bne.n	8006518 <tcp_rexmit+0x18>
 8006528:	682b      	ldr	r3, [r5, #0]
 800652a:	6723      	str	r3, [r4, #112]	; 0x70
 800652c:	f104 066c 	add.w	r6, r4, #108	; 0x6c
 8006530:	6833      	ldr	r3, [r6, #0]
 8006532:	b993      	cbnz	r3, 800655a <tcp_rexmit+0x5a>
 8006534:	6833      	ldr	r3, [r6, #0]
 8006536:	602b      	str	r3, [r5, #0]
 8006538:	6035      	str	r5, [r6, #0]
 800653a:	682b      	ldr	r3, [r5, #0]
 800653c:	b90b      	cbnz	r3, 8006542 <tcp_rexmit+0x42>
 800653e:	f8a4 3068 	strh.w	r3, [r4, #104]	; 0x68
 8006542:	f894 3042 	ldrb.w	r3, [r4, #66]	; 0x42
 8006546:	2bff      	cmp	r3, #255	; 0xff
 8006548:	bf18      	it	ne
 800654a:	3301      	addne	r3, #1
 800654c:	f04f 0000 	mov.w	r0, #0
 8006550:	bf18      	it	ne
 8006552:	f884 3042 	strbne.w	r3, [r4, #66]	; 0x42
 8006556:	6360      	str	r0, [r4, #52]	; 0x34
 8006558:	e7e0      	b.n	800651c <tcp_rexmit+0x1c>
 800655a:	68db      	ldr	r3, [r3, #12]
 800655c:	6858      	ldr	r0, [r3, #4]
 800655e:	f7fb febc 	bl	80022da <lwip_htonl>
 8006562:	68eb      	ldr	r3, [r5, #12]
 8006564:	4607      	mov	r7, r0
 8006566:	6858      	ldr	r0, [r3, #4]
 8006568:	f7fb feb7 	bl	80022da <lwip_htonl>
 800656c:	1a38      	subs	r0, r7, r0
 800656e:	2800      	cmp	r0, #0
 8006570:	dae0      	bge.n	8006534 <tcp_rexmit+0x34>
 8006572:	6836      	ldr	r6, [r6, #0]
 8006574:	e7dc      	b.n	8006530 <tcp_rexmit+0x30>
 8006576:	bf00      	nop
 8006578:	0800a76e 	.word	0x0800a76e
 800657c:	0800acee 	.word	0x0800acee
 8006580:	080095b5 	.word	0x080095b5

08006584 <tcp_rexmit_fast>:
 8006584:	b538      	push	{r3, r4, r5, lr}
 8006586:	4604      	mov	r4, r0
 8006588:	b930      	cbnz	r0, 8006598 <tcp_rexmit_fast+0x14>
 800658a:	4b15      	ldr	r3, [pc, #84]	; (80065e0 <tcp_rexmit_fast+0x5c>)
 800658c:	4915      	ldr	r1, [pc, #84]	; (80065e4 <tcp_rexmit_fast+0x60>)
 800658e:	4816      	ldr	r0, [pc, #88]	; (80065e8 <tcp_rexmit_fast+0x64>)
 8006590:	f240 62f9 	movw	r2, #1785	; 0x6f9
 8006594:	f001 ffb4 	bl	8008500 <iprintf>
 8006598:	6f23      	ldr	r3, [r4, #112]	; 0x70
 800659a:	b303      	cbz	r3, 80065de <tcp_rexmit_fast+0x5a>
 800659c:	8b63      	ldrh	r3, [r4, #26]
 800659e:	075b      	lsls	r3, r3, #29
 80065a0:	d41d      	bmi.n	80065de <tcp_rexmit_fast+0x5a>
 80065a2:	4620      	mov	r0, r4
 80065a4:	f7ff ffac 	bl	8006500 <tcp_rexmit>
 80065a8:	b9c8      	cbnz	r0, 80065de <tcp_rexmit_fast+0x5a>
 80065aa:	f8b4 1060 	ldrh.w	r1, [r4, #96]	; 0x60
 80065ae:	f8b4 3048 	ldrh.w	r3, [r4, #72]	; 0x48
 80065b2:	8620      	strh	r0, [r4, #48]	; 0x30
 80065b4:	4299      	cmp	r1, r3
 80065b6:	bf28      	it	cs
 80065b8:	4619      	movcs	r1, r3
 80065ba:	8e63      	ldrh	r3, [r4, #50]	; 0x32
 80065bc:	005d      	lsls	r5, r3, #1
 80065be:	ebb5 0f51 	cmp.w	r5, r1, lsr #1
 80065c2:	ea4f 0261 	mov.w	r2, r1, asr #1
 80065c6:	442b      	add	r3, r5
 80065c8:	bf88      	it	hi
 80065ca:	462a      	movhi	r2, r5
 80065cc:	4413      	add	r3, r2
 80065ce:	f8a4 3048 	strh.w	r3, [r4, #72]	; 0x48
 80065d2:	8b63      	ldrh	r3, [r4, #26]
 80065d4:	f8a4 204a 	strh.w	r2, [r4, #74]	; 0x4a
 80065d8:	f043 0304 	orr.w	r3, r3, #4
 80065dc:	8363      	strh	r3, [r4, #26]
 80065de:	bd38      	pop	{r3, r4, r5, pc}
 80065e0:	0800a76e 	.word	0x0800a76e
 80065e4:	0800ad06 	.word	0x0800ad06
 80065e8:	080095b5 	.word	0x080095b5

080065ec <tcp_rst>:
 80065ec:	e92d 47ff 	stmdb	sp!, {r0, r1, r2, r3, r4, r5, r6, r7, r8, r9, sl, lr}
 80065f0:	f8dd 8030 	ldr.w	r8, [sp, #48]	; 0x30
 80065f4:	f8bd 9034 	ldrh.w	r9, [sp, #52]	; 0x34
 80065f8:	f8bd a038 	ldrh.w	sl, [sp, #56]	; 0x38
 80065fc:	4606      	mov	r6, r0
 80065fe:	460f      	mov	r7, r1
 8006600:	4614      	mov	r4, r2
 8006602:	461d      	mov	r5, r3
 8006604:	b933      	cbnz	r3, 8006614 <tcp_rst+0x28>
 8006606:	4b18      	ldr	r3, [pc, #96]	; (8006668 <tcp_rst+0x7c>)
 8006608:	4918      	ldr	r1, [pc, #96]	; (800666c <tcp_rst+0x80>)
 800660a:	4819      	ldr	r0, [pc, #100]	; (8006670 <tcp_rst+0x84>)
 800660c:	f240 72c4 	movw	r2, #1988	; 0x7c4
 8006610:	f001 ff76 	bl	8008500 <iprintf>
 8006614:	f1b8 0f00 	cmp.w	r8, #0
 8006618:	d106      	bne.n	8006628 <tcp_rst+0x3c>
 800661a:	4b13      	ldr	r3, [pc, #76]	; (8006668 <tcp_rst+0x7c>)
 800661c:	4915      	ldr	r1, [pc, #84]	; (8006674 <tcp_rst+0x88>)
 800661e:	4814      	ldr	r0, [pc, #80]	; (8006670 <tcp_rst+0x84>)
 8006620:	f240 72c5 	movw	r2, #1989	; 0x7c5
 8006624:	f001 ff6c 	bl	8008500 <iprintf>
 8006628:	4638      	mov	r0, r7
 800662a:	f7fb fe56 	bl	80022da <lwip_htonl>
 800662e:	2314      	movs	r3, #20
 8006630:	f244 2108 	movw	r1, #16904	; 0x4208
 8006634:	e9cd 3101 	strd	r3, r1, [sp, #4]
 8006638:	4602      	mov	r2, r0
 800663a:	f8cd a000 	str.w	sl, [sp]
 800663e:	4620      	mov	r0, r4
 8006640:	464b      	mov	r3, r9
 8006642:	2100      	movs	r1, #0
 8006644:	f7ff fa38 	bl	8005ab8 <tcp_output_alloc_header_common.constprop.0>
 8006648:	4604      	mov	r4, r0
 800664a:	b150      	cbz	r0, 8006662 <tcp_rst+0x76>
 800664c:	f7ff fa9c 	bl	8005b88 <tcp_output_fill_options.isra.0.constprop.0>
 8006650:	4643      	mov	r3, r8
 8006652:	462a      	mov	r2, r5
 8006654:	4621      	mov	r1, r4
 8006656:	4630      	mov	r0, r6
 8006658:	b004      	add	sp, #16
 800665a:	e8bd 47f0 	ldmia.w	sp!, {r4, r5, r6, r7, r8, r9, sl, lr}
 800665e:	f7ff baa3 	b.w	8005ba8 <tcp_output_control_segment>
 8006662:	b004      	add	sp, #16
 8006664:	e8bd 87f0 	ldmia.w	sp!, {r4, r5, r6, r7, r8, r9, sl, pc}
 8006668:	0800a76e 	.word	0x0800a76e
 800666c:	0800ad23 	.word	0x0800ad23
 8006670:	080095b5 	.word	0x080095b5
 8006674:	0800ad3d 	.word	0x0800ad3d

08006678 <tcp_send_empty_ack>:
 8006678:	b538      	push	{r3, r4, r5, lr}
 800667a:	4604      	mov	r4, r0
 800667c:	b930      	cbnz	r0, 800668c <tcp_send_empty_ack+0x14>
 800667e:	4b14      	ldr	r3, [pc, #80]	; (80066d0 <tcp_send_empty_ack+0x58>)
 8006680:	4914      	ldr	r1, [pc, #80]	; (80066d4 <tcp_send_empty_ack+0x5c>)
 8006682:	4815      	ldr	r0, [pc, #84]	; (80066d8 <tcp_send_empty_ack+0x60>)
 8006684:	f240 72ea 	movw	r2, #2026	; 0x7ea
 8006688:	f001 ff3a 	bl	8008500 <iprintf>
 800668c:	6d20      	ldr	r0, [r4, #80]	; 0x50
 800668e:	f7fb fe24 	bl	80022da <lwip_htonl>
 8006692:	2100      	movs	r1, #0
 8006694:	4602      	mov	r2, r0
 8006696:	4620      	mov	r0, r4
 8006698:	f7ff fa50 	bl	8005b3c <tcp_output_alloc_header.constprop.0>
 800669c:	4605      	mov	r5, r0
 800669e:	b930      	cbnz	r0, 80066ae <tcp_send_empty_ack+0x36>
 80066a0:	8b63      	ldrh	r3, [r4, #26]
 80066a2:	f043 0303 	orr.w	r3, r3, #3
 80066a6:	8363      	strh	r3, [r4, #26]
 80066a8:	f06f 0001 	mvn.w	r0, #1
 80066ac:	bd38      	pop	{r3, r4, r5, pc}
 80066ae:	f7ff fa6b 	bl	8005b88 <tcp_output_fill_options.isra.0.constprop.0>
 80066b2:	1d23      	adds	r3, r4, #4
 80066b4:	4622      	mov	r2, r4
 80066b6:	4629      	mov	r1, r5
 80066b8:	4620      	mov	r0, r4
 80066ba:	f7ff fa75 	bl	8005ba8 <tcp_output_control_segment>
 80066be:	8b63      	ldrh	r3, [r4, #26]
 80066c0:	b118      	cbz	r0, 80066ca <tcp_send_empty_ack+0x52>
 80066c2:	f043 0303 	orr.w	r3, r3, #3
 80066c6:	8363      	strh	r3, [r4, #26]
 80066c8:	e7f0      	b.n	80066ac <tcp_send_empty_ack+0x34>
 80066ca:	f023 0303 	bic.w	r3, r3, #3
 80066ce:	e7fa      	b.n	80066c6 <tcp_send_empty_ack+0x4e>
 80066d0:	0800a76e 	.word	0x0800a76e
 80066d4:	0800ad58 	.word	0x0800ad58
 80066d8:	080095b5 	.word	0x080095b5

080066dc <tcp_output>:
 80066dc:	e92d 4ff0 	stmdb	sp!, {r4, r5, r6, r7, r8, r9, sl, fp, lr}
 80066e0:	4604      	mov	r4, r0
 80066e2:	b087      	sub	sp, #28
 80066e4:	b930      	cbnz	r0, 80066f4 <tcp_output+0x18>
 80066e6:	4b8f      	ldr	r3, [pc, #572]	; (8006924 <tcp_output+0x248>)
 80066e8:	498f      	ldr	r1, [pc, #572]	; (8006928 <tcp_output+0x24c>)
 80066ea:	4890      	ldr	r0, [pc, #576]	; (800692c <tcp_output+0x250>)
 80066ec:	f240 42e1 	movw	r2, #1249	; 0x4e1
 80066f0:	f001 ff06 	bl	8008500 <iprintf>
 80066f4:	7d23      	ldrb	r3, [r4, #20]
 80066f6:	2b01      	cmp	r3, #1
 80066f8:	d106      	bne.n	8006708 <tcp_output+0x2c>
 80066fa:	4b8a      	ldr	r3, [pc, #552]	; (8006924 <tcp_output+0x248>)
 80066fc:	498c      	ldr	r1, [pc, #560]	; (8006930 <tcp_output+0x254>)
 80066fe:	488b      	ldr	r0, [pc, #556]	; (800692c <tcp_output+0x250>)
 8006700:	f240 42e3 	movw	r2, #1251	; 0x4e3
 8006704:	f001 fefc 	bl	8008500 <iprintf>
 8006708:	4b8a      	ldr	r3, [pc, #552]	; (8006934 <tcp_output+0x258>)
 800670a:	681b      	ldr	r3, [r3, #0]
 800670c:	42a3      	cmp	r3, r4
 800670e:	f000 8171 	beq.w	80069f4 <tcp_output+0x318>
 8006712:	6ee5      	ldr	r5, [r4, #108]	; 0x6c
 8006714:	b94d      	cbnz	r5, 800672a <tcp_output+0x4e>
 8006716:	8b63      	ldrh	r3, [r4, #26]
 8006718:	0798      	lsls	r0, r3, #30
 800671a:	f140 8167 	bpl.w	80069ec <tcp_output+0x310>
 800671e:	4620      	mov	r0, r4
 8006720:	b007      	add	sp, #28
 8006722:	e8bd 4ff0 	ldmia.w	sp!, {r4, r5, r6, r7, r8, r9, sl, fp, lr}
 8006726:	f7ff bfa7 	b.w	8006678 <tcp_send_empty_ack>
 800672a:	7a20      	ldrb	r0, [r4, #8]
 800672c:	f8b4 8048 	ldrh.w	r8, [r4, #72]	; 0x48
 8006730:	f8b4 6060 	ldrh.w	r6, [r4, #96]	; 0x60
 8006734:	f104 0904 	add.w	r9, r4, #4
 8006738:	b340      	cbz	r0, 800678c <tcp_output+0xb0>
 800673a:	f7fc f9d7 	bl	8002aec <netif_get_by_index>
 800673e:	4607      	mov	r7, r0
 8006740:	2800      	cmp	r0, #0
 8006742:	f000 8170 	beq.w	8006a26 <tcp_output+0x34a>
 8006746:	6823      	ldr	r3, [r4, #0]
 8006748:	b90b      	cbnz	r3, 800674e <tcp_output+0x72>
 800674a:	6843      	ldr	r3, [r0, #4]
 800674c:	6023      	str	r3, [r4, #0]
 800674e:	68eb      	ldr	r3, [r5, #12]
 8006750:	45b0      	cmp	r8, r6
 8006752:	6858      	ldr	r0, [r3, #4]
 8006754:	bf28      	it	cs
 8006756:	46b0      	movcs	r8, r6
 8006758:	f7fb fdbf 	bl	80022da <lwip_htonl>
 800675c:	892b      	ldrh	r3, [r5, #8]
 800675e:	6c62      	ldr	r2, [r4, #68]	; 0x44
 8006760:	1a9b      	subs	r3, r3, r2
 8006762:	4418      	add	r0, r3
 8006764:	4540      	cmp	r0, r8
 8006766:	d915      	bls.n	8006794 <tcp_output+0xb8>
 8006768:	f8b4 3060 	ldrh.w	r3, [r4, #96]	; 0x60
 800676c:	4543      	cmp	r3, r8
 800676e:	d1d2      	bne.n	8006716 <tcp_output+0x3a>
 8006770:	6f23      	ldr	r3, [r4, #112]	; 0x70
 8006772:	2b00      	cmp	r3, #0
 8006774:	d1cf      	bne.n	8006716 <tcp_output+0x3a>
 8006776:	f894 3099 	ldrb.w	r3, [r4, #153]	; 0x99
 800677a:	2b00      	cmp	r3, #0
 800677c:	d1cb      	bne.n	8006716 <tcp_output+0x3a>
 800677e:	f44f 7280 	mov.w	r2, #256	; 0x100
 8006782:	f8a4 2098 	strh.w	r2, [r4, #152]	; 0x98
 8006786:	f884 309a 	strb.w	r3, [r4, #154]	; 0x9a
 800678a:	e7c4      	b.n	8006716 <tcp_output+0x3a>
 800678c:	4648      	mov	r0, r9
 800678e:	f001 f87f 	bl	8007890 <ip4_route>
 8006792:	e7d4      	b.n	800673e <tcp_output+0x62>
 8006794:	6f26      	ldr	r6, [r4, #112]	; 0x70
 8006796:	2300      	movs	r3, #0
 8006798:	f884 3099 	strb.w	r3, [r4, #153]	; 0x99
 800679c:	b126      	cbz	r6, 80067a8 <tcp_output+0xcc>
 800679e:	4633      	mov	r3, r6
 80067a0:	6836      	ldr	r6, [r6, #0]
 80067a2:	2e00      	cmp	r6, #0
 80067a4:	d1fb      	bne.n	800679e <tcp_output+0xc2>
 80067a6:	461e      	mov	r6, r3
 80067a8:	f8df a178 	ldr.w	sl, [pc, #376]	; 8006924 <tcp_output+0x248>
 80067ac:	f8df b17c 	ldr.w	fp, [pc, #380]	; 800692c <tcp_output+0x250>
 80067b0:	e0de      	b.n	8006970 <tcp_output+0x294>
 80067b2:	7d23      	ldrb	r3, [r4, #20]
 80067b4:	2b02      	cmp	r3, #2
 80067b6:	d009      	beq.n	80067cc <tcp_output+0xf0>
 80067b8:	68eb      	ldr	r3, [r5, #12]
 80067ba:	2010      	movs	r0, #16
 80067bc:	899b      	ldrh	r3, [r3, #12]
 80067be:	9304      	str	r3, [sp, #16]
 80067c0:	f7fb fd88 	bl	80022d4 <lwip_htons>
 80067c4:	9b04      	ldr	r3, [sp, #16]
 80067c6:	68ea      	ldr	r2, [r5, #12]
 80067c8:	4318      	orrs	r0, r3
 80067ca:	8190      	strh	r0, [r2, #12]
 80067cc:	4628      	mov	r0, r5
 80067ce:	f7ff f8a1 	bl	8005914 <tcp_output_segment_busy>
 80067d2:	2800      	cmp	r0, #0
 80067d4:	d16f      	bne.n	80068b6 <tcp_output+0x1da>
 80067d6:	68eb      	ldr	r3, [r5, #12]
 80067d8:	6a60      	ldr	r0, [r4, #36]	; 0x24
 80067da:	9304      	str	r3, [sp, #16]
 80067dc:	f7fb fd7d 	bl	80022da <lwip_htonl>
 80067e0:	9b04      	ldr	r3, [sp, #16]
 80067e2:	6098      	str	r0, [r3, #8]
 80067e4:	68eb      	ldr	r3, [r5, #12]
 80067e6:	8d60      	ldrh	r0, [r4, #42]	; 0x2a
 80067e8:	9304      	str	r3, [sp, #16]
 80067ea:	f7fb fd73 	bl	80022d4 <lwip_htons>
 80067ee:	9b04      	ldr	r3, [sp, #16]
 80067f0:	8d62      	ldrh	r2, [r4, #42]	; 0x2a
 80067f2:	81d8      	strh	r0, [r3, #14]
 80067f4:	6a63      	ldr	r3, [r4, #36]	; 0x24
 80067f6:	4413      	add	r3, r2
 80067f8:	62e3      	str	r3, [r4, #44]	; 0x2c
 80067fa:	7aaa      	ldrb	r2, [r5, #10]
 80067fc:	68eb      	ldr	r3, [r5, #12]
 80067fe:	07d2      	lsls	r2, r2, #31
 8006800:	d449      	bmi.n	8006896 <tcp_output+0x1ba>
 8006802:	f103 0214 	add.w	r2, r3, #20
 8006806:	f9b4 3030 	ldrsh.w	r3, [r4, #48]	; 0x30
 800680a:	2b00      	cmp	r3, #0
 800680c:	bfbc      	itt	lt
 800680e:	2300      	movlt	r3, #0
 8006810:	8623      	strhlt	r3, [r4, #48]	; 0x30
 8006812:	6b63      	ldr	r3, [r4, #52]	; 0x34
 8006814:	b94b      	cbnz	r3, 800682a <tcp_output+0x14e>
 8006816:	4948      	ldr	r1, [pc, #288]	; (8006938 <tcp_output+0x25c>)
 8006818:	68eb      	ldr	r3, [r5, #12]
 800681a:	6809      	ldr	r1, [r1, #0]
 800681c:	9204      	str	r2, [sp, #16]
 800681e:	6361      	str	r1, [r4, #52]	; 0x34
 8006820:	6858      	ldr	r0, [r3, #4]
 8006822:	f7fb fd5a 	bl	80022da <lwip_htonl>
 8006826:	9a04      	ldr	r2, [sp, #16]
 8006828:	63a0      	str	r0, [r4, #56]	; 0x38
 800682a:	6869      	ldr	r1, [r5, #4]
 800682c:	68eb      	ldr	r3, [r5, #12]
 800682e:	6848      	ldr	r0, [r1, #4]
 8006830:	f8b1 c00a 	ldrh.w	ip, [r1, #10]
 8006834:	604b      	str	r3, [r1, #4]
 8006836:	1a18      	subs	r0, r3, r0
 8006838:	b280      	uxth	r0, r0
 800683a:	ebac 0c00 	sub.w	ip, ip, r0
 800683e:	f8a1 c00a 	strh.w	ip, [r1, #10]
 8006842:	f8b1 c008 	ldrh.w	ip, [r1, #8]
 8006846:	ebac 0000 	sub.w	r0, ip, r0
 800684a:	8108      	strh	r0, [r1, #8]
 800684c:	2100      	movs	r1, #0
 800684e:	7419      	strb	r1, [r3, #16]
 8006850:	7459      	strb	r1, [r3, #17]
 8006852:	7aa9      	ldrb	r1, [r5, #10]
 8006854:	0089      	lsls	r1, r1, #2
 8006856:	f001 0104 	and.w	r1, r1, #4
 800685a:	3114      	adds	r1, #20
 800685c:	440b      	add	r3, r1
 800685e:	429a      	cmp	r2, r3
 8006860:	d006      	beq.n	8006870 <tcp_output+0x194>
 8006862:	4936      	ldr	r1, [pc, #216]	; (800693c <tcp_output+0x260>)
 8006864:	4653      	mov	r3, sl
 8006866:	f240 621c 	movw	r2, #1564	; 0x61c
 800686a:	4658      	mov	r0, fp
 800686c:	f001 fe48 	bl	8008500 <iprintf>
 8006870:	2306      	movs	r3, #6
 8006872:	9702      	str	r7, [sp, #8]
 8006874:	9301      	str	r3, [sp, #4]
 8006876:	7aa3      	ldrb	r3, [r4, #10]
 8006878:	9300      	str	r3, [sp, #0]
 800687a:	7ae3      	ldrb	r3, [r4, #11]
 800687c:	6868      	ldr	r0, [r5, #4]
 800687e:	464a      	mov	r2, r9
 8006880:	4621      	mov	r1, r4
 8006882:	f001 f961 	bl	8007b48 <ip4_output_if>
 8006886:	b1b0      	cbz	r0, 80068b6 <tcp_output+0x1da>
 8006888:	8b63      	ldrh	r3, [r4, #26]
 800688a:	f043 0380 	orr.w	r3, r3, #128	; 0x80
 800688e:	8363      	strh	r3, [r4, #26]
 8006890:	b007      	add	sp, #28
 8006892:	e8bd 8ff0 	ldmia.w	sp!, {r4, r5, r6, r7, r8, r9, sl, fp, pc}
 8006896:	464a      	mov	r2, r9
 8006898:	4639      	mov	r1, r7
 800689a:	f44f 7006 	mov.w	r0, #536	; 0x218
 800689e:	9304      	str	r3, [sp, #16]
 80068a0:	f7fc ff5c 	bl	800375c <tcp_eff_send_mss_netif>
 80068a4:	f040 7001 	orr.w	r0, r0, #33816576	; 0x2040000
 80068a8:	f7fb fd17 	bl	80022da <lwip_htonl>
 80068ac:	9b04      	ldr	r3, [sp, #16]
 80068ae:	6158      	str	r0, [r3, #20]
 80068b0:	f103 0218 	add.w	r2, r3, #24
 80068b4:	e7a7      	b.n	8006806 <tcp_output+0x12a>
 80068b6:	682b      	ldr	r3, [r5, #0]
 80068b8:	66e3      	str	r3, [r4, #108]	; 0x6c
 80068ba:	7d23      	ldrb	r3, [r4, #20]
 80068bc:	2b02      	cmp	r3, #2
 80068be:	bf1e      	ittt	ne
 80068c0:	8b63      	ldrhne	r3, [r4, #26]
 80068c2:	f023 0303 	bicne.w	r3, r3, #3
 80068c6:	8363      	strhne	r3, [r4, #26]
 80068c8:	68eb      	ldr	r3, [r5, #12]
 80068ca:	6858      	ldr	r0, [r3, #4]
 80068cc:	f7fb fd05 	bl	80022da <lwip_htonl>
 80068d0:	8929      	ldrh	r1, [r5, #8]
 80068d2:	68eb      	ldr	r3, [r5, #12]
 80068d4:	9104      	str	r1, [sp, #16]
 80068d6:	9005      	str	r0, [sp, #20]
 80068d8:	8998      	ldrh	r0, [r3, #12]
 80068da:	f7fb fcfb 	bl	80022d4 <lwip_htons>
 80068de:	e9dd 1204 	ldrd	r1, r2, [sp, #16]
 80068e2:	f010 0303 	ands.w	r3, r0, #3
 80068e6:	440a      	add	r2, r1
 80068e8:	bf18      	it	ne
 80068ea:	2301      	movne	r3, #1
 80068ec:	4413      	add	r3, r2
 80068ee:	6d22      	ldr	r2, [r4, #80]	; 0x50
 80068f0:	1ad2      	subs	r2, r2, r3
 80068f2:	2a00      	cmp	r2, #0
 80068f4:	bfb8      	it	lt
 80068f6:	6523      	strlt	r3, [r4, #80]	; 0x50
 80068f8:	68ea      	ldr	r2, [r5, #12]
 80068fa:	892b      	ldrh	r3, [r5, #8]
 80068fc:	9304      	str	r3, [sp, #16]
 80068fe:	8990      	ldrh	r0, [r2, #12]
 8006900:	f7fb fce8 	bl	80022d4 <lwip_htons>
 8006904:	9b04      	ldr	r3, [sp, #16]
 8006906:	f010 0003 	ands.w	r0, r0, #3
 800690a:	bf18      	it	ne
 800690c:	2001      	movne	r0, #1
 800690e:	42d8      	cmn	r0, r3
 8006910:	f000 8085 	beq.w	8006a1e <tcp_output+0x342>
 8006914:	2300      	movs	r3, #0
 8006916:	602b      	str	r3, [r5, #0]
 8006918:	6f23      	ldr	r3, [r4, #112]	; 0x70
 800691a:	b98b      	cbnz	r3, 8006940 <tcp_output+0x264>
 800691c:	6725      	str	r5, [r4, #112]	; 0x70
 800691e:	462e      	mov	r6, r5
 8006920:	e023      	b.n	800696a <tcp_output+0x28e>
 8006922:	bf00      	nop
 8006924:	0800a76e 	.word	0x0800a76e
 8006928:	0800ad78 	.word	0x0800ad78
 800692c:	080095b5 	.word	0x080095b5
 8006930:	0800ad90 	.word	0x0800ad90
 8006934:	2000a7a8 	.word	0x2000a7a8
 8006938:	2000a798 	.word	0x2000a798
 800693c:	0800adcd 	.word	0x0800adcd
 8006940:	68eb      	ldr	r3, [r5, #12]
 8006942:	6858      	ldr	r0, [r3, #4]
 8006944:	f7fb fcc9 	bl	80022da <lwip_htonl>
 8006948:	68f2      	ldr	r2, [r6, #12]
 800694a:	9004      	str	r0, [sp, #16]
 800694c:	6850      	ldr	r0, [r2, #4]
 800694e:	f7fb fcc4 	bl	80022da <lwip_htonl>
 8006952:	9b04      	ldr	r3, [sp, #16]
 8006954:	1a18      	subs	r0, r3, r0
 8006956:	2800      	cmp	r0, #0
 8006958:	da5f      	bge.n	8006a1a <tcp_output+0x33e>
 800695a:	f104 0370 	add.w	r3, r4, #112	; 0x70
 800695e:	681a      	ldr	r2, [r3, #0]
 8006960:	2a00      	cmp	r2, #0
 8006962:	d149      	bne.n	80069f8 <tcp_output+0x31c>
 8006964:	681a      	ldr	r2, [r3, #0]
 8006966:	602a      	str	r2, [r5, #0]
 8006968:	601d      	str	r5, [r3, #0]
 800696a:	6ee5      	ldr	r5, [r4, #108]	; 0x6c
 800696c:	2d00      	cmp	r5, #0
 800696e:	d03a      	beq.n	80069e6 <tcp_output+0x30a>
 8006970:	68eb      	ldr	r3, [r5, #12]
 8006972:	6858      	ldr	r0, [r3, #4]
 8006974:	f7fb fcb1 	bl	80022da <lwip_htonl>
 8006978:	6c63      	ldr	r3, [r4, #68]	; 0x44
 800697a:	1ac0      	subs	r0, r0, r3
 800697c:	892b      	ldrh	r3, [r5, #8]
 800697e:	4418      	add	r0, r3
 8006980:	4540      	cmp	r0, r8
 8006982:	d82e      	bhi.n	80069e2 <tcp_output+0x306>
 8006984:	68eb      	ldr	r3, [r5, #12]
 8006986:	8998      	ldrh	r0, [r3, #12]
 8006988:	f7fb fca4 	bl	80022d4 <lwip_htons>
 800698c:	0741      	lsls	r1, r0, #29
 800698e:	d506      	bpl.n	800699e <tcp_output+0x2c2>
 8006990:	4926      	ldr	r1, [pc, #152]	; (8006a2c <tcp_output+0x350>)
 8006992:	4653      	mov	r3, sl
 8006994:	f240 5236 	movw	r2, #1334	; 0x536
 8006998:	4658      	mov	r0, fp
 800699a:	f001 fdb1 	bl	8008500 <iprintf>
 800699e:	6f23      	ldr	r3, [r4, #112]	; 0x70
 80069a0:	2b00      	cmp	r3, #0
 80069a2:	f43f af06 	beq.w	80067b2 <tcp_output+0xd6>
 80069a6:	8b62      	ldrh	r2, [r4, #26]
 80069a8:	f012 0f44 	tst.w	r2, #68	; 0x44
 80069ac:	f47f af01 	bne.w	80067b2 <tcp_output+0xd6>
 80069b0:	6ee3      	ldr	r3, [r4, #108]	; 0x6c
 80069b2:	b143      	cbz	r3, 80069c6 <tcp_output+0x2ea>
 80069b4:	6819      	ldr	r1, [r3, #0]
 80069b6:	2900      	cmp	r1, #0
 80069b8:	f47f aefb 	bne.w	80067b2 <tcp_output+0xd6>
 80069bc:	8919      	ldrh	r1, [r3, #8]
 80069be:	8e63      	ldrh	r3, [r4, #50]	; 0x32
 80069c0:	4299      	cmp	r1, r3
 80069c2:	f4bf aef6 	bcs.w	80067b2 <tcp_output+0xd6>
 80069c6:	f8b4 3064 	ldrh.w	r3, [r4, #100]	; 0x64
 80069ca:	2b00      	cmp	r3, #0
 80069cc:	f43f aef1 	beq.w	80067b2 <tcp_output+0xd6>
 80069d0:	f8b4 3066 	ldrh.w	r3, [r4, #102]	; 0x66
 80069d4:	2b26      	cmp	r3, #38	; 0x26
 80069d6:	f63f aeec 	bhi.w	80067b2 <tcp_output+0xd6>
 80069da:	f012 0fa0 	tst.w	r2, #160	; 0xa0
 80069de:	f47f aee8 	bne.w	80067b2 <tcp_output+0xd6>
 80069e2:	6ee3      	ldr	r3, [r4, #108]	; 0x6c
 80069e4:	b913      	cbnz	r3, 80069ec <tcp_output+0x310>
 80069e6:	2300      	movs	r3, #0
 80069e8:	f8a4 3068 	strh.w	r3, [r4, #104]	; 0x68
 80069ec:	8b63      	ldrh	r3, [r4, #26]
 80069ee:	f023 0380 	bic.w	r3, r3, #128	; 0x80
 80069f2:	8363      	strh	r3, [r4, #26]
 80069f4:	2000      	movs	r0, #0
 80069f6:	e74b      	b.n	8006890 <tcp_output+0x1b4>
 80069f8:	68d2      	ldr	r2, [r2, #12]
 80069fa:	9305      	str	r3, [sp, #20]
 80069fc:	6850      	ldr	r0, [r2, #4]
 80069fe:	f7fb fc6c 	bl	80022da <lwip_htonl>
 8006a02:	68e9      	ldr	r1, [r5, #12]
 8006a04:	9004      	str	r0, [sp, #16]
 8006a06:	6848      	ldr	r0, [r1, #4]
 8006a08:	f7fb fc67 	bl	80022da <lwip_htonl>
 8006a0c:	9a04      	ldr	r2, [sp, #16]
 8006a0e:	9b05      	ldr	r3, [sp, #20]
 8006a10:	1a10      	subs	r0, r2, r0
 8006a12:	2800      	cmp	r0, #0
 8006a14:	daa6      	bge.n	8006964 <tcp_output+0x288>
 8006a16:	681b      	ldr	r3, [r3, #0]
 8006a18:	e7a1      	b.n	800695e <tcp_output+0x282>
 8006a1a:	6035      	str	r5, [r6, #0]
 8006a1c:	e77f      	b.n	800691e <tcp_output+0x242>
 8006a1e:	4628      	mov	r0, r5
 8006a20:	f7fc fdc2 	bl	80035a8 <tcp_seg_free>
 8006a24:	e7a1      	b.n	800696a <tcp_output+0x28e>
 8006a26:	f06f 0003 	mvn.w	r0, #3
 8006a2a:	e731      	b.n	8006890 <tcp_output+0x1b4>
 8006a2c:	0800adb6 	.word	0x0800adb6

08006a30 <tcp_rexmit_rto_commit>:
 8006a30:	b510      	push	{r4, lr}
 8006a32:	4604      	mov	r4, r0
 8006a34:	b930      	cbnz	r0, 8006a44 <tcp_rexmit_rto_commit+0x14>
 8006a36:	4b09      	ldr	r3, [pc, #36]	; (8006a5c <tcp_rexmit_rto_commit+0x2c>)
 8006a38:	4909      	ldr	r1, [pc, #36]	; (8006a60 <tcp_rexmit_rto_commit+0x30>)
 8006a3a:	480a      	ldr	r0, [pc, #40]	; (8006a64 <tcp_rexmit_rto_commit+0x34>)
 8006a3c:	f44f 62d3 	mov.w	r2, #1688	; 0x698
 8006a40:	f001 fd5e 	bl	8008500 <iprintf>
 8006a44:	f894 3042 	ldrb.w	r3, [r4, #66]	; 0x42
 8006a48:	2bff      	cmp	r3, #255	; 0xff
 8006a4a:	bf1c      	itt	ne
 8006a4c:	3301      	addne	r3, #1
 8006a4e:	f884 3042 	strbne.w	r3, [r4, #66]	; 0x42
 8006a52:	4620      	mov	r0, r4
 8006a54:	e8bd 4010 	ldmia.w	sp!, {r4, lr}
 8006a58:	f7ff be40 	b.w	80066dc <tcp_output>
 8006a5c:	0800a76e 	.word	0x0800a76e
 8006a60:	0800ade0 	.word	0x0800ade0
 8006a64:	080095b5 	.word	0x080095b5

08006a68 <tcp_rexmit_rto>:
 8006a68:	b510      	push	{r4, lr}
 8006a6a:	4604      	mov	r4, r0
 8006a6c:	b930      	cbnz	r0, 8006a7c <tcp_rexmit_rto+0x14>
 8006a6e:	4b08      	ldr	r3, [pc, #32]	; (8006a90 <tcp_rexmit_rto+0x28>)
 8006a70:	4908      	ldr	r1, [pc, #32]	; (8006a94 <tcp_rexmit_rto+0x2c>)
 8006a72:	4809      	ldr	r0, [pc, #36]	; (8006a98 <tcp_rexmit_rto+0x30>)
 8006a74:	f240 62ad 	movw	r2, #1709	; 0x6ad
 8006a78:	f001 fd42 	bl	8008500 <iprintf>
 8006a7c:	4620      	mov	r0, r4
 8006a7e:	f7ff fcfb 	bl	8006478 <tcp_rexmit_rto_prepare>
 8006a82:	b920      	cbnz	r0, 8006a8e <tcp_rexmit_rto+0x26>
 8006a84:	4620      	mov	r0, r4
 8006a86:	e8bd 4010 	ldmia.w	sp!, {r4, lr}
 8006a8a:	f7ff bfd1 	b.w	8006a30 <tcp_rexmit_rto_commit>
 8006a8e:	bd10      	pop	{r4, pc}
 8006a90:	0800a76e 	.word	0x0800a76e
 8006a94:	0800ae03 	.word	0x0800ae03
 8006a98:	080095b5 	.word	0x080095b5

08006a9c <tcp_keepalive>:
 8006a9c:	b570      	push	{r4, r5, r6, lr}
 8006a9e:	4604      	mov	r4, r0
 8006aa0:	b930      	cbnz	r0, 8006ab0 <tcp_keepalive+0x14>
 8006aa2:	4b0f      	ldr	r3, [pc, #60]	; (8006ae0 <tcp_keepalive+0x44>)
 8006aa4:	490f      	ldr	r1, [pc, #60]	; (8006ae4 <tcp_keepalive+0x48>)
 8006aa6:	4810      	ldr	r0, [pc, #64]	; (8006ae8 <tcp_keepalive+0x4c>)
 8006aa8:	f640 0224 	movw	r2, #2084	; 0x824
 8006aac:	f001 fd28 	bl	8008500 <iprintf>
 8006ab0:	6d20      	ldr	r0, [r4, #80]	; 0x50
 8006ab2:	3801      	subs	r0, #1
 8006ab4:	f7fb fc11 	bl	80022da <lwip_htonl>
 8006ab8:	2100      	movs	r1, #0
 8006aba:	4602      	mov	r2, r0
 8006abc:	4620      	mov	r0, r4
 8006abe:	f7ff f83d 	bl	8005b3c <tcp_output_alloc_header.constprop.0>
 8006ac2:	4605      	mov	r5, r0
 8006ac4:	b148      	cbz	r0, 8006ada <tcp_keepalive+0x3e>
 8006ac6:	f7ff f85f 	bl	8005b88 <tcp_output_fill_options.isra.0.constprop.0>
 8006aca:	1d23      	adds	r3, r4, #4
 8006acc:	4622      	mov	r2, r4
 8006ace:	4629      	mov	r1, r5
 8006ad0:	4620      	mov	r0, r4
 8006ad2:	e8bd 4070 	ldmia.w	sp!, {r4, r5, r6, lr}
 8006ad6:	f7ff b867 	b.w	8005ba8 <tcp_output_control_segment>
 8006ada:	f04f 30ff 	mov.w	r0, #4294967295
 8006ade:	bd70      	pop	{r4, r5, r6, pc}
 8006ae0:	0800a76e 	.word	0x0800a76e
 8006ae4:	0800ae1f 	.word	0x0800ae1f
 8006ae8:	080095b5 	.word	0x080095b5

08006aec <tcp_zero_window_probe>:
 8006aec:	e92d 41f0 	stmdb	sp!, {r4, r5, r6, r7, r8, lr}
 8006af0:	4606      	mov	r6, r0
 8006af2:	b930      	cbnz	r0, 8006b02 <tcp_zero_window_probe+0x16>
 8006af4:	4b2c      	ldr	r3, [pc, #176]	; (8006ba8 <tcp_zero_window_probe+0xbc>)
 8006af6:	492d      	ldr	r1, [pc, #180]	; (8006bac <tcp_zero_window_probe+0xc0>)
 8006af8:	482d      	ldr	r0, [pc, #180]	; (8006bb0 <tcp_zero_window_probe+0xc4>)
 8006afa:	f640 024f 	movw	r2, #2127	; 0x84f
 8006afe:	f001 fcff 	bl	8008500 <iprintf>
 8006b02:	6ef5      	ldr	r5, [r6, #108]	; 0x6c
 8006b04:	2d00      	cmp	r5, #0
 8006b06:	d048      	beq.n	8006b9a <tcp_zero_window_probe+0xae>
 8006b08:	f896 309a 	ldrb.w	r3, [r6, #154]	; 0x9a
 8006b0c:	2bff      	cmp	r3, #255	; 0xff
 8006b0e:	bf1c      	itt	ne
 8006b10:	3301      	addne	r3, #1
 8006b12:	f886 309a 	strbne.w	r3, [r6, #154]	; 0x9a
 8006b16:	68eb      	ldr	r3, [r5, #12]
 8006b18:	8998      	ldrh	r0, [r3, #12]
 8006b1a:	f7fb fbdb 	bl	80022d4 <lwip_htons>
 8006b1e:	f010 0401 	ands.w	r4, r0, #1
 8006b22:	bf18      	it	ne
 8006b24:	892c      	ldrhne	r4, [r5, #8]
 8006b26:	68eb      	ldr	r3, [r5, #12]
 8006b28:	bf1c      	itt	ne
 8006b2a:	fab4 f484 	clzne	r4, r4
 8006b2e:	0964      	lsrne	r4, r4, #5
 8006b30:	685a      	ldr	r2, [r3, #4]
 8006b32:	f084 0101 	eor.w	r1, r4, #1
 8006b36:	4630      	mov	r0, r6
 8006b38:	f7ff f800 	bl	8005b3c <tcp_output_alloc_header.constprop.0>
 8006b3c:	4607      	mov	r7, r0
 8006b3e:	b378      	cbz	r0, 8006ba0 <tcp_zero_window_probe+0xb4>
 8006b40:	f8d0 8004 	ldr.w	r8, [r0, #4]
 8006b44:	b1f4      	cbz	r4, 8006b84 <tcp_zero_window_probe+0x98>
 8006b46:	2011      	movs	r0, #17
 8006b48:	f9b8 400c 	ldrsh.w	r4, [r8, #12]
 8006b4c:	f7fb fbc2 	bl	80022d4 <lwip_htons>
 8006b50:	f424 547c 	bic.w	r4, r4, #16128	; 0x3f00
 8006b54:	4320      	orrs	r0, r4
 8006b56:	f8a8 000c 	strh.w	r0, [r8, #12]
 8006b5a:	68eb      	ldr	r3, [r5, #12]
 8006b5c:	6858      	ldr	r0, [r3, #4]
 8006b5e:	f7fb fbbc 	bl	80022da <lwip_htonl>
 8006b62:	6d33      	ldr	r3, [r6, #80]	; 0x50
 8006b64:	3001      	adds	r0, #1
 8006b66:	1a1b      	subs	r3, r3, r0
 8006b68:	2b00      	cmp	r3, #0
 8006b6a:	bfb8      	it	lt
 8006b6c:	6530      	strlt	r0, [r6, #80]	; 0x50
 8006b6e:	4638      	mov	r0, r7
 8006b70:	f7ff f80a 	bl	8005b88 <tcp_output_fill_options.isra.0.constprop.0>
 8006b74:	1d33      	adds	r3, r6, #4
 8006b76:	4632      	mov	r2, r6
 8006b78:	4639      	mov	r1, r7
 8006b7a:	4630      	mov	r0, r6
 8006b7c:	e8bd 41f0 	ldmia.w	sp!, {r4, r5, r6, r7, r8, lr}
 8006b80:	f7ff b812 	b.w	8005ba8 <tcp_output_control_segment>
 8006b84:	6868      	ldr	r0, [r5, #4]
 8006b86:	892a      	ldrh	r2, [r5, #8]
 8006b88:	8903      	ldrh	r3, [r0, #8]
 8006b8a:	1a9b      	subs	r3, r3, r2
 8006b8c:	b29b      	uxth	r3, r3
 8006b8e:	2201      	movs	r2, #1
 8006b90:	f108 0114 	add.w	r1, r8, #20
 8006b94:	f7fc fa98 	bl	80030c8 <pbuf_copy_partial>
 8006b98:	e7df      	b.n	8006b5a <tcp_zero_window_probe+0x6e>
 8006b9a:	4628      	mov	r0, r5
 8006b9c:	e8bd 81f0 	ldmia.w	sp!, {r4, r5, r6, r7, r8, pc}
 8006ba0:	f04f 30ff 	mov.w	r0, #4294967295
 8006ba4:	e7fa      	b.n	8006b9c <tcp_zero_window_probe+0xb0>
 8006ba6:	bf00      	nop
 8006ba8:	0800a76e 	.word	0x0800a76e
 8006bac:	0800ae3a 	.word	0x0800ae3a
 8006bb0:	080095b5 	.word	0x080095b5

08006bb4 <sys_timeout_abs>:
 8006bb4:	b570      	push	{r4, r5, r6, lr}
 8006bb6:	4604      	mov	r4, r0
 8006bb8:	2006      	movs	r0, #6
 8006bba:	460e      	mov	r6, r1
 8006bbc:	4615      	mov	r5, r2
 8006bbe:	f7fb fe07 	bl	80027d0 <memp_malloc>
 8006bc2:	b938      	cbnz	r0, 8006bd4 <sys_timeout_abs+0x20>
 8006bc4:	e8bd 4070 	ldmia.w	sp!, {r4, r5, r6, lr}
 8006bc8:	4b0f      	ldr	r3, [pc, #60]	; (8006c08 <sys_timeout_abs+0x54>)
 8006bca:	4910      	ldr	r1, [pc, #64]	; (8006c0c <sys_timeout_abs+0x58>)
 8006bcc:	4810      	ldr	r0, [pc, #64]	; (8006c10 <sys_timeout_abs+0x5c>)
 8006bce:	22be      	movs	r2, #190	; 0xbe
 8006bd0:	f001 bc96 	b.w	8008500 <iprintf>
 8006bd4:	4a0f      	ldr	r2, [pc, #60]	; (8006c14 <sys_timeout_abs+0x60>)
 8006bd6:	6044      	str	r4, [r0, #4]
 8006bd8:	2300      	movs	r3, #0
 8006bda:	6003      	str	r3, [r0, #0]
 8006bdc:	6813      	ldr	r3, [r2, #0]
 8006bde:	e9c0 6502 	strd	r6, r5, [r0, #8]
 8006be2:	b90b      	cbnz	r3, 8006be8 <sys_timeout_abs+0x34>
 8006be4:	6010      	str	r0, [r2, #0]
 8006be6:	bd70      	pop	{r4, r5, r6, pc}
 8006be8:	6859      	ldr	r1, [r3, #4]
 8006bea:	1a61      	subs	r1, r4, r1
 8006bec:	2900      	cmp	r1, #0
 8006bee:	da01      	bge.n	8006bf4 <sys_timeout_abs+0x40>
 8006bf0:	6003      	str	r3, [r0, #0]
 8006bf2:	e7f7      	b.n	8006be4 <sys_timeout_abs+0x30>
 8006bf4:	4619      	mov	r1, r3
 8006bf6:	681b      	ldr	r3, [r3, #0]
 8006bf8:	b11b      	cbz	r3, 8006c02 <sys_timeout_abs+0x4e>
 8006bfa:	685a      	ldr	r2, [r3, #4]
 8006bfc:	1aa2      	subs	r2, r4, r2
 8006bfe:	2a00      	cmp	r2, #0
 8006c00:	daf8      	bge.n	8006bf4 <sys_timeout_abs+0x40>
 8006c02:	6003      	str	r3, [r0, #0]
 8006c04:	6008      	str	r0, [r1, #0]
 8006c06:	e7ee      	b.n	8006be6 <sys_timeout_abs+0x32>
 8006c08:	0800ae5d 	.word	0x0800ae5d
 8006c0c:	0800ae91 	.word	0x0800ae91
 8006c10:	080095b5 	.word	0x080095b5
 8006c14:	20000094 	.word	0x20000094

08006c18 <lwip_cyclic_timer>:
 8006c18:	b538      	push	{r3, r4, r5, lr}
 8006c1a:	6843      	ldr	r3, [r0, #4]
 8006c1c:	4604      	mov	r4, r0
 8006c1e:	4798      	blx	r3
 8006c20:	f7fb fb00 	bl	8002224 <sys_now>
 8006c24:	4b07      	ldr	r3, [pc, #28]	; (8006c44 <lwip_cyclic_timer+0x2c>)
 8006c26:	6825      	ldr	r5, [r4, #0]
 8006c28:	681b      	ldr	r3, [r3, #0]
 8006c2a:	4907      	ldr	r1, [pc, #28]	; (8006c48 <lwip_cyclic_timer+0x30>)
 8006c2c:	442b      	add	r3, r5
 8006c2e:	1a1a      	subs	r2, r3, r0
 8006c30:	2a00      	cmp	r2, #0
 8006c32:	bfb8      	it	lt
 8006c34:	1940      	addlt	r0, r0, r5
 8006c36:	4622      	mov	r2, r4
 8006c38:	bfa8      	it	ge
 8006c3a:	4618      	movge	r0, r3
 8006c3c:	e8bd 4038 	ldmia.w	sp!, {r3, r4, r5, lr}
 8006c40:	f7ff bfb8 	b.w	8006bb4 <sys_timeout_abs>
 8006c44:	20000090 	.word	0x20000090
 8006c48:	08006c19 	.word	0x08006c19

08006c4c <sys_timeout>:
 8006c4c:	f1b0 4f80 	cmp.w	r0, #1073741824	; 0x40000000
 8006c50:	b570      	push	{r4, r5, r6, lr}
 8006c52:	4604      	mov	r4, r0
 8006c54:	460d      	mov	r5, r1
 8006c56:	4616      	mov	r6, r2
 8006c58:	d306      	bcc.n	8006c68 <sys_timeout+0x1c>
 8006c5a:	4b08      	ldr	r3, [pc, #32]	; (8006c7c <sys_timeout+0x30>)
 8006c5c:	4908      	ldr	r1, [pc, #32]	; (8006c80 <sys_timeout+0x34>)
 8006c5e:	4809      	ldr	r0, [pc, #36]	; (8006c84 <sys_timeout+0x38>)
 8006c60:	f240 1229 	movw	r2, #297	; 0x129
 8006c64:	f001 fc4c 	bl	8008500 <iprintf>
 8006c68:	f7fb fadc 	bl	8002224 <sys_now>
 8006c6c:	4632      	mov	r2, r6
 8006c6e:	4629      	mov	r1, r5
 8006c70:	4420      	add	r0, r4
 8006c72:	e8bd 4070 	ldmia.w	sp!, {r4, r5, r6, lr}
 8006c76:	f7ff bf9d 	b.w	8006bb4 <sys_timeout_abs>
 8006c7a:	bf00      	nop
 8006c7c:	0800ae5d 	.word	0x0800ae5d
 8006c80:	0800aece 	.word	0x0800aece
 8006c84:	080095b5 	.word	0x080095b5

08006c88 <tcp_timer_needed>:
 8006c88:	4b08      	ldr	r3, [pc, #32]	; (8006cac <tcp_timer_needed+0x24>)
 8006c8a:	681a      	ldr	r2, [r3, #0]
 8006c8c:	b962      	cbnz	r2, 8006ca8 <tcp_timer_needed+0x20>
 8006c8e:	4a08      	ldr	r2, [pc, #32]	; (8006cb0 <tcp_timer_needed+0x28>)
 8006c90:	6812      	ldr	r2, [r2, #0]
 8006c92:	b912      	cbnz	r2, 8006c9a <tcp_timer_needed+0x12>
 8006c94:	4a07      	ldr	r2, [pc, #28]	; (8006cb4 <tcp_timer_needed+0x2c>)
 8006c96:	6812      	ldr	r2, [r2, #0]
 8006c98:	b132      	cbz	r2, 8006ca8 <tcp_timer_needed+0x20>
 8006c9a:	2201      	movs	r2, #1
 8006c9c:	601a      	str	r2, [r3, #0]
 8006c9e:	4906      	ldr	r1, [pc, #24]	; (8006cb8 <tcp_timer_needed+0x30>)
 8006ca0:	2200      	movs	r2, #0
 8006ca2:	20fa      	movs	r0, #250	; 0xfa
 8006ca4:	f7ff bfd2 	b.w	8006c4c <sys_timeout>
 8006ca8:	4770      	bx	lr
 8006caa:	bf00      	nop
 8006cac:	20000098 	.word	0x20000098
 8006cb0:	2000a794 	.word	0x2000a794
 8006cb4:	2000a7a4 	.word	0x2000a7a4
 8006cb8:	08006cbd 	.word	0x08006cbd

08006cbc <tcpip_tcp_timer>:
 8006cbc:	b508      	push	{r3, lr}
 8006cbe:	f7fd fb41 	bl	8004344 <tcp_tmr>
 8006cc2:	4b08      	ldr	r3, [pc, #32]	; (8006ce4 <tcpip_tcp_timer+0x28>)
 8006cc4:	681b      	ldr	r3, [r3, #0]
 8006cc6:	b913      	cbnz	r3, 8006cce <tcpip_tcp_timer+0x12>
 8006cc8:	4b07      	ldr	r3, [pc, #28]	; (8006ce8 <tcpip_tcp_timer+0x2c>)
 8006cca:	681b      	ldr	r3, [r3, #0]
 8006ccc:	b133      	cbz	r3, 8006cdc <tcpip_tcp_timer+0x20>
 8006cce:	e8bd 4008 	ldmia.w	sp!, {r3, lr}
 8006cd2:	4906      	ldr	r1, [pc, #24]	; (8006cec <tcpip_tcp_timer+0x30>)
 8006cd4:	2200      	movs	r2, #0
 8006cd6:	20fa      	movs	r0, #250	; 0xfa
 8006cd8:	f7ff bfb8 	b.w	8006c4c <sys_timeout>
 8006cdc:	4a04      	ldr	r2, [pc, #16]	; (8006cf0 <tcpip_tcp_timer+0x34>)
 8006cde:	6013      	str	r3, [r2, #0]
 8006ce0:	bd08      	pop	{r3, pc}
 8006ce2:	bf00      	nop
 8006ce4:	2000a794 	.word	0x2000a794
 8006ce8:	2000a7a4 	.word	0x2000a7a4
 8006cec:	08006cbd 	.word	0x08006cbd
 8006cf0:	20000098 	.word	0x20000098

08006cf4 <sys_timeouts_init>:
 8006cf4:	b510      	push	{r4, lr}
 8006cf6:	4c08      	ldr	r4, [pc, #32]	; (8006d18 <sys_timeouts_init+0x24>)
 8006cf8:	4908      	ldr	r1, [pc, #32]	; (8006d1c <sys_timeouts_init+0x28>)
 8006cfa:	f104 0208 	add.w	r2, r4, #8
 8006cfe:	f44f 707a 	mov.w	r0, #1000	; 0x3e8
 8006d02:	f7ff ffa3 	bl	8006c4c <sys_timeout>
 8006d06:	f104 0210 	add.w	r2, r4, #16
 8006d0a:	4904      	ldr	r1, [pc, #16]	; (8006d1c <sys_timeouts_init+0x28>)
 8006d0c:	e8bd 4010 	ldmia.w	sp!, {r4, lr}
 8006d10:	f44f 707a 	mov.w	r0, #1000	; 0x3e8
 8006d14:	f7ff bf9a 	b.w	8006c4c <sys_timeout>
 8006d18:	0800af04 	.word	0x0800af04
 8006d1c:	08006c19 	.word	0x08006c19

08006d20 <sys_check_timeouts>:
 8006d20:	e92d 43f8 	stmdb	sp!, {r3, r4, r5, r6, r7, r8, r9, lr}
 8006d24:	f7fb fa7e 	bl	8002224 <sys_now>
 8006d28:	f8df 8044 	ldr.w	r8, [pc, #68]	; 8006d70 <sys_check_timeouts+0x50>
 8006d2c:	f8df 9044 	ldr.w	r9, [pc, #68]	; 8006d74 <sys_check_timeouts+0x54>
 8006d30:	4604      	mov	r4, r0
 8006d32:	4e0e      	ldr	r6, [pc, #56]	; (8006d6c <sys_check_timeouts+0x4c>)
 8006d34:	f898 3000 	ldrb.w	r3, [r8]
 8006d38:	b10b      	cbz	r3, 8006d3e <sys_check_timeouts+0x1e>
 8006d3a:	f7fb ff1b 	bl	8002b74 <pbuf_free_ooseq>
 8006d3e:	6831      	ldr	r1, [r6, #0]
 8006d40:	b189      	cbz	r1, 8006d66 <sys_check_timeouts+0x46>
 8006d42:	684b      	ldr	r3, [r1, #4]
 8006d44:	1ae2      	subs	r2, r4, r3
 8006d46:	2a00      	cmp	r2, #0
 8006d48:	db0d      	blt.n	8006d66 <sys_check_timeouts+0x46>
 8006d4a:	e9d1 5702 	ldrd	r5, r7, [r1, #8]
 8006d4e:	680a      	ldr	r2, [r1, #0]
 8006d50:	6032      	str	r2, [r6, #0]
 8006d52:	2006      	movs	r0, #6
 8006d54:	f8c9 3000 	str.w	r3, [r9]
 8006d58:	f7fb fd56 	bl	8002808 <memp_free>
 8006d5c:	2d00      	cmp	r5, #0
 8006d5e:	d0e9      	beq.n	8006d34 <sys_check_timeouts+0x14>
 8006d60:	4638      	mov	r0, r7
 8006d62:	47a8      	blx	r5
 8006d64:	e7e5      	b.n	8006d32 <sys_check_timeouts+0x12>
 8006d66:	e8bd 83f8 	ldmia.w	sp!, {r3, r4, r5, r6, r7, r8, r9, pc}
 8006d6a:	bf00      	nop
 8006d6c:	20000094 	.word	0x20000094
 8006d70:	2000a78c 	.word	0x2000a78c
 8006d74:	20000090 	.word	0x20000090

08006d78 <udp_init>:
 8006d78:	b508      	push	{r3, lr}
 8006d7a:	f001 fbd9 	bl	8008530 <rand>
 8006d7e:	4b03      	ldr	r3, [pc, #12]	; (8006d8c <udp_init+0x14>)
 8006d80:	ea6f 4080 	mvn.w	r0, r0, lsl #18
 8006d84:	ea6f 4090 	mvn.w	r0, r0, lsr #18
 8006d88:	8018      	strh	r0, [r3, #0]
 8006d8a:	bd08      	pop	{r3, pc}
 8006d8c:	10000012 	.word	0x10000012

08006d90 <udp_input>:
 8006d90:	e92d 4ff0 	stmdb	sp!, {r4, r5, r6, r7, r8, r9, sl, fp, lr}
 8006d94:	4688      	mov	r8, r1
 8006d96:	b085      	sub	sp, #20
 8006d98:	4607      	mov	r7, r0
 8006d9a:	b928      	cbnz	r0, 8006da8 <udp_input+0x18>
 8006d9c:	4b5f      	ldr	r3, [pc, #380]	; (8006f1c <udp_input+0x18c>)
 8006d9e:	4960      	ldr	r1, [pc, #384]	; (8006f20 <udp_input+0x190>)
 8006da0:	4860      	ldr	r0, [pc, #384]	; (8006f24 <udp_input+0x194>)
 8006da2:	22cf      	movs	r2, #207	; 0xcf
 8006da4:	f001 fbac 	bl	8008500 <iprintf>
 8006da8:	f1b8 0f00 	cmp.w	r8, #0
 8006dac:	d105      	bne.n	8006dba <udp_input+0x2a>
 8006dae:	4b5b      	ldr	r3, [pc, #364]	; (8006f1c <udp_input+0x18c>)
 8006db0:	495d      	ldr	r1, [pc, #372]	; (8006f28 <udp_input+0x198>)
 8006db2:	485c      	ldr	r0, [pc, #368]	; (8006f24 <udp_input+0x194>)
 8006db4:	22d0      	movs	r2, #208	; 0xd0
 8006db6:	f001 fba3 	bl	8008500 <iprintf>
 8006dba:	897b      	ldrh	r3, [r7, #10]
 8006dbc:	2b07      	cmp	r3, #7
 8006dbe:	d805      	bhi.n	8006dcc <udp_input+0x3c>
 8006dc0:	4638      	mov	r0, r7
 8006dc2:	b005      	add	sp, #20
 8006dc4:	e8bd 4ff0 	ldmia.w	sp!, {r4, r5, r6, r7, r8, r9, sl, fp, lr}
 8006dc8:	f7fb bf5c 	b.w	8002c84 <pbuf_free>
 8006dcc:	4e57      	ldr	r6, [pc, #348]	; (8006f2c <udp_input+0x19c>)
 8006dce:	687c      	ldr	r4, [r7, #4]
 8006dd0:	6831      	ldr	r1, [r6, #0]
 8006dd2:	6970      	ldr	r0, [r6, #20]
 8006dd4:	f000 fec9 	bl	8007b6a <ip4_addr_isbroadcast_u32>
 8006dd8:	4681      	mov	r9, r0
 8006dda:	8820      	ldrh	r0, [r4, #0]
 8006ddc:	f7fb fa7a 	bl	80022d4 <lwip_htons>
 8006de0:	9002      	str	r0, [sp, #8]
 8006de2:	8860      	ldrh	r0, [r4, #2]
 8006de4:	f7fb fa76 	bl	80022d4 <lwip_htons>
 8006de8:	4b51      	ldr	r3, [pc, #324]	; (8006f30 <udp_input+0x1a0>)
 8006dea:	f8df c130 	ldr.w	ip, [pc, #304]	; 8006f1c <udp_input+0x18c>
 8006dee:	681c      	ldr	r4, [r3, #0]
 8006df0:	4950      	ldr	r1, [pc, #320]	; (8006f34 <udp_input+0x1a4>)
 8006df2:	9003      	str	r0, [sp, #12]
 8006df4:	2500      	movs	r5, #0
 8006df6:	46ab      	mov	fp, r5
 8006df8:	469a      	mov	sl, r3
 8006dfa:	b99c      	cbnz	r4, 8006e24 <udp_input+0x94>
 8006dfc:	b925      	cbnz	r5, 8006e08 <udp_input+0x78>
 8006dfe:	f8d8 2004 	ldr.w	r2, [r8, #4]
 8006e02:	6973      	ldr	r3, [r6, #20]
 8006e04:	429a      	cmp	r2, r3
 8006e06:	d1db      	bne.n	8006dc0 <udp_input+0x30>
 8006e08:	2108      	movs	r1, #8
 8006e0a:	4638      	mov	r0, r7
 8006e0c:	f7fb ff06 	bl	8002c1c <pbuf_remove_header>
 8006e10:	2800      	cmp	r0, #0
 8006e12:	d05e      	beq.n	8006ed2 <udp_input+0x142>
 8006e14:	4b41      	ldr	r3, [pc, #260]	; (8006f1c <udp_input+0x18c>)
 8006e16:	4948      	ldr	r1, [pc, #288]	; (8006f38 <udp_input+0x1a8>)
 8006e18:	4842      	ldr	r0, [pc, #264]	; (8006f24 <udp_input+0x194>)
 8006e1a:	f44f 72b8 	mov.w	r2, #368	; 0x170
 8006e1e:	f001 fb6f 	bl	8008500 <iprintf>
 8006e22:	e7cd      	b.n	8006dc0 <udp_input+0x30>
 8006e24:	8a62      	ldrh	r2, [r4, #18]
 8006e26:	9803      	ldr	r0, [sp, #12]
 8006e28:	4282      	cmp	r2, r0
 8006e2a:	d14d      	bne.n	8006ec8 <udp_input+0x138>
 8006e2c:	f1b8 0f00 	cmp.w	r8, #0
 8006e30:	d107      	bne.n	8006e42 <udp_input+0xb2>
 8006e32:	4663      	mov	r3, ip
 8006e34:	483b      	ldr	r0, [pc, #236]	; (8006f24 <udp_input+0x194>)
 8006e36:	2288      	movs	r2, #136	; 0x88
 8006e38:	f001 fb62 	bl	8008500 <iprintf>
 8006e3c:	f8df c0dc 	ldr.w	ip, [pc, #220]	; 8006f1c <udp_input+0x18c>
 8006e40:	493c      	ldr	r1, [pc, #240]	; (8006f34 <udp_input+0x1a4>)
 8006e42:	7a20      	ldrb	r0, [r4, #8]
 8006e44:	b130      	cbz	r0, 8006e54 <udp_input+0xc4>
 8006e46:	6872      	ldr	r2, [r6, #4]
 8006e48:	f892 2030 	ldrb.w	r2, [r2, #48]	; 0x30
 8006e4c:	3201      	adds	r2, #1
 8006e4e:	b2d2      	uxtb	r2, r2
 8006e50:	4290      	cmp	r0, r2
 8006e52:	d139      	bne.n	8006ec8 <udp_input+0x138>
 8006e54:	6822      	ldr	r2, [r4, #0]
 8006e56:	f1b9 0f00 	cmp.w	r9, #0
 8006e5a:	d030      	beq.n	8006ebe <udp_input+0x12e>
 8006e5c:	b13a      	cbz	r2, 8006e6e <udp_input+0xde>
 8006e5e:	6970      	ldr	r0, [r6, #20]
 8006e60:	1c43      	adds	r3, r0, #1
 8006e62:	d004      	beq.n	8006e6e <udp_input+0xde>
 8006e64:	f8d8 3008 	ldr.w	r3, [r8, #8]
 8006e68:	4050      	eors	r0, r2
 8006e6a:	4218      	tst	r0, r3
 8006e6c:	d12c      	bne.n	8006ec8 <udp_input+0x138>
 8006e6e:	7c20      	ldrb	r0, [r4, #16]
 8006e70:	0743      	lsls	r3, r0, #29
 8006e72:	d40e      	bmi.n	8006e92 <udp_input+0x102>
 8006e74:	b35d      	cbz	r5, 8006ece <udp_input+0x13e>
 8006e76:	f1b9 0f00 	cmp.w	r9, #0
 8006e7a:	d00a      	beq.n	8006e92 <udp_input+0x102>
 8006e7c:	6970      	ldr	r0, [r6, #20]
 8006e7e:	3001      	adds	r0, #1
 8006e80:	d107      	bne.n	8006e92 <udp_input+0x102>
 8006e82:	f8d8 0004 	ldr.w	r0, [r8, #4]
 8006e86:	682b      	ldr	r3, [r5, #0]
 8006e88:	4283      	cmp	r3, r0
 8006e8a:	d002      	beq.n	8006e92 <udp_input+0x102>
 8006e8c:	4290      	cmp	r0, r2
 8006e8e:	bf08      	it	eq
 8006e90:	4625      	moveq	r5, r4
 8006e92:	8aa2      	ldrh	r2, [r4, #20]
 8006e94:	9b02      	ldr	r3, [sp, #8]
 8006e96:	429a      	cmp	r2, r3
 8006e98:	d116      	bne.n	8006ec8 <udp_input+0x138>
 8006e9a:	6862      	ldr	r2, [r4, #4]
 8006e9c:	b112      	cbz	r2, 8006ea4 <udp_input+0x114>
 8006e9e:	6930      	ldr	r0, [r6, #16]
 8006ea0:	4282      	cmp	r2, r0
 8006ea2:	d111      	bne.n	8006ec8 <udp_input+0x138>
 8006ea4:	f1bb 0f00 	cmp.w	fp, #0
 8006ea8:	d007      	beq.n	8006eba <udp_input+0x12a>
 8006eaa:	68e3      	ldr	r3, [r4, #12]
 8006eac:	f8cb 300c 	str.w	r3, [fp, #12]
 8006eb0:	f8da 3000 	ldr.w	r3, [sl]
 8006eb4:	60e3      	str	r3, [r4, #12]
 8006eb6:	f8ca 4000 	str.w	r4, [sl]
 8006eba:	4625      	mov	r5, r4
 8006ebc:	e7a4      	b.n	8006e08 <udp_input+0x78>
 8006ebe:	2a00      	cmp	r2, #0
 8006ec0:	d0d5      	beq.n	8006e6e <udp_input+0xde>
 8006ec2:	6970      	ldr	r0, [r6, #20]
 8006ec4:	4290      	cmp	r0, r2
 8006ec6:	d0d2      	beq.n	8006e6e <udp_input+0xde>
 8006ec8:	46a3      	mov	fp, r4
 8006eca:	68e4      	ldr	r4, [r4, #12]
 8006ecc:	e795      	b.n	8006dfa <udp_input+0x6a>
 8006ece:	4625      	mov	r5, r4
 8006ed0:	e7df      	b.n	8006e92 <udp_input+0x102>
 8006ed2:	b16d      	cbz	r5, 8006ef0 <udp_input+0x160>
 8006ed4:	69ac      	ldr	r4, [r5, #24]
 8006ed6:	2c00      	cmp	r4, #0
 8006ed8:	f43f af72 	beq.w	8006dc0 <udp_input+0x30>
 8006edc:	9b02      	ldr	r3, [sp, #8]
 8006ede:	9300      	str	r3, [sp, #0]
 8006ee0:	69e8      	ldr	r0, [r5, #28]
 8006ee2:	4b16      	ldr	r3, [pc, #88]	; (8006f3c <udp_input+0x1ac>)
 8006ee4:	463a      	mov	r2, r7
 8006ee6:	4629      	mov	r1, r5
 8006ee8:	47a0      	blx	r4
 8006eea:	b005      	add	sp, #20
 8006eec:	e8bd 8ff0 	ldmia.w	sp!, {r4, r5, r6, r7, r8, r9, sl, fp, pc}
 8006ef0:	f1b9 0f00 	cmp.w	r9, #0
 8006ef4:	f47f af64 	bne.w	8006dc0 <udp_input+0x30>
 8006ef8:	6973      	ldr	r3, [r6, #20]
 8006efa:	f003 03f0 	and.w	r3, r3, #240	; 0xf0
 8006efe:	2be0      	cmp	r3, #224	; 0xe0
 8006f00:	f43f af5e 	beq.w	8006dc0 <udp_input+0x30>
 8006f04:	89b1      	ldrh	r1, [r6, #12]
 8006f06:	3108      	adds	r1, #8
 8006f08:	b209      	sxth	r1, r1
 8006f0a:	4638      	mov	r0, r7
 8006f0c:	f7fb feb2 	bl	8002c74 <pbuf_header_force>
 8006f10:	2103      	movs	r1, #3
 8006f12:	4638      	mov	r0, r7
 8006f14:	f000 fc98 	bl	8007848 <icmp_dest_unreach>
 8006f18:	e752      	b.n	8006dc0 <udp_input+0x30>
 8006f1a:	bf00      	nop
 8006f1c:	0800af1c 	.word	0x0800af1c
 8006f20:	0800af4b 	.word	0x0800af4b
 8006f24:	080095b5 	.word	0x080095b5
 8006f28:	0800af63 	.word	0x0800af63
 8006f2c:	20004660 	.word	0x20004660
 8006f30:	2000a7ac 	.word	0x2000a7ac
 8006f34:	0800af7c 	.word	0x0800af7c
 8006f38:	0800afa1 	.word	0x0800afa1
 8006f3c:	20004670 	.word	0x20004670

08006f40 <udp_netif_ip_addr_changed>:
 8006f40:	b510      	push	{r4, lr}
 8006f42:	b138      	cbz	r0, 8006f54 <udp_netif_ip_addr_changed+0x14>
 8006f44:	6803      	ldr	r3, [r0, #0]
 8006f46:	b12b      	cbz	r3, 8006f54 <udp_netif_ip_addr_changed+0x14>
 8006f48:	b121      	cbz	r1, 8006f54 <udp_netif_ip_addr_changed+0x14>
 8006f4a:	680b      	ldr	r3, [r1, #0]
 8006f4c:	b113      	cbz	r3, 8006f54 <udp_netif_ip_addr_changed+0x14>
 8006f4e:	4b06      	ldr	r3, [pc, #24]	; (8006f68 <udp_netif_ip_addr_changed+0x28>)
 8006f50:	681b      	ldr	r3, [r3, #0]
 8006f52:	b903      	cbnz	r3, 8006f56 <udp_netif_ip_addr_changed+0x16>
 8006f54:	bd10      	pop	{r4, pc}
 8006f56:	681c      	ldr	r4, [r3, #0]
 8006f58:	6802      	ldr	r2, [r0, #0]
 8006f5a:	4294      	cmp	r4, r2
 8006f5c:	bf04      	itt	eq
 8006f5e:	680a      	ldreq	r2, [r1, #0]
 8006f60:	601a      	streq	r2, [r3, #0]
 8006f62:	68db      	ldr	r3, [r3, #12]
 8006f64:	e7f5      	b.n	8006f52 <udp_netif_ip_addr_changed+0x12>
 8006f66:	bf00      	nop
 8006f68:	2000a7ac 	.word	0x2000a7ac

08006f6c <etharp_free_entry>:
 8006f6c:	b570      	push	{r4, r5, r6, lr}
 8006f6e:	2618      	movs	r6, #24
 8006f70:	4d07      	ldr	r5, [pc, #28]	; (8006f90 <etharp_free_entry+0x24>)
 8006f72:	4346      	muls	r6, r0
 8006f74:	4604      	mov	r4, r0
 8006f76:	59a8      	ldr	r0, [r5, r6]
 8006f78:	b118      	cbz	r0, 8006f82 <etharp_free_entry+0x16>
 8006f7a:	f7fb fe83 	bl	8002c84 <pbuf_free>
 8006f7e:	2300      	movs	r3, #0
 8006f80:	51ab      	str	r3, [r5, r6]
 8006f82:	2018      	movs	r0, #24
 8006f84:	fb00 5404 	mla	r4, r0, r4, r5
 8006f88:	2300      	movs	r3, #0
 8006f8a:	7523      	strb	r3, [r4, #20]
 8006f8c:	bd70      	pop	{r4, r5, r6, pc}
 8006f8e:	bf00      	nop
 8006f90:	2000009c 	.word	0x2000009c

08006f94 <etharp_find_entry>:
 8006f94:	e92d 4ff7 	stmdb	sp!, {r0, r1, r2, r4, r5, r6, r7, r8, r9, sl, fp, lr}
 8006f98:	2300      	movs	r3, #0
 8006f9a:	f04f 0e0a 	mov.w	lr, #10
 8006f9e:	e9cd 2100 	strd	r2, r1, [sp]
 8006fa2:	4a3f      	ldr	r2, [pc, #252]	; (80070a0 <etharp_find_entry+0x10c>)
 8006fa4:	4606      	mov	r6, r0
 8006fa6:	4699      	mov	r9, r3
 8006fa8:	469b      	mov	fp, r3
 8006faa:	469c      	mov	ip, r3
 8006fac:	4674      	mov	r4, lr
 8006fae:	4675      	mov	r5, lr
 8006fb0:	46f0      	mov	r8, lr
 8006fb2:	2c0a      	cmp	r4, #10
 8006fb4:	f892 a014 	ldrb.w	sl, [r2, #20]
 8006fb8:	b218      	sxth	r0, r3
 8006fba:	d11a      	bne.n	8006ff2 <etharp_find_entry+0x5e>
 8006fbc:	f1ba 0f00 	cmp.w	sl, #0
 8006fc0:	d05e      	beq.n	8007080 <etharp_find_entry+0xec>
 8006fc2:	b156      	cbz	r6, 8006fda <etharp_find_entry+0x46>
 8006fc4:	6837      	ldr	r7, [r6, #0]
 8006fc6:	6851      	ldr	r1, [r2, #4]
 8006fc8:	428f      	cmp	r7, r1
 8006fca:	d106      	bne.n	8006fda <etharp_find_entry+0x46>
 8006fcc:	9900      	ldr	r1, [sp, #0]
 8006fce:	2900      	cmp	r1, #0
 8006fd0:	d049      	beq.n	8007066 <etharp_find_entry+0xd2>
 8006fd2:	6891      	ldr	r1, [r2, #8]
 8006fd4:	9f00      	ldr	r7, [sp, #0]
 8006fd6:	42b9      	cmp	r1, r7
 8006fd8:	d045      	beq.n	8007066 <etharp_find_entry+0xd2>
 8006fda:	f1ba 0f01 	cmp.w	sl, #1
 8006fde:	8a51      	ldrh	r1, [r2, #18]
 8006fe0:	d149      	bne.n	8007076 <etharp_find_entry+0xe2>
 8006fe2:	6817      	ldr	r7, [r2, #0]
 8006fe4:	2f00      	cmp	r7, #0
 8006fe6:	d041      	beq.n	800706c <etharp_find_entry+0xd8>
 8006fe8:	458c      	cmp	ip, r1
 8006fea:	d805      	bhi.n	8006ff8 <etharp_find_entry+0x64>
 8006fec:	468c      	mov	ip, r1
 8006fee:	4686      	mov	lr, r0
 8006ff0:	e002      	b.n	8006ff8 <etharp_find_entry+0x64>
 8006ff2:	f1ba 0f00 	cmp.w	sl, #0
 8006ff6:	d1e4      	bne.n	8006fc2 <etharp_find_entry+0x2e>
 8006ff8:	3301      	adds	r3, #1
 8006ffa:	2b0a      	cmp	r3, #10
 8006ffc:	f102 0218 	add.w	r2, r2, #24
 8007000:	d1d7      	bne.n	8006fb2 <etharp_find_entry+0x1e>
 8007002:	9b01      	ldr	r3, [sp, #4]
 8007004:	2b01      	cmp	r3, #1
 8007006:	d143      	bne.n	8007090 <etharp_find_entry+0xfc>
 8007008:	2c0a      	cmp	r4, #10
 800700a:	d111      	bne.n	8007030 <etharp_find_entry+0x9c>
 800700c:	2d0a      	cmp	r5, #10
 800700e:	d039      	beq.n	8007084 <etharp_find_entry+0xf0>
 8007010:	2318      	movs	r3, #24
 8007012:	4a23      	ldr	r2, [pc, #140]	; (80070a0 <etharp_find_entry+0x10c>)
 8007014:	436b      	muls	r3, r5
 8007016:	58d3      	ldr	r3, [r2, r3]
 8007018:	b133      	cbz	r3, 8007028 <etharp_find_entry+0x94>
 800701a:	4b22      	ldr	r3, [pc, #136]	; (80070a4 <etharp_find_entry+0x110>)
 800701c:	4922      	ldr	r1, [pc, #136]	; (80070a8 <etharp_find_entry+0x114>)
 800701e:	4823      	ldr	r0, [pc, #140]	; (80070ac <etharp_find_entry+0x118>)
 8007020:	f240 126d 	movw	r2, #365	; 0x16d
 8007024:	f001 fa6c 	bl	8008500 <iprintf>
 8007028:	4628      	mov	r0, r5
 800702a:	f7ff ff9f 	bl	8006f6c <etharp_free_entry>
 800702e:	462c      	mov	r4, r5
 8007030:	4d1b      	ldr	r5, [pc, #108]	; (80070a0 <etharp_find_entry+0x10c>)
 8007032:	2318      	movs	r3, #24
 8007034:	fb03 5304 	mla	r3, r3, r4, r5
 8007038:	7d1b      	ldrb	r3, [r3, #20]
 800703a:	b133      	cbz	r3, 800704a <etharp_find_entry+0xb6>
 800703c:	4b19      	ldr	r3, [pc, #100]	; (80070a4 <etharp_find_entry+0x110>)
 800703e:	491c      	ldr	r1, [pc, #112]	; (80070b0 <etharp_find_entry+0x11c>)
 8007040:	481a      	ldr	r0, [pc, #104]	; (80070ac <etharp_find_entry+0x118>)
 8007042:	f44f 72c2 	mov.w	r2, #388	; 0x184
 8007046:	f001 fa5b 	bl	8008500 <iprintf>
 800704a:	b126      	cbz	r6, 8007056 <etharp_find_entry+0xc2>
 800704c:	2318      	movs	r3, #24
 800704e:	fb03 5304 	mla	r3, r3, r4, r5
 8007052:	6832      	ldr	r2, [r6, #0]
 8007054:	605a      	str	r2, [r3, #4]
 8007056:	2318      	movs	r3, #24
 8007058:	fb03 5504 	mla	r5, r3, r4, r5
 800705c:	2300      	movs	r3, #0
 800705e:	826b      	strh	r3, [r5, #18]
 8007060:	9b00      	ldr	r3, [sp, #0]
 8007062:	60ab      	str	r3, [r5, #8]
 8007064:	4620      	mov	r0, r4
 8007066:	b003      	add	sp, #12
 8007068:	e8bd 8ff0 	ldmia.w	sp!, {r4, r5, r6, r7, r8, r9, sl, fp, pc}
 800706c:	458b      	cmp	fp, r1
 800706e:	d8c3      	bhi.n	8006ff8 <etharp_find_entry+0x64>
 8007070:	468b      	mov	fp, r1
 8007072:	4680      	mov	r8, r0
 8007074:	e7c0      	b.n	8006ff8 <etharp_find_entry+0x64>
 8007076:	4589      	cmp	r9, r1
 8007078:	d8be      	bhi.n	8006ff8 <etharp_find_entry+0x64>
 800707a:	4689      	mov	r9, r1
 800707c:	4605      	mov	r5, r0
 800707e:	e7bb      	b.n	8006ff8 <etharp_find_entry+0x64>
 8007080:	4604      	mov	r4, r0
 8007082:	e7b9      	b.n	8006ff8 <etharp_find_entry+0x64>
 8007084:	f1b8 0f0a 	cmp.w	r8, #10
 8007088:	d105      	bne.n	8007096 <etharp_find_entry+0x102>
 800708a:	f1be 0f0a 	cmp.w	lr, #10
 800708e:	d104      	bne.n	800709a <etharp_find_entry+0x106>
 8007090:	f04f 30ff 	mov.w	r0, #4294967295
 8007094:	e7e7      	b.n	8007066 <etharp_find_entry+0xd2>
 8007096:	4645      	mov	r5, r8
 8007098:	e7c6      	b.n	8007028 <etharp_find_entry+0x94>
 800709a:	4675      	mov	r5, lr
 800709c:	e7c4      	b.n	8007028 <etharp_find_entry+0x94>
 800709e:	bf00      	nop
 80070a0:	2000009c 	.word	0x2000009c
 80070a4:	0800afbc 	.word	0x0800afbc
 80070a8:	0800aff3 	.word	0x0800aff3
 80070ac:	080095b5 	.word	0x080095b5
 80070b0:	0800b00a 	.word	0x0800b00a

080070b4 <etharp_raw>:
 80070b4:	e92d 47f3 	stmdb	sp!, {r0, r1, r4, r5, r6, r7, r8, r9, sl, lr}
 80070b8:	f8dd a02c 	ldr.w	sl, [sp, #44]	; 0x2c
 80070bc:	4688      	mov	r8, r1
 80070be:	4691      	mov	r9, r2
 80070c0:	461e      	mov	r6, r3
 80070c2:	4607      	mov	r7, r0
 80070c4:	b930      	cbnz	r0, 80070d4 <etharp_raw+0x20>
 80070c6:	4b2d      	ldr	r3, [pc, #180]	; (800717c <etharp_raw+0xc8>)
 80070c8:	492d      	ldr	r1, [pc, #180]	; (8007180 <etharp_raw+0xcc>)
 80070ca:	482e      	ldr	r0, [pc, #184]	; (8007184 <etharp_raw+0xd0>)
 80070cc:	f240 4257 	movw	r2, #1111	; 0x457
 80070d0:	f001 fa16 	bl	8008500 <iprintf>
 80070d4:	f44f 7220 	mov.w	r2, #640	; 0x280
 80070d8:	211c      	movs	r1, #28
 80070da:	200e      	movs	r0, #14
 80070dc:	f7fb fe36 	bl	8002d4c <pbuf_alloc>
 80070e0:	4605      	mov	r5, r0
 80070e2:	2800      	cmp	r0, #0
 80070e4:	d047      	beq.n	8007176 <etharp_raw+0xc2>
 80070e6:	8943      	ldrh	r3, [r0, #10]
 80070e8:	2b1b      	cmp	r3, #27
 80070ea:	d806      	bhi.n	80070fa <etharp_raw+0x46>
 80070ec:	4b23      	ldr	r3, [pc, #140]	; (800717c <etharp_raw+0xc8>)
 80070ee:	4926      	ldr	r1, [pc, #152]	; (8007188 <etharp_raw+0xd4>)
 80070f0:	4824      	ldr	r0, [pc, #144]	; (8007184 <etharp_raw+0xd0>)
 80070f2:	f240 4262 	movw	r2, #1122	; 0x462
 80070f6:	f001 fa03 	bl	8008500 <iprintf>
 80070fa:	f8bd 0034 	ldrh.w	r0, [sp, #52]	; 0x34
 80070fe:	686c      	ldr	r4, [r5, #4]
 8007100:	f7fb f8e8 	bl	80022d4 <lwip_htons>
 8007104:	80e0      	strh	r0, [r4, #6]
 8007106:	f897 302c 	ldrb.w	r3, [r7, #44]	; 0x2c
 800710a:	2b06      	cmp	r3, #6
 800710c:	d006      	beq.n	800711c <etharp_raw+0x68>
 800710e:	4b1b      	ldr	r3, [pc, #108]	; (800717c <etharp_raw+0xc8>)
 8007110:	491e      	ldr	r1, [pc, #120]	; (800718c <etharp_raw+0xd8>)
 8007112:	481c      	ldr	r0, [pc, #112]	; (8007184 <etharp_raw+0xd0>)
 8007114:	f240 4269 	movw	r2, #1129	; 0x469
 8007118:	f001 f9f2 	bl	8008500 <iprintf>
 800711c:	6833      	ldr	r3, [r6, #0]
 800711e:	60a3      	str	r3, [r4, #8]
 8007120:	88b3      	ldrh	r3, [r6, #4]
 8007122:	81a3      	strh	r3, [r4, #12]
 8007124:	f8da 3000 	ldr.w	r3, [sl]
 8007128:	f8c4 3012 	str.w	r3, [r4, #18]
 800712c:	f8ba 3004 	ldrh.w	r3, [sl, #4]
 8007130:	82e3      	strh	r3, [r4, #22]
 8007132:	9b0a      	ldr	r3, [sp, #40]	; 0x28
 8007134:	681b      	ldr	r3, [r3, #0]
 8007136:	f8c4 300e 	str.w	r3, [r4, #14]
 800713a:	9b0c      	ldr	r3, [sp, #48]	; 0x30
 800713c:	681b      	ldr	r3, [r3, #0]
 800713e:	61a3      	str	r3, [r4, #24]
 8007140:	2301      	movs	r3, #1
 8007142:	7063      	strb	r3, [r4, #1]
 8007144:	2308      	movs	r3, #8
 8007146:	70a3      	strb	r3, [r4, #2]
 8007148:	2306      	movs	r3, #6
 800714a:	7123      	strb	r3, [r4, #4]
 800714c:	2304      	movs	r3, #4
 800714e:	2600      	movs	r6, #0
 8007150:	7163      	strb	r3, [r4, #5]
 8007152:	f640 0306 	movw	r3, #2054	; 0x806
 8007156:	7026      	strb	r6, [r4, #0]
 8007158:	70e6      	strb	r6, [r4, #3]
 800715a:	4642      	mov	r2, r8
 800715c:	9300      	str	r3, [sp, #0]
 800715e:	4629      	mov	r1, r5
 8007160:	464b      	mov	r3, r9
 8007162:	4638      	mov	r0, r7
 8007164:	f001 f94c 	bl	8008400 <ethernet_output>
 8007168:	4628      	mov	r0, r5
 800716a:	f7fb fd8b 	bl	8002c84 <pbuf_free>
 800716e:	4630      	mov	r0, r6
 8007170:	b002      	add	sp, #8
 8007172:	e8bd 87f0 	ldmia.w	sp!, {r4, r5, r6, r7, r8, r9, sl, pc}
 8007176:	f04f 30ff 	mov.w	r0, #4294967295
 800717a:	e7f9      	b.n	8007170 <etharp_raw+0xbc>
 800717c:	0800afbc 	.word	0x0800afbc
 8007180:	080095f9 	.word	0x080095f9
 8007184:	080095b5 	.word	0x080095b5
 8007188:	0800b033 	.word	0x0800b033
 800718c:	0800b064 	.word	0x0800b064

08007190 <etharp_cleanup_netif>:
 8007190:	b570      	push	{r4, r5, r6, lr}
 8007192:	4d08      	ldr	r5, [pc, #32]	; (80071b4 <etharp_cleanup_netif+0x24>)
 8007194:	4606      	mov	r6, r0
 8007196:	2400      	movs	r4, #0
 8007198:	7d2b      	ldrb	r3, [r5, #20]
 800719a:	b12b      	cbz	r3, 80071a8 <etharp_cleanup_netif+0x18>
 800719c:	68ab      	ldr	r3, [r5, #8]
 800719e:	42b3      	cmp	r3, r6
 80071a0:	d102      	bne.n	80071a8 <etharp_cleanup_netif+0x18>
 80071a2:	4620      	mov	r0, r4
 80071a4:	f7ff fee2 	bl	8006f6c <etharp_free_entry>
 80071a8:	3401      	adds	r4, #1
 80071aa:	2c0a      	cmp	r4, #10
 80071ac:	f105 0518 	add.w	r5, r5, #24
 80071b0:	d1f2      	bne.n	8007198 <etharp_cleanup_netif+0x8>
 80071b2:	bd70      	pop	{r4, r5, r6, pc}
 80071b4:	2000009c 	.word	0x2000009c

080071b8 <etharp_input>:
 80071b8:	e92d 47f0 	stmdb	sp!, {r4, r5, r6, r7, r8, r9, sl, lr}
 80071bc:	4607      	mov	r7, r0
 80071be:	b088      	sub	sp, #32
 80071c0:	460c      	mov	r4, r1
 80071c2:	b949      	cbnz	r1, 80071d8 <etharp_input+0x20>
 80071c4:	4b48      	ldr	r3, [pc, #288]	; (80072e8 <etharp_input+0x130>)
 80071c6:	4949      	ldr	r1, [pc, #292]	; (80072ec <etharp_input+0x134>)
 80071c8:	4849      	ldr	r0, [pc, #292]	; (80072f0 <etharp_input+0x138>)
 80071ca:	f240 228a 	movw	r2, #650	; 0x28a
 80071ce:	f001 f997 	bl	8008500 <iprintf>
 80071d2:	b008      	add	sp, #32
 80071d4:	e8bd 87f0 	ldmia.w	sp!, {r4, r5, r6, r7, r8, r9, sl, pc}
 80071d8:	6845      	ldr	r5, [r0, #4]
 80071da:	882b      	ldrh	r3, [r5, #0]
 80071dc:	f5b3 7f80 	cmp.w	r3, #256	; 0x100
 80071e0:	d108      	bne.n	80071f4 <etharp_input+0x3c>
 80071e2:	792b      	ldrb	r3, [r5, #4]
 80071e4:	2b06      	cmp	r3, #6
 80071e6:	d105      	bne.n	80071f4 <etharp_input+0x3c>
 80071e8:	796b      	ldrb	r3, [r5, #5]
 80071ea:	2b04      	cmp	r3, #4
 80071ec:	d102      	bne.n	80071f4 <etharp_input+0x3c>
 80071ee:	886b      	ldrh	r3, [r5, #2]
 80071f0:	2b08      	cmp	r3, #8
 80071f2:	d003      	beq.n	80071fc <etharp_input+0x44>
 80071f4:	4638      	mov	r0, r7
 80071f6:	f7fb fd45 	bl	8002c84 <pbuf_free>
 80071fa:	e7ea      	b.n	80071d2 <etharp_input+0x1a>
 80071fc:	684e      	ldr	r6, [r1, #4]
 80071fe:	f8d5 300e 	ldr.w	r3, [r5, #14]
 8007202:	9307      	str	r3, [sp, #28]
 8007204:	f105 0808 	add.w	r8, r5, #8
 8007208:	69ab      	ldr	r3, [r5, #24]
 800720a:	2e00      	cmp	r6, #0
 800720c:	d068      	beq.n	80072e0 <etharp_input+0x128>
 800720e:	1af3      	subs	r3, r6, r3
 8007210:	425e      	negs	r6, r3
 8007212:	415e      	adcs	r6, r3
 8007214:	f1c6 0a02 	rsb	sl, r6, #2
 8007218:	fa5f fa8a 	uxtb.w	sl, sl
 800721c:	f894 302c 	ldrb.w	r3, [r4, #44]	; 0x2c
 8007220:	2b06      	cmp	r3, #6
 8007222:	d006      	beq.n	8007232 <etharp_input+0x7a>
 8007224:	4b30      	ldr	r3, [pc, #192]	; (80072e8 <etharp_input+0x130>)
 8007226:	4933      	ldr	r1, [pc, #204]	; (80072f4 <etharp_input+0x13c>)
 8007228:	4831      	ldr	r0, [pc, #196]	; (80072f0 <etharp_input+0x138>)
 800722a:	f240 12a9 	movw	r2, #425	; 0x1a9
 800722e:	f001 f967 	bl	8008500 <iprintf>
 8007232:	9807      	ldr	r0, [sp, #28]
 8007234:	2800      	cmp	r0, #0
 8007236:	d03e      	beq.n	80072b6 <etharp_input+0xfe>
 8007238:	4621      	mov	r1, r4
 800723a:	f000 fc96 	bl	8007b6a <ip4_addr_isbroadcast_u32>
 800723e:	4681      	mov	r9, r0
 8007240:	2800      	cmp	r0, #0
 8007242:	d138      	bne.n	80072b6 <etharp_input+0xfe>
 8007244:	9b07      	ldr	r3, [sp, #28]
 8007246:	f003 03f0 	and.w	r3, r3, #240	; 0xf0
 800724a:	2be0      	cmp	r3, #224	; 0xe0
 800724c:	d033      	beq.n	80072b6 <etharp_input+0xfe>
 800724e:	4622      	mov	r2, r4
 8007250:	4651      	mov	r1, sl
 8007252:	a807      	add	r0, sp, #28
 8007254:	f7ff fe9e 	bl	8006f94 <etharp_find_entry>
 8007258:	1e03      	subs	r3, r0, #0
 800725a:	db2c      	blt.n	80072b6 <etharp_input+0xfe>
 800725c:	4a26      	ldr	r2, [pc, #152]	; (80072f8 <etharp_input+0x140>)
 800725e:	2018      	movs	r0, #24
 8007260:	fb00 fc03 	mul.w	ip, r0, r3
 8007264:	eb02 010c 	add.w	r1, r2, ip
 8007268:	f04f 0e02 	mov.w	lr, #2
 800726c:	f881 e014 	strb.w	lr, [r1, #20]
 8007270:	f04f 0e0c 	mov.w	lr, #12
 8007274:	608c      	str	r4, [r1, #8]
 8007276:	fb13 e300 	smlabb	r3, r3, r0, lr
 800727a:	f8d8 0000 	ldr.w	r0, [r8]
 800727e:	50d0      	str	r0, [r2, r3]
 8007280:	eb02 0e03 	add.w	lr, r2, r3
 8007284:	f8b8 3004 	ldrh.w	r3, [r8, #4]
 8007288:	f8ae 3004 	strh.w	r3, [lr, #4]
 800728c:	f8a1 9012 	strh.w	r9, [r1, #18]
 8007290:	f852 100c 	ldr.w	r1, [r2, ip]
 8007294:	b179      	cbz	r1, 80072b6 <etharp_input+0xfe>
 8007296:	f44f 6300 	mov.w	r3, #2048	; 0x800
 800729a:	f842 900c 	str.w	r9, [r2, ip]
 800729e:	4620      	mov	r0, r4
 80072a0:	9300      	str	r3, [sp, #0]
 80072a2:	f104 0226 	add.w	r2, r4, #38	; 0x26
 80072a6:	4643      	mov	r3, r8
 80072a8:	9105      	str	r1, [sp, #20]
 80072aa:	f001 f8a9 	bl	8008400 <ethernet_output>
 80072ae:	9905      	ldr	r1, [sp, #20]
 80072b0:	4608      	mov	r0, r1
 80072b2:	f7fb fce7 	bl	8002c84 <pbuf_free>
 80072b6:	88eb      	ldrh	r3, [r5, #6]
 80072b8:	f5b3 7f80 	cmp.w	r3, #256	; 0x100
 80072bc:	d19a      	bne.n	80071f4 <etharp_input+0x3c>
 80072be:	2e00      	cmp	r6, #0
 80072c0:	d098      	beq.n	80071f4 <etharp_input+0x3c>
 80072c2:	2202      	movs	r2, #2
 80072c4:	9203      	str	r2, [sp, #12]
 80072c6:	aa07      	add	r2, sp, #28
 80072c8:	e9cd 8201 	strd	r8, r2, [sp, #4]
 80072cc:	f104 0326 	add.w	r3, r4, #38	; 0x26
 80072d0:	1d22      	adds	r2, r4, #4
 80072d2:	9200      	str	r2, [sp, #0]
 80072d4:	4619      	mov	r1, r3
 80072d6:	4642      	mov	r2, r8
 80072d8:	4620      	mov	r0, r4
 80072da:	f7ff feeb 	bl	80070b4 <etharp_raw>
 80072de:	e789      	b.n	80071f4 <etharp_input+0x3c>
 80072e0:	f04f 0a02 	mov.w	sl, #2
 80072e4:	e79a      	b.n	800721c <etharp_input+0x64>
 80072e6:	bf00      	nop
 80072e8:	0800afbc 	.word	0x0800afbc
 80072ec:	080095f9 	.word	0x080095f9
 80072f0:	080095b5 	.word	0x080095b5
 80072f4:	0800b0c4 	.word	0x0800b0c4
 80072f8:	2000009c 	.word	0x2000009c

080072fc <etharp_request>:
 80072fc:	b51f      	push	{r0, r1, r2, r3, r4, lr}
 80072fe:	4602      	mov	r2, r0
 8007300:	2401      	movs	r4, #1
 8007302:	e9cd 1402 	strd	r1, r4, [sp, #8]
 8007306:	f100 0326 	add.w	r3, r0, #38	; 0x26
 800730a:	4905      	ldr	r1, [pc, #20]	; (8007320 <etharp_request+0x24>)
 800730c:	9101      	str	r1, [sp, #4]
 800730e:	3204      	adds	r2, #4
 8007310:	9200      	str	r2, [sp, #0]
 8007312:	4619      	mov	r1, r3
 8007314:	4a03      	ldr	r2, [pc, #12]	; (8007324 <etharp_request+0x28>)
 8007316:	f7ff fecd 	bl	80070b4 <etharp_raw>
 800731a:	b004      	add	sp, #16
 800731c:	bd10      	pop	{r4, pc}
 800731e:	bf00      	nop
 8007320:	0800b4ac 	.word	0x0800b4ac
 8007324:	0800b4a6 	.word	0x0800b4a6

08007328 <etharp_tmr>:
 8007328:	b5f8      	push	{r3, r4, r5, r6, r7, lr}
 800732a:	4c13      	ldr	r4, [pc, #76]	; (8007378 <etharp_tmr+0x50>)
 800732c:	2500      	movs	r5, #0
 800732e:	2602      	movs	r6, #2
 8007330:	2704      	movs	r7, #4
 8007332:	7d22      	ldrb	r2, [r4, #20]
 8007334:	b16a      	cbz	r2, 8007352 <etharp_tmr+0x2a>
 8007336:	8a63      	ldrh	r3, [r4, #18]
 8007338:	3301      	adds	r3, #1
 800733a:	b29b      	uxth	r3, r3
 800733c:	f5b3 7f96 	cmp.w	r3, #300	; 0x12c
 8007340:	8263      	strh	r3, [r4, #18]
 8007342:	d203      	bcs.n	800734c <etharp_tmr+0x24>
 8007344:	2a01      	cmp	r2, #1
 8007346:	d10a      	bne.n	800735e <etharp_tmr+0x36>
 8007348:	2b04      	cmp	r3, #4
 800734a:	d910      	bls.n	800736e <etharp_tmr+0x46>
 800734c:	4628      	mov	r0, r5
 800734e:	f7ff fe0d 	bl	8006f6c <etharp_free_entry>
 8007352:	3501      	adds	r5, #1
 8007354:	2d0a      	cmp	r5, #10
 8007356:	f104 0418 	add.w	r4, r4, #24
 800735a:	d1ea      	bne.n	8007332 <etharp_tmr+0xa>
 800735c:	bdf8      	pop	{r3, r4, r5, r6, r7, pc}
 800735e:	2a03      	cmp	r2, #3
 8007360:	d101      	bne.n	8007366 <etharp_tmr+0x3e>
 8007362:	7527      	strb	r7, [r4, #20]
 8007364:	e7f5      	b.n	8007352 <etharp_tmr+0x2a>
 8007366:	2a04      	cmp	r2, #4
 8007368:	d1f3      	bne.n	8007352 <etharp_tmr+0x2a>
 800736a:	7526      	strb	r6, [r4, #20]
 800736c:	e7f1      	b.n	8007352 <etharp_tmr+0x2a>
 800736e:	68a0      	ldr	r0, [r4, #8]
 8007370:	1d21      	adds	r1, r4, #4
 8007372:	f7ff ffc3 	bl	80072fc <etharp_request>
 8007376:	e7ec      	b.n	8007352 <etharp_tmr+0x2a>
 8007378:	2000009c 	.word	0x2000009c

0800737c <etharp_output_to_arp_index>:
 800737c:	e92d 47ff 	stmdb	sp!, {r0, r1, r2, r3, r4, r5, r6, r7, r8, r9, sl, lr}
 8007380:	4d24      	ldr	r5, [pc, #144]	; (8007414 <etharp_output_to_arp_index+0x98>)
 8007382:	2318      	movs	r3, #24
 8007384:	fb03 5302 	mla	r3, r3, r2, r5
 8007388:	4607      	mov	r7, r0
 800738a:	7d1b      	ldrb	r3, [r3, #20]
 800738c:	2b01      	cmp	r3, #1
 800738e:	4688      	mov	r8, r1
 8007390:	4614      	mov	r4, r2
 8007392:	d806      	bhi.n	80073a2 <etharp_output_to_arp_index+0x26>
 8007394:	4b20      	ldr	r3, [pc, #128]	; (8007418 <etharp_output_to_arp_index+0x9c>)
 8007396:	4921      	ldr	r1, [pc, #132]	; (800741c <etharp_output_to_arp_index+0xa0>)
 8007398:	4821      	ldr	r0, [pc, #132]	; (8007420 <etharp_output_to_arp_index+0xa4>)
 800739a:	f240 22ee 	movw	r2, #750	; 0x2ee
 800739e:	f001 f8af 	bl	8008500 <iprintf>
 80073a2:	2218      	movs	r2, #24
 80073a4:	eb04 0644 	add.w	r6, r4, r4, lsl #1
 80073a8:	fb02 5404 	mla	r4, r2, r4, r5
 80073ac:	00f6      	lsls	r6, r6, #3
 80073ae:	7d23      	ldrb	r3, [r4, #20]
 80073b0:	f106 0a0c 	add.w	sl, r6, #12
 80073b4:	2b02      	cmp	r3, #2
 80073b6:	44aa      	add	sl, r5
 80073b8:	f107 0926 	add.w	r9, r7, #38	; 0x26
 80073bc:	d10b      	bne.n	80073d6 <etharp_output_to_arp_index+0x5a>
 80073be:	8a63      	ldrh	r3, [r4, #18]
 80073c0:	f5b3 7f8e 	cmp.w	r3, #284	; 0x11c
 80073c4:	d913      	bls.n	80073ee <etharp_output_to_arp_index+0x72>
 80073c6:	3604      	adds	r6, #4
 80073c8:	19a9      	adds	r1, r5, r6
 80073ca:	4638      	mov	r0, r7
 80073cc:	f7ff ff96 	bl	80072fc <etharp_request>
 80073d0:	b908      	cbnz	r0, 80073d6 <etharp_output_to_arp_index+0x5a>
 80073d2:	2303      	movs	r3, #3
 80073d4:	7523      	strb	r3, [r4, #20]
 80073d6:	f44f 6300 	mov.w	r3, #2048	; 0x800
 80073da:	9300      	str	r3, [sp, #0]
 80073dc:	464a      	mov	r2, r9
 80073de:	4653      	mov	r3, sl
 80073e0:	4641      	mov	r1, r8
 80073e2:	4638      	mov	r0, r7
 80073e4:	f001 f80c 	bl	8008400 <ethernet_output>
 80073e8:	b004      	add	sp, #16
 80073ea:	e8bd 87f0 	ldmia.w	sp!, {r4, r5, r6, r7, r8, r9, sl, pc}
 80073ee:	f5b3 7f87 	cmp.w	r3, #270	; 0x10e
 80073f2:	d3f0      	bcc.n	80073d6 <etharp_output_to_arp_index+0x5a>
 80073f4:	2301      	movs	r3, #1
 80073f6:	9303      	str	r3, [sp, #12]
 80073f8:	3604      	adds	r6, #4
 80073fa:	4b0a      	ldr	r3, [pc, #40]	; (8007424 <etharp_output_to_arp_index+0xa8>)
 80073fc:	9301      	str	r3, [sp, #4]
 80073fe:	442e      	add	r6, r5
 8007400:	1d3b      	adds	r3, r7, #4
 8007402:	9300      	str	r3, [sp, #0]
 8007404:	9602      	str	r6, [sp, #8]
 8007406:	464b      	mov	r3, r9
 8007408:	4652      	mov	r2, sl
 800740a:	4649      	mov	r1, r9
 800740c:	4638      	mov	r0, r7
 800740e:	f7ff fe51 	bl	80070b4 <etharp_raw>
 8007412:	e7dd      	b.n	80073d0 <etharp_output_to_arp_index+0x54>
 8007414:	2000009c 	.word	0x2000009c
 8007418:	0800afbc 	.word	0x0800afbc
 800741c:	0800b0e8 	.word	0x0800b0e8
 8007420:	080095b5 	.word	0x080095b5
 8007424:	0800b4ac 	.word	0x0800b4ac

08007428 <etharp_query>:
 8007428:	e92d 47f3 	stmdb	sp!, {r0, r1, r4, r5, r6, r7, r8, r9, sl, lr}
 800742c:	4688      	mov	r8, r1
 800742e:	4606      	mov	r6, r0
 8007430:	4601      	mov	r1, r0
 8007432:	f8d8 0000 	ldr.w	r0, [r8]
 8007436:	4615      	mov	r5, r2
 8007438:	f000 fb97 	bl	8007b6a <ip4_addr_isbroadcast_u32>
 800743c:	2800      	cmp	r0, #0
 800743e:	d16b      	bne.n	8007518 <etharp_query+0xf0>
 8007440:	f8d8 3000 	ldr.w	r3, [r8]
 8007444:	f003 02f0 	and.w	r2, r3, #240	; 0xf0
 8007448:	2ae0      	cmp	r2, #224	; 0xe0
 800744a:	d065      	beq.n	8007518 <etharp_query+0xf0>
 800744c:	2b00      	cmp	r3, #0
 800744e:	d063      	beq.n	8007518 <etharp_query+0xf0>
 8007450:	4632      	mov	r2, r6
 8007452:	2101      	movs	r1, #1
 8007454:	4640      	mov	r0, r8
 8007456:	f7ff fd9d 	bl	8006f94 <etharp_find_entry>
 800745a:	1e04      	subs	r4, r0, #0
 800745c:	da03      	bge.n	8007466 <etharp_query+0x3e>
 800745e:	b260      	sxtb	r0, r4
 8007460:	b002      	add	sp, #8
 8007462:	e8bd 87f0 	ldmia.w	sp!, {r4, r5, r6, r7, r8, r9, sl, pc}
 8007466:	2c7e      	cmp	r4, #126	; 0x7e
 8007468:	dd06      	ble.n	8007478 <etharp_query+0x50>
 800746a:	4b35      	ldr	r3, [pc, #212]	; (8007540 <etharp_query+0x118>)
 800746c:	4935      	ldr	r1, [pc, #212]	; (8007544 <etharp_query+0x11c>)
 800746e:	4836      	ldr	r0, [pc, #216]	; (8007548 <etharp_query+0x120>)
 8007470:	f240 32c1 	movw	r2, #961	; 0x3c1
 8007474:	f001 f844 	bl	8008500 <iprintf>
 8007478:	4f34      	ldr	r7, [pc, #208]	; (800754c <etharp_query+0x124>)
 800747a:	b2e4      	uxtb	r4, r4
 800747c:	2218      	movs	r2, #24
 800747e:	fb02 7204 	mla	r2, r2, r4, r7
 8007482:	7d13      	ldrb	r3, [r2, #20]
 8007484:	2b00      	cmp	r3, #0
 8007486:	d156      	bne.n	8007536 <etharp_query+0x10e>
 8007488:	2301      	movs	r3, #1
 800748a:	7513      	strb	r3, [r2, #20]
 800748c:	6096      	str	r6, [r2, #8]
 800748e:	4641      	mov	r1, r8
 8007490:	4630      	mov	r0, r6
 8007492:	f7ff ff33 	bl	80072fc <etharp_request>
 8007496:	2d00      	cmp	r5, #0
 8007498:	d0e2      	beq.n	8007460 <etharp_query+0x38>
 800749a:	2318      	movs	r3, #24
 800749c:	fb03 7204 	mla	r2, r3, r4, r7
 80074a0:	7d12      	ldrb	r2, [r2, #20]
 80074a2:	2a01      	cmp	r2, #1
 80074a4:	d90e      	bls.n	80074c4 <etharp_query+0x9c>
 80074a6:	4a2a      	ldr	r2, [pc, #168]	; (8007550 <etharp_query+0x128>)
 80074a8:	fb03 7304 	mla	r3, r3, r4, r7
 80074ac:	7014      	strb	r4, [r2, #0]
 80074ae:	f44f 6200 	mov.w	r2, #2048	; 0x800
 80074b2:	9200      	str	r2, [sp, #0]
 80074b4:	330c      	adds	r3, #12
 80074b6:	f106 0226 	add.w	r2, r6, #38	; 0x26
 80074ba:	4629      	mov	r1, r5
 80074bc:	4630      	mov	r0, r6
 80074be:	f000 ff9f 	bl	8008400 <ethernet_output>
 80074c2:	e7cd      	b.n	8007460 <etharp_query+0x38>
 80074c4:	d1cc      	bne.n	8007460 <etharp_query+0x38>
 80074c6:	f8df 8078 	ldr.w	r8, [pc, #120]	; 8007540 <etharp_query+0x118>
 80074ca:	f8df 9088 	ldr.w	r9, [pc, #136]	; 8007554 <etharp_query+0x12c>
 80074ce:	f8df a078 	ldr.w	sl, [pc, #120]	; 8007548 <etharp_query+0x120>
 80074d2:	462e      	mov	r6, r5
 80074d4:	8972      	ldrh	r2, [r6, #10]
 80074d6:	8933      	ldrh	r3, [r6, #8]
 80074d8:	429a      	cmp	r2, r3
 80074da:	d108      	bne.n	80074ee <etharp_query+0xc6>
 80074dc:	6833      	ldr	r3, [r6, #0]
 80074de:	b133      	cbz	r3, 80074ee <etharp_query+0xc6>
 80074e0:	4643      	mov	r3, r8
 80074e2:	f240 32f1 	movw	r2, #1009	; 0x3f1
 80074e6:	4649      	mov	r1, r9
 80074e8:	4650      	mov	r0, sl
 80074ea:	f001 f809 	bl	8008500 <iprintf>
 80074ee:	7b33      	ldrb	r3, [r6, #12]
 80074f0:	065b      	lsls	r3, r3, #25
 80074f2:	d414      	bmi.n	800751e <etharp_query+0xf6>
 80074f4:	6836      	ldr	r6, [r6, #0]
 80074f6:	2e00      	cmp	r6, #0
 80074f8:	d1ec      	bne.n	80074d4 <etharp_query+0xac>
 80074fa:	4628      	mov	r0, r5
 80074fc:	f7fb fd0a 	bl	8002f14 <pbuf_ref>
 8007500:	2318      	movs	r3, #24
 8007502:	fb03 f204 	mul.w	r2, r3, r4
 8007506:	461e      	mov	r6, r3
 8007508:	58b8      	ldr	r0, [r7, r2]
 800750a:	b108      	cbz	r0, 8007510 <etharp_query+0xe8>
 800750c:	f7fb fbba 	bl	8002c84 <pbuf_free>
 8007510:	4374      	muls	r4, r6
 8007512:	2000      	movs	r0, #0
 8007514:	513d      	str	r5, [r7, r4]
 8007516:	e7a3      	b.n	8007460 <etharp_query+0x38>
 8007518:	f06f 000f 	mvn.w	r0, #15
 800751c:	e7a0      	b.n	8007460 <etharp_query+0x38>
 800751e:	462a      	mov	r2, r5
 8007520:	f44f 7120 	mov.w	r1, #640	; 0x280
 8007524:	200e      	movs	r0, #14
 8007526:	f7fb fe73 	bl	8003210 <pbuf_clone>
 800752a:	4605      	mov	r5, r0
 800752c:	2800      	cmp	r0, #0
 800752e:	d1e7      	bne.n	8007500 <etharp_query+0xd8>
 8007530:	f04f 30ff 	mov.w	r0, #4294967295
 8007534:	e794      	b.n	8007460 <etharp_query+0x38>
 8007536:	2d00      	cmp	r5, #0
 8007538:	d0a9      	beq.n	800748e <etharp_query+0x66>
 800753a:	f04f 30ff 	mov.w	r0, #4294967295
 800753e:	e7ac      	b.n	800749a <etharp_query+0x72>
 8007540:	0800afbc 	.word	0x0800afbc
 8007544:	0800b118 	.word	0x0800b118
 8007548:	080095b5 	.word	0x080095b5
 800754c:	2000009c 	.word	0x2000009c
 8007550:	2000018c 	.word	0x2000018c
 8007554:	0800b126 	.word	0x0800b126

08007558 <etharp_output>:
 8007558:	b5f0      	push	{r4, r5, r6, r7, lr}
 800755a:	460e      	mov	r6, r1
 800755c:	b085      	sub	sp, #20
 800755e:	4615      	mov	r5, r2
 8007560:	4604      	mov	r4, r0
 8007562:	b930      	cbnz	r0, 8007572 <etharp_output+0x1a>
 8007564:	4b41      	ldr	r3, [pc, #260]	; (800766c <etharp_output+0x114>)
 8007566:	4942      	ldr	r1, [pc, #264]	; (8007670 <etharp_output+0x118>)
 8007568:	4842      	ldr	r0, [pc, #264]	; (8007674 <etharp_output+0x11c>)
 800756a:	f240 321e 	movw	r2, #798	; 0x31e
 800756e:	f000 ffc7 	bl	8008500 <iprintf>
 8007572:	b936      	cbnz	r6, 8007582 <etharp_output+0x2a>
 8007574:	4b3d      	ldr	r3, [pc, #244]	; (800766c <etharp_output+0x114>)
 8007576:	4940      	ldr	r1, [pc, #256]	; (8007678 <etharp_output+0x120>)
 8007578:	483e      	ldr	r0, [pc, #248]	; (8007674 <etharp_output+0x11c>)
 800757a:	f240 321f 	movw	r2, #799	; 0x31f
 800757e:	f000 ffbf 	bl	8008500 <iprintf>
 8007582:	b935      	cbnz	r5, 8007592 <etharp_output+0x3a>
 8007584:	4b39      	ldr	r3, [pc, #228]	; (800766c <etharp_output+0x114>)
 8007586:	493d      	ldr	r1, [pc, #244]	; (800767c <etharp_output+0x124>)
 8007588:	483a      	ldr	r0, [pc, #232]	; (8007674 <etharp_output+0x11c>)
 800758a:	f44f 7248 	mov.w	r2, #800	; 0x320
 800758e:	f000 ffb7 	bl	8008500 <iprintf>
 8007592:	6828      	ldr	r0, [r5, #0]
 8007594:	4621      	mov	r1, r4
 8007596:	f000 fae8 	bl	8007b6a <ip4_addr_isbroadcast_u32>
 800759a:	2800      	cmp	r0, #0
 800759c:	d161      	bne.n	8007662 <etharp_output+0x10a>
 800759e:	682b      	ldr	r3, [r5, #0]
 80075a0:	f003 02f0 	and.w	r2, r3, #240	; 0xf0
 80075a4:	2ae0      	cmp	r2, #224	; 0xe0
 80075a6:	d11b      	bne.n	80075e0 <etharp_output+0x88>
 80075a8:	2301      	movs	r3, #1
 80075aa:	f8ad 3008 	strh.w	r3, [sp, #8]
 80075ae:	235e      	movs	r3, #94	; 0x5e
 80075b0:	f88d 300a 	strb.w	r3, [sp, #10]
 80075b4:	786b      	ldrb	r3, [r5, #1]
 80075b6:	f003 037f 	and.w	r3, r3, #127	; 0x7f
 80075ba:	f88d 300b 	strb.w	r3, [sp, #11]
 80075be:	78ab      	ldrb	r3, [r5, #2]
 80075c0:	f88d 300c 	strb.w	r3, [sp, #12]
 80075c4:	78eb      	ldrb	r3, [r5, #3]
 80075c6:	f88d 300d 	strb.w	r3, [sp, #13]
 80075ca:	ab02      	add	r3, sp, #8
 80075cc:	f44f 6200 	mov.w	r2, #2048	; 0x800
 80075d0:	9200      	str	r2, [sp, #0]
 80075d2:	4631      	mov	r1, r6
 80075d4:	f104 0226 	add.w	r2, r4, #38	; 0x26
 80075d8:	4620      	mov	r0, r4
 80075da:	f000 ff11 	bl	8008400 <ethernet_output>
 80075de:	e023      	b.n	8007628 <etharp_output+0xd0>
 80075e0:	6862      	ldr	r2, [r4, #4]
 80075e2:	68a1      	ldr	r1, [r4, #8]
 80075e4:	405a      	eors	r2, r3
 80075e6:	420a      	tst	r2, r1
 80075e8:	d009      	beq.n	80075fe <etharp_output+0xa6>
 80075ea:	b29b      	uxth	r3, r3
 80075ec:	f64f 62a9 	movw	r2, #65193	; 0xfea9
 80075f0:	4293      	cmp	r3, r2
 80075f2:	d004      	beq.n	80075fe <etharp_output+0xa6>
 80075f4:	68e3      	ldr	r3, [r4, #12]
 80075f6:	2b00      	cmp	r3, #0
 80075f8:	d035      	beq.n	8007666 <etharp_output+0x10e>
 80075fa:	f104 050c 	add.w	r5, r4, #12
 80075fe:	4920      	ldr	r1, [pc, #128]	; (8007680 <etharp_output+0x128>)
 8007600:	4820      	ldr	r0, [pc, #128]	; (8007684 <etharp_output+0x12c>)
 8007602:	780a      	ldrb	r2, [r1, #0]
 8007604:	2318      	movs	r3, #24
 8007606:	fb03 0302 	mla	r3, r3, r2, r0
 800760a:	468c      	mov	ip, r1
 800760c:	7d18      	ldrb	r0, [r3, #20]
 800760e:	2801      	cmp	r0, #1
 8007610:	d90c      	bls.n	800762c <etharp_output+0xd4>
 8007612:	6899      	ldr	r1, [r3, #8]
 8007614:	42a1      	cmp	r1, r4
 8007616:	d109      	bne.n	800762c <etharp_output+0xd4>
 8007618:	6829      	ldr	r1, [r5, #0]
 800761a:	685b      	ldr	r3, [r3, #4]
 800761c:	4299      	cmp	r1, r3
 800761e:	d105      	bne.n	800762c <etharp_output+0xd4>
 8007620:	4631      	mov	r1, r6
 8007622:	4620      	mov	r0, r4
 8007624:	f7ff feaa 	bl	800737c <etharp_output_to_arp_index>
 8007628:	b005      	add	sp, #20
 800762a:	bdf0      	pop	{r4, r5, r6, r7, pc}
 800762c:	4b15      	ldr	r3, [pc, #84]	; (8007684 <etharp_output+0x12c>)
 800762e:	2100      	movs	r1, #0
 8007630:	7d18      	ldrb	r0, [r3, #20]
 8007632:	2801      	cmp	r0, #1
 8007634:	b2ca      	uxtb	r2, r1
 8007636:	d909      	bls.n	800764c <etharp_output+0xf4>
 8007638:	6898      	ldr	r0, [r3, #8]
 800763a:	42a0      	cmp	r0, r4
 800763c:	d106      	bne.n	800764c <etharp_output+0xf4>
 800763e:	682f      	ldr	r7, [r5, #0]
 8007640:	6858      	ldr	r0, [r3, #4]
 8007642:	4287      	cmp	r7, r0
 8007644:	d102      	bne.n	800764c <etharp_output+0xf4>
 8007646:	f88c 2000 	strb.w	r2, [ip]
 800764a:	e7e9      	b.n	8007620 <etharp_output+0xc8>
 800764c:	3101      	adds	r1, #1
 800764e:	290a      	cmp	r1, #10
 8007650:	f103 0318 	add.w	r3, r3, #24
 8007654:	d1ec      	bne.n	8007630 <etharp_output+0xd8>
 8007656:	4632      	mov	r2, r6
 8007658:	4629      	mov	r1, r5
 800765a:	4620      	mov	r0, r4
 800765c:	f7ff fee4 	bl	8007428 <etharp_query>
 8007660:	e7e2      	b.n	8007628 <etharp_output+0xd0>
 8007662:	4b09      	ldr	r3, [pc, #36]	; (8007688 <etharp_output+0x130>)
 8007664:	e7b2      	b.n	80075cc <etharp_output+0x74>
 8007666:	f06f 0003 	mvn.w	r0, #3
 800766a:	e7dd      	b.n	8007628 <etharp_output+0xd0>
 800766c:	0800afbc 	.word	0x0800afbc
 8007670:	080095f9 	.word	0x080095f9
 8007674:	080095b5 	.word	0x080095b5
 8007678:	08009b4d 	.word	0x08009b4d
 800767c:	0800b0a5 	.word	0x0800b0a5
 8007680:	2000018c 	.word	0x2000018c
 8007684:	2000009c 	.word	0x2000009c
 8007688:	0800b4a6 	.word	0x0800b4a6

0800768c <icmp_send_response.isra.0>:
 800768c:	b5f0      	push	{r4, r5, r6, r7, lr}
 800768e:	4604      	mov	r4, r0
 8007690:	b087      	sub	sp, #28
 8007692:	460f      	mov	r7, r1
 8007694:	4616      	mov	r6, r2
 8007696:	2124      	movs	r1, #36	; 0x24
 8007698:	f44f 7220 	mov.w	r2, #640	; 0x280
 800769c:	2022      	movs	r0, #34	; 0x22
 800769e:	f7fb fb55 	bl	8002d4c <pbuf_alloc>
 80076a2:	4605      	mov	r5, r0
 80076a4:	b390      	cbz	r0, 800770c <icmp_send_response.isra.0+0x80>
 80076a6:	8943      	ldrh	r3, [r0, #10]
 80076a8:	2b23      	cmp	r3, #35	; 0x23
 80076aa:	d806      	bhi.n	80076ba <icmp_send_response.isra.0+0x2e>
 80076ac:	4b18      	ldr	r3, [pc, #96]	; (8007710 <icmp_send_response.isra.0+0x84>)
 80076ae:	4919      	ldr	r1, [pc, #100]	; (8007714 <icmp_send_response.isra.0+0x88>)
 80076b0:	4819      	ldr	r0, [pc, #100]	; (8007718 <icmp_send_response.isra.0+0x8c>)
 80076b2:	f44f 72b4 	mov.w	r2, #360	; 0x168
 80076b6:	f000 ff23 	bl	8008500 <iprintf>
 80076ba:	6820      	ldr	r0, [r4, #0]
 80076bc:	686c      	ldr	r4, [r5, #4]
 80076be:	2300      	movs	r3, #0
 80076c0:	7123      	strb	r3, [r4, #4]
 80076c2:	7163      	strb	r3, [r4, #5]
 80076c4:	71a3      	strb	r3, [r4, #6]
 80076c6:	71e3      	strb	r3, [r4, #7]
 80076c8:	7027      	strb	r7, [r4, #0]
 80076ca:	7066      	strb	r6, [r4, #1]
 80076cc:	4603      	mov	r3, r0
 80076ce:	f104 0208 	add.w	r2, r4, #8
 80076d2:	f100 011c 	add.w	r1, r0, #28
 80076d6:	f853 6b04 	ldr.w	r6, [r3], #4
 80076da:	f842 6b04 	str.w	r6, [r2], #4
 80076de:	428b      	cmp	r3, r1
 80076e0:	d1f9      	bne.n	80076d6 <icmp_send_response.isra.0+0x4a>
 80076e2:	68c3      	ldr	r3, [r0, #12]
 80076e4:	9305      	str	r3, [sp, #20]
 80076e6:	a805      	add	r0, sp, #20
 80076e8:	f000 f8d2 	bl	8007890 <ip4_route>
 80076ec:	b158      	cbz	r0, 8007706 <icmp_send_response.isra.0+0x7a>
 80076ee:	2100      	movs	r1, #0
 80076f0:	2301      	movs	r3, #1
 80076f2:	70a1      	strb	r1, [r4, #2]
 80076f4:	70e1      	strb	r1, [r4, #3]
 80076f6:	aa05      	add	r2, sp, #20
 80076f8:	e9cd 1300 	strd	r1, r3, [sp]
 80076fc:	9002      	str	r0, [sp, #8]
 80076fe:	23ff      	movs	r3, #255	; 0xff
 8007700:	4628      	mov	r0, r5
 8007702:	f000 fa21 	bl	8007b48 <ip4_output_if>
 8007706:	4628      	mov	r0, r5
 8007708:	f7fb fabc 	bl	8002c84 <pbuf_free>
 800770c:	b007      	add	sp, #28
 800770e:	bdf0      	pop	{r4, r5, r6, r7, pc}
 8007710:	0800b140 	.word	0x0800b140
 8007714:	0800b175 	.word	0x0800b175
 8007718:	080095b5 	.word	0x080095b5

0800771c <icmp_input>:
 800771c:	e92d 43f0 	stmdb	sp!, {r4, r5, r6, r7, r8, r9, lr}
 8007720:	4f43      	ldr	r7, [pc, #268]	; (8007830 <icmp_input+0x114>)
 8007722:	f8d7 9008 	ldr.w	r9, [r7, #8]
 8007726:	f899 5000 	ldrb.w	r5, [r9]
 800772a:	f005 050f 	and.w	r5, r5, #15
 800772e:	00ad      	lsls	r5, r5, #2
 8007730:	2d13      	cmp	r5, #19
 8007732:	b087      	sub	sp, #28
 8007734:	4604      	mov	r4, r0
 8007736:	4688      	mov	r8, r1
 8007738:	d92f      	bls.n	800779a <icmp_input+0x7e>
 800773a:	8943      	ldrh	r3, [r0, #10]
 800773c:	2b03      	cmp	r3, #3
 800773e:	d92c      	bls.n	800779a <icmp_input+0x7e>
 8007740:	6843      	ldr	r3, [r0, #4]
 8007742:	781b      	ldrb	r3, [r3, #0]
 8007744:	2b08      	cmp	r3, #8
 8007746:	d128      	bne.n	800779a <icmp_input+0x7e>
 8007748:	6978      	ldr	r0, [r7, #20]
 800774a:	f000 03f0 	and.w	r3, r0, #240	; 0xf0
 800774e:	2be0      	cmp	r3, #224	; 0xe0
 8007750:	d023      	beq.n	800779a <icmp_input+0x7e>
 8007752:	6839      	ldr	r1, [r7, #0]
 8007754:	f000 fa09 	bl	8007b6a <ip4_addr_isbroadcast_u32>
 8007758:	b9f8      	cbnz	r0, 800779a <icmp_input+0x7e>
 800775a:	8923      	ldrh	r3, [r4, #8]
 800775c:	2b07      	cmp	r3, #7
 800775e:	d91c      	bls.n	800779a <icmp_input+0x7e>
 8007760:	f105 010e 	add.w	r1, r5, #14
 8007764:	4620      	mov	r0, r4
 8007766:	9105      	str	r1, [sp, #20]
 8007768:	f7fb fa55 	bl	8002c16 <pbuf_add_header>
 800776c:	9905      	ldr	r1, [sp, #20]
 800776e:	2800      	cmp	r0, #0
 8007770:	d052      	beq.n	8007818 <icmp_input+0xfc>
 8007772:	8923      	ldrh	r3, [r4, #8]
 8007774:	1959      	adds	r1, r3, r5
 8007776:	b289      	uxth	r1, r1
 8007778:	428b      	cmp	r3, r1
 800777a:	d80e      	bhi.n	800779a <icmp_input+0x7e>
 800777c:	f44f 7220 	mov.w	r2, #640	; 0x280
 8007780:	200e      	movs	r0, #14
 8007782:	f7fb fae3 	bl	8002d4c <pbuf_alloc>
 8007786:	4606      	mov	r6, r0
 8007788:	b138      	cbz	r0, 800779a <icmp_input+0x7e>
 800778a:	8942      	ldrh	r2, [r0, #10]
 800778c:	f105 0308 	add.w	r3, r5, #8
 8007790:	429a      	cmp	r2, r3
 8007792:	d208      	bcs.n	80077a6 <icmp_input+0x8a>
 8007794:	4630      	mov	r0, r6
 8007796:	f7fb fa75 	bl	8002c84 <pbuf_free>
 800779a:	4620      	mov	r0, r4
 800779c:	b007      	add	sp, #28
 800779e:	e8bd 43f0 	ldmia.w	sp!, {r4, r5, r6, r7, r8, r9, lr}
 80077a2:	f7fb ba6f 	b.w	8002c84 <pbuf_free>
 80077a6:	4649      	mov	r1, r9
 80077a8:	6840      	ldr	r0, [r0, #4]
 80077aa:	462a      	mov	r2, r5
 80077ac:	f000 fe92 	bl	80084d4 <memcpy>
 80077b0:	4629      	mov	r1, r5
 80077b2:	4630      	mov	r0, r6
 80077b4:	f7fb fa32 	bl	8002c1c <pbuf_remove_header>
 80077b8:	b130      	cbz	r0, 80077c8 <icmp_input+0xac>
 80077ba:	4b1e      	ldr	r3, [pc, #120]	; (8007834 <icmp_input+0x118>)
 80077bc:	491e      	ldr	r1, [pc, #120]	; (8007838 <icmp_input+0x11c>)
 80077be:	481f      	ldr	r0, [pc, #124]	; (800783c <icmp_input+0x120>)
 80077c0:	22b6      	movs	r2, #182	; 0xb6
 80077c2:	f000 fe9d 	bl	8008500 <iprintf>
 80077c6:	e7e5      	b.n	8007794 <icmp_input+0x78>
 80077c8:	4621      	mov	r1, r4
 80077ca:	4630      	mov	r0, r6
 80077cc:	f7fb fbfa 	bl	8002fc4 <pbuf_copy>
 80077d0:	2800      	cmp	r0, #0
 80077d2:	d1df      	bne.n	8007794 <icmp_input+0x78>
 80077d4:	4620      	mov	r0, r4
 80077d6:	f7fb fa55 	bl	8002c84 <pbuf_free>
 80077da:	4634      	mov	r4, r6
 80077dc:	4629      	mov	r1, r5
 80077de:	4620      	mov	r0, r4
 80077e0:	6866      	ldr	r6, [r4, #4]
 80077e2:	f7fb fa18 	bl	8002c16 <pbuf_add_header>
 80077e6:	2800      	cmp	r0, #0
 80077e8:	d1d7      	bne.n	800779a <icmp_input+0x7e>
 80077ea:	6862      	ldr	r2, [r4, #4]
 80077ec:	697b      	ldr	r3, [r7, #20]
 80077ee:	60d3      	str	r3, [r2, #12]
 80077f0:	693b      	ldr	r3, [r7, #16]
 80077f2:	6113      	str	r3, [r2, #16]
 80077f4:	23ff      	movs	r3, #255	; 0xff
 80077f6:	7030      	strb	r0, [r6, #0]
 80077f8:	70b0      	strb	r0, [r6, #2]
 80077fa:	70f0      	strb	r0, [r6, #3]
 80077fc:	7213      	strb	r3, [r2, #8]
 80077fe:	7290      	strb	r0, [r2, #10]
 8007800:	72d0      	strb	r0, [r2, #11]
 8007802:	2201      	movs	r2, #1
 8007804:	e9cd 0200 	strd	r0, r2, [sp]
 8007808:	490d      	ldr	r1, [pc, #52]	; (8007840 <icmp_input+0x124>)
 800780a:	f8cd 8008 	str.w	r8, [sp, #8]
 800780e:	4602      	mov	r2, r0
 8007810:	4620      	mov	r0, r4
 8007812:	f000 f999 	bl	8007b48 <ip4_output_if>
 8007816:	e7c0      	b.n	800779a <icmp_input+0x7e>
 8007818:	4620      	mov	r0, r4
 800781a:	f7fb f9ff 	bl	8002c1c <pbuf_remove_header>
 800781e:	2800      	cmp	r0, #0
 8007820:	d0dc      	beq.n	80077dc <icmp_input+0xc0>
 8007822:	4b04      	ldr	r3, [pc, #16]	; (8007834 <icmp_input+0x118>)
 8007824:	4907      	ldr	r1, [pc, #28]	; (8007844 <icmp_input+0x128>)
 8007826:	4805      	ldr	r0, [pc, #20]	; (800783c <icmp_input+0x120>)
 8007828:	22c7      	movs	r2, #199	; 0xc7
 800782a:	f000 fe69 	bl	8008500 <iprintf>
 800782e:	e7b4      	b.n	800779a <icmp_input+0x7e>
 8007830:	20004660 	.word	0x20004660
 8007834:	0800b140 	.word	0x0800b140
 8007838:	0800b1a1 	.word	0x0800b1a1
 800783c:	080095b5 	.word	0x080095b5
 8007840:	20004674 	.word	0x20004674
 8007844:	0800b1d6 	.word	0x0800b1d6

08007848 <icmp_dest_unreach>:
 8007848:	460a      	mov	r2, r1
 800784a:	3004      	adds	r0, #4
 800784c:	2103      	movs	r1, #3
 800784e:	f7ff bf1d 	b.w	800768c <icmp_send_response.isra.0>

08007852 <icmp_time_exceeded>:
 8007852:	460a      	mov	r2, r1
 8007854:	3004      	adds	r0, #4
 8007856:	210b      	movs	r1, #11
 8007858:	f7ff bf18 	b.w	800768c <icmp_send_response.isra.0>

0800785c <ip4_input_accept>:
 800785c:	b508      	push	{r3, lr}
 800785e:	f890 302d 	ldrb.w	r3, [r0, #45]	; 0x2d
 8007862:	f013 0301 	ands.w	r3, r3, #1
 8007866:	4601      	mov	r1, r0
 8007868:	d00b      	beq.n	8007882 <ip4_input_accept+0x26>
 800786a:	6843      	ldr	r3, [r0, #4]
 800786c:	b14b      	cbz	r3, 8007882 <ip4_input_accept+0x26>
 800786e:	4a07      	ldr	r2, [pc, #28]	; (800788c <ip4_input_accept+0x30>)
 8007870:	6950      	ldr	r0, [r2, #20]
 8007872:	4283      	cmp	r3, r0
 8007874:	d007      	beq.n	8007886 <ip4_input_accept+0x2a>
 8007876:	f000 f978 	bl	8007b6a <ip4_addr_isbroadcast_u32>
 800787a:	3800      	subs	r0, #0
 800787c:	bf18      	it	ne
 800787e:	2001      	movne	r0, #1
 8007880:	bd08      	pop	{r3, pc}
 8007882:	4618      	mov	r0, r3
 8007884:	e7fc      	b.n	8007880 <ip4_input_accept+0x24>
 8007886:	2001      	movs	r0, #1
 8007888:	e7fa      	b.n	8007880 <ip4_input_accept+0x24>
 800788a:	bf00      	nop
 800788c:	20004660 	.word	0x20004660

08007890 <ip4_route>:
 8007890:	b530      	push	{r4, r5, lr}
 8007892:	4b14      	ldr	r3, [pc, #80]	; (80078e4 <ip4_route+0x54>)
 8007894:	4602      	mov	r2, r0
 8007896:	6818      	ldr	r0, [r3, #0]
 8007898:	b978      	cbnz	r0, 80078ba <ip4_route+0x2a>
 800789a:	4b13      	ldr	r3, [pc, #76]	; (80078e8 <ip4_route+0x58>)
 800789c:	681b      	ldr	r3, [r3, #0]
 800789e:	b15b      	cbz	r3, 80078b8 <ip4_route+0x28>
 80078a0:	f893 102d 	ldrb.w	r1, [r3, #45]	; 0x2d
 80078a4:	f001 0105 	and.w	r1, r1, #5
 80078a8:	2905      	cmp	r1, #5
 80078aa:	d105      	bne.n	80078b8 <ip4_route+0x28>
 80078ac:	6859      	ldr	r1, [r3, #4]
 80078ae:	b119      	cbz	r1, 80078b8 <ip4_route+0x28>
 80078b0:	7812      	ldrb	r2, [r2, #0]
 80078b2:	2a7f      	cmp	r2, #127	; 0x7f
 80078b4:	bf18      	it	ne
 80078b6:	4618      	movne	r0, r3
 80078b8:	bd30      	pop	{r4, r5, pc}
 80078ba:	f890 102d 	ldrb.w	r1, [r0, #45]	; 0x2d
 80078be:	07cd      	lsls	r5, r1, #31
 80078c0:	d50d      	bpl.n	80078de <ip4_route+0x4e>
 80078c2:	074c      	lsls	r4, r1, #29
 80078c4:	d50b      	bpl.n	80078de <ip4_route+0x4e>
 80078c6:	6843      	ldr	r3, [r0, #4]
 80078c8:	b14b      	cbz	r3, 80078de <ip4_route+0x4e>
 80078ca:	6814      	ldr	r4, [r2, #0]
 80078cc:	6885      	ldr	r5, [r0, #8]
 80078ce:	4063      	eors	r3, r4
 80078d0:	422b      	tst	r3, r5
 80078d2:	d0f1      	beq.n	80078b8 <ip4_route+0x28>
 80078d4:	078b      	lsls	r3, r1, #30
 80078d6:	d402      	bmi.n	80078de <ip4_route+0x4e>
 80078d8:	68c3      	ldr	r3, [r0, #12]
 80078da:	429c      	cmp	r4, r3
 80078dc:	d0ec      	beq.n	80078b8 <ip4_route+0x28>
 80078de:	6800      	ldr	r0, [r0, #0]
 80078e0:	e7da      	b.n	8007898 <ip4_route+0x8>
 80078e2:	bf00      	nop
 80078e4:	2000a784 	.word	0x2000a784
 80078e8:	2000a788 	.word	0x2000a788

080078ec <ip4_input>:
 80078ec:	e92d 43f8 	stmdb	sp!, {r3, r4, r5, r6, r7, r8, r9, lr}
 80078f0:	f8d0 8004 	ldr.w	r8, [r0, #4]
 80078f4:	f898 5000 	ldrb.w	r5, [r8]
 80078f8:	092b      	lsrs	r3, r5, #4
 80078fa:	2b04      	cmp	r3, #4
 80078fc:	4604      	mov	r4, r0
 80078fe:	460e      	mov	r6, r1
 8007900:	d005      	beq.n	800790e <ip4_input+0x22>
 8007902:	4620      	mov	r0, r4
 8007904:	f7fb f9be 	bl	8002c84 <pbuf_free>
 8007908:	2000      	movs	r0, #0
 800790a:	e8bd 83f8 	ldmia.w	sp!, {r3, r4, r5, r6, r7, r8, r9, pc}
 800790e:	f8b8 0002 	ldrh.w	r0, [r8, #2]
 8007912:	f7fa fcdf 	bl	80022d4 <lwip_htons>
 8007916:	8923      	ldrh	r3, [r4, #8]
 8007918:	f005 050f 	and.w	r5, r5, #15
 800791c:	ea4f 0985 	mov.w	r9, r5, lsl #2
 8007920:	4283      	cmp	r3, r0
 8007922:	464d      	mov	r5, r9
 8007924:	4607      	mov	r7, r0
 8007926:	d903      	bls.n	8007930 <ip4_input+0x44>
 8007928:	4601      	mov	r1, r0
 800792a:	4620      	mov	r0, r4
 800792c:	f7fb fa92 	bl	8002e54 <pbuf_realloc>
 8007930:	8963      	ldrh	r3, [r4, #10]
 8007932:	42ab      	cmp	r3, r5
 8007934:	d3e5      	bcc.n	8007902 <ip4_input+0x16>
 8007936:	8923      	ldrh	r3, [r4, #8]
 8007938:	42bb      	cmp	r3, r7
 800793a:	d3e2      	bcc.n	8007902 <ip4_input+0x16>
 800793c:	2d13      	cmp	r5, #19
 800793e:	d9e0      	bls.n	8007902 <ip4_input+0x16>
 8007940:	f8d8 3010 	ldr.w	r3, [r8, #16]
 8007944:	4d41      	ldr	r5, [pc, #260]	; (8007a4c <ip4_input+0x160>)
 8007946:	616b      	str	r3, [r5, #20]
 8007948:	f003 03f0 	and.w	r3, r3, #240	; 0xf0
 800794c:	f8d8 200c 	ldr.w	r2, [r8, #12]
 8007950:	612a      	str	r2, [r5, #16]
 8007952:	2be0      	cmp	r3, #224	; 0xe0
 8007954:	d13c      	bne.n	80079d0 <ip4_input+0xe4>
 8007956:	f896 302d 	ldrb.w	r3, [r6, #45]	; 0x2d
 800795a:	07db      	lsls	r3, r3, #31
 800795c:	d543      	bpl.n	80079e6 <ip4_input+0xfa>
 800795e:	6873      	ldr	r3, [r6, #4]
 8007960:	2b00      	cmp	r3, #0
 8007962:	d040      	beq.n	80079e6 <ip4_input+0xfa>
 8007964:	4637      	mov	r7, r6
 8007966:	6928      	ldr	r0, [r5, #16]
 8007968:	4631      	mov	r1, r6
 800796a:	f000 f8fe 	bl	8007b6a <ip4_addr_isbroadcast_u32>
 800796e:	2800      	cmp	r0, #0
 8007970:	d1c7      	bne.n	8007902 <ip4_input+0x16>
 8007972:	692b      	ldr	r3, [r5, #16]
 8007974:	f003 03f0 	and.w	r3, r3, #240	; 0xf0
 8007978:	2be0      	cmp	r3, #224	; 0xe0
 800797a:	d0c2      	beq.n	8007902 <ip4_input+0x16>
 800797c:	2f00      	cmp	r7, #0
 800797e:	d0c0      	beq.n	8007902 <ip4_input+0x16>
 8007980:	f8b8 3006 	ldrh.w	r3, [r8, #6]
 8007984:	f023 03c0 	bic.w	r3, r3, #192	; 0xc0
 8007988:	b13b      	cbz	r3, 800799a <ip4_input+0xae>
 800798a:	4620      	mov	r0, r4
 800798c:	f000 fa20 	bl	8007dd0 <ip4_reass>
 8007990:	4604      	mov	r4, r0
 8007992:	2800      	cmp	r0, #0
 8007994:	d0b8      	beq.n	8007908 <ip4_input+0x1c>
 8007996:	f8d0 8004 	ldr.w	r8, [r0, #4]
 800799a:	f8c5 8008 	str.w	r8, [r5, #8]
 800799e:	e9c5 7600 	strd	r7, r6, [r5]
 80079a2:	f898 3000 	ldrb.w	r3, [r8]
 80079a6:	f003 030f 	and.w	r3, r3, #15
 80079aa:	009b      	lsls	r3, r3, #2
 80079ac:	4649      	mov	r1, r9
 80079ae:	4620      	mov	r0, r4
 80079b0:	81ab      	strh	r3, [r5, #12]
 80079b2:	f7fb f933 	bl	8002c1c <pbuf_remove_header>
 80079b6:	f898 3009 	ldrb.w	r3, [r8, #9]
 80079ba:	2b06      	cmp	r3, #6
 80079bc:	d02b      	beq.n	8007a16 <ip4_input+0x12a>
 80079be:	2b11      	cmp	r3, #17
 80079c0:	d01d      	beq.n	80079fe <ip4_input+0x112>
 80079c2:	2b01      	cmp	r3, #1
 80079c4:	d12c      	bne.n	8007a20 <ip4_input+0x134>
 80079c6:	4631      	mov	r1, r6
 80079c8:	4620      	mov	r0, r4
 80079ca:	f7ff fea7 	bl	800771c <icmp_input>
 80079ce:	e01a      	b.n	8007a06 <ip4_input+0x11a>
 80079d0:	4630      	mov	r0, r6
 80079d2:	f7ff ff43 	bl	800785c <ip4_input_accept>
 80079d6:	2800      	cmp	r0, #0
 80079d8:	d1c4      	bne.n	8007964 <ip4_input+0x78>
 80079da:	7d2b      	ldrb	r3, [r5, #20]
 80079dc:	2b7f      	cmp	r3, #127	; 0x7f
 80079de:	d002      	beq.n	80079e6 <ip4_input+0xfa>
 80079e0:	4b1b      	ldr	r3, [pc, #108]	; (8007a50 <ip4_input+0x164>)
 80079e2:	681f      	ldr	r7, [r3, #0]
 80079e4:	b90f      	cbnz	r7, 80079ea <ip4_input+0xfe>
 80079e6:	2700      	movs	r7, #0
 80079e8:	e7bd      	b.n	8007966 <ip4_input+0x7a>
 80079ea:	42b7      	cmp	r7, r6
 80079ec:	d101      	bne.n	80079f2 <ip4_input+0x106>
 80079ee:	683f      	ldr	r7, [r7, #0]
 80079f0:	e7f8      	b.n	80079e4 <ip4_input+0xf8>
 80079f2:	4638      	mov	r0, r7
 80079f4:	f7ff ff32 	bl	800785c <ip4_input_accept>
 80079f8:	2800      	cmp	r0, #0
 80079fa:	d0f8      	beq.n	80079ee <ip4_input+0x102>
 80079fc:	e7b3      	b.n	8007966 <ip4_input+0x7a>
 80079fe:	4631      	mov	r1, r6
 8007a00:	4620      	mov	r0, r4
 8007a02:	f7ff f9c5 	bl	8006d90 <udp_input>
 8007a06:	2300      	movs	r3, #0
 8007a08:	e9c5 3300 	strd	r3, r3, [r5]
 8007a0c:	e9c5 3304 	strd	r3, r3, [r5, #16]
 8007a10:	60ab      	str	r3, [r5, #8]
 8007a12:	81ab      	strh	r3, [r5, #12]
 8007a14:	e778      	b.n	8007908 <ip4_input+0x1c>
 8007a16:	4631      	mov	r1, r6
 8007a18:	4620      	mov	r0, r4
 8007a1a:	f7fd fa09 	bl	8004e30 <tcp_input>
 8007a1e:	e7f2      	b.n	8007a06 <ip4_input+0x11a>
 8007a20:	6968      	ldr	r0, [r5, #20]
 8007a22:	4639      	mov	r1, r7
 8007a24:	f000 f8a1 	bl	8007b6a <ip4_addr_isbroadcast_u32>
 8007a28:	b960      	cbnz	r0, 8007a44 <ip4_input+0x158>
 8007a2a:	696b      	ldr	r3, [r5, #20]
 8007a2c:	f003 03f0 	and.w	r3, r3, #240	; 0xf0
 8007a30:	2be0      	cmp	r3, #224	; 0xe0
 8007a32:	d007      	beq.n	8007a44 <ip4_input+0x158>
 8007a34:	4649      	mov	r1, r9
 8007a36:	4620      	mov	r0, r4
 8007a38:	f7fb f91c 	bl	8002c74 <pbuf_header_force>
 8007a3c:	2102      	movs	r1, #2
 8007a3e:	4620      	mov	r0, r4
 8007a40:	f7ff ff02 	bl	8007848 <icmp_dest_unreach>
 8007a44:	4620      	mov	r0, r4
 8007a46:	f7fb f91d 	bl	8002c84 <pbuf_free>
 8007a4a:	e7dc      	b.n	8007a06 <ip4_input+0x11a>
 8007a4c:	20004660 	.word	0x20004660
 8007a50:	2000a784 	.word	0x2000a784

08007a54 <ip4_output_if_src>:
 8007a54:	e92d 47f3 	stmdb	sp!, {r0, r1, r4, r5, r6, r7, r8, r9, sl, lr}
 8007a58:	461f      	mov	r7, r3
 8007a5a:	89c3      	ldrh	r3, [r0, #14]
 8007a5c:	f8dd 8030 	ldr.w	r8, [sp, #48]	; 0x30
 8007a60:	2b01      	cmp	r3, #1
 8007a62:	4604      	mov	r4, r0
 8007a64:	4689      	mov	r9, r1
 8007a66:	4616      	mov	r6, r2
 8007a68:	d006      	beq.n	8007a78 <ip4_output_if_src+0x24>
 8007a6a:	4b31      	ldr	r3, [pc, #196]	; (8007b30 <ip4_output_if_src+0xdc>)
 8007a6c:	4931      	ldr	r1, [pc, #196]	; (8007b34 <ip4_output_if_src+0xe0>)
 8007a6e:	4832      	ldr	r0, [pc, #200]	; (8007b38 <ip4_output_if_src+0xe4>)
 8007a70:	f44f 7255 	mov.w	r2, #852	; 0x354
 8007a74:	f000 fd44 	bl	8008500 <iprintf>
 8007a78:	2e00      	cmp	r6, #0
 8007a7a:	d049      	beq.n	8007b10 <ip4_output_if_src+0xbc>
 8007a7c:	2114      	movs	r1, #20
 8007a7e:	4620      	mov	r0, r4
 8007a80:	f7fb f8c9 	bl	8002c16 <pbuf_add_header>
 8007a84:	b120      	cbz	r0, 8007a90 <ip4_output_if_src+0x3c>
 8007a86:	f06f 0001 	mvn.w	r0, #1
 8007a8a:	b002      	add	sp, #8
 8007a8c:	e8bd 87f0 	ldmia.w	sp!, {r4, r5, r6, r7, r8, r9, sl, pc}
 8007a90:	8963      	ldrh	r3, [r4, #10]
 8007a92:	6865      	ldr	r5, [r4, #4]
 8007a94:	2b13      	cmp	r3, #19
 8007a96:	d806      	bhi.n	8007aa6 <ip4_output_if_src+0x52>
 8007a98:	4b25      	ldr	r3, [pc, #148]	; (8007b30 <ip4_output_if_src+0xdc>)
 8007a9a:	4928      	ldr	r1, [pc, #160]	; (8007b3c <ip4_output_if_src+0xe8>)
 8007a9c:	4826      	ldr	r0, [pc, #152]	; (8007b38 <ip4_output_if_src+0xe4>)
 8007a9e:	f44f 7262 	mov.w	r2, #904	; 0x388
 8007aa2:	f000 fd2d 	bl	8008500 <iprintf>
 8007aa6:	f89d 302c 	ldrb.w	r3, [sp, #44]	; 0x2c
 8007aaa:	722f      	strb	r7, [r5, #8]
 8007aac:	726b      	strb	r3, [r5, #9]
 8007aae:	6833      	ldr	r3, [r6, #0]
 8007ab0:	612b      	str	r3, [r5, #16]
 8007ab2:	2345      	movs	r3, #69	; 0x45
 8007ab4:	702b      	strb	r3, [r5, #0]
 8007ab6:	f89d 3028 	ldrb.w	r3, [sp, #40]	; 0x28
 8007aba:	706b      	strb	r3, [r5, #1]
 8007abc:	8920      	ldrh	r0, [r4, #8]
 8007abe:	f8df a084 	ldr.w	sl, [pc, #132]	; 8007b44 <ip4_output_if_src+0xf0>
 8007ac2:	f7fa fc07 	bl	80022d4 <lwip_htons>
 8007ac6:	2700      	movs	r7, #0
 8007ac8:	8068      	strh	r0, [r5, #2]
 8007aca:	71af      	strb	r7, [r5, #6]
 8007acc:	f8ba 0000 	ldrh.w	r0, [sl]
 8007ad0:	71ef      	strb	r7, [r5, #7]
 8007ad2:	f7fa fbff 	bl	80022d4 <lwip_htons>
 8007ad6:	f8ba 3000 	ldrh.w	r3, [sl]
 8007ada:	80a8      	strh	r0, [r5, #4]
 8007adc:	3301      	adds	r3, #1
 8007ade:	f8aa 3000 	strh.w	r3, [sl]
 8007ae2:	f1b9 0f00 	cmp.w	r9, #0
 8007ae6:	d110      	bne.n	8007b0a <ip4_output_if_src+0xb6>
 8007ae8:	4b15      	ldr	r3, [pc, #84]	; (8007b40 <ip4_output_if_src+0xec>)
 8007aea:	681b      	ldr	r3, [r3, #0]
 8007aec:	60eb      	str	r3, [r5, #12]
 8007aee:	72af      	strb	r7, [r5, #10]
 8007af0:	72ef      	strb	r7, [r5, #11]
 8007af2:	f8b8 3024 	ldrh.w	r3, [r8, #36]	; 0x24
 8007af6:	b19b      	cbz	r3, 8007b20 <ip4_output_if_src+0xcc>
 8007af8:	8922      	ldrh	r2, [r4, #8]
 8007afa:	429a      	cmp	r2, r3
 8007afc:	d910      	bls.n	8007b20 <ip4_output_if_src+0xcc>
 8007afe:	4632      	mov	r2, r6
 8007b00:	4641      	mov	r1, r8
 8007b02:	4620      	mov	r0, r4
 8007b04:	f000 fb40 	bl	8008188 <ip4_frag>
 8007b08:	e7bf      	b.n	8007a8a <ip4_output_if_src+0x36>
 8007b0a:	f8d9 3000 	ldr.w	r3, [r9]
 8007b0e:	e7ed      	b.n	8007aec <ip4_output_if_src+0x98>
 8007b10:	8963      	ldrh	r3, [r4, #10]
 8007b12:	2b13      	cmp	r3, #19
 8007b14:	d9b7      	bls.n	8007a86 <ip4_output_if_src+0x32>
 8007b16:	6863      	ldr	r3, [r4, #4]
 8007b18:	691b      	ldr	r3, [r3, #16]
 8007b1a:	9301      	str	r3, [sp, #4]
 8007b1c:	ae01      	add	r6, sp, #4
 8007b1e:	e7e8      	b.n	8007af2 <ip4_output_if_src+0x9e>
 8007b20:	f8d8 3014 	ldr.w	r3, [r8, #20]
 8007b24:	4632      	mov	r2, r6
 8007b26:	4621      	mov	r1, r4
 8007b28:	4640      	mov	r0, r8
 8007b2a:	4798      	blx	r3
 8007b2c:	e7ad      	b.n	8007a8a <ip4_output_if_src+0x36>
 8007b2e:	bf00      	nop
 8007b30:	0800b208 	.word	0x0800b208
 8007b34:	0800b23c 	.word	0x0800b23c
 8007b38:	080095b5 	.word	0x080095b5
 8007b3c:	0800b248 	.word	0x0800b248
 8007b40:	0800b278 	.word	0x0800b278
 8007b44:	2000018e 	.word	0x2000018e

08007b48 <ip4_output_if>:
 8007b48:	b4f0      	push	{r4, r5, r6, r7}
 8007b4a:	9c06      	ldr	r4, [sp, #24]
 8007b4c:	f89d 5010 	ldrb.w	r5, [sp, #16]
 8007b50:	f89d 6014 	ldrb.w	r6, [sp, #20]
 8007b54:	b11a      	cbz	r2, 8007b5e <ip4_output_if+0x16>
 8007b56:	b109      	cbz	r1, 8007b5c <ip4_output_if+0x14>
 8007b58:	680f      	ldr	r7, [r1, #0]
 8007b5a:	b907      	cbnz	r7, 8007b5e <ip4_output_if+0x16>
 8007b5c:	1d21      	adds	r1, r4, #4
 8007b5e:	e9cd 6405 	strd	r6, r4, [sp, #20]
 8007b62:	9504      	str	r5, [sp, #16]
 8007b64:	bcf0      	pop	{r4, r5, r6, r7}
 8007b66:	f7ff bf75 	b.w	8007a54 <ip4_output_if_src>

08007b6a <ip4_addr_isbroadcast_u32>:
 8007b6a:	1e43      	subs	r3, r0, #1
 8007b6c:	3303      	adds	r3, #3
 8007b6e:	4602      	mov	r2, r0
 8007b70:	d812      	bhi.n	8007b98 <ip4_addr_isbroadcast_u32+0x2e>
 8007b72:	f891 302d 	ldrb.w	r3, [r1, #45]	; 0x2d
 8007b76:	f013 0002 	ands.w	r0, r3, #2
 8007b7a:	d010      	beq.n	8007b9e <ip4_addr_isbroadcast_u32+0x34>
 8007b7c:	684b      	ldr	r3, [r1, #4]
 8007b7e:	4293      	cmp	r3, r2
 8007b80:	d00c      	beq.n	8007b9c <ip4_addr_isbroadcast_u32+0x32>
 8007b82:	6888      	ldr	r0, [r1, #8]
 8007b84:	4053      	eors	r3, r2
 8007b86:	4203      	tst	r3, r0
 8007b88:	d108      	bne.n	8007b9c <ip4_addr_isbroadcast_u32+0x32>
 8007b8a:	43c3      	mvns	r3, r0
 8007b8c:	ea22 0000 	bic.w	r0, r2, r0
 8007b90:	1ac3      	subs	r3, r0, r3
 8007b92:	4258      	negs	r0, r3
 8007b94:	4158      	adcs	r0, r3
 8007b96:	4770      	bx	lr
 8007b98:	2001      	movs	r0, #1
 8007b9a:	4770      	bx	lr
 8007b9c:	2000      	movs	r0, #0
 8007b9e:	4770      	bx	lr

08007ba0 <ip_reass_dequeue_datagram>:
 8007ba0:	b538      	push	{r3, r4, r5, lr}
 8007ba2:	4b0c      	ldr	r3, [pc, #48]	; (8007bd4 <ip_reass_dequeue_datagram+0x34>)
 8007ba4:	681a      	ldr	r2, [r3, #0]
 8007ba6:	4282      	cmp	r2, r0
 8007ba8:	4604      	mov	r4, r0
 8007baa:	460d      	mov	r5, r1
 8007bac:	d107      	bne.n	8007bbe <ip_reass_dequeue_datagram+0x1e>
 8007bae:	6802      	ldr	r2, [r0, #0]
 8007bb0:	601a      	str	r2, [r3, #0]
 8007bb2:	4621      	mov	r1, r4
 8007bb4:	2004      	movs	r0, #4
 8007bb6:	e8bd 4038 	ldmia.w	sp!, {r3, r4, r5, lr}
 8007bba:	f7fa be25 	b.w	8002808 <memp_free>
 8007bbe:	b931      	cbnz	r1, 8007bce <ip_reass_dequeue_datagram+0x2e>
 8007bc0:	4b05      	ldr	r3, [pc, #20]	; (8007bd8 <ip_reass_dequeue_datagram+0x38>)
 8007bc2:	4906      	ldr	r1, [pc, #24]	; (8007bdc <ip_reass_dequeue_datagram+0x3c>)
 8007bc4:	4806      	ldr	r0, [pc, #24]	; (8007be0 <ip_reass_dequeue_datagram+0x40>)
 8007bc6:	f240 1245 	movw	r2, #325	; 0x145
 8007bca:	f000 fc99 	bl	8008500 <iprintf>
 8007bce:	6823      	ldr	r3, [r4, #0]
 8007bd0:	602b      	str	r3, [r5, #0]
 8007bd2:	e7ee      	b.n	8007bb2 <ip_reass_dequeue_datagram+0x12>
 8007bd4:	20000194 	.word	0x20000194
 8007bd8:	0800b27c 	.word	0x0800b27c
 8007bdc:	0800b2b5 	.word	0x0800b2b5
 8007be0:	080095b5 	.word	0x080095b5

08007be4 <ip_reass_free_complete_datagram>:
 8007be4:	4281      	cmp	r1, r0
 8007be6:	e92d 4ff8 	stmdb	sp!, {r3, r4, r5, r6, r7, r8, r9, sl, fp, lr}
 8007bea:	4604      	mov	r4, r0
 8007bec:	460e      	mov	r6, r1
 8007bee:	d105      	bne.n	8007bfc <ip_reass_free_complete_datagram+0x18>
 8007bf0:	4b2f      	ldr	r3, [pc, #188]	; (8007cb0 <ip_reass_free_complete_datagram+0xcc>)
 8007bf2:	4930      	ldr	r1, [pc, #192]	; (8007cb4 <ip_reass_free_complete_datagram+0xd0>)
 8007bf4:	4830      	ldr	r0, [pc, #192]	; (8007cb8 <ip_reass_free_complete_datagram+0xd4>)
 8007bf6:	22ab      	movs	r2, #171	; 0xab
 8007bf8:	f000 fc82 	bl	8008500 <iprintf>
 8007bfc:	b146      	cbz	r6, 8007c10 <ip_reass_free_complete_datagram+0x2c>
 8007bfe:	6833      	ldr	r3, [r6, #0]
 8007c00:	42a3      	cmp	r3, r4
 8007c02:	d005      	beq.n	8007c10 <ip_reass_free_complete_datagram+0x2c>
 8007c04:	4b2a      	ldr	r3, [pc, #168]	; (8007cb0 <ip_reass_free_complete_datagram+0xcc>)
 8007c06:	492d      	ldr	r1, [pc, #180]	; (8007cbc <ip_reass_free_complete_datagram+0xd8>)
 8007c08:	482b      	ldr	r0, [pc, #172]	; (8007cb8 <ip_reass_free_complete_datagram+0xd4>)
 8007c0a:	22ad      	movs	r2, #173	; 0xad
 8007c0c:	f000 fc78 	bl	8008500 <iprintf>
 8007c10:	6867      	ldr	r7, [r4, #4]
 8007c12:	687b      	ldr	r3, [r7, #4]
 8007c14:	889a      	ldrh	r2, [r3, #4]
 8007c16:	bb92      	cbnz	r2, 8007c7e <ip_reass_free_complete_datagram+0x9a>
 8007c18:	681a      	ldr	r2, [r3, #0]
 8007c1a:	6062      	str	r2, [r4, #4]
 8007c1c:	f104 011c 	add.w	r1, r4, #28
 8007c20:	f104 0208 	add.w	r2, r4, #8
 8007c24:	f852 0b04 	ldr.w	r0, [r2], #4
 8007c28:	f843 0b04 	str.w	r0, [r3], #4
 8007c2c:	428a      	cmp	r2, r1
 8007c2e:	d1f9      	bne.n	8007c24 <ip_reass_free_complete_datagram+0x40>
 8007c30:	2101      	movs	r1, #1
 8007c32:	4638      	mov	r0, r7
 8007c34:	f7ff fe0d 	bl	8007852 <icmp_time_exceeded>
 8007c38:	4638      	mov	r0, r7
 8007c3a:	f7fb f963 	bl	8002f04 <pbuf_clen>
 8007c3e:	4605      	mov	r5, r0
 8007c40:	4638      	mov	r0, r7
 8007c42:	f7fb f81f 	bl	8002c84 <pbuf_free>
 8007c46:	6867      	ldr	r7, [r4, #4]
 8007c48:	f8df 8064 	ldr.w	r8, [pc, #100]	; 8007cb0 <ip_reass_free_complete_datagram+0xcc>
 8007c4c:	f8df 9078 	ldr.w	r9, [pc, #120]	; 8007cc8 <ip_reass_free_complete_datagram+0xe4>
 8007c50:	f8df a064 	ldr.w	sl, [pc, #100]	; 8007cb8 <ip_reass_free_complete_datagram+0xd4>
 8007c54:	b9af      	cbnz	r7, 8007c82 <ip_reass_free_complete_datagram+0x9e>
 8007c56:	4620      	mov	r0, r4
 8007c58:	4c19      	ldr	r4, [pc, #100]	; (8007cc0 <ip_reass_free_complete_datagram+0xdc>)
 8007c5a:	4631      	mov	r1, r6
 8007c5c:	f7ff ffa0 	bl	8007ba0 <ip_reass_dequeue_datagram>
 8007c60:	8823      	ldrh	r3, [r4, #0]
 8007c62:	42ab      	cmp	r3, r5
 8007c64:	d205      	bcs.n	8007c72 <ip_reass_free_complete_datagram+0x8e>
 8007c66:	4b12      	ldr	r3, [pc, #72]	; (8007cb0 <ip_reass_free_complete_datagram+0xcc>)
 8007c68:	4916      	ldr	r1, [pc, #88]	; (8007cc4 <ip_reass_free_complete_datagram+0xe0>)
 8007c6a:	4813      	ldr	r0, [pc, #76]	; (8007cb8 <ip_reass_free_complete_datagram+0xd4>)
 8007c6c:	22d2      	movs	r2, #210	; 0xd2
 8007c6e:	f000 fc47 	bl	8008500 <iprintf>
 8007c72:	8823      	ldrh	r3, [r4, #0]
 8007c74:	1b5b      	subs	r3, r3, r5
 8007c76:	8023      	strh	r3, [r4, #0]
 8007c78:	4628      	mov	r0, r5
 8007c7a:	e8bd 8ff8 	ldmia.w	sp!, {r3, r4, r5, r6, r7, r8, r9, sl, fp, pc}
 8007c7e:	2500      	movs	r5, #0
 8007c80:	e7e1      	b.n	8007c46 <ip_reass_free_complete_datagram+0x62>
 8007c82:	687b      	ldr	r3, [r7, #4]
 8007c84:	4638      	mov	r0, r7
 8007c86:	f8d3 b000 	ldr.w	fp, [r3]
 8007c8a:	f7fb f93b 	bl	8002f04 <pbuf_clen>
 8007c8e:	4405      	add	r5, r0
 8007c90:	f5b5 3f80 	cmp.w	r5, #65536	; 0x10000
 8007c94:	db05      	blt.n	8007ca2 <ip_reass_free_complete_datagram+0xbe>
 8007c96:	4643      	mov	r3, r8
 8007c98:	22cc      	movs	r2, #204	; 0xcc
 8007c9a:	4649      	mov	r1, r9
 8007c9c:	4650      	mov	r0, sl
 8007c9e:	f000 fc2f 	bl	8008500 <iprintf>
 8007ca2:	4638      	mov	r0, r7
 8007ca4:	f7fa ffee 	bl	8002c84 <pbuf_free>
 8007ca8:	b2ad      	uxth	r5, r5
 8007caa:	465f      	mov	r7, fp
 8007cac:	e7d2      	b.n	8007c54 <ip_reass_free_complete_datagram+0x70>
 8007cae:	bf00      	nop
 8007cb0:	0800b27c 	.word	0x0800b27c
 8007cb4:	0800b2ce 	.word	0x0800b2ce
 8007cb8:	080095b5 	.word	0x080095b5
 8007cbc:	0800b2da 	.word	0x0800b2da
 8007cc0:	20000190 	.word	0x20000190
 8007cc4:	0800b309 	.word	0x0800b309
 8007cc8:	0800b2ec 	.word	0x0800b2ec

08007ccc <ip_reass_remove_oldest_datagram>:
 8007ccc:	e92d 41f0 	stmdb	sp!, {r4, r5, r6, r7, r8, lr}
 8007cd0:	f8df 806c 	ldr.w	r8, [pc, #108]	; 8007d40 <ip_reass_remove_oldest_datagram+0x74>
 8007cd4:	4605      	mov	r5, r0
 8007cd6:	460f      	mov	r7, r1
 8007cd8:	2600      	movs	r6, #0
 8007cda:	2400      	movs	r4, #0
 8007cdc:	f8d8 3000 	ldr.w	r3, [r8]
 8007ce0:	4621      	mov	r1, r4
 8007ce2:	46a4      	mov	ip, r4
 8007ce4:	4620      	mov	r0, r4
 8007ce6:	b953      	cbnz	r3, 8007cfe <ip_reass_remove_oldest_datagram+0x32>
 8007ce8:	b110      	cbz	r0, 8007cf0 <ip_reass_remove_oldest_datagram+0x24>
 8007cea:	f7ff ff7b 	bl	8007be4 <ip_reass_free_complete_datagram>
 8007cee:	4406      	add	r6, r0
 8007cf0:	42be      	cmp	r6, r7
 8007cf2:	da01      	bge.n	8007cf8 <ip_reass_remove_oldest_datagram+0x2c>
 8007cf4:	2c01      	cmp	r4, #1
 8007cf6:	dcf0      	bgt.n	8007cda <ip_reass_remove_oldest_datagram+0xe>
 8007cf8:	4630      	mov	r0, r6
 8007cfa:	e8bd 81f0 	ldmia.w	sp!, {r4, r5, r6, r7, r8, pc}
 8007cfe:	f8d5 e00c 	ldr.w	lr, [r5, #12]
 8007d02:	695a      	ldr	r2, [r3, #20]
 8007d04:	4572      	cmp	r2, lr
 8007d06:	d109      	bne.n	8007d1c <ip_reass_remove_oldest_datagram+0x50>
 8007d08:	f8d5 e010 	ldr.w	lr, [r5, #16]
 8007d0c:	699a      	ldr	r2, [r3, #24]
 8007d0e:	4572      	cmp	r2, lr
 8007d10:	d104      	bne.n	8007d1c <ip_reass_remove_oldest_datagram+0x50>
 8007d12:	f8b3 e00c 	ldrh.w	lr, [r3, #12]
 8007d16:	88aa      	ldrh	r2, [r5, #4]
 8007d18:	4596      	cmp	lr, r2
 8007d1a:	d008      	beq.n	8007d2e <ip_reass_remove_oldest_datagram+0x62>
 8007d1c:	3401      	adds	r4, #1
 8007d1e:	b160      	cbz	r0, 8007d3a <ip_reass_remove_oldest_datagram+0x6e>
 8007d20:	7fc2      	ldrb	r2, [r0, #31]
 8007d22:	f893 e01f 	ldrb.w	lr, [r3, #31]
 8007d26:	4596      	cmp	lr, r2
 8007d28:	bf9c      	itt	ls
 8007d2a:	4661      	movls	r1, ip
 8007d2c:	4618      	movls	r0, r3
 8007d2e:	681a      	ldr	r2, [r3, #0]
 8007d30:	2a00      	cmp	r2, #0
 8007d32:	bf18      	it	ne
 8007d34:	469c      	movne	ip, r3
 8007d36:	4613      	mov	r3, r2
 8007d38:	e7d5      	b.n	8007ce6 <ip_reass_remove_oldest_datagram+0x1a>
 8007d3a:	4661      	mov	r1, ip
 8007d3c:	4618      	mov	r0, r3
 8007d3e:	e7f6      	b.n	8007d2e <ip_reass_remove_oldest_datagram+0x62>
 8007d40:	20000194 	.word	0x20000194

08007d44 <ip_frag_free_pbuf_custom_ref>:
 8007d44:	b510      	push	{r4, lr}
 8007d46:	4604      	mov	r4, r0
 8007d48:	b930      	cbnz	r0, 8007d58 <ip_frag_free_pbuf_custom_ref+0x14>
 8007d4a:	4b06      	ldr	r3, [pc, #24]	; (8007d64 <ip_frag_free_pbuf_custom_ref+0x20>)
 8007d4c:	4906      	ldr	r1, [pc, #24]	; (8007d68 <ip_frag_free_pbuf_custom_ref+0x24>)
 8007d4e:	4807      	ldr	r0, [pc, #28]	; (8007d6c <ip_frag_free_pbuf_custom_ref+0x28>)
 8007d50:	f44f 7231 	mov.w	r2, #708	; 0x2c4
 8007d54:	f000 fbd4 	bl	8008500 <iprintf>
 8007d58:	4621      	mov	r1, r4
 8007d5a:	2005      	movs	r0, #5
 8007d5c:	e8bd 4010 	ldmia.w	sp!, {r4, lr}
 8007d60:	f7fa bd52 	b.w	8002808 <memp_free>
 8007d64:	0800b27c 	.word	0x0800b27c
 8007d68:	08009b35 	.word	0x08009b35
 8007d6c:	080095b5 	.word	0x080095b5

08007d70 <ipfrag_free_pbuf_custom>:
 8007d70:	b510      	push	{r4, lr}
 8007d72:	4604      	mov	r4, r0
 8007d74:	b930      	cbnz	r0, 8007d84 <ipfrag_free_pbuf_custom+0x14>
 8007d76:	4b08      	ldr	r3, [pc, #32]	; (8007d98 <ipfrag_free_pbuf_custom+0x28>)
 8007d78:	4908      	ldr	r1, [pc, #32]	; (8007d9c <ipfrag_free_pbuf_custom+0x2c>)
 8007d7a:	4809      	ldr	r0, [pc, #36]	; (8007da0 <ipfrag_free_pbuf_custom+0x30>)
 8007d7c:	f240 22ce 	movw	r2, #718	; 0x2ce
 8007d80:	f000 fbbe 	bl	8008500 <iprintf>
 8007d84:	69a0      	ldr	r0, [r4, #24]
 8007d86:	b108      	cbz	r0, 8007d8c <ipfrag_free_pbuf_custom+0x1c>
 8007d88:	f7fa ff7c 	bl	8002c84 <pbuf_free>
 8007d8c:	4620      	mov	r0, r4
 8007d8e:	e8bd 4010 	ldmia.w	sp!, {r4, lr}
 8007d92:	f7ff bfd7 	b.w	8007d44 <ip_frag_free_pbuf_custom_ref>
 8007d96:	bf00      	nop
 8007d98:	0800b27c 	.word	0x0800b27c
 8007d9c:	0800b32b 	.word	0x0800b32b
 8007da0:	080095b5 	.word	0x080095b5

08007da4 <ip_reass_tmr>:
 8007da4:	b538      	push	{r3, r4, r5, lr}
 8007da6:	4b09      	ldr	r3, [pc, #36]	; (8007dcc <ip_reass_tmr+0x28>)
 8007da8:	6818      	ldr	r0, [r3, #0]
 8007daa:	2400      	movs	r4, #0
 8007dac:	b900      	cbnz	r0, 8007db0 <ip_reass_tmr+0xc>
 8007dae:	bd38      	pop	{r3, r4, r5, pc}
 8007db0:	7fc3      	ldrb	r3, [r0, #31]
 8007db2:	6805      	ldr	r5, [r0, #0]
 8007db4:	b123      	cbz	r3, 8007dc0 <ip_reass_tmr+0x1c>
 8007db6:	3b01      	subs	r3, #1
 8007db8:	77c3      	strb	r3, [r0, #31]
 8007dba:	4604      	mov	r4, r0
 8007dbc:	4628      	mov	r0, r5
 8007dbe:	e7f5      	b.n	8007dac <ip_reass_tmr+0x8>
 8007dc0:	4621      	mov	r1, r4
 8007dc2:	f7ff ff0f 	bl	8007be4 <ip_reass_free_complete_datagram>
 8007dc6:	4620      	mov	r0, r4
 8007dc8:	e7f7      	b.n	8007dba <ip_reass_tmr+0x16>
 8007dca:	bf00      	nop
 8007dcc:	20000194 	.word	0x20000194

08007dd0 <ip4_reass>:
 8007dd0:	e92d 4ff7 	stmdb	sp!, {r0, r1, r2, r4, r5, r6, r7, r8, r9, sl, fp, lr}
 8007dd4:	6845      	ldr	r5, [r0, #4]
 8007dd6:	782b      	ldrb	r3, [r5, #0]
 8007dd8:	f003 030f 	and.w	r3, r3, #15
 8007ddc:	2b05      	cmp	r3, #5
 8007dde:	4680      	mov	r8, r0
 8007de0:	f040 80a0 	bne.w	8007f24 <ip4_reass+0x154>
 8007de4:	88e8      	ldrh	r0, [r5, #6]
 8007de6:	f7fa fa75 	bl	80022d4 <lwip_htons>
 8007dea:	4606      	mov	r6, r0
 8007dec:	8868      	ldrh	r0, [r5, #2]
 8007dee:	f7fa fa71 	bl	80022d4 <lwip_htons>
 8007df2:	782a      	ldrb	r2, [r5, #0]
 8007df4:	f002 020f 	and.w	r2, r2, #15
 8007df8:	ebb0 0f82 	cmp.w	r0, r2, lsl #2
 8007dfc:	ea4f 0382 	mov.w	r3, r2, lsl #2
 8007e00:	f0c0 8090 	bcc.w	8007f24 <ip4_reass+0x154>
 8007e04:	1ac3      	subs	r3, r0, r3
 8007e06:	b29b      	uxth	r3, r3
 8007e08:	4cb6      	ldr	r4, [pc, #728]	; (80080e4 <ip4_reass+0x314>)
 8007e0a:	9301      	str	r3, [sp, #4]
 8007e0c:	4640      	mov	r0, r8
 8007e0e:	f7fb f879 	bl	8002f04 <pbuf_clen>
 8007e12:	8823      	ldrh	r3, [r4, #0]
 8007e14:	4403      	add	r3, r0
 8007e16:	2b0a      	cmp	r3, #10
 8007e18:	4681      	mov	r9, r0
 8007e1a:	dc79      	bgt.n	8007f10 <ip4_reass+0x140>
 8007e1c:	4fb2      	ldr	r7, [pc, #712]	; (80080e8 <ip4_reass+0x318>)
 8007e1e:	683c      	ldr	r4, [r7, #0]
 8007e20:	2c00      	cmp	r4, #0
 8007e22:	f040 8084 	bne.w	8007f2e <ip4_reass+0x15e>
 8007e26:	2004      	movs	r0, #4
 8007e28:	f7fa fcd2 	bl	80027d0 <memp_malloc>
 8007e2c:	4604      	mov	r4, r0
 8007e2e:	b958      	cbnz	r0, 8007e48 <ip4_reass+0x78>
 8007e30:	4649      	mov	r1, r9
 8007e32:	4628      	mov	r0, r5
 8007e34:	f7ff ff4a 	bl	8007ccc <ip_reass_remove_oldest_datagram>
 8007e38:	4581      	cmp	r9, r0
 8007e3a:	dc73      	bgt.n	8007f24 <ip4_reass+0x154>
 8007e3c:	2004      	movs	r0, #4
 8007e3e:	f7fa fcc7 	bl	80027d0 <memp_malloc>
 8007e42:	4604      	mov	r4, r0
 8007e44:	2800      	cmp	r0, #0
 8007e46:	d06d      	beq.n	8007f24 <ip4_reass+0x154>
 8007e48:	221c      	movs	r2, #28
 8007e4a:	2100      	movs	r1, #0
 8007e4c:	1d20      	adds	r0, r4, #4
 8007e4e:	f000 fb4f 	bl	80084f0 <memset>
 8007e52:	230f      	movs	r3, #15
 8007e54:	77e3      	strb	r3, [r4, #31]
 8007e56:	683b      	ldr	r3, [r7, #0]
 8007e58:	6023      	str	r3, [r4, #0]
 8007e5a:	603c      	str	r4, [r7, #0]
 8007e5c:	462b      	mov	r3, r5
 8007e5e:	f104 0208 	add.w	r2, r4, #8
 8007e62:	f105 0114 	add.w	r1, r5, #20
 8007e66:	f853 0b04 	ldr.w	r0, [r3], #4
 8007e6a:	f842 0b04 	str.w	r0, [r2], #4
 8007e6e:	428b      	cmp	r3, r1
 8007e70:	d1f9      	bne.n	8007e66 <ip4_reass+0x96>
 8007e72:	f8b5 b006 	ldrh.w	fp, [r5, #6]
 8007e76:	f3c6 070c 	ubfx	r7, r6, #0, #13
 8007e7a:	f01b 0b20 	ands.w	fp, fp, #32
 8007e7e:	ea4f 07c7 	mov.w	r7, r7, lsl #3
 8007e82:	d10a      	bne.n	8007e9a <ip4_reass+0xca>
 8007e84:	9b01      	ldr	r3, [sp, #4]
 8007e86:	18fb      	adds	r3, r7, r3
 8007e88:	b29b      	uxth	r3, r3
 8007e8a:	429f      	cmp	r7, r3
 8007e8c:	f200 813c 	bhi.w	8008108 <ip4_reass+0x338>
 8007e90:	f64f 72eb 	movw	r2, #65515	; 0xffeb
 8007e94:	4293      	cmp	r3, r2
 8007e96:	f200 8137 	bhi.w	8008108 <ip4_reass+0x338>
 8007e9a:	f8d8 5004 	ldr.w	r5, [r8, #4]
 8007e9e:	8868      	ldrh	r0, [r5, #2]
 8007ea0:	f7fa fa18 	bl	80022d4 <lwip_htons>
 8007ea4:	782b      	ldrb	r3, [r5, #0]
 8007ea6:	f003 030f 	and.w	r3, r3, #15
 8007eaa:	ebb0 0f83 	cmp.w	r0, r3, lsl #2
 8007eae:	ea4f 0283 	mov.w	r2, r3, lsl #2
 8007eb2:	f0c0 8129 	bcc.w	8008108 <ip4_reass+0x338>
 8007eb6:	1a80      	subs	r0, r0, r2
 8007eb8:	fa1f fa80 	uxth.w	sl, r0
 8007ebc:	88e8      	ldrh	r0, [r5, #6]
 8007ebe:	f7fa fa09 	bl	80022d4 <lwip_htons>
 8007ec2:	f3c0 000c 	ubfx	r0, r0, #0, #13
 8007ec6:	00c0      	lsls	r0, r0, #3
 8007ec8:	eb0a 0300 	add.w	r3, sl, r0
 8007ecc:	f8d8 6004 	ldr.w	r6, [r8, #4]
 8007ed0:	b29a      	uxth	r2, r3
 8007ed2:	2500      	movs	r5, #0
 8007ed4:	4290      	cmp	r0, r2
 8007ed6:	7035      	strb	r5, [r6, #0]
 8007ed8:	7075      	strb	r5, [r6, #1]
 8007eda:	70b5      	strb	r5, [r6, #2]
 8007edc:	70f5      	strb	r5, [r6, #3]
 8007ede:	80b0      	strh	r0, [r6, #4]
 8007ee0:	80f3      	strh	r3, [r6, #6]
 8007ee2:	f200 8111 	bhi.w	8008108 <ip4_reass+0x338>
 8007ee6:	f8d4 c004 	ldr.w	ip, [r4, #4]
 8007eea:	f04f 0a01 	mov.w	sl, #1
 8007eee:	4663      	mov	r3, ip
 8007ef0:	bb63      	cbnz	r3, 8007f4c <ip4_reass+0x17c>
 8007ef2:	2d00      	cmp	r5, #0
 8007ef4:	f040 80ae 	bne.w	8008054 <ip4_reass+0x284>
 8007ef8:	f1bc 0f00 	cmp.w	ip, #0
 8007efc:	f000 8098 	beq.w	8008030 <ip4_reass+0x260>
 8007f00:	4b7a      	ldr	r3, [pc, #488]	; (80080ec <ip4_reass+0x31c>)
 8007f02:	497b      	ldr	r1, [pc, #492]	; (80080f0 <ip4_reass+0x320>)
 8007f04:	487b      	ldr	r0, [pc, #492]	; (80080f4 <ip4_reass+0x324>)
 8007f06:	f44f 72df 	mov.w	r2, #446	; 0x1be
 8007f0a:	f000 faf9 	bl	8008500 <iprintf>
 8007f0e:	e08f      	b.n	8008030 <ip4_reass+0x260>
 8007f10:	4601      	mov	r1, r0
 8007f12:	4628      	mov	r0, r5
 8007f14:	f7ff feda 	bl	8007ccc <ip_reass_remove_oldest_datagram>
 8007f18:	b120      	cbz	r0, 8007f24 <ip4_reass+0x154>
 8007f1a:	8823      	ldrh	r3, [r4, #0]
 8007f1c:	444b      	add	r3, r9
 8007f1e:	2b0a      	cmp	r3, #10
 8007f20:	f77f af7c 	ble.w	8007e1c <ip4_reass+0x4c>
 8007f24:	4640      	mov	r0, r8
 8007f26:	f7fa fead 	bl	8002c84 <pbuf_free>
 8007f2a:	2500      	movs	r5, #0
 8007f2c:	e07a      	b.n	8008024 <ip4_reass+0x254>
 8007f2e:	68eb      	ldr	r3, [r5, #12]
 8007f30:	6962      	ldr	r2, [r4, #20]
 8007f32:	429a      	cmp	r2, r3
 8007f34:	d108      	bne.n	8007f48 <ip4_reass+0x178>
 8007f36:	692b      	ldr	r3, [r5, #16]
 8007f38:	69a2      	ldr	r2, [r4, #24]
 8007f3a:	429a      	cmp	r2, r3
 8007f3c:	d104      	bne.n	8007f48 <ip4_reass+0x178>
 8007f3e:	89a2      	ldrh	r2, [r4, #12]
 8007f40:	88ab      	ldrh	r3, [r5, #4]
 8007f42:	429a      	cmp	r2, r3
 8007f44:	f000 80f4 	beq.w	8008130 <ip4_reass+0x360>
 8007f48:	6824      	ldr	r4, [r4, #0]
 8007f4a:	e769      	b.n	8007e20 <ip4_reass+0x50>
 8007f4c:	f8d3 e004 	ldr.w	lr, [r3, #4]
 8007f50:	f8be 1004 	ldrh.w	r1, [lr, #4]
 8007f54:	4288      	cmp	r0, r1
 8007f56:	d26e      	bcs.n	8008036 <ip4_reass+0x266>
 8007f58:	6033      	str	r3, [r6, #0]
 8007f5a:	2d00      	cmp	r5, #0
 8007f5c:	d066      	beq.n	800802c <ip4_reass+0x25c>
 8007f5e:	88eb      	ldrh	r3, [r5, #6]
 8007f60:	4298      	cmp	r0, r3
 8007f62:	f0c0 80d1 	bcc.w	8008108 <ip4_reass+0x338>
 8007f66:	428a      	cmp	r2, r1
 8007f68:	f200 80ce 	bhi.w	8008108 <ip4_reass+0x338>
 8007f6c:	f8c5 8000 	str.w	r8, [r5]
 8007f70:	4298      	cmp	r0, r3
 8007f72:	f040 80f9 	bne.w	8008168 <ip4_reass+0x398>
 8007f76:	f1bb 0f00 	cmp.w	fp, #0
 8007f7a:	d004      	beq.n	8007f86 <ip4_reass+0x1b6>
 8007f7c:	7fa3      	ldrb	r3, [r4, #30]
 8007f7e:	f013 0301 	ands.w	r3, r3, #1
 8007f82:	f000 809e 	beq.w	80080c2 <ip4_reass+0x2f2>
 8007f86:	f1ba 0f00 	cmp.w	sl, #0
 8007f8a:	d173      	bne.n	8008074 <ip4_reass+0x2a4>
 8007f8c:	f04f 0a00 	mov.w	sl, #0
 8007f90:	4e54      	ldr	r6, [pc, #336]	; (80080e4 <ip4_reass+0x314>)
 8007f92:	8830      	ldrh	r0, [r6, #0]
 8007f94:	4481      	add	r9, r0
 8007f96:	f8a6 9000 	strh.w	r9, [r6]
 8007f9a:	f1bb 0f00 	cmp.w	fp, #0
 8007f9e:	d106      	bne.n	8007fae <ip4_reass+0x1de>
 8007fa0:	9b01      	ldr	r3, [sp, #4]
 8007fa2:	441f      	add	r7, r3
 8007fa4:	7fa3      	ldrb	r3, [r4, #30]
 8007fa6:	83a7      	strh	r7, [r4, #28]
 8007fa8:	f043 0301 	orr.w	r3, r3, #1
 8007fac:	77a3      	strb	r3, [r4, #30]
 8007fae:	f1ba 0f01 	cmp.w	sl, #1
 8007fb2:	d1ba      	bne.n	8007f2a <ip4_reass+0x15a>
 8007fb4:	6863      	ldr	r3, [r4, #4]
 8007fb6:	8ba0      	ldrh	r0, [r4, #28]
 8007fb8:	685d      	ldr	r5, [r3, #4]
 8007fba:	3014      	adds	r0, #20
 8007fbc:	682f      	ldr	r7, [r5, #0]
 8007fbe:	b280      	uxth	r0, r0
 8007fc0:	f104 0308 	add.w	r3, r4, #8
 8007fc4:	462a      	mov	r2, r5
 8007fc6:	f104 011c 	add.w	r1, r4, #28
 8007fca:	f853 cb04 	ldr.w	ip, [r3], #4
 8007fce:	f842 cb04 	str.w	ip, [r2], #4
 8007fd2:	428b      	cmp	r3, r1
 8007fd4:	d1f9      	bne.n	8007fca <ip4_reass+0x1fa>
 8007fd6:	f7fa f97d 	bl	80022d4 <lwip_htons>
 8007fda:	2300      	movs	r3, #0
 8007fdc:	8068      	strh	r0, [r5, #2]
 8007fde:	71ab      	strb	r3, [r5, #6]
 8007fe0:	71eb      	strb	r3, [r5, #7]
 8007fe2:	72ab      	strb	r3, [r5, #10]
 8007fe4:	72eb      	strb	r3, [r5, #11]
 8007fe6:	6865      	ldr	r5, [r4, #4]
 8007fe8:	2f00      	cmp	r7, #0
 8007fea:	d16c      	bne.n	80080c6 <ip4_reass+0x2f6>
 8007fec:	4b3e      	ldr	r3, [pc, #248]	; (80080e8 <ip4_reass+0x318>)
 8007fee:	681b      	ldr	r3, [r3, #0]
 8007ff0:	42a3      	cmp	r3, r4
 8007ff2:	d002      	beq.n	8007ffa <ip4_reass+0x22a>
 8007ff4:	461f      	mov	r7, r3
 8007ff6:	2b00      	cmp	r3, #0
 8007ff8:	d172      	bne.n	80080e0 <ip4_reass+0x310>
 8007ffa:	4620      	mov	r0, r4
 8007ffc:	4639      	mov	r1, r7
 8007ffe:	f7ff fdcf 	bl	8007ba0 <ip_reass_dequeue_datagram>
 8008002:	4628      	mov	r0, r5
 8008004:	f7fa ff7e 	bl	8002f04 <pbuf_clen>
 8008008:	8833      	ldrh	r3, [r6, #0]
 800800a:	4283      	cmp	r3, r0
 800800c:	4604      	mov	r4, r0
 800800e:	d206      	bcs.n	800801e <ip4_reass+0x24e>
 8008010:	4b36      	ldr	r3, [pc, #216]	; (80080ec <ip4_reass+0x31c>)
 8008012:	4939      	ldr	r1, [pc, #228]	; (80080f8 <ip4_reass+0x328>)
 8008014:	4837      	ldr	r0, [pc, #220]	; (80080f4 <ip4_reass+0x324>)
 8008016:	f240 229b 	movw	r2, #667	; 0x29b
 800801a:	f000 fa71 	bl	8008500 <iprintf>
 800801e:	8830      	ldrh	r0, [r6, #0]
 8008020:	1b04      	subs	r4, r0, r4
 8008022:	8034      	strh	r4, [r6, #0]
 8008024:	4628      	mov	r0, r5
 8008026:	b003      	add	sp, #12
 8008028:	e8bd 8ff0 	ldmia.w	sp!, {r4, r5, r6, r7, r8, r9, sl, fp, pc}
 800802c:	428a      	cmp	r2, r1
 800802e:	d86b      	bhi.n	8008108 <ip4_reass+0x338>
 8008030:	f8c4 8004 	str.w	r8, [r4, #4]
 8008034:	e79f      	b.n	8007f76 <ip4_reass+0x1a6>
 8008036:	d067      	beq.n	8008108 <ip4_reass+0x338>
 8008038:	f8be 3006 	ldrh.w	r3, [lr, #6]
 800803c:	4283      	cmp	r3, r0
 800803e:	d863      	bhi.n	8008108 <ip4_reass+0x338>
 8008040:	b125      	cbz	r5, 800804c <ip4_reass+0x27c>
 8008042:	88eb      	ldrh	r3, [r5, #6]
 8008044:	428b      	cmp	r3, r1
 8008046:	bf18      	it	ne
 8008048:	f04f 0a00 	movne.w	sl, #0
 800804c:	f8de 3000 	ldr.w	r3, [lr]
 8008050:	4675      	mov	r5, lr
 8008052:	e74d      	b.n	8007ef0 <ip4_reass+0x120>
 8008054:	88eb      	ldrh	r3, [r5, #6]
 8008056:	4283      	cmp	r3, r0
 8008058:	d906      	bls.n	8008068 <ip4_reass+0x298>
 800805a:	4b24      	ldr	r3, [pc, #144]	; (80080ec <ip4_reass+0x31c>)
 800805c:	4927      	ldr	r1, [pc, #156]	; (80080fc <ip4_reass+0x32c>)
 800805e:	4825      	ldr	r0, [pc, #148]	; (80080f4 <ip4_reass+0x324>)
 8008060:	f44f 72db 	mov.w	r2, #438	; 0x1b6
 8008064:	f000 fa4c 	bl	8008500 <iprintf>
 8008068:	f8c5 8000 	str.w	r8, [r5]
 800806c:	88ea      	ldrh	r2, [r5, #6]
 800806e:	88b3      	ldrh	r3, [r6, #4]
 8008070:	429a      	cmp	r2, r3
 8008072:	e77e      	b.n	8007f72 <ip4_reass+0x1a2>
 8008074:	6863      	ldr	r3, [r4, #4]
 8008076:	2b00      	cmp	r3, #0
 8008078:	d088      	beq.n	8007f8c <ip4_reass+0x1bc>
 800807a:	6859      	ldr	r1, [r3, #4]
 800807c:	888b      	ldrh	r3, [r1, #4]
 800807e:	2b00      	cmp	r3, #0
 8008080:	d184      	bne.n	8007f8c <ip4_reass+0x1bc>
 8008082:	6833      	ldr	r3, [r6, #0]
 8008084:	b9a3      	cbnz	r3, 80080b0 <ip4_reass+0x2e0>
 8008086:	42b1      	cmp	r1, r6
 8008088:	d106      	bne.n	8008098 <ip4_reass+0x2c8>
 800808a:	4b18      	ldr	r3, [pc, #96]	; (80080ec <ip4_reass+0x31c>)
 800808c:	491c      	ldr	r1, [pc, #112]	; (8008100 <ip4_reass+0x330>)
 800808e:	4819      	ldr	r0, [pc, #100]	; (80080f4 <ip4_reass+0x324>)
 8008090:	f44f 72f0 	mov.w	r2, #480	; 0x1e0
 8008094:	f000 fa34 	bl	8008500 <iprintf>
 8008098:	6833      	ldr	r3, [r6, #0]
 800809a:	2b00      	cmp	r3, #0
 800809c:	f43f af78 	beq.w	8007f90 <ip4_reass+0x1c0>
 80080a0:	4b12      	ldr	r3, [pc, #72]	; (80080ec <ip4_reass+0x31c>)
 80080a2:	4918      	ldr	r1, [pc, #96]	; (8008104 <ip4_reass+0x334>)
 80080a4:	4813      	ldr	r0, [pc, #76]	; (80080f4 <ip4_reass+0x324>)
 80080a6:	f44f 72f1 	mov.w	r2, #482	; 0x1e2
 80080aa:	f000 fa29 	bl	8008500 <iprintf>
 80080ae:	e76f      	b.n	8007f90 <ip4_reass+0x1c0>
 80080b0:	685a      	ldr	r2, [r3, #4]
 80080b2:	88f0      	ldrh	r0, [r6, #6]
 80080b4:	8893      	ldrh	r3, [r2, #4]
 80080b6:	4298      	cmp	r0, r3
 80080b8:	f47f af68 	bne.w	8007f8c <ip4_reass+0x1bc>
 80080bc:	6813      	ldr	r3, [r2, #0]
 80080be:	4616      	mov	r6, r2
 80080c0:	e7e0      	b.n	8008084 <ip4_reass+0x2b4>
 80080c2:	469a      	mov	sl, r3
 80080c4:	e764      	b.n	8007f90 <ip4_reass+0x1c0>
 80080c6:	f8d7 8004 	ldr.w	r8, [r7, #4]
 80080ca:	2114      	movs	r1, #20
 80080cc:	4638      	mov	r0, r7
 80080ce:	f7fa fda5 	bl	8002c1c <pbuf_remove_header>
 80080d2:	4639      	mov	r1, r7
 80080d4:	4628      	mov	r0, r5
 80080d6:	f7fa ff31 	bl	8002f3c <pbuf_cat>
 80080da:	f8d8 7000 	ldr.w	r7, [r8]
 80080de:	e783      	b.n	8007fe8 <ip4_reass+0x218>
 80080e0:	683b      	ldr	r3, [r7, #0]
 80080e2:	e785      	b.n	8007ff0 <ip4_reass+0x220>
 80080e4:	20000190 	.word	0x20000190
 80080e8:	20000194 	.word	0x20000194
 80080ec:	0800b27c 	.word	0x0800b27c
 80080f0:	0800b355 	.word	0x0800b355
 80080f4:	080095b5 	.word	0x080095b5
 80080f8:	0800b3bb 	.word	0x0800b3bb
 80080fc:	0800b337 	.word	0x0800b337
 8008100:	0800b38c 	.word	0x0800b38c
 8008104:	0800b399 	.word	0x0800b399
 8008108:	6863      	ldr	r3, [r4, #4]
 800810a:	2b00      	cmp	r3, #0
 800810c:	f47f af0a 	bne.w	8007f24 <ip4_reass+0x154>
 8008110:	4b19      	ldr	r3, [pc, #100]	; (8008178 <ip4_reass+0x3a8>)
 8008112:	681b      	ldr	r3, [r3, #0]
 8008114:	42a3      	cmp	r3, r4
 8008116:	d006      	beq.n	8008126 <ip4_reass+0x356>
 8008118:	4b18      	ldr	r3, [pc, #96]	; (800817c <ip4_reass+0x3ac>)
 800811a:	4919      	ldr	r1, [pc, #100]	; (8008180 <ip4_reass+0x3b0>)
 800811c:	4819      	ldr	r0, [pc, #100]	; (8008184 <ip4_reass+0x3b4>)
 800811e:	f240 22ab 	movw	r2, #683	; 0x2ab
 8008122:	f000 f9ed 	bl	8008500 <iprintf>
 8008126:	2100      	movs	r1, #0
 8008128:	4620      	mov	r0, r4
 800812a:	f7ff fd39 	bl	8007ba0 <ip_reass_dequeue_datagram>
 800812e:	e6f9      	b.n	8007f24 <ip4_reass+0x154>
 8008130:	88e8      	ldrh	r0, [r5, #6]
 8008132:	f7fa f8cf 	bl	80022d4 <lwip_htons>
 8008136:	f3c0 000c 	ubfx	r0, r0, #0, #13
 800813a:	2800      	cmp	r0, #0
 800813c:	f47f ae99 	bne.w	8007e72 <ip4_reass+0xa2>
 8008140:	89e0      	ldrh	r0, [r4, #14]
 8008142:	f7fa f8c7 	bl	80022d4 <lwip_htons>
 8008146:	f3c0 000c 	ubfx	r0, r0, #0, #13
 800814a:	2800      	cmp	r0, #0
 800814c:	f43f ae91 	beq.w	8007e72 <ip4_reass+0xa2>
 8008150:	462b      	mov	r3, r5
 8008152:	f104 0208 	add.w	r2, r4, #8
 8008156:	f105 0114 	add.w	r1, r5, #20
 800815a:	f853 0b04 	ldr.w	r0, [r3], #4
 800815e:	f842 0b04 	str.w	r0, [r2], #4
 8008162:	428b      	cmp	r3, r1
 8008164:	d1f9      	bne.n	800815a <ip4_reass+0x38a>
 8008166:	e684      	b.n	8007e72 <ip4_reass+0xa2>
 8008168:	f1bb 0f00 	cmp.w	fp, #0
 800816c:	f43f af0e 	beq.w	8007f8c <ip4_reass+0x1bc>
 8008170:	f04f 0a00 	mov.w	sl, #0
 8008174:	e702      	b.n	8007f7c <ip4_reass+0x1ac>
 8008176:	bf00      	nop
 8008178:	20000194 	.word	0x20000194
 800817c:	0800b27c 	.word	0x0800b27c
 8008180:	0800b3d6 	.word	0x0800b3d6
 8008184:	080095b5 	.word	0x080095b5

08008188 <ip4_frag>:
 8008188:	e92d 4ff0 	stmdb	sp!, {r4, r5, r6, r7, r8, r9, sl, fp, lr}
 800818c:	8c8b      	ldrh	r3, [r1, #36]	; 0x24
 800818e:	ed2d 8b02 	vpush	{d8}
 8008192:	ee08 2a10 	vmov	s16, r2
 8008196:	f1b3 0214 	subs.w	r2, r3, #20
 800819a:	b08b      	sub	sp, #44	; 0x2c
 800819c:	bf48      	it	mi
 800819e:	f1a3 020d 	submi.w	r2, r3, #13
 80081a2:	f3c2 03cf 	ubfx	r3, r2, #3, #16
 80081a6:	9305      	str	r3, [sp, #20]
 80081a8:	6843      	ldr	r3, [r0, #4]
 80081aa:	9302      	str	r3, [sp, #8]
 80081ac:	781b      	ldrb	r3, [r3, #0]
 80081ae:	f003 030f 	and.w	r3, r3, #15
 80081b2:	2b05      	cmp	r3, #5
 80081b4:	4605      	mov	r5, r0
 80081b6:	468a      	mov	sl, r1
 80081b8:	ea4f 0783 	mov.w	r7, r3, lsl #2
 80081bc:	d109      	bne.n	80081d2 <ip4_frag+0x4a>
 80081be:	8943      	ldrh	r3, [r0, #10]
 80081c0:	2b13      	cmp	r3, #19
 80081c2:	d809      	bhi.n	80081d8 <ip4_frag+0x50>
 80081c4:	4b60      	ldr	r3, [pc, #384]	; (8008348 <ip4_frag+0x1c0>)
 80081c6:	4961      	ldr	r1, [pc, #388]	; (800834c <ip4_frag+0x1c4>)
 80081c8:	4861      	ldr	r0, [pc, #388]	; (8008350 <ip4_frag+0x1c8>)
 80081ca:	f44f 723f 	mov.w	r2, #764	; 0x2fc
 80081ce:	f000 f997 	bl	8008500 <iprintf>
 80081d2:	f06f 0005 	mvn.w	r0, #5
 80081d6:	e013      	b.n	8008200 <ip4_frag+0x78>
 80081d8:	9b02      	ldr	r3, [sp, #8]
 80081da:	88d8      	ldrh	r0, [r3, #6]
 80081dc:	f7fa f87a 	bl	80022d4 <lwip_htons>
 80081e0:	f3c0 030c 	ubfx	r3, r0, #0, #13
 80081e4:	9303      	str	r3, [sp, #12]
 80081e6:	f400 5300 	and.w	r3, r0, #8192	; 0x2000
 80081ea:	9307      	str	r3, [sp, #28]
 80081ec:	9b05      	ldr	r3, [sp, #20]
 80081ee:	892c      	ldrh	r4, [r5, #8]
 80081f0:	00db      	lsls	r3, r3, #3
 80081f2:	3c14      	subs	r4, #20
 80081f4:	b29b      	uxth	r3, r3
 80081f6:	b2a4      	uxth	r4, r4
 80081f8:	9306      	str	r3, [sp, #24]
 80081fa:	2600      	movs	r6, #0
 80081fc:	b92c      	cbnz	r4, 800820a <ip4_frag+0x82>
 80081fe:	4620      	mov	r0, r4
 8008200:	b00b      	add	sp, #44	; 0x2c
 8008202:	ecbd 8b02 	vpop	{d8}
 8008206:	e8bd 8ff0 	ldmia.w	sp!, {r4, r5, r6, r7, r8, r9, sl, fp, pc}
 800820a:	9b06      	ldr	r3, [sp, #24]
 800820c:	42a3      	cmp	r3, r4
 800820e:	bf28      	it	cs
 8008210:	4623      	movcs	r3, r4
 8008212:	f44f 7220 	mov.w	r2, #640	; 0x280
 8008216:	2114      	movs	r1, #20
 8008218:	200e      	movs	r0, #14
 800821a:	9304      	str	r3, [sp, #16]
 800821c:	f7fa fd96 	bl	8002d4c <pbuf_alloc>
 8008220:	4680      	mov	r8, r0
 8008222:	2800      	cmp	r0, #0
 8008224:	d036      	beq.n	8008294 <ip4_frag+0x10c>
 8008226:	8943      	ldrh	r3, [r0, #10]
 8008228:	2b13      	cmp	r3, #19
 800822a:	d806      	bhi.n	800823a <ip4_frag+0xb2>
 800822c:	4b46      	ldr	r3, [pc, #280]	; (8008348 <ip4_frag+0x1c0>)
 800822e:	4949      	ldr	r1, [pc, #292]	; (8008354 <ip4_frag+0x1cc>)
 8008230:	4847      	ldr	r0, [pc, #284]	; (8008350 <ip4_frag+0x1c8>)
 8008232:	f44f 7249 	mov.w	r2, #804	; 0x324
 8008236:	f000 f963 	bl	8008500 <iprintf>
 800823a:	9b02      	ldr	r3, [sp, #8]
 800823c:	f8d8 2004 	ldr.w	r2, [r8, #4]
 8008240:	4619      	mov	r1, r3
 8008242:	3114      	adds	r1, #20
 8008244:	f853 0b04 	ldr.w	r0, [r3], #4
 8008248:	f842 0b04 	str.w	r0, [r2], #4
 800824c:	428b      	cmp	r3, r1
 800824e:	d1f9      	bne.n	8008244 <ip4_frag+0xbc>
 8008250:	f8d8 b004 	ldr.w	fp, [r8, #4]
 8008254:	f8dd 9010 	ldr.w	r9, [sp, #16]
 8008258:	f1b9 0f00 	cmp.w	r9, #0
 800825c:	d041      	beq.n	80082e2 <ip4_frag+0x15a>
 800825e:	896b      	ldrh	r3, [r5, #10]
 8008260:	1bde      	subs	r6, r3, r7
 8008262:	42bb      	cmp	r3, r7
 8008264:	b2b6      	uxth	r6, r6
 8008266:	d206      	bcs.n	8008276 <ip4_frag+0xee>
 8008268:	4b37      	ldr	r3, [pc, #220]	; (8008348 <ip4_frag+0x1c0>)
 800826a:	493b      	ldr	r1, [pc, #236]	; (8008358 <ip4_frag+0x1d0>)
 800826c:	4838      	ldr	r0, [pc, #224]	; (8008350 <ip4_frag+0x1c8>)
 800826e:	f240 322d 	movw	r2, #813	; 0x32d
 8008272:	f000 f945 	bl	8008500 <iprintf>
 8008276:	454e      	cmp	r6, r9
 8008278:	bf28      	it	cs
 800827a:	464e      	movcs	r6, r9
 800827c:	b916      	cbnz	r6, 8008284 <ip4_frag+0xfc>
 800827e:	682d      	ldr	r5, [r5, #0]
 8008280:	2700      	movs	r7, #0
 8008282:	e7e9      	b.n	8008258 <ip4_frag+0xd0>
 8008284:	2005      	movs	r0, #5
 8008286:	f7fa faa3 	bl	80027d0 <memp_malloc>
 800828a:	4603      	mov	r3, r0
 800828c:	b928      	cbnz	r0, 800829a <ip4_frag+0x112>
 800828e:	4640      	mov	r0, r8
 8008290:	f7fa fcf8 	bl	8002c84 <pbuf_free>
 8008294:	f04f 30ff 	mov.w	r0, #4294967295
 8008298:	e7b2      	b.n	8008200 <ip4_frag+0x78>
 800829a:	9601      	str	r6, [sp, #4]
 800829c:	686a      	ldr	r2, [r5, #4]
 800829e:	9008      	str	r0, [sp, #32]
 80082a0:	443a      	add	r2, r7
 80082a2:	9200      	str	r2, [sp, #0]
 80082a4:	4631      	mov	r1, r6
 80082a6:	2241      	movs	r2, #65	; 0x41
 80082a8:	2000      	movs	r0, #0
 80082aa:	f7fa fc99 	bl	8002be0 <pbuf_alloced_custom>
 80082ae:	9b08      	ldr	r3, [sp, #32]
 80082b0:	b918      	cbnz	r0, 80082ba <ip4_frag+0x132>
 80082b2:	4618      	mov	r0, r3
 80082b4:	f7ff fd46 	bl	8007d44 <ip_frag_free_pbuf_custom_ref>
 80082b8:	e7e9      	b.n	800828e <ip4_frag+0x106>
 80082ba:	e9cd 0308 	strd	r0, r3, [sp, #32]
 80082be:	4628      	mov	r0, r5
 80082c0:	f7fa fe28 	bl	8002f14 <pbuf_ref>
 80082c4:	9b09      	ldr	r3, [sp, #36]	; 0x24
 80082c6:	4a25      	ldr	r2, [pc, #148]	; (800835c <ip4_frag+0x1d4>)
 80082c8:	9908      	ldr	r1, [sp, #32]
 80082ca:	619d      	str	r5, [r3, #24]
 80082cc:	eba9 0906 	sub.w	r9, r9, r6
 80082d0:	615a      	str	r2, [r3, #20]
 80082d2:	4640      	mov	r0, r8
 80082d4:	fa1f f989 	uxth.w	r9, r9
 80082d8:	f7fa fe30 	bl	8002f3c <pbuf_cat>
 80082dc:	f1b9 0f00 	cmp.w	r9, #0
 80082e0:	d1cd      	bne.n	800827e <ip4_frag+0xf6>
 80082e2:	9b03      	ldr	r3, [sp, #12]
 80082e4:	f3c3 000c 	ubfx	r0, r3, #0, #13
 80082e8:	f8ba 3024 	ldrh.w	r3, [sl, #36]	; 0x24
 80082ec:	3b13      	subs	r3, #19
 80082ee:	4437      	add	r7, r6
 80082f0:	42a3      	cmp	r3, r4
 80082f2:	b2bf      	uxth	r7, r7
 80082f4:	dd01      	ble.n	80082fa <ip4_frag+0x172>
 80082f6:	9b07      	ldr	r3, [sp, #28]
 80082f8:	b10b      	cbz	r3, 80082fe <ip4_frag+0x176>
 80082fa:	f440 5000 	orr.w	r0, r0, #8192	; 0x2000
 80082fe:	f7f9 ffe9 	bl	80022d4 <lwip_htons>
 8008302:	9b04      	ldr	r3, [sp, #16]
 8008304:	f8ab 0006 	strh.w	r0, [fp, #6]
 8008308:	f103 0014 	add.w	r0, r3, #20
 800830c:	b280      	uxth	r0, r0
 800830e:	f7f9 ffe1 	bl	80022d4 <lwip_htons>
 8008312:	2300      	movs	r3, #0
 8008314:	ee18 2a10 	vmov	r2, s16
 8008318:	f8ab 0002 	strh.w	r0, [fp, #2]
 800831c:	f88b 300a 	strb.w	r3, [fp, #10]
 8008320:	f88b 300b 	strb.w	r3, [fp, #11]
 8008324:	4641      	mov	r1, r8
 8008326:	f8da 3014 	ldr.w	r3, [sl, #20]
 800832a:	4650      	mov	r0, sl
 800832c:	4798      	blx	r3
 800832e:	4640      	mov	r0, r8
 8008330:	f7fa fca8 	bl	8002c84 <pbuf_free>
 8008334:	9b04      	ldr	r3, [sp, #16]
 8008336:	9a05      	ldr	r2, [sp, #20]
 8008338:	1ae4      	subs	r4, r4, r3
 800833a:	9b03      	ldr	r3, [sp, #12]
 800833c:	4413      	add	r3, r2
 800833e:	b29b      	uxth	r3, r3
 8008340:	b2a4      	uxth	r4, r4
 8008342:	9303      	str	r3, [sp, #12]
 8008344:	e75a      	b.n	80081fc <ip4_frag+0x74>
 8008346:	bf00      	nop
 8008348:	0800b27c 	.word	0x0800b27c
 800834c:	0800b3f6 	.word	0x0800b3f6
 8008350:	080095b5 	.word	0x080095b5
 8008354:	0800b411 	.word	0x0800b411
 8008358:	0800b431 	.word	0x0800b431
 800835c:	08007d71 	.word	0x08007d71

08008360 <ethernet_input>:
 8008360:	8943      	ldrh	r3, [r0, #10]
 8008362:	2b0e      	cmp	r3, #14
 8008364:	b570      	push	{r4, r5, r6, lr}
 8008366:	4604      	mov	r4, r0
 8008368:	460d      	mov	r5, r1
 800836a:	d91a      	bls.n	80083a2 <ethernet_input+0x42>
 800836c:	7c03      	ldrb	r3, [r0, #16]
 800836e:	b91b      	cbnz	r3, 8008378 <ethernet_input+0x18>
 8008370:	f891 3030 	ldrb.w	r3, [r1, #48]	; 0x30
 8008374:	3301      	adds	r3, #1
 8008376:	7403      	strb	r3, [r0, #16]
 8008378:	6860      	ldr	r0, [r4, #4]
 800837a:	7803      	ldrb	r3, [r0, #0]
 800837c:	8986      	ldrh	r6, [r0, #12]
 800837e:	07d9      	lsls	r1, r3, #31
 8008380:	d50a      	bpl.n	8008398 <ethernet_input+0x38>
 8008382:	2b01      	cmp	r3, #1
 8008384:	d111      	bne.n	80083aa <ethernet_input+0x4a>
 8008386:	7843      	ldrb	r3, [r0, #1]
 8008388:	b933      	cbnz	r3, 8008398 <ethernet_input+0x38>
 800838a:	7883      	ldrb	r3, [r0, #2]
 800838c:	2b5e      	cmp	r3, #94	; 0x5e
 800838e:	d103      	bne.n	8008398 <ethernet_input+0x38>
 8008390:	7b63      	ldrb	r3, [r4, #13]
 8008392:	f043 0310 	orr.w	r3, r3, #16
 8008396:	7363      	strb	r3, [r4, #13]
 8008398:	2e08      	cmp	r6, #8
 800839a:	d010      	beq.n	80083be <ethernet_input+0x5e>
 800839c:	f5b6 6fc1 	cmp.w	r6, #1544	; 0x608
 80083a0:	d01d      	beq.n	80083de <ethernet_input+0x7e>
 80083a2:	4620      	mov	r0, r4
 80083a4:	f7fa fc6e 	bl	8002c84 <pbuf_free>
 80083a8:	e017      	b.n	80083da <ethernet_input+0x7a>
 80083aa:	4914      	ldr	r1, [pc, #80]	; (80083fc <ethernet_input+0x9c>)
 80083ac:	2206      	movs	r2, #6
 80083ae:	f000 f883 	bl	80084b8 <memcmp>
 80083b2:	2800      	cmp	r0, #0
 80083b4:	d1f0      	bne.n	8008398 <ethernet_input+0x38>
 80083b6:	7b63      	ldrb	r3, [r4, #13]
 80083b8:	f043 0308 	orr.w	r3, r3, #8
 80083bc:	e7eb      	b.n	8008396 <ethernet_input+0x36>
 80083be:	f895 302d 	ldrb.w	r3, [r5, #45]	; 0x2d
 80083c2:	071a      	lsls	r2, r3, #28
 80083c4:	d5ed      	bpl.n	80083a2 <ethernet_input+0x42>
 80083c6:	210e      	movs	r1, #14
 80083c8:	4620      	mov	r0, r4
 80083ca:	f7fa fc27 	bl	8002c1c <pbuf_remove_header>
 80083ce:	2800      	cmp	r0, #0
 80083d0:	d1e7      	bne.n	80083a2 <ethernet_input+0x42>
 80083d2:	4629      	mov	r1, r5
 80083d4:	4620      	mov	r0, r4
 80083d6:	f7ff fa89 	bl	80078ec <ip4_input>
 80083da:	2000      	movs	r0, #0
 80083dc:	bd70      	pop	{r4, r5, r6, pc}
 80083de:	f895 302d 	ldrb.w	r3, [r5, #45]	; 0x2d
 80083e2:	071b      	lsls	r3, r3, #28
 80083e4:	d5dd      	bpl.n	80083a2 <ethernet_input+0x42>
 80083e6:	210e      	movs	r1, #14
 80083e8:	4620      	mov	r0, r4
 80083ea:	f7fa fc17 	bl	8002c1c <pbuf_remove_header>
 80083ee:	2800      	cmp	r0, #0
 80083f0:	d1d7      	bne.n	80083a2 <ethernet_input+0x42>
 80083f2:	4629      	mov	r1, r5
 80083f4:	4620      	mov	r0, r4
 80083f6:	f7fe fedf 	bl	80071b8 <etharp_input>
 80083fa:	e7ee      	b.n	80083da <ethernet_input+0x7a>
 80083fc:	0800b4a6 	.word	0x0800b4a6

08008400 <ethernet_output>:
 8008400:	e92d 41f0 	stmdb	sp!, {r4, r5, r6, r7, r8, lr}
 8008404:	4604      	mov	r4, r0
 8008406:	f8bd 0018 	ldrh.w	r0, [sp, #24]
 800840a:	460d      	mov	r5, r1
 800840c:	4616      	mov	r6, r2
 800840e:	461f      	mov	r7, r3
 8008410:	f7f9 ff60 	bl	80022d4 <lwip_htons>
 8008414:	210e      	movs	r1, #14
 8008416:	4680      	mov	r8, r0
 8008418:	4628      	mov	r0, r5
 800841a:	f7fa fbfc 	bl	8002c16 <pbuf_add_header>
 800841e:	b9e0      	cbnz	r0, 800845a <ethernet_output+0x5a>
 8008420:	6869      	ldr	r1, [r5, #4]
 8008422:	f8a1 800c 	strh.w	r8, [r1, #12]
 8008426:	683b      	ldr	r3, [r7, #0]
 8008428:	600b      	str	r3, [r1, #0]
 800842a:	88bb      	ldrh	r3, [r7, #4]
 800842c:	808b      	strh	r3, [r1, #4]
 800842e:	6833      	ldr	r3, [r6, #0]
 8008430:	f8c1 3006 	str.w	r3, [r1, #6]
 8008434:	88b3      	ldrh	r3, [r6, #4]
 8008436:	814b      	strh	r3, [r1, #10]
 8008438:	f894 302c 	ldrb.w	r3, [r4, #44]	; 0x2c
 800843c:	2b06      	cmp	r3, #6
 800843e:	d006      	beq.n	800844e <ethernet_output+0x4e>
 8008440:	4b08      	ldr	r3, [pc, #32]	; (8008464 <ethernet_output+0x64>)
 8008442:	4909      	ldr	r1, [pc, #36]	; (8008468 <ethernet_output+0x68>)
 8008444:	4809      	ldr	r0, [pc, #36]	; (800846c <ethernet_output+0x6c>)
 8008446:	f44f 7299 	mov.w	r2, #306	; 0x132
 800844a:	f000 f859 	bl	8008500 <iprintf>
 800844e:	69a3      	ldr	r3, [r4, #24]
 8008450:	4629      	mov	r1, r5
 8008452:	4620      	mov	r0, r4
 8008454:	e8bd 41f0 	ldmia.w	sp!, {r4, r5, r6, r7, r8, lr}
 8008458:	4718      	bx	r3
 800845a:	f06f 0001 	mvn.w	r0, #1
 800845e:	e8bd 81f0 	ldmia.w	sp!, {r4, r5, r6, r7, r8, pc}
 8008462:	bf00      	nop
 8008464:	0800b440 	.word	0x0800b440
 8008468:	0800b475 	.word	0x0800b475
 800846c:	080095b5 	.word	0x080095b5

08008470 <__libc_init_array>:
 8008470:	b570      	push	{r4, r5, r6, lr}
 8008472:	4d0d      	ldr	r5, [pc, #52]	; (80084a8 <__libc_init_array+0x38>)
 8008474:	4c0d      	ldr	r4, [pc, #52]	; (80084ac <__libc_init_array+0x3c>)
 8008476:	1b64      	subs	r4, r4, r5
 8008478:	10a4      	asrs	r4, r4, #2
 800847a:	2600      	movs	r6, #0
 800847c:	42a6      	cmp	r6, r4
 800847e:	d109      	bne.n	8008494 <__libc_init_array+0x24>
 8008480:	4d0b      	ldr	r5, [pc, #44]	; (80084b0 <__libc_init_array+0x40>)
 8008482:	4c0c      	ldr	r4, [pc, #48]	; (80084b4 <__libc_init_array+0x44>)
 8008484:	f001 f85e 	bl	8009544 <_init>
 8008488:	1b64      	subs	r4, r4, r5
 800848a:	10a4      	asrs	r4, r4, #2
 800848c:	2600      	movs	r6, #0
 800848e:	42a6      	cmp	r6, r4
 8008490:	d105      	bne.n	800849e <__libc_init_array+0x2e>
 8008492:	bd70      	pop	{r4, r5, r6, pc}
 8008494:	f855 3b04 	ldr.w	r3, [r5], #4
 8008498:	4798      	blx	r3
 800849a:	3601      	adds	r6, #1
 800849c:	e7ee      	b.n	800847c <__libc_init_array+0xc>
 800849e:	f855 3b04 	ldr.w	r3, [r5], #4
 80084a2:	4798      	blx	r3
 80084a4:	3601      	adds	r6, #1
 80084a6:	e7f2      	b.n	800848e <__libc_init_array+0x1e>
 80084a8:	0800b608 	.word	0x0800b608
 80084ac:	0800b608 	.word	0x0800b608
 80084b0:	0800b608 	.word	0x0800b608
 80084b4:	0800b60c 	.word	0x0800b60c

080084b8 <memcmp>:
 80084b8:	b530      	push	{r4, r5, lr}
 80084ba:	3901      	subs	r1, #1
 80084bc:	2400      	movs	r4, #0
 80084be:	42a2      	cmp	r2, r4
 80084c0:	d101      	bne.n	80084c6 <memcmp+0xe>
 80084c2:	2000      	movs	r0, #0
 80084c4:	e005      	b.n	80084d2 <memcmp+0x1a>
 80084c6:	5d03      	ldrb	r3, [r0, r4]
 80084c8:	3401      	adds	r4, #1
 80084ca:	5d0d      	ldrb	r5, [r1, r4]
 80084cc:	42ab      	cmp	r3, r5
 80084ce:	d0f6      	beq.n	80084be <memcmp+0x6>
 80084d0:	1b58      	subs	r0, r3, r5
 80084d2:	bd30      	pop	{r4, r5, pc}

080084d4 <memcpy>:
 80084d4:	440a      	add	r2, r1
 80084d6:	4291      	cmp	r1, r2
 80084d8:	f100 33ff 	add.w	r3, r0, #4294967295
 80084dc:	d100      	bne.n	80084e0 <memcpy+0xc>
 80084de:	4770      	bx	lr
 80084e0:	b510      	push	{r4, lr}
 80084e2:	f811 4b01 	ldrb.w	r4, [r1], #1
 80084e6:	f803 4f01 	strb.w	r4, [r3, #1]!
 80084ea:	4291      	cmp	r1, r2
 80084ec:	d1f9      	bne.n	80084e2 <memcpy+0xe>
 80084ee:	bd10      	pop	{r4, pc}

080084f0 <memset>:
 80084f0:	4402      	add	r2, r0
 80084f2:	4603      	mov	r3, r0
 80084f4:	4293      	cmp	r3, r2
 80084f6:	d100      	bne.n	80084fa <memset+0xa>
 80084f8:	4770      	bx	lr
 80084fa:	f803 1b01 	strb.w	r1, [r3], #1
 80084fe:	e7f9      	b.n	80084f4 <memset+0x4>

08008500 <iprintf>:
 8008500:	b40f      	push	{r0, r1, r2, r3}
 8008502:	4b0a      	ldr	r3, [pc, #40]	; (800852c <iprintf+0x2c>)
 8008504:	b513      	push	{r0, r1, r4, lr}
 8008506:	681c      	ldr	r4, [r3, #0]
 8008508:	b124      	cbz	r4, 8008514 <iprintf+0x14>
 800850a:	69a3      	ldr	r3, [r4, #24]
 800850c:	b913      	cbnz	r3, 8008514 <iprintf+0x14>
 800850e:	4620      	mov	r0, r4
 8008510:	f000 f8cc 	bl	80086ac <__sinit>
 8008514:	ab05      	add	r3, sp, #20
 8008516:	9a04      	ldr	r2, [sp, #16]
 8008518:	68a1      	ldr	r1, [r4, #8]
 800851a:	9301      	str	r3, [sp, #4]
 800851c:	4620      	mov	r0, r4
 800851e:	f000 fa53 	bl	80089c8 <_vfiprintf_r>
 8008522:	b002      	add	sp, #8
 8008524:	e8bd 4010 	ldmia.w	sp!, {r4, lr}
 8008528:	b004      	add	sp, #16
 800852a:	4770      	bx	lr
 800852c:	10000014 	.word	0x10000014

08008530 <rand>:
 8008530:	4b17      	ldr	r3, [pc, #92]	; (8008590 <rand+0x60>)
 8008532:	b510      	push	{r4, lr}
 8008534:	681c      	ldr	r4, [r3, #0]
 8008536:	6ba3      	ldr	r3, [r4, #56]	; 0x38
 8008538:	b9b3      	cbnz	r3, 8008568 <rand+0x38>
 800853a:	2018      	movs	r0, #24
 800853c:	f000 f968 	bl	8008810 <malloc>
 8008540:	63a0      	str	r0, [r4, #56]	; 0x38
 8008542:	b928      	cbnz	r0, 8008550 <rand+0x20>
 8008544:	4602      	mov	r2, r0
 8008546:	4b13      	ldr	r3, [pc, #76]	; (8008594 <rand+0x64>)
 8008548:	4813      	ldr	r0, [pc, #76]	; (8008598 <rand+0x68>)
 800854a:	214e      	movs	r1, #78	; 0x4e
 800854c:	f000 f838 	bl	80085c0 <__assert_func>
 8008550:	4a12      	ldr	r2, [pc, #72]	; (800859c <rand+0x6c>)
 8008552:	4b13      	ldr	r3, [pc, #76]	; (80085a0 <rand+0x70>)
 8008554:	e9c0 2300 	strd	r2, r3, [r0]
 8008558:	4b12      	ldr	r3, [pc, #72]	; (80085a4 <rand+0x74>)
 800855a:	6083      	str	r3, [r0, #8]
 800855c:	230b      	movs	r3, #11
 800855e:	8183      	strh	r3, [r0, #12]
 8008560:	2201      	movs	r2, #1
 8008562:	2300      	movs	r3, #0
 8008564:	e9c0 2304 	strd	r2, r3, [r0, #16]
 8008568:	6ba1      	ldr	r1, [r4, #56]	; 0x38
 800856a:	480f      	ldr	r0, [pc, #60]	; (80085a8 <rand+0x78>)
 800856c:	690a      	ldr	r2, [r1, #16]
 800856e:	694b      	ldr	r3, [r1, #20]
 8008570:	4c0e      	ldr	r4, [pc, #56]	; (80085ac <rand+0x7c>)
 8008572:	4350      	muls	r0, r2
 8008574:	fb04 0003 	mla	r0, r4, r3, r0
 8008578:	fba2 3404 	umull	r3, r4, r2, r4
 800857c:	1c5a      	adds	r2, r3, #1
 800857e:	4404      	add	r4, r0
 8008580:	f144 0000 	adc.w	r0, r4, #0
 8008584:	e9c1 2004 	strd	r2, r0, [r1, #16]
 8008588:	f020 4000 	bic.w	r0, r0, #2147483648	; 0x80000000
 800858c:	bd10      	pop	{r4, pc}
 800858e:	bf00      	nop
 8008590:	10000014 	.word	0x10000014
 8008594:	0800b4b8 	.word	0x0800b4b8
 8008598:	0800b4cf 	.word	0x0800b4cf
 800859c:	abcd330e 	.word	0xabcd330e
 80085a0:	e66d1234 	.word	0xe66d1234
 80085a4:	0005deec 	.word	0x0005deec
 80085a8:	5851f42d 	.word	0x5851f42d
 80085ac:	4c957f2d 	.word	0x4c957f2d

080085b0 <strcpy>:
 80085b0:	4603      	mov	r3, r0
 80085b2:	f811 2b01 	ldrb.w	r2, [r1], #1
 80085b6:	f803 2b01 	strb.w	r2, [r3], #1
 80085ba:	2a00      	cmp	r2, #0
 80085bc:	d1f9      	bne.n	80085b2 <strcpy+0x2>
 80085be:	4770      	bx	lr

080085c0 <__assert_func>:
 80085c0:	b51f      	push	{r0, r1, r2, r3, r4, lr}
 80085c2:	4614      	mov	r4, r2
 80085c4:	461a      	mov	r2, r3
 80085c6:	4b09      	ldr	r3, [pc, #36]	; (80085ec <__assert_func+0x2c>)
 80085c8:	681b      	ldr	r3, [r3, #0]
 80085ca:	4605      	mov	r5, r0
 80085cc:	68d8      	ldr	r0, [r3, #12]
 80085ce:	b14c      	cbz	r4, 80085e4 <__assert_func+0x24>
 80085d0:	4b07      	ldr	r3, [pc, #28]	; (80085f0 <__assert_func+0x30>)
 80085d2:	9100      	str	r1, [sp, #0]
 80085d4:	e9cd 3401 	strd	r3, r4, [sp, #4]
 80085d8:	4906      	ldr	r1, [pc, #24]	; (80085f4 <__assert_func+0x34>)
 80085da:	462b      	mov	r3, r5
 80085dc:	f000 f8e4 	bl	80087a8 <fiprintf>
 80085e0:	f000 fddc 	bl	800919c <abort>
 80085e4:	4b04      	ldr	r3, [pc, #16]	; (80085f8 <__assert_func+0x38>)
 80085e6:	461c      	mov	r4, r3
 80085e8:	e7f3      	b.n	80085d2 <__assert_func+0x12>
 80085ea:	bf00      	nop
 80085ec:	10000014 	.word	0x10000014
 80085f0:	0800b52e 	.word	0x0800b52e
 80085f4:	0800b53b 	.word	0x0800b53b
 80085f8:	0800a1f6 	.word	0x0800a1f6

080085fc <std>:
 80085fc:	2300      	movs	r3, #0
 80085fe:	b510      	push	{r4, lr}
 8008600:	4604      	mov	r4, r0
 8008602:	e9c0 3300 	strd	r3, r3, [r0]
 8008606:	e9c0 3304 	strd	r3, r3, [r0, #16]
 800860a:	6083      	str	r3, [r0, #8]
 800860c:	8181      	strh	r1, [r0, #12]
 800860e:	6643      	str	r3, [r0, #100]	; 0x64
 8008610:	81c2      	strh	r2, [r0, #14]
 8008612:	6183      	str	r3, [r0, #24]
 8008614:	4619      	mov	r1, r3
 8008616:	2208      	movs	r2, #8
 8008618:	305c      	adds	r0, #92	; 0x5c
 800861a:	f7ff ff69 	bl	80084f0 <memset>
 800861e:	4b05      	ldr	r3, [pc, #20]	; (8008634 <std+0x38>)
 8008620:	6263      	str	r3, [r4, #36]	; 0x24
 8008622:	4b05      	ldr	r3, [pc, #20]	; (8008638 <std+0x3c>)
 8008624:	62a3      	str	r3, [r4, #40]	; 0x28
 8008626:	4b05      	ldr	r3, [pc, #20]	; (800863c <std+0x40>)
 8008628:	62e3      	str	r3, [r4, #44]	; 0x2c
 800862a:	4b05      	ldr	r3, [pc, #20]	; (8008640 <std+0x44>)
 800862c:	6224      	str	r4, [r4, #32]
 800862e:	6323      	str	r3, [r4, #48]	; 0x30
 8008630:	bd10      	pop	{r4, pc}
 8008632:	bf00      	nop
 8008634:	08008f71 	.word	0x08008f71
 8008638:	08008f93 	.word	0x08008f93
 800863c:	08008fcb 	.word	0x08008fcb
 8008640:	08008fef 	.word	0x08008fef

08008644 <_cleanup_r>:
 8008644:	4901      	ldr	r1, [pc, #4]	; (800864c <_cleanup_r+0x8>)
 8008646:	f000 b8c1 	b.w	80087cc <_fwalk_reent>
 800864a:	bf00      	nop
 800864c:	080092d9 	.word	0x080092d9

08008650 <__sfmoreglue>:
 8008650:	b570      	push	{r4, r5, r6, lr}
 8008652:	1e4a      	subs	r2, r1, #1
 8008654:	2568      	movs	r5, #104	; 0x68
 8008656:	4355      	muls	r5, r2
 8008658:	460e      	mov	r6, r1
 800865a:	f105 0174 	add.w	r1, r5, #116	; 0x74
 800865e:	f000 f92f 	bl	80088c0 <_malloc_r>
 8008662:	4604      	mov	r4, r0
 8008664:	b140      	cbz	r0, 8008678 <__sfmoreglue+0x28>
 8008666:	2100      	movs	r1, #0
 8008668:	e9c0 1600 	strd	r1, r6, [r0]
 800866c:	300c      	adds	r0, #12
 800866e:	60a0      	str	r0, [r4, #8]
 8008670:	f105 0268 	add.w	r2, r5, #104	; 0x68
 8008674:	f7ff ff3c 	bl	80084f0 <memset>
 8008678:	4620      	mov	r0, r4
 800867a:	bd70      	pop	{r4, r5, r6, pc}

0800867c <__sfp_lock_acquire>:
 800867c:	4801      	ldr	r0, [pc, #4]	; (8008684 <__sfp_lock_acquire+0x8>)
 800867e:	f000 b8c5 	b.w	800880c <__retarget_lock_acquire_recursive>
 8008682:	bf00      	nop
 8008684:	2000a7bc 	.word	0x2000a7bc

08008688 <__sfp_lock_release>:
 8008688:	4801      	ldr	r0, [pc, #4]	; (8008690 <__sfp_lock_release+0x8>)
 800868a:	f000 b8c0 	b.w	800880e <__retarget_lock_release_recursive>
 800868e:	bf00      	nop
 8008690:	2000a7bc 	.word	0x2000a7bc

08008694 <__sinit_lock_acquire>:
 8008694:	4801      	ldr	r0, [pc, #4]	; (800869c <__sinit_lock_acquire+0x8>)
 8008696:	f000 b8b9 	b.w	800880c <__retarget_lock_acquire_recursive>
 800869a:	bf00      	nop
 800869c:	2000a7b7 	.word	0x2000a7b7

080086a0 <__sinit_lock_release>:
 80086a0:	4801      	ldr	r0, [pc, #4]	; (80086a8 <__sinit_lock_release+0x8>)
 80086a2:	f000 b8b4 	b.w	800880e <__retarget_lock_release_recursive>
 80086a6:	bf00      	nop
 80086a8:	2000a7b7 	.word	0x2000a7b7

080086ac <__sinit>:
 80086ac:	b510      	push	{r4, lr}
 80086ae:	4604      	mov	r4, r0
 80086b0:	f7ff fff0 	bl	8008694 <__sinit_lock_acquire>
 80086b4:	69a3      	ldr	r3, [r4, #24]
 80086b6:	b11b      	cbz	r3, 80086c0 <__sinit+0x14>
 80086b8:	e8bd 4010 	ldmia.w	sp!, {r4, lr}
 80086bc:	f7ff bff0 	b.w	80086a0 <__sinit_lock_release>
 80086c0:	e9c4 3312 	strd	r3, r3, [r4, #72]	; 0x48
 80086c4:	6523      	str	r3, [r4, #80]	; 0x50
 80086c6:	4b13      	ldr	r3, [pc, #76]	; (8008714 <__sinit+0x68>)
 80086c8:	4a13      	ldr	r2, [pc, #76]	; (8008718 <__sinit+0x6c>)
 80086ca:	681b      	ldr	r3, [r3, #0]
 80086cc:	62a2      	str	r2, [r4, #40]	; 0x28
 80086ce:	42a3      	cmp	r3, r4
 80086d0:	bf04      	itt	eq
 80086d2:	2301      	moveq	r3, #1
 80086d4:	61a3      	streq	r3, [r4, #24]
 80086d6:	4620      	mov	r0, r4
 80086d8:	f000 f820 	bl	800871c <__sfp>
 80086dc:	6060      	str	r0, [r4, #4]
 80086de:	4620      	mov	r0, r4
 80086e0:	f000 f81c 	bl	800871c <__sfp>
 80086e4:	60a0      	str	r0, [r4, #8]
 80086e6:	4620      	mov	r0, r4
 80086e8:	f000 f818 	bl	800871c <__sfp>
 80086ec:	2200      	movs	r2, #0
 80086ee:	60e0      	str	r0, [r4, #12]
 80086f0:	2104      	movs	r1, #4
 80086f2:	6860      	ldr	r0, [r4, #4]
 80086f4:	f7ff ff82 	bl	80085fc <std>
 80086f8:	68a0      	ldr	r0, [r4, #8]
 80086fa:	2201      	movs	r2, #1
 80086fc:	2109      	movs	r1, #9
 80086fe:	f7ff ff7d 	bl	80085fc <std>
 8008702:	68e0      	ldr	r0, [r4, #12]
 8008704:	2202      	movs	r2, #2
 8008706:	2112      	movs	r1, #18
 8008708:	f7ff ff78 	bl	80085fc <std>
 800870c:	2301      	movs	r3, #1
 800870e:	61a3      	str	r3, [r4, #24]
 8008710:	e7d2      	b.n	80086b8 <__sinit+0xc>
 8008712:	bf00      	nop
 8008714:	0800b4b4 	.word	0x0800b4b4
 8008718:	08008645 	.word	0x08008645

0800871c <__sfp>:
 800871c:	b5f8      	push	{r3, r4, r5, r6, r7, lr}
 800871e:	4607      	mov	r7, r0
 8008720:	f7ff ffac 	bl	800867c <__sfp_lock_acquire>
 8008724:	4b1e      	ldr	r3, [pc, #120]	; (80087a0 <__sfp+0x84>)
 8008726:	681e      	ldr	r6, [r3, #0]
 8008728:	69b3      	ldr	r3, [r6, #24]
 800872a:	b913      	cbnz	r3, 8008732 <__sfp+0x16>
 800872c:	4630      	mov	r0, r6
 800872e:	f7ff ffbd 	bl	80086ac <__sinit>
 8008732:	3648      	adds	r6, #72	; 0x48
 8008734:	e9d6 3401 	ldrd	r3, r4, [r6, #4]
 8008738:	3b01      	subs	r3, #1
 800873a:	d503      	bpl.n	8008744 <__sfp+0x28>
 800873c:	6833      	ldr	r3, [r6, #0]
 800873e:	b30b      	cbz	r3, 8008784 <__sfp+0x68>
 8008740:	6836      	ldr	r6, [r6, #0]
 8008742:	e7f7      	b.n	8008734 <__sfp+0x18>
 8008744:	f9b4 500c 	ldrsh.w	r5, [r4, #12]
 8008748:	b9d5      	cbnz	r5, 8008780 <__sfp+0x64>
 800874a:	4b16      	ldr	r3, [pc, #88]	; (80087a4 <__sfp+0x88>)
 800874c:	60e3      	str	r3, [r4, #12]
 800874e:	f104 0058 	add.w	r0, r4, #88	; 0x58
 8008752:	6665      	str	r5, [r4, #100]	; 0x64
 8008754:	f000 f859 	bl	800880a <__retarget_lock_init_recursive>
 8008758:	f7ff ff96 	bl	8008688 <__sfp_lock_release>
 800875c:	e9c4 5501 	strd	r5, r5, [r4, #4]
 8008760:	e9c4 5504 	strd	r5, r5, [r4, #16]
 8008764:	6025      	str	r5, [r4, #0]
 8008766:	61a5      	str	r5, [r4, #24]
 8008768:	2208      	movs	r2, #8
 800876a:	4629      	mov	r1, r5
 800876c:	f104 005c 	add.w	r0, r4, #92	; 0x5c
 8008770:	f7ff febe 	bl	80084f0 <memset>
 8008774:	e9c4 550d 	strd	r5, r5, [r4, #52]	; 0x34
 8008778:	e9c4 5512 	strd	r5, r5, [r4, #72]	; 0x48
 800877c:	4620      	mov	r0, r4
 800877e:	bdf8      	pop	{r3, r4, r5, r6, r7, pc}
 8008780:	3468      	adds	r4, #104	; 0x68
 8008782:	e7d9      	b.n	8008738 <__sfp+0x1c>
 8008784:	2104      	movs	r1, #4
 8008786:	4638      	mov	r0, r7
 8008788:	f7ff ff62 	bl	8008650 <__sfmoreglue>
 800878c:	4604      	mov	r4, r0
 800878e:	6030      	str	r0, [r6, #0]
 8008790:	2800      	cmp	r0, #0
 8008792:	d1d5      	bne.n	8008740 <__sfp+0x24>
 8008794:	f7ff ff78 	bl	8008688 <__sfp_lock_release>
 8008798:	230c      	movs	r3, #12
 800879a:	603b      	str	r3, [r7, #0]
 800879c:	e7ee      	b.n	800877c <__sfp+0x60>
 800879e:	bf00      	nop
 80087a0:	0800b4b4 	.word	0x0800b4b4
 80087a4:	ffff0001 	.word	0xffff0001

080087a8 <fiprintf>:
 80087a8:	b40e      	push	{r1, r2, r3}
 80087aa:	b503      	push	{r0, r1, lr}
 80087ac:	4601      	mov	r1, r0
 80087ae:	ab03      	add	r3, sp, #12
 80087b0:	4805      	ldr	r0, [pc, #20]	; (80087c8 <fiprintf+0x20>)
 80087b2:	f853 2b04 	ldr.w	r2, [r3], #4
 80087b6:	6800      	ldr	r0, [r0, #0]
 80087b8:	9301      	str	r3, [sp, #4]
 80087ba:	f000 f905 	bl	80089c8 <_vfiprintf_r>
 80087be:	b002      	add	sp, #8
 80087c0:	f85d eb04 	ldr.w	lr, [sp], #4
 80087c4:	b003      	add	sp, #12
 80087c6:	4770      	bx	lr
 80087c8:	10000014 	.word	0x10000014

080087cc <_fwalk_reent>:
 80087cc:	e92d 43f8 	stmdb	sp!, {r3, r4, r5, r6, r7, r8, r9, lr}
 80087d0:	4606      	mov	r6, r0
 80087d2:	4688      	mov	r8, r1
 80087d4:	f100 0448 	add.w	r4, r0, #72	; 0x48
 80087d8:	2700      	movs	r7, #0
 80087da:	e9d4 9501 	ldrd	r9, r5, [r4, #4]
 80087de:	f1b9 0901 	subs.w	r9, r9, #1
 80087e2:	d505      	bpl.n	80087f0 <_fwalk_reent+0x24>
 80087e4:	6824      	ldr	r4, [r4, #0]
 80087e6:	2c00      	cmp	r4, #0
 80087e8:	d1f7      	bne.n	80087da <_fwalk_reent+0xe>
 80087ea:	4638      	mov	r0, r7
 80087ec:	e8bd 83f8 	ldmia.w	sp!, {r3, r4, r5, r6, r7, r8, r9, pc}
 80087f0:	89ab      	ldrh	r3, [r5, #12]
 80087f2:	2b01      	cmp	r3, #1
 80087f4:	d907      	bls.n	8008806 <_fwalk_reent+0x3a>
 80087f6:	f9b5 300e 	ldrsh.w	r3, [r5, #14]
 80087fa:	3301      	adds	r3, #1
 80087fc:	d003      	beq.n	8008806 <_fwalk_reent+0x3a>
 80087fe:	4629      	mov	r1, r5
 8008800:	4630      	mov	r0, r6
 8008802:	47c0      	blx	r8
 8008804:	4307      	orrs	r7, r0
 8008806:	3568      	adds	r5, #104	; 0x68
 8008808:	e7e9      	b.n	80087de <_fwalk_reent+0x12>

0800880a <__retarget_lock_init_recursive>:
 800880a:	4770      	bx	lr

0800880c <__retarget_lock_acquire_recursive>:
 800880c:	4770      	bx	lr

0800880e <__retarget_lock_release_recursive>:
 800880e:	4770      	bx	lr

08008810 <malloc>:
 8008810:	4b02      	ldr	r3, [pc, #8]	; (800881c <malloc+0xc>)
 8008812:	4601      	mov	r1, r0
 8008814:	6818      	ldr	r0, [r3, #0]
 8008816:	f000 b853 	b.w	80088c0 <_malloc_r>
 800881a:	bf00      	nop
 800881c:	10000014 	.word	0x10000014

08008820 <_free_r>:
 8008820:	b537      	push	{r0, r1, r2, r4, r5, lr}
 8008822:	2900      	cmp	r1, #0
 8008824:	d048      	beq.n	80088b8 <_free_r+0x98>
 8008826:	f851 3c04 	ldr.w	r3, [r1, #-4]
 800882a:	9001      	str	r0, [sp, #4]
 800882c:	2b00      	cmp	r3, #0
 800882e:	f1a1 0404 	sub.w	r4, r1, #4
 8008832:	bfb8      	it	lt
 8008834:	18e4      	addlt	r4, r4, r3
 8008836:	f000 fe01 	bl	800943c <__malloc_lock>
 800883a:	4a20      	ldr	r2, [pc, #128]	; (80088bc <_free_r+0x9c>)
 800883c:	9801      	ldr	r0, [sp, #4]
 800883e:	6813      	ldr	r3, [r2, #0]
 8008840:	4615      	mov	r5, r2
 8008842:	b933      	cbnz	r3, 8008852 <_free_r+0x32>
 8008844:	6063      	str	r3, [r4, #4]
 8008846:	6014      	str	r4, [r2, #0]
 8008848:	b003      	add	sp, #12
 800884a:	e8bd 4030 	ldmia.w	sp!, {r4, r5, lr}
 800884e:	f000 bdfb 	b.w	8009448 <__malloc_unlock>
 8008852:	42a3      	cmp	r3, r4
 8008854:	d90b      	bls.n	800886e <_free_r+0x4e>
 8008856:	6821      	ldr	r1, [r4, #0]
 8008858:	1862      	adds	r2, r4, r1
 800885a:	4293      	cmp	r3, r2
 800885c:	bf04      	itt	eq
 800885e:	681a      	ldreq	r2, [r3, #0]
 8008860:	685b      	ldreq	r3, [r3, #4]
 8008862:	6063      	str	r3, [r4, #4]
 8008864:	bf04      	itt	eq
 8008866:	1852      	addeq	r2, r2, r1
 8008868:	6022      	streq	r2, [r4, #0]
 800886a:	602c      	str	r4, [r5, #0]
 800886c:	e7ec      	b.n	8008848 <_free_r+0x28>
 800886e:	461a      	mov	r2, r3
 8008870:	685b      	ldr	r3, [r3, #4]
 8008872:	b10b      	cbz	r3, 8008878 <_free_r+0x58>
 8008874:	42a3      	cmp	r3, r4
 8008876:	d9fa      	bls.n	800886e <_free_r+0x4e>
 8008878:	6811      	ldr	r1, [r2, #0]
 800887a:	1855      	adds	r5, r2, r1
 800887c:	42a5      	cmp	r5, r4
 800887e:	d10b      	bne.n	8008898 <_free_r+0x78>
 8008880:	6824      	ldr	r4, [r4, #0]
 8008882:	4421      	add	r1, r4
 8008884:	1854      	adds	r4, r2, r1
 8008886:	42a3      	cmp	r3, r4
 8008888:	6011      	str	r1, [r2, #0]
 800888a:	d1dd      	bne.n	8008848 <_free_r+0x28>
 800888c:	681c      	ldr	r4, [r3, #0]
 800888e:	685b      	ldr	r3, [r3, #4]
 8008890:	6053      	str	r3, [r2, #4]
 8008892:	4421      	add	r1, r4
 8008894:	6011      	str	r1, [r2, #0]
 8008896:	e7d7      	b.n	8008848 <_free_r+0x28>
 8008898:	d902      	bls.n	80088a0 <_free_r+0x80>
 800889a:	230c      	movs	r3, #12
 800889c:	6003      	str	r3, [r0, #0]
 800889e:	e7d3      	b.n	8008848 <_free_r+0x28>
 80088a0:	6825      	ldr	r5, [r4, #0]
 80088a2:	1961      	adds	r1, r4, r5
 80088a4:	428b      	cmp	r3, r1
 80088a6:	bf04      	itt	eq
 80088a8:	6819      	ldreq	r1, [r3, #0]
 80088aa:	685b      	ldreq	r3, [r3, #4]
 80088ac:	6063      	str	r3, [r4, #4]
 80088ae:	bf04      	itt	eq
 80088b0:	1949      	addeq	r1, r1, r5
 80088b2:	6021      	streq	r1, [r4, #0]
 80088b4:	6054      	str	r4, [r2, #4]
 80088b6:	e7c7      	b.n	8008848 <_free_r+0x28>
 80088b8:	b003      	add	sp, #12
 80088ba:	bd30      	pop	{r4, r5, pc}
 80088bc:	20000198 	.word	0x20000198

080088c0 <_malloc_r>:
 80088c0:	b5f8      	push	{r3, r4, r5, r6, r7, lr}
 80088c2:	1ccd      	adds	r5, r1, #3
 80088c4:	f025 0503 	bic.w	r5, r5, #3
 80088c8:	3508      	adds	r5, #8
 80088ca:	2d0c      	cmp	r5, #12
 80088cc:	bf38      	it	cc
 80088ce:	250c      	movcc	r5, #12
 80088d0:	2d00      	cmp	r5, #0
 80088d2:	4606      	mov	r6, r0
 80088d4:	db01      	blt.n	80088da <_malloc_r+0x1a>
 80088d6:	42a9      	cmp	r1, r5
 80088d8:	d903      	bls.n	80088e2 <_malloc_r+0x22>
 80088da:	230c      	movs	r3, #12
 80088dc:	6033      	str	r3, [r6, #0]
 80088de:	2000      	movs	r0, #0
 80088e0:	bdf8      	pop	{r3, r4, r5, r6, r7, pc}
 80088e2:	f000 fdab 	bl	800943c <__malloc_lock>
 80088e6:	4921      	ldr	r1, [pc, #132]	; (800896c <_malloc_r+0xac>)
 80088e8:	680a      	ldr	r2, [r1, #0]
 80088ea:	4614      	mov	r4, r2
 80088ec:	b99c      	cbnz	r4, 8008916 <_malloc_r+0x56>
 80088ee:	4f20      	ldr	r7, [pc, #128]	; (8008970 <_malloc_r+0xb0>)
 80088f0:	683b      	ldr	r3, [r7, #0]
 80088f2:	b923      	cbnz	r3, 80088fe <_malloc_r+0x3e>
 80088f4:	4621      	mov	r1, r4
 80088f6:	4630      	mov	r0, r6
 80088f8:	f000 fb2a 	bl	8008f50 <_sbrk_r>
 80088fc:	6038      	str	r0, [r7, #0]
 80088fe:	4629      	mov	r1, r5
 8008900:	4630      	mov	r0, r6
 8008902:	f000 fb25 	bl	8008f50 <_sbrk_r>
 8008906:	1c43      	adds	r3, r0, #1
 8008908:	d123      	bne.n	8008952 <_malloc_r+0x92>
 800890a:	230c      	movs	r3, #12
 800890c:	6033      	str	r3, [r6, #0]
 800890e:	4630      	mov	r0, r6
 8008910:	f000 fd9a 	bl	8009448 <__malloc_unlock>
 8008914:	e7e3      	b.n	80088de <_malloc_r+0x1e>
 8008916:	6823      	ldr	r3, [r4, #0]
 8008918:	1b5b      	subs	r3, r3, r5
 800891a:	d417      	bmi.n	800894c <_malloc_r+0x8c>
 800891c:	2b0b      	cmp	r3, #11
 800891e:	d903      	bls.n	8008928 <_malloc_r+0x68>
 8008920:	6023      	str	r3, [r4, #0]
 8008922:	441c      	add	r4, r3
 8008924:	6025      	str	r5, [r4, #0]
 8008926:	e004      	b.n	8008932 <_malloc_r+0x72>
 8008928:	6863      	ldr	r3, [r4, #4]
 800892a:	42a2      	cmp	r2, r4
 800892c:	bf0c      	ite	eq
 800892e:	600b      	streq	r3, [r1, #0]
 8008930:	6053      	strne	r3, [r2, #4]
 8008932:	4630      	mov	r0, r6
 8008934:	f000 fd88 	bl	8009448 <__malloc_unlock>
 8008938:	f104 000b 	add.w	r0, r4, #11
 800893c:	1d23      	adds	r3, r4, #4
 800893e:	f020 0007 	bic.w	r0, r0, #7
 8008942:	1ac2      	subs	r2, r0, r3
 8008944:	d0cc      	beq.n	80088e0 <_malloc_r+0x20>
 8008946:	1a1b      	subs	r3, r3, r0
 8008948:	50a3      	str	r3, [r4, r2]
 800894a:	e7c9      	b.n	80088e0 <_malloc_r+0x20>
 800894c:	4622      	mov	r2, r4
 800894e:	6864      	ldr	r4, [r4, #4]
 8008950:	e7cc      	b.n	80088ec <_malloc_r+0x2c>
 8008952:	1cc4      	adds	r4, r0, #3
 8008954:	f024 0403 	bic.w	r4, r4, #3
 8008958:	42a0      	cmp	r0, r4
 800895a:	d0e3      	beq.n	8008924 <_malloc_r+0x64>
 800895c:	1a21      	subs	r1, r4, r0
 800895e:	4630      	mov	r0, r6
 8008960:	f000 faf6 	bl	8008f50 <_sbrk_r>
 8008964:	3001      	adds	r0, #1
 8008966:	d1dd      	bne.n	8008924 <_malloc_r+0x64>
 8008968:	e7cf      	b.n	800890a <_malloc_r+0x4a>
 800896a:	bf00      	nop
 800896c:	20000198 	.word	0x20000198
 8008970:	2000019c 	.word	0x2000019c

08008974 <__sfputc_r>:
 8008974:	6893      	ldr	r3, [r2, #8]
 8008976:	3b01      	subs	r3, #1
 8008978:	2b00      	cmp	r3, #0
 800897a:	b410      	push	{r4}
 800897c:	6093      	str	r3, [r2, #8]
 800897e:	da08      	bge.n	8008992 <__sfputc_r+0x1e>
 8008980:	6994      	ldr	r4, [r2, #24]
 8008982:	42a3      	cmp	r3, r4
 8008984:	db01      	blt.n	800898a <__sfputc_r+0x16>
 8008986:	290a      	cmp	r1, #10
 8008988:	d103      	bne.n	8008992 <__sfputc_r+0x1e>
 800898a:	f85d 4b04 	ldr.w	r4, [sp], #4
 800898e:	f000 bb33 	b.w	8008ff8 <__swbuf_r>
 8008992:	6813      	ldr	r3, [r2, #0]
 8008994:	1c58      	adds	r0, r3, #1
 8008996:	6010      	str	r0, [r2, #0]
 8008998:	7019      	strb	r1, [r3, #0]
 800899a:	4608      	mov	r0, r1
 800899c:	f85d 4b04 	ldr.w	r4, [sp], #4
 80089a0:	4770      	bx	lr

080089a2 <__sfputs_r>:
 80089a2:	b5f8      	push	{r3, r4, r5, r6, r7, lr}
 80089a4:	4606      	mov	r6, r0
 80089a6:	460f      	mov	r7, r1
 80089a8:	4614      	mov	r4, r2
 80089aa:	18d5      	adds	r5, r2, r3
 80089ac:	42ac      	cmp	r4, r5
 80089ae:	d101      	bne.n	80089b4 <__sfputs_r+0x12>
 80089b0:	2000      	movs	r0, #0
 80089b2:	e007      	b.n	80089c4 <__sfputs_r+0x22>
 80089b4:	f814 1b01 	ldrb.w	r1, [r4], #1
 80089b8:	463a      	mov	r2, r7
 80089ba:	4630      	mov	r0, r6
 80089bc:	f7ff ffda 	bl	8008974 <__sfputc_r>
 80089c0:	1c43      	adds	r3, r0, #1
 80089c2:	d1f3      	bne.n	80089ac <__sfputs_r+0xa>
 80089c4:	bdf8      	pop	{r3, r4, r5, r6, r7, pc}
	...

080089c8 <_vfiprintf_r>:
 80089c8:	e92d 4ff0 	stmdb	sp!, {r4, r5, r6, r7, r8, r9, sl, fp, lr}
 80089cc:	460d      	mov	r5, r1
 80089ce:	b09d      	sub	sp, #116	; 0x74
 80089d0:	4614      	mov	r4, r2
 80089d2:	4698      	mov	r8, r3
 80089d4:	4606      	mov	r6, r0
 80089d6:	b118      	cbz	r0, 80089e0 <_vfiprintf_r+0x18>
 80089d8:	6983      	ldr	r3, [r0, #24]
 80089da:	b90b      	cbnz	r3, 80089e0 <_vfiprintf_r+0x18>
 80089dc:	f7ff fe66 	bl	80086ac <__sinit>
 80089e0:	4b89      	ldr	r3, [pc, #548]	; (8008c08 <_vfiprintf_r+0x240>)
 80089e2:	429d      	cmp	r5, r3
 80089e4:	d11b      	bne.n	8008a1e <_vfiprintf_r+0x56>
 80089e6:	6875      	ldr	r5, [r6, #4]
 80089e8:	6e6b      	ldr	r3, [r5, #100]	; 0x64
 80089ea:	07d9      	lsls	r1, r3, #31
 80089ec:	d405      	bmi.n	80089fa <_vfiprintf_r+0x32>
 80089ee:	89ab      	ldrh	r3, [r5, #12]
 80089f0:	059a      	lsls	r2, r3, #22
 80089f2:	d402      	bmi.n	80089fa <_vfiprintf_r+0x32>
 80089f4:	6da8      	ldr	r0, [r5, #88]	; 0x58
 80089f6:	f7ff ff09 	bl	800880c <__retarget_lock_acquire_recursive>
 80089fa:	89ab      	ldrh	r3, [r5, #12]
 80089fc:	071b      	lsls	r3, r3, #28
 80089fe:	d501      	bpl.n	8008a04 <_vfiprintf_r+0x3c>
 8008a00:	692b      	ldr	r3, [r5, #16]
 8008a02:	b9eb      	cbnz	r3, 8008a40 <_vfiprintf_r+0x78>
 8008a04:	4629      	mov	r1, r5
 8008a06:	4630      	mov	r0, r6
 8008a08:	f000 fb5a 	bl	80090c0 <__swsetup_r>
 8008a0c:	b1c0      	cbz	r0, 8008a40 <_vfiprintf_r+0x78>
 8008a0e:	6e6b      	ldr	r3, [r5, #100]	; 0x64
 8008a10:	07dc      	lsls	r4, r3, #31
 8008a12:	d50e      	bpl.n	8008a32 <_vfiprintf_r+0x6a>
 8008a14:	f04f 30ff 	mov.w	r0, #4294967295
 8008a18:	b01d      	add	sp, #116	; 0x74
 8008a1a:	e8bd 8ff0 	ldmia.w	sp!, {r4, r5, r6, r7, r8, r9, sl, fp, pc}
 8008a1e:	4b7b      	ldr	r3, [pc, #492]	; (8008c0c <_vfiprintf_r+0x244>)
 8008a20:	429d      	cmp	r5, r3
 8008a22:	d101      	bne.n	8008a28 <_vfiprintf_r+0x60>
 8008a24:	68b5      	ldr	r5, [r6, #8]
 8008a26:	e7df      	b.n	80089e8 <_vfiprintf_r+0x20>
 8008a28:	4b79      	ldr	r3, [pc, #484]	; (8008c10 <_vfiprintf_r+0x248>)
 8008a2a:	429d      	cmp	r5, r3
 8008a2c:	bf08      	it	eq
 8008a2e:	68f5      	ldreq	r5, [r6, #12]
 8008a30:	e7da      	b.n	80089e8 <_vfiprintf_r+0x20>
 8008a32:	89ab      	ldrh	r3, [r5, #12]
 8008a34:	0598      	lsls	r0, r3, #22
 8008a36:	d4ed      	bmi.n	8008a14 <_vfiprintf_r+0x4c>
 8008a38:	6da8      	ldr	r0, [r5, #88]	; 0x58
 8008a3a:	f7ff fee8 	bl	800880e <__retarget_lock_release_recursive>
 8008a3e:	e7e9      	b.n	8008a14 <_vfiprintf_r+0x4c>
 8008a40:	2300      	movs	r3, #0
 8008a42:	9309      	str	r3, [sp, #36]	; 0x24
 8008a44:	2320      	movs	r3, #32
 8008a46:	f88d 3029 	strb.w	r3, [sp, #41]	; 0x29
 8008a4a:	f8cd 800c 	str.w	r8, [sp, #12]
 8008a4e:	2330      	movs	r3, #48	; 0x30
 8008a50:	f8df 81c0 	ldr.w	r8, [pc, #448]	; 8008c14 <_vfiprintf_r+0x24c>
 8008a54:	f88d 302a 	strb.w	r3, [sp, #42]	; 0x2a
 8008a58:	f04f 0901 	mov.w	r9, #1
 8008a5c:	4623      	mov	r3, r4
 8008a5e:	469a      	mov	sl, r3
 8008a60:	f813 2b01 	ldrb.w	r2, [r3], #1
 8008a64:	b10a      	cbz	r2, 8008a6a <_vfiprintf_r+0xa2>
 8008a66:	2a25      	cmp	r2, #37	; 0x25
 8008a68:	d1f9      	bne.n	8008a5e <_vfiprintf_r+0x96>
 8008a6a:	ebba 0b04 	subs.w	fp, sl, r4
 8008a6e:	d00b      	beq.n	8008a88 <_vfiprintf_r+0xc0>
 8008a70:	465b      	mov	r3, fp
 8008a72:	4622      	mov	r2, r4
 8008a74:	4629      	mov	r1, r5
 8008a76:	4630      	mov	r0, r6
 8008a78:	f7ff ff93 	bl	80089a2 <__sfputs_r>
 8008a7c:	3001      	adds	r0, #1
 8008a7e:	f000 80aa 	beq.w	8008bd6 <_vfiprintf_r+0x20e>
 8008a82:	9a09      	ldr	r2, [sp, #36]	; 0x24
 8008a84:	445a      	add	r2, fp
 8008a86:	9209      	str	r2, [sp, #36]	; 0x24
 8008a88:	f89a 3000 	ldrb.w	r3, [sl]
 8008a8c:	2b00      	cmp	r3, #0
 8008a8e:	f000 80a2 	beq.w	8008bd6 <_vfiprintf_r+0x20e>
 8008a92:	2300      	movs	r3, #0
 8008a94:	f04f 32ff 	mov.w	r2, #4294967295
 8008a98:	e9cd 2305 	strd	r2, r3, [sp, #20]
 8008a9c:	f10a 0a01 	add.w	sl, sl, #1
 8008aa0:	9304      	str	r3, [sp, #16]
 8008aa2:	9307      	str	r3, [sp, #28]
 8008aa4:	f88d 3053 	strb.w	r3, [sp, #83]	; 0x53
 8008aa8:	931a      	str	r3, [sp, #104]	; 0x68
 8008aaa:	4654      	mov	r4, sl
 8008aac:	2205      	movs	r2, #5
 8008aae:	f814 1b01 	ldrb.w	r1, [r4], #1
 8008ab2:	4858      	ldr	r0, [pc, #352]	; (8008c14 <_vfiprintf_r+0x24c>)
 8008ab4:	f7f7 fbac 	bl	8000210 <memchr>
 8008ab8:	9a04      	ldr	r2, [sp, #16]
 8008aba:	b9d8      	cbnz	r0, 8008af4 <_vfiprintf_r+0x12c>
 8008abc:	06d1      	lsls	r1, r2, #27
 8008abe:	bf44      	itt	mi
 8008ac0:	2320      	movmi	r3, #32
 8008ac2:	f88d 3053 	strbmi.w	r3, [sp, #83]	; 0x53
 8008ac6:	0713      	lsls	r3, r2, #28
 8008ac8:	bf44      	itt	mi
 8008aca:	232b      	movmi	r3, #43	; 0x2b
 8008acc:	f88d 3053 	strbmi.w	r3, [sp, #83]	; 0x53
 8008ad0:	f89a 3000 	ldrb.w	r3, [sl]
 8008ad4:	2b2a      	cmp	r3, #42	; 0x2a
 8008ad6:	d015      	beq.n	8008b04 <_vfiprintf_r+0x13c>
 8008ad8:	9a07      	ldr	r2, [sp, #28]
 8008ada:	4654      	mov	r4, sl
 8008adc:	2000      	movs	r0, #0
 8008ade:	f04f 0c0a 	mov.w	ip, #10
 8008ae2:	4621      	mov	r1, r4
 8008ae4:	f811 3b01 	ldrb.w	r3, [r1], #1
 8008ae8:	3b30      	subs	r3, #48	; 0x30
 8008aea:	2b09      	cmp	r3, #9
 8008aec:	d94e      	bls.n	8008b8c <_vfiprintf_r+0x1c4>
 8008aee:	b1b0      	cbz	r0, 8008b1e <_vfiprintf_r+0x156>
 8008af0:	9207      	str	r2, [sp, #28]
 8008af2:	e014      	b.n	8008b1e <_vfiprintf_r+0x156>
 8008af4:	eba0 0308 	sub.w	r3, r0, r8
 8008af8:	fa09 f303 	lsl.w	r3, r9, r3
 8008afc:	4313      	orrs	r3, r2
 8008afe:	9304      	str	r3, [sp, #16]
 8008b00:	46a2      	mov	sl, r4
 8008b02:	e7d2      	b.n	8008aaa <_vfiprintf_r+0xe2>
 8008b04:	9b03      	ldr	r3, [sp, #12]
 8008b06:	1d19      	adds	r1, r3, #4
 8008b08:	681b      	ldr	r3, [r3, #0]
 8008b0a:	9103      	str	r1, [sp, #12]
 8008b0c:	2b00      	cmp	r3, #0
 8008b0e:	bfbb      	ittet	lt
 8008b10:	425b      	neglt	r3, r3
 8008b12:	f042 0202 	orrlt.w	r2, r2, #2
 8008b16:	9307      	strge	r3, [sp, #28]
 8008b18:	9307      	strlt	r3, [sp, #28]
 8008b1a:	bfb8      	it	lt
 8008b1c:	9204      	strlt	r2, [sp, #16]
 8008b1e:	7823      	ldrb	r3, [r4, #0]
 8008b20:	2b2e      	cmp	r3, #46	; 0x2e
 8008b22:	d10c      	bne.n	8008b3e <_vfiprintf_r+0x176>
 8008b24:	7863      	ldrb	r3, [r4, #1]
 8008b26:	2b2a      	cmp	r3, #42	; 0x2a
 8008b28:	d135      	bne.n	8008b96 <_vfiprintf_r+0x1ce>
 8008b2a:	9b03      	ldr	r3, [sp, #12]
 8008b2c:	1d1a      	adds	r2, r3, #4
 8008b2e:	681b      	ldr	r3, [r3, #0]
 8008b30:	9203      	str	r2, [sp, #12]
 8008b32:	2b00      	cmp	r3, #0
 8008b34:	bfb8      	it	lt
 8008b36:	f04f 33ff 	movlt.w	r3, #4294967295
 8008b3a:	3402      	adds	r4, #2
 8008b3c:	9305      	str	r3, [sp, #20]
 8008b3e:	f8df a0e4 	ldr.w	sl, [pc, #228]	; 8008c24 <_vfiprintf_r+0x25c>
 8008b42:	7821      	ldrb	r1, [r4, #0]
 8008b44:	2203      	movs	r2, #3
 8008b46:	4650      	mov	r0, sl
 8008b48:	f7f7 fb62 	bl	8000210 <memchr>
 8008b4c:	b140      	cbz	r0, 8008b60 <_vfiprintf_r+0x198>
 8008b4e:	2340      	movs	r3, #64	; 0x40
 8008b50:	eba0 000a 	sub.w	r0, r0, sl
 8008b54:	fa03 f000 	lsl.w	r0, r3, r0
 8008b58:	9b04      	ldr	r3, [sp, #16]
 8008b5a:	4303      	orrs	r3, r0
 8008b5c:	3401      	adds	r4, #1
 8008b5e:	9304      	str	r3, [sp, #16]
 8008b60:	f814 1b01 	ldrb.w	r1, [r4], #1
 8008b64:	482c      	ldr	r0, [pc, #176]	; (8008c18 <_vfiprintf_r+0x250>)
 8008b66:	f88d 1028 	strb.w	r1, [sp, #40]	; 0x28
 8008b6a:	2206      	movs	r2, #6
 8008b6c:	f7f7 fb50 	bl	8000210 <memchr>
 8008b70:	2800      	cmp	r0, #0
 8008b72:	d03f      	beq.n	8008bf4 <_vfiprintf_r+0x22c>
 8008b74:	4b29      	ldr	r3, [pc, #164]	; (8008c1c <_vfiprintf_r+0x254>)
 8008b76:	bb1b      	cbnz	r3, 8008bc0 <_vfiprintf_r+0x1f8>
 8008b78:	9b03      	ldr	r3, [sp, #12]
 8008b7a:	3307      	adds	r3, #7
 8008b7c:	f023 0307 	bic.w	r3, r3, #7
 8008b80:	3308      	adds	r3, #8
 8008b82:	9303      	str	r3, [sp, #12]
 8008b84:	9b09      	ldr	r3, [sp, #36]	; 0x24
 8008b86:	443b      	add	r3, r7
 8008b88:	9309      	str	r3, [sp, #36]	; 0x24
 8008b8a:	e767      	b.n	8008a5c <_vfiprintf_r+0x94>
 8008b8c:	fb0c 3202 	mla	r2, ip, r2, r3
 8008b90:	460c      	mov	r4, r1
 8008b92:	2001      	movs	r0, #1
 8008b94:	e7a5      	b.n	8008ae2 <_vfiprintf_r+0x11a>
 8008b96:	2300      	movs	r3, #0
 8008b98:	3401      	adds	r4, #1
 8008b9a:	9305      	str	r3, [sp, #20]
 8008b9c:	4619      	mov	r1, r3
 8008b9e:	f04f 0c0a 	mov.w	ip, #10
 8008ba2:	4620      	mov	r0, r4
 8008ba4:	f810 2b01 	ldrb.w	r2, [r0], #1
 8008ba8:	3a30      	subs	r2, #48	; 0x30
 8008baa:	2a09      	cmp	r2, #9
 8008bac:	d903      	bls.n	8008bb6 <_vfiprintf_r+0x1ee>
 8008bae:	2b00      	cmp	r3, #0
 8008bb0:	d0c5      	beq.n	8008b3e <_vfiprintf_r+0x176>
 8008bb2:	9105      	str	r1, [sp, #20]
 8008bb4:	e7c3      	b.n	8008b3e <_vfiprintf_r+0x176>
 8008bb6:	fb0c 2101 	mla	r1, ip, r1, r2
 8008bba:	4604      	mov	r4, r0
 8008bbc:	2301      	movs	r3, #1
 8008bbe:	e7f0      	b.n	8008ba2 <_vfiprintf_r+0x1da>
 8008bc0:	ab03      	add	r3, sp, #12
 8008bc2:	9300      	str	r3, [sp, #0]
 8008bc4:	462a      	mov	r2, r5
 8008bc6:	4b16      	ldr	r3, [pc, #88]	; (8008c20 <_vfiprintf_r+0x258>)
 8008bc8:	a904      	add	r1, sp, #16
 8008bca:	4630      	mov	r0, r6
 8008bcc:	f3af 8000 	nop.w
 8008bd0:	4607      	mov	r7, r0
 8008bd2:	1c78      	adds	r0, r7, #1
 8008bd4:	d1d6      	bne.n	8008b84 <_vfiprintf_r+0x1bc>
 8008bd6:	6e6b      	ldr	r3, [r5, #100]	; 0x64
 8008bd8:	07d9      	lsls	r1, r3, #31
 8008bda:	d405      	bmi.n	8008be8 <_vfiprintf_r+0x220>
 8008bdc:	89ab      	ldrh	r3, [r5, #12]
 8008bde:	059a      	lsls	r2, r3, #22
 8008be0:	d402      	bmi.n	8008be8 <_vfiprintf_r+0x220>
 8008be2:	6da8      	ldr	r0, [r5, #88]	; 0x58
 8008be4:	f7ff fe13 	bl	800880e <__retarget_lock_release_recursive>
 8008be8:	89ab      	ldrh	r3, [r5, #12]
 8008bea:	065b      	lsls	r3, r3, #25
 8008bec:	f53f af12 	bmi.w	8008a14 <_vfiprintf_r+0x4c>
 8008bf0:	9809      	ldr	r0, [sp, #36]	; 0x24
 8008bf2:	e711      	b.n	8008a18 <_vfiprintf_r+0x50>
 8008bf4:	ab03      	add	r3, sp, #12
 8008bf6:	9300      	str	r3, [sp, #0]
 8008bf8:	462a      	mov	r2, r5
 8008bfa:	4b09      	ldr	r3, [pc, #36]	; (8008c20 <_vfiprintf_r+0x258>)
 8008bfc:	a904      	add	r1, sp, #16
 8008bfe:	4630      	mov	r0, r6
 8008c00:	f000 f880 	bl	8008d04 <_printf_i>
 8008c04:	e7e4      	b.n	8008bd0 <_vfiprintf_r+0x208>
 8008c06:	bf00      	nop
 8008c08:	0800b58c 	.word	0x0800b58c
 8008c0c:	0800b5ac 	.word	0x0800b5ac
 8008c10:	0800b56c 	.word	0x0800b56c
 8008c14:	0800b5cc 	.word	0x0800b5cc
 8008c18:	0800b5d6 	.word	0x0800b5d6
 8008c1c:	00000000 	.word	0x00000000
 8008c20:	080089a3 	.word	0x080089a3
 8008c24:	0800b5d2 	.word	0x0800b5d2

08008c28 <_printf_common>:
 8008c28:	e92d 47f0 	stmdb	sp!, {r4, r5, r6, r7, r8, r9, sl, lr}
 8008c2c:	4616      	mov	r6, r2
 8008c2e:	4699      	mov	r9, r3
 8008c30:	688a      	ldr	r2, [r1, #8]
 8008c32:	690b      	ldr	r3, [r1, #16]
 8008c34:	f8dd 8020 	ldr.w	r8, [sp, #32]
 8008c38:	4293      	cmp	r3, r2
 8008c3a:	bfb8      	it	lt
 8008c3c:	4613      	movlt	r3, r2
 8008c3e:	6033      	str	r3, [r6, #0]
 8008c40:	f891 2043 	ldrb.w	r2, [r1, #67]	; 0x43
 8008c44:	4607      	mov	r7, r0
 8008c46:	460c      	mov	r4, r1
 8008c48:	b10a      	cbz	r2, 8008c4e <_printf_common+0x26>
 8008c4a:	3301      	adds	r3, #1
 8008c4c:	6033      	str	r3, [r6, #0]
 8008c4e:	6823      	ldr	r3, [r4, #0]
 8008c50:	0699      	lsls	r1, r3, #26
 8008c52:	bf42      	ittt	mi
 8008c54:	6833      	ldrmi	r3, [r6, #0]
 8008c56:	3302      	addmi	r3, #2
 8008c58:	6033      	strmi	r3, [r6, #0]
 8008c5a:	6825      	ldr	r5, [r4, #0]
 8008c5c:	f015 0506 	ands.w	r5, r5, #6
 8008c60:	d106      	bne.n	8008c70 <_printf_common+0x48>
 8008c62:	f104 0a19 	add.w	sl, r4, #25
 8008c66:	68e3      	ldr	r3, [r4, #12]
 8008c68:	6832      	ldr	r2, [r6, #0]
 8008c6a:	1a9b      	subs	r3, r3, r2
 8008c6c:	42ab      	cmp	r3, r5
 8008c6e:	dc26      	bgt.n	8008cbe <_printf_common+0x96>
 8008c70:	f894 2043 	ldrb.w	r2, [r4, #67]	; 0x43
 8008c74:	1e13      	subs	r3, r2, #0
 8008c76:	6822      	ldr	r2, [r4, #0]
 8008c78:	bf18      	it	ne
 8008c7a:	2301      	movne	r3, #1
 8008c7c:	0692      	lsls	r2, r2, #26
 8008c7e:	d42b      	bmi.n	8008cd8 <_printf_common+0xb0>
 8008c80:	f104 0243 	add.w	r2, r4, #67	; 0x43
 8008c84:	4649      	mov	r1, r9
 8008c86:	4638      	mov	r0, r7
 8008c88:	47c0      	blx	r8
 8008c8a:	3001      	adds	r0, #1
 8008c8c:	d01e      	beq.n	8008ccc <_printf_common+0xa4>
 8008c8e:	6823      	ldr	r3, [r4, #0]
 8008c90:	68e5      	ldr	r5, [r4, #12]
 8008c92:	6832      	ldr	r2, [r6, #0]
 8008c94:	f003 0306 	and.w	r3, r3, #6
 8008c98:	2b04      	cmp	r3, #4
 8008c9a:	bf08      	it	eq
 8008c9c:	1aad      	subeq	r5, r5, r2
 8008c9e:	68a3      	ldr	r3, [r4, #8]
 8008ca0:	6922      	ldr	r2, [r4, #16]
 8008ca2:	bf0c      	ite	eq
 8008ca4:	ea25 75e5 	biceq.w	r5, r5, r5, asr #31
 8008ca8:	2500      	movne	r5, #0
 8008caa:	4293      	cmp	r3, r2
 8008cac:	bfc4      	itt	gt
 8008cae:	1a9b      	subgt	r3, r3, r2
 8008cb0:	18ed      	addgt	r5, r5, r3
 8008cb2:	2600      	movs	r6, #0
 8008cb4:	341a      	adds	r4, #26
 8008cb6:	42b5      	cmp	r5, r6
 8008cb8:	d11a      	bne.n	8008cf0 <_printf_common+0xc8>
 8008cba:	2000      	movs	r0, #0
 8008cbc:	e008      	b.n	8008cd0 <_printf_common+0xa8>
 8008cbe:	2301      	movs	r3, #1
 8008cc0:	4652      	mov	r2, sl
 8008cc2:	4649      	mov	r1, r9
 8008cc4:	4638      	mov	r0, r7
 8008cc6:	47c0      	blx	r8
 8008cc8:	3001      	adds	r0, #1
 8008cca:	d103      	bne.n	8008cd4 <_printf_common+0xac>
 8008ccc:	f04f 30ff 	mov.w	r0, #4294967295
 8008cd0:	e8bd 87f0 	ldmia.w	sp!, {r4, r5, r6, r7, r8, r9, sl, pc}
 8008cd4:	3501      	adds	r5, #1
 8008cd6:	e7c6      	b.n	8008c66 <_printf_common+0x3e>
 8008cd8:	18e1      	adds	r1, r4, r3
 8008cda:	1c5a      	adds	r2, r3, #1
 8008cdc:	2030      	movs	r0, #48	; 0x30
 8008cde:	f881 0043 	strb.w	r0, [r1, #67]	; 0x43
 8008ce2:	4422      	add	r2, r4
 8008ce4:	f894 1045 	ldrb.w	r1, [r4, #69]	; 0x45
 8008ce8:	f882 1043 	strb.w	r1, [r2, #67]	; 0x43
 8008cec:	3302      	adds	r3, #2
 8008cee:	e7c7      	b.n	8008c80 <_printf_common+0x58>
 8008cf0:	2301      	movs	r3, #1
 8008cf2:	4622      	mov	r2, r4
 8008cf4:	4649      	mov	r1, r9
 8008cf6:	4638      	mov	r0, r7
 8008cf8:	47c0      	blx	r8
 8008cfa:	3001      	adds	r0, #1
 8008cfc:	d0e6      	beq.n	8008ccc <_printf_common+0xa4>
 8008cfe:	3601      	adds	r6, #1
 8008d00:	e7d9      	b.n	8008cb6 <_printf_common+0x8e>
	...

08008d04 <_printf_i>:
 8008d04:	e92d 47ff 	stmdb	sp!, {r0, r1, r2, r3, r4, r5, r6, r7, r8, r9, sl, lr}
 8008d08:	460c      	mov	r4, r1
 8008d0a:	4691      	mov	r9, r2
 8008d0c:	7e27      	ldrb	r7, [r4, #24]
 8008d0e:	990c      	ldr	r1, [sp, #48]	; 0x30
 8008d10:	2f78      	cmp	r7, #120	; 0x78
 8008d12:	4680      	mov	r8, r0
 8008d14:	469a      	mov	sl, r3
 8008d16:	f104 0243 	add.w	r2, r4, #67	; 0x43
 8008d1a:	d807      	bhi.n	8008d2c <_printf_i+0x28>
 8008d1c:	2f62      	cmp	r7, #98	; 0x62
 8008d1e:	d80a      	bhi.n	8008d36 <_printf_i+0x32>
 8008d20:	2f00      	cmp	r7, #0
 8008d22:	f000 80d8 	beq.w	8008ed6 <_printf_i+0x1d2>
 8008d26:	2f58      	cmp	r7, #88	; 0x58
 8008d28:	f000 80a3 	beq.w	8008e72 <_printf_i+0x16e>
 8008d2c:	f104 0642 	add.w	r6, r4, #66	; 0x42
 8008d30:	f884 7042 	strb.w	r7, [r4, #66]	; 0x42
 8008d34:	e03a      	b.n	8008dac <_printf_i+0xa8>
 8008d36:	f1a7 0363 	sub.w	r3, r7, #99	; 0x63
 8008d3a:	2b15      	cmp	r3, #21
 8008d3c:	d8f6      	bhi.n	8008d2c <_printf_i+0x28>
 8008d3e:	a001      	add	r0, pc, #4	; (adr r0, 8008d44 <_printf_i+0x40>)
 8008d40:	f850 f023 	ldr.w	pc, [r0, r3, lsl #2]
 8008d44:	08008d9d 	.word	0x08008d9d
 8008d48:	08008db1 	.word	0x08008db1
 8008d4c:	08008d2d 	.word	0x08008d2d
 8008d50:	08008d2d 	.word	0x08008d2d
 8008d54:	08008d2d 	.word	0x08008d2d
 8008d58:	08008d2d 	.word	0x08008d2d
 8008d5c:	08008db1 	.word	0x08008db1
 8008d60:	08008d2d 	.word	0x08008d2d
 8008d64:	08008d2d 	.word	0x08008d2d
 8008d68:	08008d2d 	.word	0x08008d2d
 8008d6c:	08008d2d 	.word	0x08008d2d
 8008d70:	08008ebd 	.word	0x08008ebd
 8008d74:	08008de1 	.word	0x08008de1
 8008d78:	08008e9f 	.word	0x08008e9f
 8008d7c:	08008d2d 	.word	0x08008d2d
 8008d80:	08008d2d 	.word	0x08008d2d
 8008d84:	08008edf 	.word	0x08008edf
 8008d88:	08008d2d 	.word	0x08008d2d
 8008d8c:	08008de1 	.word	0x08008de1
 8008d90:	08008d2d 	.word	0x08008d2d
 8008d94:	08008d2d 	.word	0x08008d2d
 8008d98:	08008ea7 	.word	0x08008ea7
 8008d9c:	680b      	ldr	r3, [r1, #0]
 8008d9e:	1d1a      	adds	r2, r3, #4
 8008da0:	681b      	ldr	r3, [r3, #0]
 8008da2:	600a      	str	r2, [r1, #0]
 8008da4:	f104 0642 	add.w	r6, r4, #66	; 0x42
 8008da8:	f884 3042 	strb.w	r3, [r4, #66]	; 0x42
 8008dac:	2301      	movs	r3, #1
 8008dae:	e0a3      	b.n	8008ef8 <_printf_i+0x1f4>
 8008db0:	6825      	ldr	r5, [r4, #0]
 8008db2:	6808      	ldr	r0, [r1, #0]
 8008db4:	062e      	lsls	r6, r5, #24
 8008db6:	f100 0304 	add.w	r3, r0, #4
 8008dba:	d50a      	bpl.n	8008dd2 <_printf_i+0xce>
 8008dbc:	6805      	ldr	r5, [r0, #0]
 8008dbe:	600b      	str	r3, [r1, #0]
 8008dc0:	2d00      	cmp	r5, #0
 8008dc2:	da03      	bge.n	8008dcc <_printf_i+0xc8>
 8008dc4:	232d      	movs	r3, #45	; 0x2d
 8008dc6:	426d      	negs	r5, r5
 8008dc8:	f884 3043 	strb.w	r3, [r4, #67]	; 0x43
 8008dcc:	485e      	ldr	r0, [pc, #376]	; (8008f48 <_printf_i+0x244>)
 8008dce:	230a      	movs	r3, #10
 8008dd0:	e019      	b.n	8008e06 <_printf_i+0x102>
 8008dd2:	f015 0f40 	tst.w	r5, #64	; 0x40
 8008dd6:	6805      	ldr	r5, [r0, #0]
 8008dd8:	600b      	str	r3, [r1, #0]
 8008dda:	bf18      	it	ne
 8008ddc:	b22d      	sxthne	r5, r5
 8008dde:	e7ef      	b.n	8008dc0 <_printf_i+0xbc>
 8008de0:	680b      	ldr	r3, [r1, #0]
 8008de2:	6825      	ldr	r5, [r4, #0]
 8008de4:	1d18      	adds	r0, r3, #4
 8008de6:	6008      	str	r0, [r1, #0]
 8008de8:	0628      	lsls	r0, r5, #24
 8008dea:	d501      	bpl.n	8008df0 <_printf_i+0xec>
 8008dec:	681d      	ldr	r5, [r3, #0]
 8008dee:	e002      	b.n	8008df6 <_printf_i+0xf2>
 8008df0:	0669      	lsls	r1, r5, #25
 8008df2:	d5fb      	bpl.n	8008dec <_printf_i+0xe8>
 8008df4:	881d      	ldrh	r5, [r3, #0]
 8008df6:	4854      	ldr	r0, [pc, #336]	; (8008f48 <_printf_i+0x244>)
 8008df8:	2f6f      	cmp	r7, #111	; 0x6f
 8008dfa:	bf0c      	ite	eq
 8008dfc:	2308      	moveq	r3, #8
 8008dfe:	230a      	movne	r3, #10
 8008e00:	2100      	movs	r1, #0
 8008e02:	f884 1043 	strb.w	r1, [r4, #67]	; 0x43
 8008e06:	6866      	ldr	r6, [r4, #4]
 8008e08:	60a6      	str	r6, [r4, #8]
 8008e0a:	2e00      	cmp	r6, #0
 8008e0c:	bfa2      	ittt	ge
 8008e0e:	6821      	ldrge	r1, [r4, #0]
 8008e10:	f021 0104 	bicge.w	r1, r1, #4
 8008e14:	6021      	strge	r1, [r4, #0]
 8008e16:	b90d      	cbnz	r5, 8008e1c <_printf_i+0x118>
 8008e18:	2e00      	cmp	r6, #0
 8008e1a:	d04d      	beq.n	8008eb8 <_printf_i+0x1b4>
 8008e1c:	4616      	mov	r6, r2
 8008e1e:	fbb5 f1f3 	udiv	r1, r5, r3
 8008e22:	fb03 5711 	mls	r7, r3, r1, r5
 8008e26:	5dc7      	ldrb	r7, [r0, r7]
 8008e28:	f806 7d01 	strb.w	r7, [r6, #-1]!
 8008e2c:	462f      	mov	r7, r5
 8008e2e:	42bb      	cmp	r3, r7
 8008e30:	460d      	mov	r5, r1
 8008e32:	d9f4      	bls.n	8008e1e <_printf_i+0x11a>
 8008e34:	2b08      	cmp	r3, #8
 8008e36:	d10b      	bne.n	8008e50 <_printf_i+0x14c>
 8008e38:	6823      	ldr	r3, [r4, #0]
 8008e3a:	07df      	lsls	r7, r3, #31
 8008e3c:	d508      	bpl.n	8008e50 <_printf_i+0x14c>
 8008e3e:	6923      	ldr	r3, [r4, #16]
 8008e40:	6861      	ldr	r1, [r4, #4]
 8008e42:	4299      	cmp	r1, r3
 8008e44:	bfde      	ittt	le
 8008e46:	2330      	movle	r3, #48	; 0x30
 8008e48:	f806 3c01 	strble.w	r3, [r6, #-1]
 8008e4c:	f106 36ff 	addle.w	r6, r6, #4294967295
 8008e50:	1b92      	subs	r2, r2, r6
 8008e52:	6122      	str	r2, [r4, #16]
 8008e54:	f8cd a000 	str.w	sl, [sp]
 8008e58:	464b      	mov	r3, r9
 8008e5a:	aa03      	add	r2, sp, #12
 8008e5c:	4621      	mov	r1, r4
 8008e5e:	4640      	mov	r0, r8
 8008e60:	f7ff fee2 	bl	8008c28 <_printf_common>
 8008e64:	3001      	adds	r0, #1
 8008e66:	d14c      	bne.n	8008f02 <_printf_i+0x1fe>
 8008e68:	f04f 30ff 	mov.w	r0, #4294967295
 8008e6c:	b004      	add	sp, #16
 8008e6e:	e8bd 87f0 	ldmia.w	sp!, {r4, r5, r6, r7, r8, r9, sl, pc}
 8008e72:	4835      	ldr	r0, [pc, #212]	; (8008f48 <_printf_i+0x244>)
 8008e74:	f884 7045 	strb.w	r7, [r4, #69]	; 0x45
 8008e78:	6823      	ldr	r3, [r4, #0]
 8008e7a:	680e      	ldr	r6, [r1, #0]
 8008e7c:	061f      	lsls	r7, r3, #24
 8008e7e:	f856 5b04 	ldr.w	r5, [r6], #4
 8008e82:	600e      	str	r6, [r1, #0]
 8008e84:	d514      	bpl.n	8008eb0 <_printf_i+0x1ac>
 8008e86:	07d9      	lsls	r1, r3, #31
 8008e88:	bf44      	itt	mi
 8008e8a:	f043 0320 	orrmi.w	r3, r3, #32
 8008e8e:	6023      	strmi	r3, [r4, #0]
 8008e90:	b91d      	cbnz	r5, 8008e9a <_printf_i+0x196>
 8008e92:	6823      	ldr	r3, [r4, #0]
 8008e94:	f023 0320 	bic.w	r3, r3, #32
 8008e98:	6023      	str	r3, [r4, #0]
 8008e9a:	2310      	movs	r3, #16
 8008e9c:	e7b0      	b.n	8008e00 <_printf_i+0xfc>
 8008e9e:	6823      	ldr	r3, [r4, #0]
 8008ea0:	f043 0320 	orr.w	r3, r3, #32
 8008ea4:	6023      	str	r3, [r4, #0]
 8008ea6:	2378      	movs	r3, #120	; 0x78
 8008ea8:	4828      	ldr	r0, [pc, #160]	; (8008f4c <_printf_i+0x248>)
 8008eaa:	f884 3045 	strb.w	r3, [r4, #69]	; 0x45
 8008eae:	e7e3      	b.n	8008e78 <_printf_i+0x174>
 8008eb0:	065e      	lsls	r6, r3, #25
 8008eb2:	bf48      	it	mi
 8008eb4:	b2ad      	uxthmi	r5, r5
 8008eb6:	e7e6      	b.n	8008e86 <_printf_i+0x182>
 8008eb8:	4616      	mov	r6, r2
 8008eba:	e7bb      	b.n	8008e34 <_printf_i+0x130>
 8008ebc:	680b      	ldr	r3, [r1, #0]
 8008ebe:	6826      	ldr	r6, [r4, #0]
 8008ec0:	6960      	ldr	r0, [r4, #20]
 8008ec2:	1d1d      	adds	r5, r3, #4
 8008ec4:	600d      	str	r5, [r1, #0]
 8008ec6:	0635      	lsls	r5, r6, #24
 8008ec8:	681b      	ldr	r3, [r3, #0]
 8008eca:	d501      	bpl.n	8008ed0 <_printf_i+0x1cc>
 8008ecc:	6018      	str	r0, [r3, #0]
 8008ece:	e002      	b.n	8008ed6 <_printf_i+0x1d2>
 8008ed0:	0671      	lsls	r1, r6, #25
 8008ed2:	d5fb      	bpl.n	8008ecc <_printf_i+0x1c8>
 8008ed4:	8018      	strh	r0, [r3, #0]
 8008ed6:	2300      	movs	r3, #0
 8008ed8:	6123      	str	r3, [r4, #16]
 8008eda:	4616      	mov	r6, r2
 8008edc:	e7ba      	b.n	8008e54 <_printf_i+0x150>
 8008ede:	680b      	ldr	r3, [r1, #0]
 8008ee0:	1d1a      	adds	r2, r3, #4
 8008ee2:	600a      	str	r2, [r1, #0]
 8008ee4:	681e      	ldr	r6, [r3, #0]
 8008ee6:	6862      	ldr	r2, [r4, #4]
 8008ee8:	2100      	movs	r1, #0
 8008eea:	4630      	mov	r0, r6
 8008eec:	f7f7 f990 	bl	8000210 <memchr>
 8008ef0:	b108      	cbz	r0, 8008ef6 <_printf_i+0x1f2>
 8008ef2:	1b80      	subs	r0, r0, r6
 8008ef4:	6060      	str	r0, [r4, #4]
 8008ef6:	6863      	ldr	r3, [r4, #4]
 8008ef8:	6123      	str	r3, [r4, #16]
 8008efa:	2300      	movs	r3, #0
 8008efc:	f884 3043 	strb.w	r3, [r4, #67]	; 0x43
 8008f00:	e7a8      	b.n	8008e54 <_printf_i+0x150>
 8008f02:	6923      	ldr	r3, [r4, #16]
 8008f04:	4632      	mov	r2, r6
 8008f06:	4649      	mov	r1, r9
 8008f08:	4640      	mov	r0, r8
 8008f0a:	47d0      	blx	sl
 8008f0c:	3001      	adds	r0, #1
 8008f0e:	d0ab      	beq.n	8008e68 <_printf_i+0x164>
 8008f10:	6823      	ldr	r3, [r4, #0]
 8008f12:	079b      	lsls	r3, r3, #30
 8008f14:	d413      	bmi.n	8008f3e <_printf_i+0x23a>
 8008f16:	68e0      	ldr	r0, [r4, #12]
 8008f18:	9b03      	ldr	r3, [sp, #12]
 8008f1a:	4298      	cmp	r0, r3
 8008f1c:	bfb8      	it	lt
 8008f1e:	4618      	movlt	r0, r3
 8008f20:	e7a4      	b.n	8008e6c <_printf_i+0x168>
 8008f22:	2301      	movs	r3, #1
 8008f24:	4632      	mov	r2, r6
 8008f26:	4649      	mov	r1, r9
 8008f28:	4640      	mov	r0, r8
 8008f2a:	47d0      	blx	sl
 8008f2c:	3001      	adds	r0, #1
 8008f2e:	d09b      	beq.n	8008e68 <_printf_i+0x164>
 8008f30:	3501      	adds	r5, #1
 8008f32:	68e3      	ldr	r3, [r4, #12]
 8008f34:	9903      	ldr	r1, [sp, #12]
 8008f36:	1a5b      	subs	r3, r3, r1
 8008f38:	42ab      	cmp	r3, r5
 8008f3a:	dcf2      	bgt.n	8008f22 <_printf_i+0x21e>
 8008f3c:	e7eb      	b.n	8008f16 <_printf_i+0x212>
 8008f3e:	2500      	movs	r5, #0
 8008f40:	f104 0619 	add.w	r6, r4, #25
 8008f44:	e7f5      	b.n	8008f32 <_printf_i+0x22e>
 8008f46:	bf00      	nop
 8008f48:	0800b5dd 	.word	0x0800b5dd
 8008f4c:	0800b5ee 	.word	0x0800b5ee

08008f50 <_sbrk_r>:
 8008f50:	b538      	push	{r3, r4, r5, lr}
 8008f52:	4d06      	ldr	r5, [pc, #24]	; (8008f6c <_sbrk_r+0x1c>)
 8008f54:	2300      	movs	r3, #0
 8008f56:	4604      	mov	r4, r0
 8008f58:	4608      	mov	r0, r1
 8008f5a:	602b      	str	r3, [r5, #0]
 8008f5c:	f7f7 fc9e 	bl	800089c <_sbrk>
 8008f60:	1c43      	adds	r3, r0, #1
 8008f62:	d102      	bne.n	8008f6a <_sbrk_r+0x1a>
 8008f64:	682b      	ldr	r3, [r5, #0]
 8008f66:	b103      	cbz	r3, 8008f6a <_sbrk_r+0x1a>
 8008f68:	6023      	str	r3, [r4, #0]
 8008f6a:	bd38      	pop	{r3, r4, r5, pc}
 8008f6c:	2000a7b0 	.word	0x2000a7b0

08008f70 <__sread>:
 8008f70:	b510      	push	{r4, lr}
 8008f72:	460c      	mov	r4, r1
 8008f74:	f9b1 100e 	ldrsh.w	r1, [r1, #14]
 8008f78:	f000 fa6c 	bl	8009454 <_read_r>
 8008f7c:	2800      	cmp	r0, #0
 8008f7e:	bfab      	itete	ge
 8008f80:	6d63      	ldrge	r3, [r4, #84]	; 0x54
 8008f82:	89a3      	ldrhlt	r3, [r4, #12]
 8008f84:	181b      	addge	r3, r3, r0
 8008f86:	f423 5380 	biclt.w	r3, r3, #4096	; 0x1000
 8008f8a:	bfac      	ite	ge
 8008f8c:	6563      	strge	r3, [r4, #84]	; 0x54
 8008f8e:	81a3      	strhlt	r3, [r4, #12]
 8008f90:	bd10      	pop	{r4, pc}

08008f92 <__swrite>:
 8008f92:	e92d 41f0 	stmdb	sp!, {r4, r5, r6, r7, r8, lr}
 8008f96:	461f      	mov	r7, r3
 8008f98:	898b      	ldrh	r3, [r1, #12]
 8008f9a:	05db      	lsls	r3, r3, #23
 8008f9c:	4605      	mov	r5, r0
 8008f9e:	460c      	mov	r4, r1
 8008fa0:	4616      	mov	r6, r2
 8008fa2:	d505      	bpl.n	8008fb0 <__swrite+0x1e>
 8008fa4:	f9b1 100e 	ldrsh.w	r1, [r1, #14]
 8008fa8:	2302      	movs	r3, #2
 8008faa:	2200      	movs	r2, #0
 8008fac:	f000 f9d0 	bl	8009350 <_lseek_r>
 8008fb0:	89a3      	ldrh	r3, [r4, #12]
 8008fb2:	f9b4 100e 	ldrsh.w	r1, [r4, #14]
 8008fb6:	f423 5380 	bic.w	r3, r3, #4096	; 0x1000
 8008fba:	81a3      	strh	r3, [r4, #12]
 8008fbc:	4632      	mov	r2, r6
 8008fbe:	463b      	mov	r3, r7
 8008fc0:	4628      	mov	r0, r5
 8008fc2:	e8bd 41f0 	ldmia.w	sp!, {r4, r5, r6, r7, r8, lr}
 8008fc6:	f000 b869 	b.w	800909c <_write_r>

08008fca <__sseek>:
 8008fca:	b510      	push	{r4, lr}
 8008fcc:	460c      	mov	r4, r1
 8008fce:	f9b1 100e 	ldrsh.w	r1, [r1, #14]
 8008fd2:	f000 f9bd 	bl	8009350 <_lseek_r>
 8008fd6:	1c43      	adds	r3, r0, #1
 8008fd8:	89a3      	ldrh	r3, [r4, #12]
 8008fda:	bf15      	itete	ne
 8008fdc:	6560      	strne	r0, [r4, #84]	; 0x54
 8008fde:	f423 5380 	biceq.w	r3, r3, #4096	; 0x1000
 8008fe2:	f443 5380 	orrne.w	r3, r3, #4096	; 0x1000
 8008fe6:	81a3      	strheq	r3, [r4, #12]
 8008fe8:	bf18      	it	ne
 8008fea:	81a3      	strhne	r3, [r4, #12]
 8008fec:	bd10      	pop	{r4, pc}

08008fee <__sclose>:
 8008fee:	f9b1 100e 	ldrsh.w	r1, [r1, #14]
 8008ff2:	f000 b8db 	b.w	80091ac <_close_r>
	...

08008ff8 <__swbuf_r>:
 8008ff8:	b5f8      	push	{r3, r4, r5, r6, r7, lr}
 8008ffa:	460e      	mov	r6, r1
 8008ffc:	4614      	mov	r4, r2
 8008ffe:	4605      	mov	r5, r0
 8009000:	b118      	cbz	r0, 800900a <__swbuf_r+0x12>
 8009002:	6983      	ldr	r3, [r0, #24]
 8009004:	b90b      	cbnz	r3, 800900a <__swbuf_r+0x12>
 8009006:	f7ff fb51 	bl	80086ac <__sinit>
 800900a:	4b21      	ldr	r3, [pc, #132]	; (8009090 <__swbuf_r+0x98>)
 800900c:	429c      	cmp	r4, r3
 800900e:	d12b      	bne.n	8009068 <__swbuf_r+0x70>
 8009010:	686c      	ldr	r4, [r5, #4]
 8009012:	69a3      	ldr	r3, [r4, #24]
 8009014:	60a3      	str	r3, [r4, #8]
 8009016:	89a3      	ldrh	r3, [r4, #12]
 8009018:	071a      	lsls	r2, r3, #28
 800901a:	d52f      	bpl.n	800907c <__swbuf_r+0x84>
 800901c:	6923      	ldr	r3, [r4, #16]
 800901e:	b36b      	cbz	r3, 800907c <__swbuf_r+0x84>
 8009020:	6923      	ldr	r3, [r4, #16]
 8009022:	6820      	ldr	r0, [r4, #0]
 8009024:	1ac0      	subs	r0, r0, r3
 8009026:	6963      	ldr	r3, [r4, #20]
 8009028:	b2f6      	uxtb	r6, r6
 800902a:	4283      	cmp	r3, r0
 800902c:	4637      	mov	r7, r6
 800902e:	dc04      	bgt.n	800903a <__swbuf_r+0x42>
 8009030:	4621      	mov	r1, r4
 8009032:	4628      	mov	r0, r5
 8009034:	f000 f950 	bl	80092d8 <_fflush_r>
 8009038:	bb30      	cbnz	r0, 8009088 <__swbuf_r+0x90>
 800903a:	68a3      	ldr	r3, [r4, #8]
 800903c:	3b01      	subs	r3, #1
 800903e:	60a3      	str	r3, [r4, #8]
 8009040:	6823      	ldr	r3, [r4, #0]
 8009042:	1c5a      	adds	r2, r3, #1
 8009044:	6022      	str	r2, [r4, #0]
 8009046:	701e      	strb	r6, [r3, #0]
 8009048:	6963      	ldr	r3, [r4, #20]
 800904a:	3001      	adds	r0, #1
 800904c:	4283      	cmp	r3, r0
 800904e:	d004      	beq.n	800905a <__swbuf_r+0x62>
 8009050:	89a3      	ldrh	r3, [r4, #12]
 8009052:	07db      	lsls	r3, r3, #31
 8009054:	d506      	bpl.n	8009064 <__swbuf_r+0x6c>
 8009056:	2e0a      	cmp	r6, #10
 8009058:	d104      	bne.n	8009064 <__swbuf_r+0x6c>
 800905a:	4621      	mov	r1, r4
 800905c:	4628      	mov	r0, r5
 800905e:	f000 f93b 	bl	80092d8 <_fflush_r>
 8009062:	b988      	cbnz	r0, 8009088 <__swbuf_r+0x90>
 8009064:	4638      	mov	r0, r7
 8009066:	bdf8      	pop	{r3, r4, r5, r6, r7, pc}
 8009068:	4b0a      	ldr	r3, [pc, #40]	; (8009094 <__swbuf_r+0x9c>)
 800906a:	429c      	cmp	r4, r3
 800906c:	d101      	bne.n	8009072 <__swbuf_r+0x7a>
 800906e:	68ac      	ldr	r4, [r5, #8]
 8009070:	e7cf      	b.n	8009012 <__swbuf_r+0x1a>
 8009072:	4b09      	ldr	r3, [pc, #36]	; (8009098 <__swbuf_r+0xa0>)
 8009074:	429c      	cmp	r4, r3
 8009076:	bf08      	it	eq
 8009078:	68ec      	ldreq	r4, [r5, #12]
 800907a:	e7ca      	b.n	8009012 <__swbuf_r+0x1a>
 800907c:	4621      	mov	r1, r4
 800907e:	4628      	mov	r0, r5
 8009080:	f000 f81e 	bl	80090c0 <__swsetup_r>
 8009084:	2800      	cmp	r0, #0
 8009086:	d0cb      	beq.n	8009020 <__swbuf_r+0x28>
 8009088:	f04f 37ff 	mov.w	r7, #4294967295
 800908c:	e7ea      	b.n	8009064 <__swbuf_r+0x6c>
 800908e:	bf00      	nop
 8009090:	0800b58c 	.word	0x0800b58c
 8009094:	0800b5ac 	.word	0x0800b5ac
 8009098:	0800b56c 	.word	0x0800b56c

0800909c <_write_r>:
 800909c:	b538      	push	{r3, r4, r5, lr}
 800909e:	4d07      	ldr	r5, [pc, #28]	; (80090bc <_write_r+0x20>)
 80090a0:	4604      	mov	r4, r0
 80090a2:	4608      	mov	r0, r1
 80090a4:	4611      	mov	r1, r2
 80090a6:	2200      	movs	r2, #0
 80090a8:	602a      	str	r2, [r5, #0]
 80090aa:	461a      	mov	r2, r3
 80090ac:	f7f7 fbdd 	bl	800086a <_write>
 80090b0:	1c43      	adds	r3, r0, #1
 80090b2:	d102      	bne.n	80090ba <_write_r+0x1e>
 80090b4:	682b      	ldr	r3, [r5, #0]
 80090b6:	b103      	cbz	r3, 80090ba <_write_r+0x1e>
 80090b8:	6023      	str	r3, [r4, #0]
 80090ba:	bd38      	pop	{r3, r4, r5, pc}
 80090bc:	2000a7b0 	.word	0x2000a7b0

080090c0 <__swsetup_r>:
 80090c0:	4b32      	ldr	r3, [pc, #200]	; (800918c <__swsetup_r+0xcc>)
 80090c2:	b570      	push	{r4, r5, r6, lr}
 80090c4:	681d      	ldr	r5, [r3, #0]
 80090c6:	4606      	mov	r6, r0
 80090c8:	460c      	mov	r4, r1
 80090ca:	b125      	cbz	r5, 80090d6 <__swsetup_r+0x16>
 80090cc:	69ab      	ldr	r3, [r5, #24]
 80090ce:	b913      	cbnz	r3, 80090d6 <__swsetup_r+0x16>
 80090d0:	4628      	mov	r0, r5
 80090d2:	f7ff faeb 	bl	80086ac <__sinit>
 80090d6:	4b2e      	ldr	r3, [pc, #184]	; (8009190 <__swsetup_r+0xd0>)
 80090d8:	429c      	cmp	r4, r3
 80090da:	d10f      	bne.n	80090fc <__swsetup_r+0x3c>
 80090dc:	686c      	ldr	r4, [r5, #4]
 80090de:	89a3      	ldrh	r3, [r4, #12]
 80090e0:	f9b4 200c 	ldrsh.w	r2, [r4, #12]
 80090e4:	0719      	lsls	r1, r3, #28
 80090e6:	d42c      	bmi.n	8009142 <__swsetup_r+0x82>
 80090e8:	06dd      	lsls	r5, r3, #27
 80090ea:	d411      	bmi.n	8009110 <__swsetup_r+0x50>
 80090ec:	2309      	movs	r3, #9
 80090ee:	6033      	str	r3, [r6, #0]
 80090f0:	f042 0340 	orr.w	r3, r2, #64	; 0x40
 80090f4:	81a3      	strh	r3, [r4, #12]
 80090f6:	f04f 30ff 	mov.w	r0, #4294967295
 80090fa:	e03e      	b.n	800917a <__swsetup_r+0xba>
 80090fc:	4b25      	ldr	r3, [pc, #148]	; (8009194 <__swsetup_r+0xd4>)
 80090fe:	429c      	cmp	r4, r3
 8009100:	d101      	bne.n	8009106 <__swsetup_r+0x46>
 8009102:	68ac      	ldr	r4, [r5, #8]
 8009104:	e7eb      	b.n	80090de <__swsetup_r+0x1e>
 8009106:	4b24      	ldr	r3, [pc, #144]	; (8009198 <__swsetup_r+0xd8>)
 8009108:	429c      	cmp	r4, r3
 800910a:	bf08      	it	eq
 800910c:	68ec      	ldreq	r4, [r5, #12]
 800910e:	e7e6      	b.n	80090de <__swsetup_r+0x1e>
 8009110:	0758      	lsls	r0, r3, #29
 8009112:	d512      	bpl.n	800913a <__swsetup_r+0x7a>
 8009114:	6b61      	ldr	r1, [r4, #52]	; 0x34
 8009116:	b141      	cbz	r1, 800912a <__swsetup_r+0x6a>
 8009118:	f104 0344 	add.w	r3, r4, #68	; 0x44
 800911c:	4299      	cmp	r1, r3
 800911e:	d002      	beq.n	8009126 <__swsetup_r+0x66>
 8009120:	4630      	mov	r0, r6
 8009122:	f7ff fb7d 	bl	8008820 <_free_r>
 8009126:	2300      	movs	r3, #0
 8009128:	6363      	str	r3, [r4, #52]	; 0x34
 800912a:	89a3      	ldrh	r3, [r4, #12]
 800912c:	f023 0324 	bic.w	r3, r3, #36	; 0x24
 8009130:	81a3      	strh	r3, [r4, #12]
 8009132:	2300      	movs	r3, #0
 8009134:	6063      	str	r3, [r4, #4]
 8009136:	6923      	ldr	r3, [r4, #16]
 8009138:	6023      	str	r3, [r4, #0]
 800913a:	89a3      	ldrh	r3, [r4, #12]
 800913c:	f043 0308 	orr.w	r3, r3, #8
 8009140:	81a3      	strh	r3, [r4, #12]
 8009142:	6923      	ldr	r3, [r4, #16]
 8009144:	b94b      	cbnz	r3, 800915a <__swsetup_r+0x9a>
 8009146:	89a3      	ldrh	r3, [r4, #12]
 8009148:	f403 7320 	and.w	r3, r3, #640	; 0x280
 800914c:	f5b3 7f00 	cmp.w	r3, #512	; 0x200
 8009150:	d003      	beq.n	800915a <__swsetup_r+0x9a>
 8009152:	4621      	mov	r1, r4
 8009154:	4630      	mov	r0, r6
 8009156:	f000 f931 	bl	80093bc <__smakebuf_r>
 800915a:	89a0      	ldrh	r0, [r4, #12]
 800915c:	f9b4 200c 	ldrsh.w	r2, [r4, #12]
 8009160:	f010 0301 	ands.w	r3, r0, #1
 8009164:	d00a      	beq.n	800917c <__swsetup_r+0xbc>
 8009166:	2300      	movs	r3, #0
 8009168:	60a3      	str	r3, [r4, #8]
 800916a:	6963      	ldr	r3, [r4, #20]
 800916c:	425b      	negs	r3, r3
 800916e:	61a3      	str	r3, [r4, #24]
 8009170:	6923      	ldr	r3, [r4, #16]
 8009172:	b943      	cbnz	r3, 8009186 <__swsetup_r+0xc6>
 8009174:	f010 0080 	ands.w	r0, r0, #128	; 0x80
 8009178:	d1ba      	bne.n	80090f0 <__swsetup_r+0x30>
 800917a:	bd70      	pop	{r4, r5, r6, pc}
 800917c:	0781      	lsls	r1, r0, #30
 800917e:	bf58      	it	pl
 8009180:	6963      	ldrpl	r3, [r4, #20]
 8009182:	60a3      	str	r3, [r4, #8]
 8009184:	e7f4      	b.n	8009170 <__swsetup_r+0xb0>
 8009186:	2000      	movs	r0, #0
 8009188:	e7f7      	b.n	800917a <__swsetup_r+0xba>
 800918a:	bf00      	nop
 800918c:	10000014 	.word	0x10000014
 8009190:	0800b58c 	.word	0x0800b58c
 8009194:	0800b5ac 	.word	0x0800b5ac
 8009198:	0800b56c 	.word	0x0800b56c

0800919c <abort>:
 800919c:	b508      	push	{r3, lr}
 800919e:	2006      	movs	r0, #6
 80091a0:	f000 f992 	bl	80094c8 <raise>
 80091a4:	2001      	movs	r0, #1
 80091a6:	f7f7 fb4d 	bl	8000844 <_exit>
	...

080091ac <_close_r>:
 80091ac:	b538      	push	{r3, r4, r5, lr}
 80091ae:	4d06      	ldr	r5, [pc, #24]	; (80091c8 <_close_r+0x1c>)
 80091b0:	2300      	movs	r3, #0
 80091b2:	4604      	mov	r4, r0
 80091b4:	4608      	mov	r0, r1
 80091b6:	602b      	str	r3, [r5, #0]
 80091b8:	f7f7 fb64 	bl	8000884 <_close>
 80091bc:	1c43      	adds	r3, r0, #1
 80091be:	d102      	bne.n	80091c6 <_close_r+0x1a>
 80091c0:	682b      	ldr	r3, [r5, #0]
 80091c2:	b103      	cbz	r3, 80091c6 <_close_r+0x1a>
 80091c4:	6023      	str	r3, [r4, #0]
 80091c6:	bd38      	pop	{r3, r4, r5, pc}
 80091c8:	2000a7b0 	.word	0x2000a7b0

080091cc <__sflush_r>:
 80091cc:	898a      	ldrh	r2, [r1, #12]
 80091ce:	e92d 41f0 	stmdb	sp!, {r4, r5, r6, r7, r8, lr}
 80091d2:	4605      	mov	r5, r0
 80091d4:	0710      	lsls	r0, r2, #28
 80091d6:	460c      	mov	r4, r1
 80091d8:	d458      	bmi.n	800928c <__sflush_r+0xc0>
 80091da:	684b      	ldr	r3, [r1, #4]
 80091dc:	2b00      	cmp	r3, #0
 80091de:	dc05      	bgt.n	80091ec <__sflush_r+0x20>
 80091e0:	6c0b      	ldr	r3, [r1, #64]	; 0x40
 80091e2:	2b00      	cmp	r3, #0
 80091e4:	dc02      	bgt.n	80091ec <__sflush_r+0x20>
 80091e6:	2000      	movs	r0, #0
 80091e8:	e8bd 81f0 	ldmia.w	sp!, {r4, r5, r6, r7, r8, pc}
 80091ec:	6ae6      	ldr	r6, [r4, #44]	; 0x2c
 80091ee:	2e00      	cmp	r6, #0
 80091f0:	d0f9      	beq.n	80091e6 <__sflush_r+0x1a>
 80091f2:	2300      	movs	r3, #0
 80091f4:	f412 5280 	ands.w	r2, r2, #4096	; 0x1000
 80091f8:	682f      	ldr	r7, [r5, #0]
 80091fa:	602b      	str	r3, [r5, #0]
 80091fc:	d032      	beq.n	8009264 <__sflush_r+0x98>
 80091fe:	6d60      	ldr	r0, [r4, #84]	; 0x54
 8009200:	89a3      	ldrh	r3, [r4, #12]
 8009202:	075a      	lsls	r2, r3, #29
 8009204:	d505      	bpl.n	8009212 <__sflush_r+0x46>
 8009206:	6863      	ldr	r3, [r4, #4]
 8009208:	1ac0      	subs	r0, r0, r3
 800920a:	6b63      	ldr	r3, [r4, #52]	; 0x34
 800920c:	b10b      	cbz	r3, 8009212 <__sflush_r+0x46>
 800920e:	6c23      	ldr	r3, [r4, #64]	; 0x40
 8009210:	1ac0      	subs	r0, r0, r3
 8009212:	2300      	movs	r3, #0
 8009214:	4602      	mov	r2, r0
 8009216:	6ae6      	ldr	r6, [r4, #44]	; 0x2c
 8009218:	6a21      	ldr	r1, [r4, #32]
 800921a:	4628      	mov	r0, r5
 800921c:	47b0      	blx	r6
 800921e:	1c43      	adds	r3, r0, #1
 8009220:	89a3      	ldrh	r3, [r4, #12]
 8009222:	d106      	bne.n	8009232 <__sflush_r+0x66>
 8009224:	6829      	ldr	r1, [r5, #0]
 8009226:	291d      	cmp	r1, #29
 8009228:	d82c      	bhi.n	8009284 <__sflush_r+0xb8>
 800922a:	4a2a      	ldr	r2, [pc, #168]	; (80092d4 <__sflush_r+0x108>)
 800922c:	40ca      	lsrs	r2, r1
 800922e:	07d6      	lsls	r6, r2, #31
 8009230:	d528      	bpl.n	8009284 <__sflush_r+0xb8>
 8009232:	2200      	movs	r2, #0
 8009234:	6062      	str	r2, [r4, #4]
 8009236:	04d9      	lsls	r1, r3, #19
 8009238:	6922      	ldr	r2, [r4, #16]
 800923a:	6022      	str	r2, [r4, #0]
 800923c:	d504      	bpl.n	8009248 <__sflush_r+0x7c>
 800923e:	1c42      	adds	r2, r0, #1
 8009240:	d101      	bne.n	8009246 <__sflush_r+0x7a>
 8009242:	682b      	ldr	r3, [r5, #0]
 8009244:	b903      	cbnz	r3, 8009248 <__sflush_r+0x7c>
 8009246:	6560      	str	r0, [r4, #84]	; 0x54
 8009248:	6b61      	ldr	r1, [r4, #52]	; 0x34
 800924a:	602f      	str	r7, [r5, #0]
 800924c:	2900      	cmp	r1, #0
 800924e:	d0ca      	beq.n	80091e6 <__sflush_r+0x1a>
 8009250:	f104 0344 	add.w	r3, r4, #68	; 0x44
 8009254:	4299      	cmp	r1, r3
 8009256:	d002      	beq.n	800925e <__sflush_r+0x92>
 8009258:	4628      	mov	r0, r5
 800925a:	f7ff fae1 	bl	8008820 <_free_r>
 800925e:	2000      	movs	r0, #0
 8009260:	6360      	str	r0, [r4, #52]	; 0x34
 8009262:	e7c1      	b.n	80091e8 <__sflush_r+0x1c>
 8009264:	6a21      	ldr	r1, [r4, #32]
 8009266:	2301      	movs	r3, #1
 8009268:	4628      	mov	r0, r5
 800926a:	47b0      	blx	r6
 800926c:	1c41      	adds	r1, r0, #1
 800926e:	d1c7      	bne.n	8009200 <__sflush_r+0x34>
 8009270:	682b      	ldr	r3, [r5, #0]
 8009272:	2b00      	cmp	r3, #0
 8009274:	d0c4      	beq.n	8009200 <__sflush_r+0x34>
 8009276:	2b1d      	cmp	r3, #29
 8009278:	d001      	beq.n	800927e <__sflush_r+0xb2>
 800927a:	2b16      	cmp	r3, #22
 800927c:	d101      	bne.n	8009282 <__sflush_r+0xb6>
 800927e:	602f      	str	r7, [r5, #0]
 8009280:	e7b1      	b.n	80091e6 <__sflush_r+0x1a>
 8009282:	89a3      	ldrh	r3, [r4, #12]
 8009284:	f043 0340 	orr.w	r3, r3, #64	; 0x40
 8009288:	81a3      	strh	r3, [r4, #12]
 800928a:	e7ad      	b.n	80091e8 <__sflush_r+0x1c>
 800928c:	690f      	ldr	r7, [r1, #16]
 800928e:	2f00      	cmp	r7, #0
 8009290:	d0a9      	beq.n	80091e6 <__sflush_r+0x1a>
 8009292:	0793      	lsls	r3, r2, #30
 8009294:	680e      	ldr	r6, [r1, #0]
 8009296:	bf08      	it	eq
 8009298:	694b      	ldreq	r3, [r1, #20]
 800929a:	600f      	str	r7, [r1, #0]
 800929c:	bf18      	it	ne
 800929e:	2300      	movne	r3, #0
 80092a0:	eba6 0807 	sub.w	r8, r6, r7
 80092a4:	608b      	str	r3, [r1, #8]
 80092a6:	f1b8 0f00 	cmp.w	r8, #0
 80092aa:	dd9c      	ble.n	80091e6 <__sflush_r+0x1a>
 80092ac:	6a21      	ldr	r1, [r4, #32]
 80092ae:	6aa6      	ldr	r6, [r4, #40]	; 0x28
 80092b0:	4643      	mov	r3, r8
 80092b2:	463a      	mov	r2, r7
 80092b4:	4628      	mov	r0, r5
 80092b6:	47b0      	blx	r6
 80092b8:	2800      	cmp	r0, #0
 80092ba:	dc06      	bgt.n	80092ca <__sflush_r+0xfe>
 80092bc:	89a3      	ldrh	r3, [r4, #12]
 80092be:	f043 0340 	orr.w	r3, r3, #64	; 0x40
 80092c2:	81a3      	strh	r3, [r4, #12]
 80092c4:	f04f 30ff 	mov.w	r0, #4294967295
 80092c8:	e78e      	b.n	80091e8 <__sflush_r+0x1c>
 80092ca:	4407      	add	r7, r0
 80092cc:	eba8 0800 	sub.w	r8, r8, r0
 80092d0:	e7e9      	b.n	80092a6 <__sflush_r+0xda>
 80092d2:	bf00      	nop
 80092d4:	20400001 	.word	0x20400001

080092d8 <_fflush_r>:
 80092d8:	b538      	push	{r3, r4, r5, lr}
 80092da:	690b      	ldr	r3, [r1, #16]
 80092dc:	4605      	mov	r5, r0
 80092de:	460c      	mov	r4, r1
 80092e0:	b913      	cbnz	r3, 80092e8 <_fflush_r+0x10>
 80092e2:	2500      	movs	r5, #0
 80092e4:	4628      	mov	r0, r5
 80092e6:	bd38      	pop	{r3, r4, r5, pc}
 80092e8:	b118      	cbz	r0, 80092f2 <_fflush_r+0x1a>
 80092ea:	6983      	ldr	r3, [r0, #24]
 80092ec:	b90b      	cbnz	r3, 80092f2 <_fflush_r+0x1a>
 80092ee:	f7ff f9dd 	bl	80086ac <__sinit>
 80092f2:	4b14      	ldr	r3, [pc, #80]	; (8009344 <_fflush_r+0x6c>)
 80092f4:	429c      	cmp	r4, r3
 80092f6:	d11b      	bne.n	8009330 <_fflush_r+0x58>
 80092f8:	686c      	ldr	r4, [r5, #4]
 80092fa:	f9b4 300c 	ldrsh.w	r3, [r4, #12]
 80092fe:	2b00      	cmp	r3, #0
 8009300:	d0ef      	beq.n	80092e2 <_fflush_r+0xa>
 8009302:	6e62      	ldr	r2, [r4, #100]	; 0x64
 8009304:	07d0      	lsls	r0, r2, #31
 8009306:	d404      	bmi.n	8009312 <_fflush_r+0x3a>
 8009308:	0599      	lsls	r1, r3, #22
 800930a:	d402      	bmi.n	8009312 <_fflush_r+0x3a>
 800930c:	6da0      	ldr	r0, [r4, #88]	; 0x58
 800930e:	f7ff fa7d 	bl	800880c <__retarget_lock_acquire_recursive>
 8009312:	4628      	mov	r0, r5
 8009314:	4621      	mov	r1, r4
 8009316:	f7ff ff59 	bl	80091cc <__sflush_r>
 800931a:	6e63      	ldr	r3, [r4, #100]	; 0x64
 800931c:	07da      	lsls	r2, r3, #31
 800931e:	4605      	mov	r5, r0
 8009320:	d4e0      	bmi.n	80092e4 <_fflush_r+0xc>
 8009322:	89a3      	ldrh	r3, [r4, #12]
 8009324:	059b      	lsls	r3, r3, #22
 8009326:	d4dd      	bmi.n	80092e4 <_fflush_r+0xc>
 8009328:	6da0      	ldr	r0, [r4, #88]	; 0x58
 800932a:	f7ff fa70 	bl	800880e <__retarget_lock_release_recursive>
 800932e:	e7d9      	b.n	80092e4 <_fflush_r+0xc>
 8009330:	4b05      	ldr	r3, [pc, #20]	; (8009348 <_fflush_r+0x70>)
 8009332:	429c      	cmp	r4, r3
 8009334:	d101      	bne.n	800933a <_fflush_r+0x62>
 8009336:	68ac      	ldr	r4, [r5, #8]
 8009338:	e7df      	b.n	80092fa <_fflush_r+0x22>
 800933a:	4b04      	ldr	r3, [pc, #16]	; (800934c <_fflush_r+0x74>)
 800933c:	429c      	cmp	r4, r3
 800933e:	bf08      	it	eq
 8009340:	68ec      	ldreq	r4, [r5, #12]
 8009342:	e7da      	b.n	80092fa <_fflush_r+0x22>
 8009344:	0800b58c 	.word	0x0800b58c
 8009348:	0800b5ac 	.word	0x0800b5ac
 800934c:	0800b56c 	.word	0x0800b56c

08009350 <_lseek_r>:
 8009350:	b538      	push	{r3, r4, r5, lr}
 8009352:	4d07      	ldr	r5, [pc, #28]	; (8009370 <_lseek_r+0x20>)
 8009354:	4604      	mov	r4, r0
 8009356:	4608      	mov	r0, r1
 8009358:	4611      	mov	r1, r2
 800935a:	2200      	movs	r2, #0
 800935c:	602a      	str	r2, [r5, #0]
 800935e:	461a      	mov	r2, r3
 8009360:	f7f7 fa9a 	bl	8000898 <_lseek>
 8009364:	1c43      	adds	r3, r0, #1
 8009366:	d102      	bne.n	800936e <_lseek_r+0x1e>
 8009368:	682b      	ldr	r3, [r5, #0]
 800936a:	b103      	cbz	r3, 800936e <_lseek_r+0x1e>
 800936c:	6023      	str	r3, [r4, #0]
 800936e:	bd38      	pop	{r3, r4, r5, pc}
 8009370:	2000a7b0 	.word	0x2000a7b0

08009374 <__swhatbuf_r>:
 8009374:	b570      	push	{r4, r5, r6, lr}
 8009376:	460e      	mov	r6, r1
 8009378:	f9b1 100e 	ldrsh.w	r1, [r1, #14]
 800937c:	2900      	cmp	r1, #0
 800937e:	b096      	sub	sp, #88	; 0x58
 8009380:	4614      	mov	r4, r2
 8009382:	461d      	mov	r5, r3
 8009384:	da07      	bge.n	8009396 <__swhatbuf_r+0x22>
 8009386:	2300      	movs	r3, #0
 8009388:	602b      	str	r3, [r5, #0]
 800938a:	89b3      	ldrh	r3, [r6, #12]
 800938c:	061a      	lsls	r2, r3, #24
 800938e:	d410      	bmi.n	80093b2 <__swhatbuf_r+0x3e>
 8009390:	f44f 6380 	mov.w	r3, #1024	; 0x400
 8009394:	e00e      	b.n	80093b4 <__swhatbuf_r+0x40>
 8009396:	466a      	mov	r2, sp
 8009398:	f000 f8b2 	bl	8009500 <_fstat_r>
 800939c:	2800      	cmp	r0, #0
 800939e:	dbf2      	blt.n	8009386 <__swhatbuf_r+0x12>
 80093a0:	9a01      	ldr	r2, [sp, #4]
 80093a2:	f402 4270 	and.w	r2, r2, #61440	; 0xf000
 80093a6:	f5a2 5300 	sub.w	r3, r2, #8192	; 0x2000
 80093aa:	425a      	negs	r2, r3
 80093ac:	415a      	adcs	r2, r3
 80093ae:	602a      	str	r2, [r5, #0]
 80093b0:	e7ee      	b.n	8009390 <__swhatbuf_r+0x1c>
 80093b2:	2340      	movs	r3, #64	; 0x40
 80093b4:	2000      	movs	r0, #0
 80093b6:	6023      	str	r3, [r4, #0]
 80093b8:	b016      	add	sp, #88	; 0x58
 80093ba:	bd70      	pop	{r4, r5, r6, pc}

080093bc <__smakebuf_r>:
 80093bc:	898b      	ldrh	r3, [r1, #12]
 80093be:	b573      	push	{r0, r1, r4, r5, r6, lr}
 80093c0:	079d      	lsls	r5, r3, #30
 80093c2:	4606      	mov	r6, r0
 80093c4:	460c      	mov	r4, r1
 80093c6:	d507      	bpl.n	80093d8 <__smakebuf_r+0x1c>
 80093c8:	f104 0347 	add.w	r3, r4, #71	; 0x47
 80093cc:	6023      	str	r3, [r4, #0]
 80093ce:	6123      	str	r3, [r4, #16]
 80093d0:	2301      	movs	r3, #1
 80093d2:	6163      	str	r3, [r4, #20]
 80093d4:	b002      	add	sp, #8
 80093d6:	bd70      	pop	{r4, r5, r6, pc}
 80093d8:	ab01      	add	r3, sp, #4
 80093da:	466a      	mov	r2, sp
 80093dc:	f7ff ffca 	bl	8009374 <__swhatbuf_r>
 80093e0:	9900      	ldr	r1, [sp, #0]
 80093e2:	4605      	mov	r5, r0
 80093e4:	4630      	mov	r0, r6
 80093e6:	f7ff fa6b 	bl	80088c0 <_malloc_r>
 80093ea:	b948      	cbnz	r0, 8009400 <__smakebuf_r+0x44>
 80093ec:	f9b4 300c 	ldrsh.w	r3, [r4, #12]
 80093f0:	059a      	lsls	r2, r3, #22
 80093f2:	d4ef      	bmi.n	80093d4 <__smakebuf_r+0x18>
 80093f4:	f023 0303 	bic.w	r3, r3, #3
 80093f8:	f043 0302 	orr.w	r3, r3, #2
 80093fc:	81a3      	strh	r3, [r4, #12]
 80093fe:	e7e3      	b.n	80093c8 <__smakebuf_r+0xc>
 8009400:	4b0d      	ldr	r3, [pc, #52]	; (8009438 <__smakebuf_r+0x7c>)
 8009402:	62b3      	str	r3, [r6, #40]	; 0x28
 8009404:	89a3      	ldrh	r3, [r4, #12]
 8009406:	6020      	str	r0, [r4, #0]
 8009408:	f043 0380 	orr.w	r3, r3, #128	; 0x80
 800940c:	81a3      	strh	r3, [r4, #12]
 800940e:	9b00      	ldr	r3, [sp, #0]
 8009410:	6163      	str	r3, [r4, #20]
 8009412:	9b01      	ldr	r3, [sp, #4]
 8009414:	6120      	str	r0, [r4, #16]
 8009416:	b15b      	cbz	r3, 8009430 <__smakebuf_r+0x74>
 8009418:	f9b4 100e 	ldrsh.w	r1, [r4, #14]
 800941c:	4630      	mov	r0, r6
 800941e:	f000 f881 	bl	8009524 <_isatty_r>
 8009422:	b128      	cbz	r0, 8009430 <__smakebuf_r+0x74>
 8009424:	89a3      	ldrh	r3, [r4, #12]
 8009426:	f023 0303 	bic.w	r3, r3, #3
 800942a:	f043 0301 	orr.w	r3, r3, #1
 800942e:	81a3      	strh	r3, [r4, #12]
 8009430:	89a0      	ldrh	r0, [r4, #12]
 8009432:	4305      	orrs	r5, r0
 8009434:	81a5      	strh	r5, [r4, #12]
 8009436:	e7cd      	b.n	80093d4 <__smakebuf_r+0x18>
 8009438:	08008645 	.word	0x08008645

0800943c <__malloc_lock>:
 800943c:	4801      	ldr	r0, [pc, #4]	; (8009444 <__malloc_lock+0x8>)
 800943e:	f7ff b9e5 	b.w	800880c <__retarget_lock_acquire_recursive>
 8009442:	bf00      	nop
 8009444:	2000a7b8 	.word	0x2000a7b8

08009448 <__malloc_unlock>:
 8009448:	4801      	ldr	r0, [pc, #4]	; (8009450 <__malloc_unlock+0x8>)
 800944a:	f7ff b9e0 	b.w	800880e <__retarget_lock_release_recursive>
 800944e:	bf00      	nop
 8009450:	2000a7b8 	.word	0x2000a7b8

08009454 <_read_r>:
 8009454:	b538      	push	{r3, r4, r5, lr}
 8009456:	4d07      	ldr	r5, [pc, #28]	; (8009474 <_read_r+0x20>)
 8009458:	4604      	mov	r4, r0
 800945a:	4608      	mov	r0, r1
 800945c:	4611      	mov	r1, r2
 800945e:	2200      	movs	r2, #0
 8009460:	602a      	str	r2, [r5, #0]
 8009462:	461a      	mov	r2, r3
 8009464:	f7f7 f9f4 	bl	8000850 <_read>
 8009468:	1c43      	adds	r3, r0, #1
 800946a:	d102      	bne.n	8009472 <_read_r+0x1e>
 800946c:	682b      	ldr	r3, [r5, #0]
 800946e:	b103      	cbz	r3, 8009472 <_read_r+0x1e>
 8009470:	6023      	str	r3, [r4, #0]
 8009472:	bd38      	pop	{r3, r4, r5, pc}
 8009474:	2000a7b0 	.word	0x2000a7b0

08009478 <_raise_r>:
 8009478:	291f      	cmp	r1, #31
 800947a:	b538      	push	{r3, r4, r5, lr}
 800947c:	4604      	mov	r4, r0
 800947e:	460d      	mov	r5, r1
 8009480:	d904      	bls.n	800948c <_raise_r+0x14>
 8009482:	2316      	movs	r3, #22
 8009484:	6003      	str	r3, [r0, #0]
 8009486:	f04f 30ff 	mov.w	r0, #4294967295
 800948a:	bd38      	pop	{r3, r4, r5, pc}
 800948c:	6c42      	ldr	r2, [r0, #68]	; 0x44
 800948e:	b112      	cbz	r2, 8009496 <_raise_r+0x1e>
 8009490:	f852 3021 	ldr.w	r3, [r2, r1, lsl #2]
 8009494:	b94b      	cbnz	r3, 80094aa <_raise_r+0x32>
 8009496:	4620      	mov	r0, r4
 8009498:	f000 f830 	bl	80094fc <_getpid_r>
 800949c:	462a      	mov	r2, r5
 800949e:	4601      	mov	r1, r0
 80094a0:	4620      	mov	r0, r4
 80094a2:	e8bd 4038 	ldmia.w	sp!, {r3, r4, r5, lr}
 80094a6:	f000 b817 	b.w	80094d8 <_kill_r>
 80094aa:	2b01      	cmp	r3, #1
 80094ac:	d00a      	beq.n	80094c4 <_raise_r+0x4c>
 80094ae:	1c59      	adds	r1, r3, #1
 80094b0:	d103      	bne.n	80094ba <_raise_r+0x42>
 80094b2:	2316      	movs	r3, #22
 80094b4:	6003      	str	r3, [r0, #0]
 80094b6:	2001      	movs	r0, #1
 80094b8:	e7e7      	b.n	800948a <_raise_r+0x12>
 80094ba:	2400      	movs	r4, #0
 80094bc:	f842 4025 	str.w	r4, [r2, r5, lsl #2]
 80094c0:	4628      	mov	r0, r5
 80094c2:	4798      	blx	r3
 80094c4:	2000      	movs	r0, #0
 80094c6:	e7e0      	b.n	800948a <_raise_r+0x12>

080094c8 <raise>:
 80094c8:	4b02      	ldr	r3, [pc, #8]	; (80094d4 <raise+0xc>)
 80094ca:	4601      	mov	r1, r0
 80094cc:	6818      	ldr	r0, [r3, #0]
 80094ce:	f7ff bfd3 	b.w	8009478 <_raise_r>
 80094d2:	bf00      	nop
 80094d4:	10000014 	.word	0x10000014

080094d8 <_kill_r>:
 80094d8:	b538      	push	{r3, r4, r5, lr}
 80094da:	4d07      	ldr	r5, [pc, #28]	; (80094f8 <_kill_r+0x20>)
 80094dc:	2300      	movs	r3, #0
 80094de:	4604      	mov	r4, r0
 80094e0:	4608      	mov	r0, r1
 80094e2:	4611      	mov	r1, r2
 80094e4:	602b      	str	r3, [r5, #0]
 80094e6:	f7f7 f9a5 	bl	8000834 <_kill>
 80094ea:	1c43      	adds	r3, r0, #1
 80094ec:	d102      	bne.n	80094f4 <_kill_r+0x1c>
 80094ee:	682b      	ldr	r3, [r5, #0]
 80094f0:	b103      	cbz	r3, 80094f4 <_kill_r+0x1c>
 80094f2:	6023      	str	r3, [r4, #0]
 80094f4:	bd38      	pop	{r3, r4, r5, pc}
 80094f6:	bf00      	nop
 80094f8:	2000a7b0 	.word	0x2000a7b0

080094fc <_getpid_r>:
 80094fc:	f7f7 b998 	b.w	8000830 <_getpid>

08009500 <_fstat_r>:
 8009500:	b538      	push	{r3, r4, r5, lr}
 8009502:	4d07      	ldr	r5, [pc, #28]	; (8009520 <_fstat_r+0x20>)
 8009504:	2300      	movs	r3, #0
 8009506:	4604      	mov	r4, r0
 8009508:	4608      	mov	r0, r1
 800950a:	4611      	mov	r1, r2
 800950c:	602b      	str	r3, [r5, #0]
 800950e:	f7f7 f9bc 	bl	800088a <_fstat>
 8009512:	1c43      	adds	r3, r0, #1
 8009514:	d102      	bne.n	800951c <_fstat_r+0x1c>
 8009516:	682b      	ldr	r3, [r5, #0]
 8009518:	b103      	cbz	r3, 800951c <_fstat_r+0x1c>
 800951a:	6023      	str	r3, [r4, #0]
 800951c:	bd38      	pop	{r3, r4, r5, pc}
 800951e:	bf00      	nop
 8009520:	2000a7b0 	.word	0x2000a7b0

08009524 <_isatty_r>:
 8009524:	b538      	push	{r3, r4, r5, lr}
 8009526:	4d06      	ldr	r5, [pc, #24]	; (8009540 <_isatty_r+0x1c>)
 8009528:	2300      	movs	r3, #0
 800952a:	4604      	mov	r4, r0
 800952c:	4608      	mov	r0, r1
 800952e:	602b      	str	r3, [r5, #0]
 8009530:	f7f7 f9b0 	bl	8000894 <_isatty>
 8009534:	1c43      	adds	r3, r0, #1
 8009536:	d102      	bne.n	800953e <_isatty_r+0x1a>
 8009538:	682b      	ldr	r3, [r5, #0]
 800953a:	b103      	cbz	r3, 800953e <_isatty_r+0x1a>
 800953c:	6023      	str	r3, [r4, #0]
 800953e:	bd38      	pop	{r3, r4, r5, pc}
 8009540:	2000a7b0 	.word	0x2000a7b0

08009544 <_init>:
 8009544:	b5f8      	push	{r3, r4, r5, r6, r7, lr}
 8009546:	bf00      	nop
 8009548:	bcf8      	pop	{r3, r4, r5, r6, r7}
 800954a:	bc08      	pop	{r3}
 800954c:	469e      	mov	lr, r3
 800954e:	4770      	bx	lr

08009550 <_fini>:
 8009550:	b5f8      	push	{r3, r4, r5, r6, r7, lr}
 8009552:	bf00      	nop
 8009554:	bcf8      	pop	{r3, r4, r5, r6, r7}
 8009556:	bc08      	pop	{r3}
 8009558:	469e      	mov	lr, r3
 800955a:	4770      	bx	lr
